 FrmVC6

 Timestamp is 590ad010 (Thu May 04 15:54:08 2017)

 Preferred load address is 0000000140000000

 Start         Length     Name                   Class
 0001:00000000 000000ecH .text$di                CODE
 0001:000000f0 0001f698H .text$mn                CODE
 0001:0001f790 0000077fH .text$x                 CODE
 0001:0001ff10 00000234H .text$yd                CODE
 0002:00000000 000006e8H .idata$5                DATA
 0002:000006e8 00000008H .CRT$XCA                DATA
 0002:000006f0 00000008H .CRT$XCL                DATA
 0002:000006f8 00000030H .CRT$XCU                DATA
 0002:00000728 00000008H .CRT$XCZ                DATA
 0002:00000730 00000008H .CRT$XIA                DATA
 0002:00000738 00000020H .CRT$XIC                DATA
 0002:00000758 00000008H .CRT$XIY                DATA
 0002:00000760 00000008H .CRT$XIZ                DATA
 0002:00000768 00000008H .CRT$XPA                DATA
 0002:00000770 00000010H .CRT$XPX                DATA
 0002:00000780 00000008H .CRT$XPXA               DATA
 0002:00000788 00000008H .CRT$XPZ                DATA
 0002:00000790 00000008H .CRT$XTA                DATA
 0002:00000798 00000008H .CRT$XTZ                DATA
 0002:000007a0 000074a0H .rdata                  DATA
 0002:00007c40 0000141cH .rdata$r                DATA
 0002:00009060 00000008H .rtc$IAA                DATA
 0002:00009068 00000008H .rtc$IZZ                DATA
 0002:00009070 00000008H .rtc$TAA                DATA
 0002:00009078 00000008H .rtc$TZZ                DATA
 0002:00009080 00002c88H .xdata                  DATA
 0002:0000bd08 0000013cH .xdata$x                DATA
 0002:0000be48 00000000H ATL$__a                 DATA
 0002:0000be48 00000000H ATL$__z                 DATA
 0002:0000be48 00000000H .edata                  DATA
 0002:0000be48 00000078H .idata$2                DATA
 0002:0000bec0 00000014H .idata$3                DATA
 0002:0000bed8 000006e8H .idata$4                DATA
 0002:0000c5c0 00000eb4H .idata$6                DATA
 0003:00000000 00001730H .data                   DATA
 0003:00001730 00000630H .data$r                 DATA
 0003:00001d60 000027f8H .bss                    DATA
 0004:00000000 000023c4H .pdata                  DATA
 0005:00000000 00000df0H .rsrc$01                DATA
 0005:00000df0 00003d20H .rsrc$02                DATA

  Address         Publics by Value              Rva+Base               Lib:Object

 0000:00000000       ___safe_se_handler_count   0000000000000000     <absolute>
 0000:00000000       __guard_fids_table         0000000000000000     <absolute>
 0000:00000000       __guard_fids_count         0000000000000000     <absolute>
 0000:00000000       __guard_flags              0000000000000000     <absolute>
 0000:00000000       ___safe_se_handler_table   0000000000000000     <absolute>
 0000:00000000       __ImageBase                0000000140000000     <linker-defined>
 0001:000000f0       ??_ECChildView@@UEAAPEAXI@Z 00000001400010f0 f i * CIL library *:* CIL module *
 0001:000000f0       ??_GCChildView@@UEAAPEAXI@Z 00000001400010f0 f i ChildView.obj
 0001:00000130       ?_ProcessWindowMessage@CChildView@@UEAAHPEAUHWND__@@I_K_JAEA_J@Z 0000000140001130 f i ChildView.obj
 0001:00000160       ?PreCreateWindow@CChildView@@MEAAHAEAUtagCREATESTRUCTA@@@Z 0000000140001160 f   ChildView.obj
 0001:000001f0       ?OnPaint@CChildView@@IEAAXXZ 00000001400011f0 f   ChildView.obj
 0001:000002c0       ??1CPaintDCMTL@@UEAA@XZ    00000001400012c0 f i ChildView.obj
 0001:00000340       ??_GCPaintDCMTL@@UEAAPEAXI@Z 0000000140001340 f i ChildView.obj
 0001:00000340       ??_ECPaintDCMTL@@UEAAPEAXI@Z 0000000140001340 f i * CIL library *:* CIL module *
 0001:00000370       ?AfxRegisterWndClass@CAfx@@SAPEBDIPEAUHICON__@@PEAUHBRUSH__@@0@Z 0000000140001370 f i ChildView.obj
 0001:00000500       ??_ECWnd@@UEAAPEAXI@Z      0000000140001500 f i * CIL library *:* CIL module *
 0001:00000500       ??_ECDialog@@UEAAPEAXI@Z   0000000140001500 f i * CIL library *:* CIL module *
 0001:00000500       ??_GCDialog@@UEAAPEAXI@Z   0000000140001500 f i FrmVC6.obj
 0001:00000500       ??_GCWnd@@UEAAPEAXI@Z      0000000140001500 f i ChildView.obj
 0001:00000500       ??_ECAboutDlg@@UEAAPEAXI@Z 0000000140001500 f i * CIL library *:* CIL module *
 0001:00000500       ??_GCAboutDlg@@UEAAPEAXI@Z 0000000140001500 f i FrmVC6.obj
 0001:00000530       ?WindowProc@CWnd@@UEAA_JI_K_J@Z 0000000140001530 f i ChildView.obj
 0001:000005a0       ?PreTranslateMessage@CWnd@@UEAAHPEAUtagMSG@@@Z 00000001400015a0 f i ChildView.obj
 0001:000005e0       ?_AfxTopChildWindowFromPoint@CWnd@@SAPEAUHWND__@@PEAU2@UtagPOINT@@@Z 00000001400015e0 f i ChildView.obj
 0001:000006d0       ?OnToolHitTest@CWnd@@UEBA_JVCPoint@WTL@@PEAUtagTOOLINFOA@@@Z 00000001400016d0 f i ChildView.obj
 0001:00000780       ?FromHandlePermanent@CWnd@@SAPEAV1@PEAUHWND__@@@Z 0000000140001780 f i ChildView.obj
 0001:000007f0       ?GetParent@CWnd@@QEAAPEAV1@XZ 00000001400017f0 f i ChildView.obj
 0001:00000970       ?Enable@CCmdUI@@UEAAXH@Z   0000000140001970 f i ChildView.obj
 0001:00000a20       ?SetCheck@CCmdUI@@UEAAXH@Z 0000000140001a20 f i ChildView.obj
 0001:00000ab0       ?SetRadio@CCmdUI@@UEAAXH@Z 0000000140001ab0 f i ChildView.obj
 0001:00000b10       ?AfxSetWindowText@CAfx@@SAXPEAUHWND__@@PEBD@Z 0000000140001b10 f i ChildView.obj
 0001:00000ba0       ?SetText@CCmdUI@@UEAAXPEBD@Z 0000000140001ba0 f i ChildView.obj
 0001:00000c20       ?Enable@CTestCmdUI@@UEAAXH@Z 0000000140001c20 f i ChildView.obj
 0001:00000c30       ?OnFileNew@CWinApp@@UEAAXXZ 0000000140001c30 f i FrmVC6.obj
 0001:00000c30       ?OnShowMenuBar@CFrameWnd@@UEAAXXZ 0000000140001c30 f i MainFrm.obj
 0001:00000c30       ?SetText@CToolCmdUI@@UEAAXPEBD@Z 0000000140001c30 f i MainFrm.obj
 0001:00000c30       ?Serialize@CObject@@UEAAXAEAVCArchive@@@Z 0000000140001c30 f i ChildView.obj
 0001:00000c30       ?PostNcDestroy@CWMHnd@@UEAAXXZ 0000000140001c30 f i ChildView.obj
 0001:00000c30       ?DoDataExchange@CAboutDlg@@MEAAXPEAVCDataExchange@@@Z 0000000140001c30 f i FrmVC6.obj
 0001:00000c30       ?OnFileOpen@CWinApp@@UEAAXXZ 0000000140001c30 f i FrmVC6.obj
 0001:00000c30       ?SetText@CTestCmdUI@@UEAAXPEBD@Z 0000000140001c30 f i ChildView.obj
 0001:00000c30       ?SetRadio@CTestCmdUI@@UEAAXH@Z 0000000140001c30 f i ChildView.obj
 0001:00000c30       ?SetCheck@CTestCmdUI@@UEAAXH@Z 0000000140001c30 f i ChildView.obj
 0001:00000c30       ?OnBarStyleChange@CControlBar@@UEAAXKK@Z 0000000140001c30 f i MainFrm.obj
 0001:00000c30       ?OnHideMenuBar@CFrameWnd@@UEAAXXZ 0000000140001c30 f i MainFrm.obj
 0001:00000c30       ?DoDataExchange@CWMHnd@@UEAAXPEAVCDataExchange@@@Z 0000000140001c30 f i ChildView.obj
 0001:00000c40       ?OnCommand@CWnd@@UEAAH_K_J@Z 0000000140001c40 f i ChildView.obj
 0001:00000d40       ??_ECDCMTL@@UEAAPEAXI@Z    0000000140001d40 f i * CIL library *:* CIL module *
 0001:00000d40       ??_GCDCMTL@@UEAAPEAXI@Z    0000000140001d40 f i ChildView.obj
 0001:00000dc0       ?SetAttribDC@CDCMTL@@UEAAXPEAUHDC__@@@Z 0000000140001dc0 f i ChildView.obj
 0001:00000dd0       ?ReleaseAttribDC@CDCMTL@@UEAAXXZ 0000000140001dd0 f i ChildView.obj
 0001:00000de0       ?SaveDC@CDCMTL@@UEAAHXZ    0000000140001de0 f i ChildView.obj
 0001:00000e30       ?RestoreDC@CDCMTL@@UEAAHH@Z 0000000140001e30 f i ChildView.obj
 0001:00000e90       ?TextOutA@CDCMTL@@UEAAHHHPEBDH@Z 0000000140001e90 f i ChildView.obj
 0001:00000ea0       ??1?$CDCT@$00@WTL@@QEAA@XZ 0000000140001ea0 f i ChildView.obj
 0001:00000ec0       ?RemoveHandle@?$CHandleList@PEAUHDC__@@VCDCMTL@@PEAUHWND__@@@@QEAAPEAUHDC__@@QEAU2@@Z 0000000140001ec0 f i ChildView.obj
 0001:00000ec0       ?RemoveHandle@?$CHandleList@PEAUHMENU__@@VCMenuMTL@@PEAUHWND__@@@@QEAAPEAUHMENU__@@QEAU2@@Z 0000000140001ec0 f i ChildView.obj
 0001:00000f40       ??1CDCMTL@@UEAA@XZ         0000000140001f40 f i ChildView.obj
 0001:00000fb0       ?DestroyWindow@CWnd@@UEAAHXZ 0000000140001fb0 f i ChildView.obj
 0001:00000fb0       ?DestroyWindow@CWMHnd@@UEAAHXZ 0000000140001fb0 f i ChildView.obj
 0001:00000fd0       ??1CWnd@@UEAA@XZ           0000000140001fd0 f i ChildView.obj
 0001:000010a0       ?classHandleFuncCWnd@CWnd@@SAPEAXPEAX0@Z 00000001400020a0 f i ChildView.obj
 0001:00001130       ?UnsubclassWindow@CWMHnd@@QEAAPEAUHWND__@@XZ 0000000140002130 f i ChildView.obj
 0001:000011b0       ?OnNcDestroy@CWnd@@QEAAXXZ 00000001400021b0 f i ChildView.obj
 0001:00001290       ?_ProcessWindowMessage@CWnd@@UEAAHPEAUHWND__@@I_K_JAEA_J@Z 0000000140002290 f i ChildView.obj
 0001:000015b0       ?OnWndMsg@CWnd@@UEAAHI_K_JPEA_J@Z 00000001400025b0 f i ChildView.obj
 0001:00001650       ?ReflectChildNotify@CWnd@@QEAAHI_K_JPEA_J@Z 0000000140002650 f i ChildView.obj
 0001:00001790       ?OnChildNotify@CWnd@@UEAAHI_K_JPEA_J@Z 0000000140002790 f i ChildView.obj
 0001:000017a0       ?ReflectLastMsg@CWnd@@SAHPEAUHWND__@@PEA_J@Z 00000001400027a0 f i ChildView.obj
 0001:00001860       ?OnNotify@CWnd@@UEAAH_K_JPEA_J@Z 0000000140002860 f i ChildView.obj
 0001:00001910       ?Create@CWnd@@UEAAHPEBD0KAEBUtagRECT@@PEAV1@IPEAUCCreateContext@@@Z 0000000140002910 f i ChildView.obj
 0001:000019d0       ?AtlWinModuleExtractCreateWndData@ATL@@YAPEAXPEAU_ATL_WIN_MODULE70@1@@Z 00000001400029d0 f i ChildView.obj
 0001:00001a50       ?AtlWinModuleTerm@ATL@@YAJPEAU_ATL_WIN_MODULE70@1@PEAUHINSTANCE__@@@Z 0000000140002a50 f i ChildView.obj
 0001:00001b30       ?_AtlInitializeCriticalSectionEx@ATL@@YAHPEAU_RTL_CRITICAL_SECTION@@KK@Z 0000000140002b30 f i ChildView.obj
 0001:00001b40       ??0CAtlWinModule@ATL@@QEAA@XZ 0000000140002b40 f i ChildView.obj
 0001:00001be0       ?Init@CDynamicStdCallThunk@ATL@@QEAAH_KPEAX@Z 0000000140002be0 f i ChildView.obj
 0001:00001c70       ?AfxWindowProc@CWMHnd@@SA_JPEAUHWND__@@I_K_J@Z 0000000140002c70 f i ChildView.obj
 0001:00001cd0       ?FromHandle@?$CHandleHashList@PEAUHWND__@@VCWMHnd@@PEAU1@$0BB@@@QEAAPEAVCWMHnd@@QEAUHWND__@@PEAV2@0Q6APEAXPEAX2@Z@Z 0000000140002cd0 f i ChildView.obj
 0001:00001e10       ?PreTranslateMessage@CWMHnd@@UEAAHPEAUtagMSG@@@Z 0000000140002e10 f i ChildView.obj
 0001:00001e10       ?IsFrameWnd@CWMHnd@@UEAAHXZ 0000000140002e10 f i ChildView.obj
 0001:00001e10       ?ExitInstance@CWinApp@@UEAAHXZ 0000000140002e10 f i FrmVC6.obj
 0001:00001e10       ?GetScrollBarCtrl@CWMHnd@@UEBAPEAVCScrollBarMTL@@H@Z 0000000140002e10 f i ChildView.obj
 0001:00001e10       ?OpenDocumentFile@CWinApp@@UEAAPEAVCDocument@@PEBD@Z 0000000140002e10 f i FrmVC6.obj
 0001:00001e10       ?IsDockBar@CControlBar@@UEBAHXZ 0000000140002e10 f i MainFrm.obj
 0001:00001e10       ?_ProcessWindowMessage@CCmdTarget@@UEAAHPEAUHWND__@@I_K_JAEA_J@Z 0000000140002e10 f i ChildView.obj
 0001:00001e20       ?OnCmdMsg@CCmdTarget@@UEAAHIHPEAXPEAUAFX_CMDHANDLERINFO@@@Z 0000000140002e20 f i ChildView.obj
 0001:00001f70       ??_GCWMHnd@@UEAAPEAXI@Z    0000000140002f70 f i ChildView.obj
 0001:00001f70       ??_ECWMHnd@@UEAAPEAXI@Z    0000000140002f70 f i * CIL library *:* CIL module *
 0001:00001ff0       ?WindowProc@CWMHnd@@UEAA_JI_K_J@Z 0000000140002ff0 f i ChildView.obj
 0001:00002000       ?CalcWindowRect@CWMHnd@@UEAAXPEAUtagRECT@@I@Z 0000000140003000 f i ChildView.obj
 0001:00002070       ?EnableWindow@CWMHnd@@UEAAXH@Z 0000000140003070 f i ChildView.obj
 0001:00002090       ?FromHandle@?$CHandleList@PEAUHMENU__@@VCMenuMTL@@PEAUHWND__@@@@QEAAPEAVCMenuMTL@@QEAUHMENU__@@PEAV2@QEAUHWND__@@Q6APEAXPEAX3@Z@Z 0000000140003090 f i ChildView.obj
 0001:00002170       ??_ECMenuMTL@@UEAAPEAXI@Z  0000000140003170 f i * CIL library *:* CIL module *
 0001:00002170       ??_GCMenuMTL@@UEAAPEAXI@Z  0000000140003170 f i ChildView.obj
 0001:00002200       ??1?$CMenuT@$00@WTL@@QEAA@XZ 0000000140003200 f i ChildView.obj
 0001:00002230       ??1CMenuMTL@@UEAA@XZ       0000000140003230 f i ChildView.obj
 0001:000022a0       ?classHandleFuncCMenuMTL@CMenuMTL@@SAPEAXPEAX0@Z 00000001400032a0 f i ChildView.obj
 0001:00002300       ?GetMenu@CWMHnd@@UEBAPEAVCMenuMTL@@XZ 0000000140003300 f i ChildView.obj
 0001:00002340       ?SetMenu@CWMHnd@@UEAAHPEAVCMenuMTL@@@Z 0000000140003340 f i ChildView.obj
 0001:00002360       ?GetCurrentMessage@CCmdTarget@@UEBAPEBU_ATL_MSG@ATL@@XZ 0000000140003360 f i ChildView.obj
 0001:00002370       ?DefWindowProcA@CWMHnd@@UEAA_JI_K_J@Z 0000000140003370 f i ChildView.obj
 0001:000023a0       ?OnInitDialog@CWMHnd@@UEAAHXZ 00000001400033a0 f i ChildView.obj
 0001:000023d0       ??1CWndProcThunk@ATL@@QEAA@XZ 00000001400033d0 f i ChildView.obj
 0001:000023e0       ?RemoveHandle@?$CHandleHashList@PEAUHWND__@@VCWMHnd@@PEAU1@$0BB@@@QEAAPEAUHWND__@@QEAU2@@Z 00000001400033e0 f i ChildView.obj
 0001:000024a0       ?RemoveOwner@?$CHandleHashList@PEAUHWND__@@VCWMHnd@@PEAU1@$0BB@@@QEAAHQEAUHWND__@@@Z 00000001400034a0 f i ChildView.obj
 0001:00002560       ?RemoveOwner@?$CHandleList@PEAUHDC__@@VCDCMTL@@PEAUHWND__@@@@QEAAHQEAUHWND__@@@Z 0000000140003560 f i ChildView.obj
 0001:00002560       ?RemoveOwner@?$CHandleList@PEAXXPEAUHWND__@@@@QEAAHQEAUHWND__@@@Z 0000000140003560 f i ChildView.obj
 0001:00002560       ?RemoveOwner@?$CHandleList@PEAXVCGdiObject@@PEAUHWND__@@@@QEAAHQEAUHWND__@@@Z 0000000140003560 f i ChildView.obj
 0001:00002560       ?RemoveOwner@?$CHandleList@PEAUHMENU__@@VCMenuMTL@@PEAUHWND__@@@@QEAAHQEAUHWND__@@@Z 0000000140003560 f i ChildView.obj
 0001:000025f0       ?RemoveHandleWnd@CModuleThreadState@@QEAAPEAUHWND__@@PEAU2@@Z 00000001400035f0 f i ChildView.obj
 0001:00002690       ?classHandleFuncCWMHnd@CWMHnd@@SAPEAXPEAX0@Z 0000000140003690 f i ChildView.obj
 0001:00002710       ?SubclassWindow@CWMHnd@@QEAAHPEAUHWND__@@PEAUtagCREATESTRUCTA@@@Z 0000000140003710 f i ChildView.obj
 0001:000027c0       ?CbtFilterHook@CWnd@@SA_JH_K_J@Z 00000001400037c0 f i ChildView.obj
 0001:00002860       ?HookWindowCreate@CWnd@@SAHPEAV1@G@Z 0000000140003860 f i ChildView.obj
 0001:00002910       ?CreateEx@CWnd@@UEAAHKPEBD0KHHHHPEAUHWND__@@PEAUHMENU__@@PEAX@Z 0000000140003910 f i ChildView.obj
 0001:00002a90       ??1?$CList@PEAUHWND__@@PEAU1@@@QEAA@XZ 0000000140003a90 f i MainFrm.obj
 0001:00002a90       ??1?$CList@PEAXPEAX@@QEAA@XZ 0000000140003a90 f i MainFrm.obj
 0001:00002a90       ??1?$CList@PEAUCRuntimeClass@@AEBQEAU1@@@QEAA@XZ 0000000140003a90 f i ChildView.obj
 0001:00002a90       ??1?$CList@PEAVCFrameWnd@@AEBQEAV1@@@QEAA@XZ 0000000140003a90 f i FrmVC6.obj
 0001:00002ac0       ??1CString@WTL@@QEAA@XZ    0000000140003ac0 f i ChildView.obj
 0001:00002af0       ??1CModuleState@@QEAA@XZ   0000000140003af0 f i ChildView.obj
 0001:00002b70       ?AfxGetModuleState@@YAPEAVCModuleState@@XZ 0000000140003b70 f i ChildView.obj
 0001:00002be0       ?AllocBuffer@CString@WTL@@IEAAHH@Z 0000000140003be0 f i ChildView.obj
 0001:00002c70       ?ConcatCopy@CString@WTL@@IEAAHHPEBDH0@Z 0000000140003c70 f i ChildView.obj
 0001:00002d20       ?AtlThrowImpl@ATL@@YAXJ@Z  0000000140003d20 f i ChildView.obj
 0001:00002d40       ?memcpy_x@SecureHelper@WTL@@YAXPEAX_KPEBX1@Z 0000000140003d40 f i ChildView.obj
 0001:00002d90       ?ConcatInPlace@CString@WTL@@IEAAXHPEBD@Z 0000000140003d90 f i ChildView.obj
 0001:00002e80       ?AfxEndDeferRegisterClass@CAfx@@SAHJ@Z 0000000140003e80 f i ChildView.obj
 0001:00003410       ?PreCreateWindow@CWnd@@UEAAHAEAUtagCREATESTRUCTA@@@Z 0000000140004410 f i ChildView.obj
 0001:00003460       ?ContinueModal@CWnd@@UEAAHXZ 0000000140004460 f i ChildView.obj
 0001:00003470       ?EndModalLoop@CWnd@@UEAAXH@Z 0000000140004470 f i ChildView.obj
 0001:000034a0       ?_ProcessWindowMessage@CFrmVC6App@@UEAAHPEAUHWND__@@I_K_JAEA_J@Z 00000001400044a0 f i FrmVC6.obj
 0001:00003530       ?InitInstance@CFrmVC6App@@UEAAHXZ 0000000140004530 f   FrmVC6.obj
 0001:000035e0       ??1CAboutDlg@@UEAA@XZ      00000001400045e0 f i FrmVC6.obj
 0001:000035f0       ?_ProcessWindowMessage@CAboutDlg@@UEAAHPEAUHWND__@@I_K_JAEA_J@Z 00000001400045f0 f i FrmVC6.obj
 0001:00003600       ?OnAppAbout@CFrmVC6App@@QEAAXXZ 0000000140004600 f   FrmVC6.obj
 0001:00003678       ??_9CDialog@@$BOI@AA       0000000140004678 f i FrmVC6.obj
 0001:00003684       ??_9CDialog@@$BPA@AA       0000000140004684 f i FrmVC6.obj
 0001:00003690       ?_ProcessWindowMessage@CDialog@@UEAAHPEAUHWND__@@I_K_JAEA_J@Z 0000000140004690 f i FrmVC6.obj
 0001:00003740       ?OnCmdMsg@CDialog@@UEAAHIHPEAXPEAUAFX_CMDHANDLERINFO@@@Z 0000000140004740 f i FrmVC6.obj
 0001:00003800       ?PreTranslateMessage@CDialog@@UEAAHPEAUtagMSG@@@Z 0000000140004800 f i FrmVC6.obj
 0001:00003910       ?OnOK@CDialog@@UEAAXXZ     0000000140004910 f i FrmVC6.obj
 0001:000039a0       ?OnCancel@CDialog@@UEAAXXZ 00000001400049a0 f i FrmVC6.obj
 0001:000039e0       ?Create@CDialog@@UEAAHIPEAVCWnd@@@Z 00000001400049e0 f i FrmVC6.obj
 0001:000039f0       ?CreateIndirect@CDialog@@UEAAHPEAXPEAVCWnd@@PEAUHINSTANCE__@@@Z 00000001400049f0 f i FrmVC6.obj
 0001:00003a70       ?classHandleFuncCDialog@CDialog@@SAPEAXPEAX0@Z 0000000140004a70 f i FrmVC6.obj
 0001:00003b10       ?CenterWindow@CWindow@ATL@@QEAAHPEAUHWND__@@@Z 0000000140004b10 f i FrmVC6.obj
 0001:00003cf0       ?ExecuteDlgInit@CWnd@@QEAAHPEAX@Z 0000000140004cf0 f i FrmVC6.obj
 0001:00003e00       ?ExecuteDlgInit@CWnd@@QEAAHPEBD@Z 0000000140004e00 f i FrmVC6.obj
 0001:00003ea0       ?OnInitDialog@CDialog@@UEAAHXZ 0000000140004ea0 f i FrmVC6.obj
 0001:00003f50       ?AfxDlgProc@CWnd@@SA_JPEAUHWND__@@I_K_J@Z 0000000140004f50 f i FrmVC6.obj
 0001:00003fd0       ?CreateDlgIndirect@CWnd@@QEAAHPEBUDLGTEMPLATE@@PEAV1@PEAUHINSTANCE__@@@Z 0000000140004fd0 f i FrmVC6.obj
 0001:00004080       ?CreateDlg@CWnd@@QEAAHPEBDPEAV1@@Z 0000000140005080 f i FrmVC6.obj
 0001:00004120       ?Create@CDialog@@UEAAHPEBDPEAVCWnd@@@Z 0000000140005120 f i FrmVC6.obj
 0001:00004170       ?RunModalLoop@CWnd@@QEAAHK@Z 0000000140005170 f i FrmVC6.obj
 0001:00004330       ?DoModal@CDialog@@UEAA_JXZ 0000000140005330 f i FrmVC6.obj
 0001:00004630       ?GetActiveWindow@CWnd@@SAPEAV1@XZ 0000000140005630 f i FrmVC6.obj
 0001:000047b0       ?GetSafeOwner_@CWnd@@SAPEAUHWND__@@PEAU2@PEAPEAU2@@Z 00000001400057b0 f i FrmVC6.obj
 0001:00004870       ??1CCommandLineInfo@@QEAA@XZ 0000000140005870 f i FrmVC6.obj
 0001:00004930       ??1CWinApp@@QEAA@XZ        0000000140005930 f i FrmVC6.obj
 0001:00004a60       ??1CWinThread@@QEAA@XZ     0000000140005a60 f i FrmVC6.obj
 0001:00004a80       ??0CModuleThreadState@@QEAA@XZ 0000000140005a80 f i FrmVC6.obj
 0001:00004b70       ??1CModuleThreadState@@QEAA@XZ 0000000140005b70 f i FrmVC6.obj
 0001:00004bc0       ?IsFrameWnd@CFrameWnd@@UEAAHXZ 0000000140005bc0 f i MainFrm.obj
 0001:00004bc0       ?InitInstance@CWinApp@@UEAAHXZ 0000000140005bc0 f i FrmVC6.obj
 0001:00004bd0       ?SendMessageToDescendants@CWnd@@QEAAXPEAUHWND__@@I_K_JHH@Z 0000000140005bd0 f i FrmVC6.obj
 0001:00004db0       ?OnIdle@CWinApp@@UEAAHH@Z  0000000140005db0 f i FrmVC6.obj
 0001:00004f80       ?WalkPreTranslateTree@CWnd@@SAHPEAUHWND__@@PEAUtagMSG@@@Z 0000000140005f80 f i FrmVC6.obj
 0001:00005060       ?PreTranslateMessage@CWinApp@@UEAAHPEAUtagMSG@@@Z 0000000140006060 f i FrmVC6.obj
 0001:00005120       ?PumpMessage@CWinApp@@UEAAHXZ 0000000140006120 f i FrmVC6.obj
 0001:000051a0       ?IsIdleMessage@CWinApp@@SAHPEAUtagMSG@@@Z 00000001400061a0 f i FrmVC6.obj
 0001:000051d0       ?Run@CWinApp@@UEAAHXZ      00000001400061d0 f i FrmVC6.obj
 0001:000052b0       ??0CWinApp@@QEAA@XZ        00000001400062b0 f i FrmVC6.obj
 0001:00005360       ?OnAppExit@CWinApp@@QEAAXXZ 0000000140006360 f i FrmVC6.obj
 0001:00005380       ?_ProcessWindowMessage@CWinApp@@UEAAHPEAUHWND__@@I_K_JAEA_J@Z 0000000140006380 f i FrmVC6.obj
 0001:000053e0       ?GetRuntimeClass@CMainFrame@@UEBAPEAUCRuntimeClass@@XZ 00000001400063e0 f   MainFrm.obj
 0001:000053f0       ?_ProcessWindowMessage@CMainFrame@@UEAAHPEAUHWND__@@I_K_JAEA_J@Z 00000001400063f0 f i MainFrm.obj
 0001:000055d0       ??0CMainFrame@@QEAA@XZ     00000001400065d0 f   MainFrm.obj
 0001:00005680       ??_ECMainFrame@@UEAAPEAXI@Z 0000000140006680 f i * CIL library *:* CIL module *
 0001:00005680       ??_GCMainFrame@@UEAAPEAXI@Z 0000000140006680 f i MainFrm.obj
 0001:00005700       ?OnCreate@CMainFrame@@IEAAHPEAUtagCREATESTRUCTA@@@Z 0000000140006700 f   MainFrm.obj
 0001:00005810       ?PreCreateWindow@CMainFrame@@UEAAHAEAUtagCREATESTRUCTA@@@Z 0000000140006810 f   MainFrm.obj
 0001:00005870       ?OnCmdMsg@CMainFrame@@UEAAHIHPEAXPEAUAFX_CMDHANDLERINFO@@@Z 0000000140006870 f   MainFrm.obj
 0001:00005910       ?SetButtons@CToolBar@@QEAAHPEBIH@Z 0000000140006910 f i MainFrm.obj
 0001:00005a90       ?AfxLoadSysColorBitmap@@YAPEAUHBITMAP__@@PEAUHINSTANCE__@@PEAUHRSRC__@@H@Z 0000000140006a90 f i MainFrm.obj
 0001:00005d40       ?AddReplaceBitmap@CToolBar@@QEAAHPEAUHBITMAP__@@@Z 0000000140006d40 f i MainFrm.obj
 0001:00005e30       ?LoadBitmapA@CToolBar@@QEAAHPEBD@Z 0000000140006e30 f i MainFrm.obj
 0001:00005ec0       ?LoadToolBar@CToolBar@@QEAAHPEBD@Z 0000000140006ec0 f i MainFrm.obj
 0001:00006020       ??1CToolBar@@UEAA@XZ       0000000140007020 f i MainFrm.obj
 0001:00006020       ??1CStatusBar@@UEAA@XZ     0000000140007020 f i MainFrm.obj
 0001:00006030       ?OnPaint@CToolBar@@QEAAXXZ 0000000140007030 f i MainFrm.obj
 0001:000060c0       ?OnSetBitmapSize@CToolBar@@QEAA_J_K_J@Z 00000001400070c0 f i MainFrm.obj
 0001:000060d0       ?OnSetSizeHelper@CToolBar@@QEAA_JAEAVCSize@WTL@@_J@Z 00000001400070d0 f i MainFrm.obj
 0001:00006200       ?OnSetButtonSize@CToolBar@@QEAA_J_K_J@Z 0000000140007200 f i MainFrm.obj
 0001:00006210       ?OnPreserveSizingPolicyHelper@CToolBar@@QEAA_J_K_J@Z 0000000140007210 f i MainFrm.obj
 0001:000063e0       ?OnPreserveZeroBorderHelper@CToolBar@@QEAA_J_K_J@Z 00000001400073e0 f i MainFrm.obj
 0001:000064f0       ?_ProcessWindowMessage@CToolBar@@UEAAHPEAUHWND__@@I_K_JAEA_J@Z 00000001400074f0 f i MainFrm.obj
 0001:000067d0       ??_GCControlBar@@UEAAPEAXI@Z 00000001400077d0 f i MainFrm.obj
 0001:000067d0       ??_GCToolBar@@UEAAPEAXI@Z  00000001400077d0 f i MainFrm.obj
 0001:000067d0       ??_ECControlBar@@UEAAPEAXI@Z 00000001400077d0 f i * CIL library *:* CIL module *
 0001:000067d0       ??_ECStatusBar@@UEAAPEAXI@Z 00000001400077d0 f i * CIL library *:* CIL module *
 0001:000067d0       ??_ECToolBar@@UEAAPEAXI@Z  00000001400077d0 f i * CIL library *:* CIL module *
 0001:000067d0       ??_GCStatusBar@@UEAAPEAXI@Z 00000001400077d0 f i MainFrm.obj
 0001:00006800       ?OnToolHitTest@CToolBar@@UEBA_JVCPoint@WTL@@PEAUtagTOOLINFOA@@@Z 0000000140007800 f i MainFrm.obj
 0001:00006930       ?OnBarStyleChange@CToolBar@@UEAAXKK@Z 0000000140007930 f i MainFrm.obj
 0001:00006980       ?Enable@CToolCmdUI@@UEAAXH@Z 0000000140007980 f i MainFrm.obj
 0001:00006a50       ?SetCheck@CToolCmdUI@@UEAAXH@Z 0000000140007a50 f i MainFrm.obj
 0001:00006b20       ?OnUpdateCmdUI@CToolBar@@UEAAXPEAVCFrameWnd@@H@Z 0000000140007b20 f i MainFrm.obj
 0001:00006cb0       ?WrapToolBar@CToolBar@@QEAAHPEAU_TBBUTTON@@HH@Z 0000000140007cb0 f i MainFrm.obj
 0001:00006dd0       ?SizeToolBar@CToolBar@@QEAAXPEAU_TBBUTTON@@HHH@Z 0000000140007dd0 f i MainFrm.obj
 0001:00006fa0       ?CalcSize@CToolBar@@QEAA?AVCSize@WTL@@PEAU_TBBUTTON@@H@Z 0000000140007fa0 f i MainFrm.obj
 0001:00007100       ?_SetButton@CToolBar@@QEAAXHPEAU_TBBUTTON@@@Z 0000000140008100 f i MainFrm.obj
 0001:000072f0       ?CalcDynamicLayout@CToolBar@@UEAA?AVCSize@WTL@@HK@Z 00000001400082f0 f i MainFrm.obj
 0001:00007350       ?CalcLayout@CToolBar@@QEAA?AVCSize@WTL@@KH@Z 0000000140008350 f i MainFrm.obj
 0001:000079b0       ?CalcFixedLayout@CToolBar@@UEAA?AVCSize@WTL@@HH@Z 00000001400089b0 f i MainFrm.obj
 0001:000079f0       ?Create@CToolBar@@UEAAHPEAVCWnd@@KI@Z 00000001400089f0 f i MainFrm.obj
 0001:00007a40       ?_AfxGetDropDownWidth@CToolBar@@SAHXZ 0000000140008a40 f i MainFrm.obj
 0001:00007b40       ?SetSizes@CToolBar@@QEAAXUtagSIZE@@0@Z 0000000140008b40 f i MainFrm.obj
 0001:00007be0       ?CreateEx@CToolBar@@UEAAHPEAVCWnd@@KKVCRect@WTL@@I@Z 0000000140008be0 f i MainFrm.obj
 0001:00007d20       ??0CToolBar@@QEAA@XZ       0000000140008d20 f i MainFrm.obj
 0001:00007db0       ??0_AUX_DATA@@QEAA@XZ      0000000140008db0 f i MainFrm.obj
 0001:00007ec0       ??0CControlBar@@QEAA@XZ    0000000140008ec0 f i MainFrm.obj
 0001:00007f80       ?OnGetText@CStatusBar@@QEAAHHPEAD@Z 0000000140008f80 f i MainFrm.obj
 0001:00008010       ?OnNcCalcSize@CStatusBar@@QEAAXHPEAUtagNCCALCSIZE_PARAMS@@@Z 0000000140009010 f i MainFrm.obj
 0001:000080d0       ??_GCWindowDCMTL@@UEAAPEAXI@Z 00000001400090d0 f i MainFrm.obj
 0001:000080d0       ??_ECWindowDCMTL@@UEAAPEAXI@Z 00000001400090d0 f i * CIL library *:* CIL module *
 0001:00008100       ??1CWindowDCMTL@@UEAA@XZ   0000000140009100 f i MainFrm.obj
 0001:00008180       ?DrawBorders@CControlBar@@QEAAXPEAVCDCMTL@@AEAVCRect@WTL@@@Z 0000000140009180 f i MainFrm.obj
 0001:00008590       ?FillSolidRect@?$CDCT@$00@WTL@@QEAAXHHHHK@Z 0000000140009590 f i MainFrm.obj
 0001:00008620       ?Draw3dRect@?$CDCT@$00@WTL@@QEAAXHHHHKK@Z 0000000140009620 f i MainFrm.obj
 0001:00008810       ?DrawNonThemedGripper@CControlBar@@QEAAHPEAVCDCMTL@@AEBVCRect@WTL@@@Z 0000000140009810 f i MainFrm.obj
 0001:000088d0       ?EraseNonClient@CControlBar@@QEAAXXZ 00000001400098d0 f i MainFrm.obj
 0001:00008b10       ?OnSetMinHeight@CStatusBar@@QEAA_J_K_J@Z 0000000140009b10 f i MainFrm.obj
 0001:00008b50       ?_ProcessWindowMessage@CStatusBar@@UEAAHPEAUHWND__@@I_K_JAEA_J@Z 0000000140009b50 f i MainFrm.obj
 0001:00008db0       ?OnCreate@CControlBar@@QEAAHPEAUtagCREATESTRUCTA@@@Z 0000000140009db0 f i MainFrm.obj
 0001:00008e90       ?OnDestroy@CControlBar@@QEAAXXZ 0000000140009e90 f i MainFrm.obj
 0001:00008f10       ?OnLButtonDown@CControlBar@@QEAAXIVCPoint@WTL@@@Z 0000000140009f10 f i MainFrm.obj
 0001:00008f90       ?ReDockControlBar@CDockBar@@QEAAXPEAVCControlBar@@PEBUtagRECT@@@Z 0000000140009f90 f i MainFrm.obj
 0001:00009360       ?ReDockControlBar@CFrameWnd@@QEAAXPEAVCControlBar@@PEAVCDockBar@@PEBUtagRECT@@@Z 000000014000a360 f i MainFrm.obj
 0001:000094b0       ?ToggleDocking@CDockContext@@QEAAXXZ 000000014000a4b0 f i MainFrm.obj
 0001:00009620       ?OnTimer@CControlBar@@QEAAX_K@Z 000000014000a620 f i MainFrm.obj
 0001:00009820       ?RecalcDelayShow@CControlBar@@QEAAKPEAUAFX_SIZEPARENTPARAMS@@@Z 000000014000a820 f i MainFrm.obj
 0001:000098f0       ?OnSizeParent@CControlBar@@QEAA_J_K_J@Z 000000014000a8f0 f i MainFrm.obj
 0001:00009a70       ?OnIdleUpdateCmdUI@CControlBar@@QEAA_J_K_J@Z 000000014000aa70 f i MainFrm.obj
 0001:00009b80       ?OnInitialUpdate@CControlBar@@QEAAXXZ 000000014000ab80 f i MainFrm.obj
 0001:00009b90       ?_ProcessWindowMessage@CControlBar@@UEAAHPEAUHWND__@@I_K_JAEA_J@Z 000000014000ab90 f i MainFrm.obj
 0001:00009d10       ?WindowProc@CControlBar@@UEAA_JI_K_J@Z 000000014000ad10 f i MainFrm.obj
 0001:00009e60       ?RemoveControlBar@CFrameWnd@@QEAAXPEAVCControlBar@@@Z 000000014000ae60 f i MainFrm.obj
 0001:00009ee0       ?GetCapture@CWnd@@SAPEAV1@XZ 000000014000aee0 f i MainFrm.obj
 0001:0000a060       ?Create@CDockBar@@QEAAHPEAVCWnd@@KI@Z 000000014000b060 f i MainFrm.obj
 0001:0000a130       ?Create@CMiniDockFrameWnd@@QEAAHPEAVCWnd@@K@Z 000000014000b130 f i MainFrm.obj
 0001:0000a390       ?GetDlgItem@CWnd@@QEAAPEAV1@H@Z 000000014000b390 f i MainFrm.obj
 0001:0000a510       ?GetParentOwner@CWnd@@QEAAPEAV1@XZ 000000014000b510 f i MainFrm.obj
 0001:0000a6f0       ?Create@CToolTipCtrlMTL@@QEAAHPEAVCWnd@@K@Z 000000014000b6f0 f i MainFrm.obj
 0001:0000a790       ??_GCToolTipCtrlMTL@@UEAAPEAXI@Z 000000014000b790 f i MainFrm.obj
 0001:0000a790       ??_ECToolTipCtrlMTL@@UEAAPEAXI@Z 000000014000b790 f i * CIL library *:* CIL module *
 0001:0000a7e0       ?GetForegroundWindow@CWnd@@SAPEAV1@XZ 000000014000b7e0 f i MainFrm.obj
 0001:0000a960       ?GetLastActivePopup@CWnd@@QEAAPEAV1@XZ 000000014000b960 f i MainFrm.obj
 0001:0000aae0       ?_AfxRelayToolTipMessage@CWnd@@SAXPEAVCToolTipCtrlMTL@@PEAUtagMSG@@@Z 000000014000bae0 f i MainFrm.obj
 0001:0000ab90       ?CancelToolTips@CWnd@@QEAAXH@Z 000000014000bb90 f i MainFrm.obj
 0001:0000ac10       ?FilterToolTipMessage@CWnd@@QEAAXPEAUtagMSG@@@Z 000000014000bc10 f i MainFrm.obj
 0001:0000b3d0       ?_FilterToolTipMessage@CWnd@@SAXPEAUtagMSG@@PEAV1@@Z 000000014000c3d0 f i MainFrm.obj
 0001:0000b3e0       ?_EnableToolTips@CWnd@@QEAAHHI@Z 000000014000c3e0 f i MainFrm.obj
 0001:0000b530       ?Insert@CDockBar@@QEAAHPEAVCControlBar@@VCRect@WTL@@VCPoint@4@@Z 000000014000c530 f i MainFrm.obj
 0001:0000b8a0       ?SetSize@?$CArray@PEAXAEBQEAX@@QEAAX_J0@Z 000000014000c8a0 f i MainFrm.obj
 0001:0000b9f0       ?SetParent@CWnd@@QEAAPEAV1@PEAV1@@Z 000000014000c9f0 f i MainFrm.obj
 0001:0000bb80       ?DockControlBar@CDockBar@@QEAAXPEAVCControlBar@@PEBUtagRECT@@@Z 000000014000cb80 f i MainFrm.obj
 0001:0000beb0       ?FloatControlBar@CFrameWnd@@QEAAXPEAVCControlBar@@VCPoint@WTL@@K@Z 000000014000ceb0 f i MainFrm.obj
 0001:0000c090       ?RemoveAt@?$CArray@PEAXAEBQEAX@@QEAAX_J0@Z 000000014000d090 f i MainFrm.obj
 0001:0000c0d0       ?RemovePlaceHolder@CDockBar@@QEAAXPEAVCControlBar@@@Z 000000014000d0d0 f i MainFrm.obj
 0001:0000c1b0       ?RemoveControlBar@CDockBar@@QEAAHPEAVCControlBar@@HH@Z 000000014000d1b0 f i MainFrm.obj
 0001:0000c430       ??1CControlBar@@UEAA@XZ    000000014000d430 f i MainFrm.obj
 0001:0000c4e0       ?PostNcDestroy@CControlBar@@UEAAXXZ 000000014000d4e0 f i MainFrm.obj
 0001:0000c500       ?PreTranslateMessage@CControlBar@@UEAAHPEAUtagMSG@@@Z 000000014000d500 f i MainFrm.obj
 0001:0000c7e0       ?PreCreateWindow@CControlBar@@UEAAHAEAUtagCREATESTRUCTA@@@Z 000000014000d7e0 f i MainFrm.obj
 0001:0000c890       ?PreCreateWindow@CStatusBar@@UEAAHAEAUtagCREATESTRUCTA@@@Z 000000014000d890 f i MainFrm.obj
 0001:0000c8c0       ?OnBarStyleChange@CStatusBar@@UEAAXKK@Z 000000014000d8c0 f i MainFrm.obj
 0001:0000c900       ?Enable@CStatusCmdUI@@UEAAXH@Z 000000014000d900 f i MainFrm.obj
 0001:0000c9a0       ??1?$CArray@HAEBH@@QEAA@XZ 000000014000d9a0 f i MainFrm.obj
 0001:0000c9e0       ?SetSize@?$CArray@HAEBH@@QEAAX_J0@Z 000000014000d9e0 f i MainFrm.obj
 0001:0000cb30       ?UpdateAllPanes@CStatusBar@@QEAAXHH@Z 000000014000db30 f i MainFrm.obj
 0001:0000ced0       ?SetCheck@CStatusCmdUI@@UEAAXH@Z 000000014000ded0 f i MainFrm.obj
 0001:0000cf70       ?SetPaneText@CStatusBar@@QEAAHHPEBDH@Z 000000014000df70 f i MainFrm.obj
 0001:0000d040       ?SetText@CStatusCmdUI@@UEAAXPEBD@Z 000000014000e040 f i MainFrm.obj
 0001:0000d050       ?UpdateDialogControls@CWnd@@QEAAXPEAVCCmdTarget@@H@Z 000000014000e050 f i MainFrm.obj
 0001:0000d350       ?OnUpdateCmdUI@CStatusBar@@UEAAXPEAVCFrameWnd@@H@Z 000000014000e350 f i MainFrm.obj
 0001:0000d490       ?CalcFixedLayout@CControlBar@@UEAA?AVCSize@WTL@@HH@Z 000000014000e490 f i MainFrm.obj
 0001:0000d4d0       ?CalcDynamicLayout@CControlBar@@UEAA?AVCSize@WTL@@HK@Z 000000014000e4d0 f i MainFrm.obj
 0001:0000d500       ??_GCClientDCMTL@@UEAAPEAXI@Z 000000014000e500 f i MainFrm.obj
 0001:0000d500       ??_ECClientDCMTL@@UEAAPEAXI@Z 000000014000e500 f i * CIL library *:* CIL module *
 0001:0000d530       ??1CClientDCMTL@@UEAA@XZ   000000014000e530 f i MainFrm.obj
 0001:0000d5b0       ?CalcInsideRect@CControlBar@@QEBAXAEAVCRect@WTL@@H@Z 000000014000e5b0 f i MainFrm.obj
 0001:0000d670       ?CalcFixedLayout@CStatusBar@@UEAA?AVCSize@WTL@@HH@Z 000000014000e670 f i MainFrm.obj
 0001:0000d880       ?ResetTimer@CControlBar@@QEAAX_KI@Z 000000014000e880 f i MainFrm.obj
 0001:0000d8e0       ?SetStatusText@CControlBar@@UEAAH_J@Z 000000014000e8e0 f i MainFrm.obj
 0001:0000da00       ?Create@CStatusBar@@UEAAHPEAVCWnd@@KI@Z 000000014000ea00 f i MainFrm.obj
 0001:0000da20       ?CreateEx@CStatusBar@@UEAAHPEAVCWnd@@KKI@Z 000000014000ea20 f i MainFrm.obj
 0001:0000db10       ?OnCmdMsg@CFrameWnd@@UEAAHIHPEAXPEAUAFX_CMDHANDLERINFO@@@Z 000000014000eb10 f i MainFrm.obj
 0001:0000db80       ??_GCFrameWnd@@UEAAPEAXI@Z 000000014000eb80 f i MainFrm.obj
 0001:0000db80       ??_ECFrameWnd@@UEAAPEAXI@Z 000000014000eb80 f i * CIL library *:* CIL module *
 0001:0000dbb0       ?PreTranslateMessage@CFrameWnd@@UEAAHPEAUtagMSG@@@Z 000000014000ebb0 f i MainFrm.obj
 0001:0000dc30       ?AfxIsDescendant@CFrameWnd@@SAHPEAUHWND__@@0@Z 000000014000ec30 f i MainFrm.obj
 0001:0000dd30       ?ShowOwnedWindows@CFrameWnd@@QEAAXH@Z 000000014000ed30 f i MainFrm.obj
 0001:0000df70       ?OnSetPreviewMode@CFrameWnd@@UEAAXHPEAUCPrintPreviewState@@@Z 000000014000ef70 f i MainFrm.obj
 0001:0000e330       ?ActivateFrame@CFrameWnd@@UEAAXH@Z 000000014000f330 f i MainFrm.obj
 0001:0000e3e0       ?GetActiveFrame@CFrameWnd@@UEAAPEAV1@XZ 000000014000f3e0 f i MainFrm.obj
 0001:0000e3f0       ?GetDefaultAccelerator@CFrameWnd@@UEAAPEAUHACCEL__@@XZ 000000014000f3f0 f i MainFrm.obj
 0001:0000e400       ?PreCreateWindow@CFrameWnd@@UEAAHAEAUtagCREATESTRUCTA@@@Z 000000014000f400 f i MainFrm.obj
 0001:0000e450       ?GetIconWndClass@CFrameWnd@@QEAAPEBDKI@Z 000000014000f450 f i MainFrm.obj
 0001:0000e510       ?RemoveFrameWnd@CFrameWnd@@QEAAXXZ 000000014000f510 f i MainFrm.obj
 0001:0000e590       ??1CFrameWnd@@UEAA@XZ      000000014000f590 f i MainFrm.obj
 0001:0000e620       ?PostNcDestroy@CFrameWnd@@UEAAXXZ 000000014000f620 f i MainFrm.obj
 0001:0000e640       ?Create@CFrameWnd@@UEAAHPEBD0KAEBUtagRECT@@PEAVCWnd@@0KPEAUCCreateContext@@@Z 000000014000f640 f i MainFrm.obj
 0001:0000e780       ?LoadFrame@CFrameWnd@@UEAAHIKPEAVCWnd@@PEAUCCreateContext@@@Z 000000014000f780 f i MainFrm.obj
 0001:0000e960       ?AddFrameWnd@CFrameWnd@@QEAAXXZ 000000014000f960 f i MainFrm.obj
 0001:0000e9f0       ??0CFrameWnd@@QEAA@XZ      000000014000f9f0 f i MainFrm.obj
 0001:0000eae0       ?LoadStringA@CString@WTL@@QEAAHI@Z 000000014000fae0 f i MainFrm.obj
 0001:0000ec20       ?OnClose@CFrameWnd@@QEAAXXZ 000000014000fc20 f i MainFrm.obj
 0001:0000ece0       ?CreateView@CFrameWnd@@QEAAPEAVCWnd@@PEAUCCreateContext@@I@Z 000000014000fce0 f i MainFrm.obj
 0001:0000edf0       ?OnCreateClient@CFrameWnd@@UEAAHPEAUtagCREATESTRUCTA@@PEAUCCreateContext@@@Z 000000014000fdf0 f i MainFrm.obj
 0001:0000ee20       ?OnCreateHelper@CFrameWnd@@QEAAHPEAUtagCREATESTRUCTA@@PEAUCCreateContext@@@Z 000000014000fe20 f i MainFrm.obj
 0001:0000eec0       ?DestroyWindow@CControlBar@@UEAAHXZ 000000014000fec0 f i MainFrm.obj
 0001:0000ef30       ?DestroyDockBars@CFrameWnd@@QEAAXXZ 000000014000ff30 f i MainFrm.obj
 0001:0000f270       ?OnDestroy@CFrameWnd@@QEAAXXZ 0000000140010270 f i MainFrm.obj
 0001:0000f300       ?SetActiveWindow@CWnd@@QEAAPEAV1@XZ 0000000140010300 f i MainFrm.obj
 0001:0000f480       ?OnDropFiles@CFrameWnd@@QEAAXPEAUHDROP__@@@Z 0000000140010480 f i MainFrm.obj
 0001:0000f510       ?GetOwner@CWnd@@QEAAPEAV1@XZ 0000000140010510 f i MainFrm.obj
 0001:0000f6a0       ?AfxGetParentOwner@CWnd@@SAPEAUHWND__@@PEAU2@@Z 00000001400106a0 f i MainFrm.obj
 0001:0000f780       ?GetTopLevelParent@CWnd@@QEAAPEAV1@XZ 0000000140010780 f i MainFrm.obj
 0001:0000f950       ?OnIdle@CCmdUI@@QEAAHPEAVCCmdTarget@@H@Z 0000000140010950 f i MainFrm.obj
 0001:0000fa10       ?OnInitMenuPopup@CFrameWnd@@QEAAXPEAVCMenuMTL@@IH@Z 0000000140010a10 f i MainFrm.obj
 0001:0000fcf0       ?GetTopLevelFrame@CWnd@@QEAAPEAVCFrameWnd@@XZ 0000000140010cf0 f i MainFrm.obj
 0001:0000fdc0       ?SetMenuBarState@CFrameWnd@@QEAAHK@Z 0000000140010dc0 f i MainFrm.obj
 0001:0000fe20       ?OnMenuSelect@CFrameWnd@@QEAAXIIPEAUHMENU__@@@Z 0000000140010e20 f i MainFrm.obj
 0001:0000ffd0       ?OnSize@CFrameWnd@@QEAAXIHH@Z 0000000140010fd0 f i MainFrm.obj
 0001:00010020       ?OnPopMessageString@CFrameWnd@@QEAA_J_K_J@Z 0000000140011020 f i MainFrm.obj
 0001:00010040       ?GetDescendantWindow@CWnd@@QEAAPEAV1@PEAUHWND__@@HH@Z 0000000140011040 f i MainFrm.obj
 0001:00010270       ?OnSetMessageString@CFrameWnd@@QEAA_J_K_J@Z 0000000140011270 f i MainFrm.obj
 0001:000103f0       ?OnUpdateFrameMenu@CFrameWnd@@UEAAXPEAUHMENU__@@@Z 00000001400113f0 f i MainFrm.obj
 0001:00010420       ?UpdateFrameTitleForDocument@CFrameWnd@@QEAAXPEBD@Z 0000000140011420 f i MainFrm.obj
 0001:00010a40       ?OnUpdateFrameTitle@CFrameWnd@@UEAAXH@Z 0000000140011a40 f i MainFrm.obj
 0001:00010a80       ?OnIdleUpdateCmdUI@CFrameWnd@@QEAAXXZ 0000000140011a80 f i MainFrm.obj
 0001:00010b20       ?OnUpdateControlBarMenu@CFrameWnd@@QEAAXPEAVCCmdUI@@@Z 0000000140011b20 f i MainFrm.obj
 0001:00010bb0       ?GetControlBar@CFrameWnd@@QEAAPEAVCControlBar@@I@Z 0000000140011bb0 f i MainFrm.obj
 0001:00010c20       ?GetParentFrame@CWnd@@QEAAPEAVCFrameWnd@@XZ 0000000140011c20 f i MainFrm.obj
 0001:00010c80       ?GetDockingFrame@CControlBar@@QEAAPEAVCFrameWnd@@XZ 0000000140011c80 f i MainFrm.obj
 0001:00010cf0       ?IsVisible@CControlBar@@UEBAHXZ 0000000140011cf0 f i MainFrm.obj
 0001:00010d30       ?AfxRepositionWindow@CAfx@@SAXPEAUAFX_SIZEPARENTPARAMS@@PEAUHWND__@@PEBUtagRECT@@@Z 0000000140011d30 f i MainFrm.obj
 0001:00010e30       ?RepositionBars@CWnd@@QEAAXIIIIPEAUtagRECT@@PEBU2@H@Z 0000000140011e30 f i MainFrm.obj
 0001:00011150       ?RecalcLayout@CFrameWnd@@UEAAXH@Z 0000000140012150 f i MainFrm.obj
 0001:00011280       ?ShowControlBar@CFrameWnd@@QEAAXPEAVCControlBar@@HH@Z 0000000140012280 f i MainFrm.obj
 0001:000114c0       ?OnBarCheck@CFrameWnd@@QEAAHI@Z 00000001400124c0 f i MainFrm.obj
 0001:00011550       ?_AtlGetStringResourceImage@CAfx@@SAPEBUATLSTRINGRESOURCEIMAGE@ATL@@PEAUHINSTANCE__@@PEAUHRSRC__@@I@Z 0000000140012550 f i MainFrm.obj
 0001:000115f0       ?AfxLoadString@CAfx@@SAHIPEADI@Z 00000001400125f0 f i MainFrm.obj
 0001:000116a0       ?AssignCopy@CString@WTL@@IEAAXHPEBD@Z 00000001400126a0 f i MainFrm.obj
 0001:00011780       ?Empty@CString@WTL@@QEAAXXZ 0000000140012780 f i MainFrm.obj
 0001:00011800       ?GetBuffer@CString@WTL@@QEAAPEADH@Z 0000000140012800 f i MainFrm.obj
 0001:000118d0       ?CopyBeforeWrite@CString@WTL@@IEAAXXZ 00000001400128d0 f i MainFrm.obj
 0001:00011980       ?AfxExtractSubString@CAfx@@SAHAEAVCString@WTL@@PEBDHD@Z 0000000140012980 f i MainFrm.obj
 0001:00011a80       ?OnToolTipText@CFrameWnd@@QEAAHIPEAUtagNMHDR@@PEA_J@Z 0000000140012a80 f i MainFrm.obj
 0001:00011df0       ?_ProcessWindowMessage@CFrameWnd@@UEAAHPEAUHWND__@@I_K_JAEA_J@Z 0000000140012df0 f i MainFrm.obj
 0001:000124d0       ?SetCurrentHandles@CWinApp@@QEAAXXZ 00000001400134d0 f i StdAfx.obj
 0001:000127f0       ?GetRuntimeClass@CCmdTarget@@UEBAPEAUCRuntimeClass@@XZ 00000001400137f0 f   StdAfx.obj
 0001:00012800       ?CreateObject@CWnd@@SAPEAVCObject@@XZ 0000000140013800 f   StdAfx.obj
 0001:00012850       ?GetRuntimeClass@CWnd@@UEBAPEAUCRuntimeClass@@XZ 0000000140013850 f   StdAfx.obj
 0001:00012860       ?GetRuntimeClass@CDialog@@UEBAPEAUCRuntimeClass@@XZ 0000000140013860 f   StdAfx.obj
 0001:00012870       ?CreateObject@CFrameWnd@@SAPEAVCObject@@XZ 0000000140013870 f   StdAfx.obj
 0001:000128b0       ?GetRuntimeClass@CFrameWnd@@UEBAPEAUCRuntimeClass@@XZ 00000001400138b0 f   StdAfx.obj
 0001:000128c0       ?GetRuntimeClass@CControlBar@@UEBAPEAUCRuntimeClass@@XZ 00000001400138c0 f   StdAfx.obj
 0001:000128d0       ?GetRuntimeClass@CToolBar@@UEBAPEAUCRuntimeClass@@XZ 00000001400138d0 f   StdAfx.obj
 0001:000128e0       ?GetRuntimeClass@CToolTipCtrlMTL@@UEBAPEAUCRuntimeClass@@XZ 00000001400138e0 f   StdAfx.obj
 0001:000128f0       WinMain                    00000001400138f0 f   StdAfx.obj
 0001:00012960       ?__AllocStdCallThunk@ATL@@YAPEAXXZ 0000000140013960 f   atls:atlthunk.obj
 0001:00012a24       ?__FreeStdCallThunk@ATL@@YAXPEAX@Z 0000000140013a24 f   atls:atlthunk.obj
 0001:00012ab4       ??0CAtlBaseModule@ATL@@QEAA@XZ 0000000140013ab4 f   atls:atlbase.obj
 0001:00012b5c       ??1CAtlBaseModule@ATL@@QEAA@XZ 0000000140013b5c f   atls:atlbase.obj
 0001:00012b90       ??3@YAXPEAX@Z              0000000140013b90 f   LIBCMT:delete.obj
 0001:00012b98       memcpy_s                   0000000140013b98 f   LIBCMT:memcpy_s.obj
 0001:00012c20       ??8type_info@@QEBA_NAEBV0@@Z 0000000140013c20 f   LIBCMT:typinfo.obj
 0001:00012c40       ??_Etype_info@@UEAAPEAXI@Z 0000000140013c40 f i LIBCMT:typinfo.obj
 0001:00012c40       ??_Gtype_info@@UEAAPEAXI@Z 0000000140013c40 f i LIBCMT:typinfo.obj
 0001:00012c7c       ??_V@YAXPEAX@Z             0000000140013c7c f   LIBCMT:delete2.obj
 0001:00012c84       ??_U@YAPEAX_K@Z            0000000140013c84 f   LIBCMT:new2.obj
 0001:00012c8c       __onexitinit               0000000140013c8c f   LIBCMT:onexit.obj
 0001:00012cd0       _onexit                    0000000140013cd0 f   LIBCMT:onexit.obj
 0001:00012ddc       atexit                     0000000140013ddc f   LIBCMT:onexit.obj
 0001:00012df4       ??0bad_alloc@std@@QEAA@AEBV01@@Z 0000000140013df4 f i LIBCMT:new.obj
 0001:00012e18       ??1bad_alloc@std@@UEAA@XZ  0000000140013e18 f i LIBCMT:new.obj
 0001:00012e28       ??2@YAPEAX_K@Z             0000000140013e28 f   LIBCMT:new.obj
 0001:00012e94       ??_Gbad_alloc@std@@UEAAPEAXI@Z 0000000140013e94 f i LIBCMT:new.obj
 0001:00012e94       ??_Ebad_alloc@std@@UEAAPEAXI@Z 0000000140013e94 f i LIBCMT:new.obj
 0001:00012ed0       free                       0000000140013ed0 f   LIBCMT:free.obj
 0001:00012f10       _strdup                    0000000140013f10 f   LIBCMT:strdup.obj
 0001:00012f80       ??0_LocaleUpdate@@QEAA@PEAUlocaleinfo_struct@@@Z 0000000140013f80 f i LIBCMT:mbschr.obj
 0001:00013028       _mbschr                    0000000140014028 f   LIBCMT:mbschr.obj
 0001:00013030       _mbschr_l                  0000000140014030 f   LIBCMT:mbschr.obj
 0001:000130f0       _mbscmp                    00000001400140f0 f   LIBCMT:mbscmp.obj
 0001:000130f8       _mbscmp_l                  00000001400140f8 f   LIBCMT:mbscmp.obj
 0001:000131f0       memmove                    00000001400141f0 f   LIBCMT:memcpy.obj
 0001:000131f0       memcpy                     00000001400141f0 f   LIBCMT:memcpy.obj
 0001:00013758       _purecall                  0000000140014758 f   LIBCMT:purevirt.obj
 0001:00013784       malloc                     0000000140014784 f   LIBCMT:malloc.obj
 0001:0001383c       WinMainCRTStartup          000000014001483c f   LIBCMT:wincrt0.obj
 0001:00013a20       memset                     0000000140014a20 f   LIBCMT:memset.obj
 0001:00013c4c       _call_reportfault          0000000140014c4c f   LIBCMT:invarg.obj
 0001:00013d40       _initp_misc_invarg         0000000140014d40 f   LIBCMT:invarg.obj
 0001:00013d48       _invalid_parameter         0000000140014d48 f   LIBCMT:invarg.obj
 0001:00013db0       _invalid_parameter_noinfo  0000000140014db0 f   LIBCMT:invarg.obj
 0001:00013dd0       _invoke_watson             0000000140014dd0 f   LIBCMT:invarg.obj
 0001:00013e0c       __doserrno                 0000000140014e0c f   LIBCMT:dosmap.obj
 0001:00013e2c       _dosmaperr                 0000000140014e2c f   LIBCMT:dosmap.obj
 0001:00013e7c       _errno                     0000000140014e7c f   LIBCMT:dosmap.obj
 0001:00013e9c       _get_errno_from_oserr      0000000140014e9c f   LIBCMT:dosmap.obj
 0001:00013f00       strcmp                     0000000140014f00 f   LIBCMT:strcmp.obj
 0001:00013f68       ?_Type_info_dtor@type_info@@CAXPEAV1@@Z 0000000140014f68 f   LIBCMT:typname.obj
 0001:00013fd4       __crtCorExitProcess        0000000140014fd4 f   LIBCMT:crt0dat.obj
 0001:00014018       __crtExitProcess           0000000140015018 f   LIBCMT:crt0dat.obj
 0001:00014030       _amsg_exit                 0000000140015030 f   LIBCMT:crt0dat.obj
 0001:00014058       _c_exit                    0000000140015058 f   LIBCMT:crt0dat.obj
 0001:00014068       _cexit                     0000000140015068 f   LIBCMT:crt0dat.obj
 0001:00014078       _cinit                     0000000140015078 f   LIBCMT:crt0dat.obj
 0001:00014110       _exit                      0000000140015110 f   LIBCMT:crt0dat.obj
 0001:0001411c       _init_pointers             000000014001511c f   LIBCMT:crt0dat.obj
 0001:000141c8       _initterm_e                00000001400151c8 f   LIBCMT:crt0dat.obj
 0001:00014204       _lockexit                  0000000140015204 f   LIBCMT:crt0dat.obj
 0001:00014210       _unlockexit                0000000140015210 f   LIBCMT:crt0dat.obj
 0001:000143b4       exit                       00000001400153b4 f   LIBCMT:crt0dat.obj
 0001:000143c0       _msize                     00000001400153c0 f   LIBCMT:msize.obj
 0001:000143fc       _calloc_crt                00000001400153fc f   LIBCMT:crtheap.obj
 0001:0001447c       _malloc_crt                000000014001547c f   LIBCMT:crtheap.obj
 0001:000144f8       _realloc_crt               00000001400154f8 f   LIBCMT:crtheap.obj
 0001:0001457c       __C_specific_handler       000000014001557c f   LIBCMT:chandler.obj
 0001:00014760       ??0exception@std@@QEAA@AEBQEBD@Z 0000000140015760 f   LIBCMT:stdexcpt.obj
 0001:00014790       ??0exception@std@@QEAA@AEBQEBDH@Z 0000000140015790 f   LIBCMT:stdexcpt.obj
 0001:000147ac       ??0exception@std@@QEAA@AEBV01@@Z 00000001400157ac f   LIBCMT:stdexcpt.obj
 0001:000147d8       ??1exception@std@@UEAA@XZ  00000001400157d8 f   LIBCMT:stdexcpt.obj
 0001:000147e8       ??4exception@std@@QEAAAEAV01@AEBV01@@Z 00000001400157e8 f   LIBCMT:stdexcpt.obj
 0001:0001482c       ??_Gexception@std@@UEAAPEAXI@Z 000000014001582c f i LIBCMT:stdexcpt.obj
 0001:0001482c       ??_Eexception@std@@UEAAPEAXI@Z 000000014001582c f i LIBCMT:stdexcpt.obj
 0001:00014868       ?_Copy_str@exception@std@@AEAAXPEBD@Z 0000000140015868 f   LIBCMT:stdexcpt.obj
 0001:000148c4       ?_Tidy@exception@std@@AEAAXXZ 00000001400158c4 f   LIBCMT:stdexcpt.obj
 0001:000148ec       ?what@exception@std@@UEBAPEBDXZ 00000001400158ec f   LIBCMT:stdexcpt.obj
 0001:00014900       _callnewh                  0000000140015900 f   LIBCMT:handler.obj
 0001:00014934       _initp_heap_handler        0000000140015934 f   LIBCMT:handler.obj
 0001:0001493c       _CxxThrowException         000000014001593c f   LIBCMT:throw.obj
 0001:00014a04       _heap_init                 0000000140015a04 f   LIBCMT:heapinit.obj
 0001:00014a24       strcpy_s                   0000000140015a24 f   LIBCMT:strcpy_s.obj
 0001:00014aa0       strlen                     0000000140015aa0 f   LIBCMT:strlen.obj
 0001:00014b48       __addlocaleref             0000000140015b48 f   LIBCMT:localref.obj
 0001:00014bd4       __freetlocinfo             0000000140015bd4 f   LIBCMT:localref.obj
 0001:00014d6c       __removelocaleref          0000000140015d6c f   LIBCMT:localref.obj
 0001:00014e10       __updatetlocinfo           0000000140015e10 f   LIBCMT:localref.obj
 0001:00014e88       _updatetlocinfoEx_nolock   0000000140015e88 f   LIBCMT:localref.obj
 0001:00014eec       __initmbctable             0000000140015eec f   LIBCMT:mbctype.obj
 0001:00015208       __updatetmbcinfo           0000000140016208 f   LIBCMT:mbctype.obj
 0001:000152c4       _setmbcp                   00000001400162c4 f   LIBCMT:mbctype.obj
 0001:00015508       _setmbcp_nolock            0000000140016508 f   LIBCMT:mbctype.obj
 0001:000157b8       strchr                     00000001400167b8 f   LIBCMT:strchr.obj
 0001:00015844       _freefls                   0000000140016844 f   LIBCMT:tidtable.obj
 0001:00015978       _getptd                    0000000140016978 f   LIBCMT:tidtable.obj
 0001:0001599c       _getptd_noexit             000000014001699c f   LIBCMT:tidtable.obj
 0001:00015a20       _initptd                   0000000140016a20 f   LIBCMT:tidtable.obj
 0001:00015ae4       _mtinit                    0000000140016ae4 f   LIBCMT:tidtable.obj
 0001:00015b64       _mtterm                    0000000140016b64 f   LIBCMT:tidtable.obj
 0001:00015b88       __isa_available_init       0000000140016b88 f   LIBCMT:cpu_disp.obj
 0001:00015d2c       _set_abort_behavior        0000000140016d2c f   LIBCMT:abort.obj
 0001:00015d48       abort                      0000000140016d48 f   LIBCMT:abort.obj
 0001:00015da0       _initp_misc_purevirt       0000000140016da0 f   LIBCMT:inithelp.obj
 0001:00015da8       _FF_MSGBANNER              0000000140016da8 f   LIBCMT:crt0msg.obj
 0001:00015dec       _GET_RTERRMSG              0000000140016dec f   LIBCMT:crt0msg.obj
 0001:00015e1c       _NMSG_WRITE                0000000140016e1c f   LIBCMT:crt0msg.obj
 0001:0001608c       ?_inconsistency@@YAXXZ     000000014001708c f   LIBCMT:hooks.obj
 0001:000160ac       ?terminate@@YAXXZ          00000001400170ac f   LIBCMT:hooks.obj
 0001:000160cc       _initp_eh_hooks            00000001400170cc f   LIBCMT:hooks.obj
 0001:000160ec       ?__CxxUnhandledExceptionFilter@@YAJPEAU_EXCEPTION_POINTERS@@@Z 00000001400170ec f   LIBCMT:unhandld.obj
 0001:00016124       __CxxSetUnhandledExceptionFilter 0000000140017124 f   LIBCMT:unhandld.obj
 0001:0001613c       _XcptFilter                000000014001713c f   LIBCMT:winxfltr.obj
 0001:00016308       _ioinit                    0000000140017308 f   LIBCMT:ioinit.obj
 0001:00016638       _setargv                   0000000140017638 f   LIBCMT:stdargv.obj
 0001:000168f4       _setenvp                   00000001400178f4 f   LIBCMT:stdenvp.obj
 0001:00016a28       __set_app_type             0000000140017a28 f   LIBCMT:errmode.obj
 0001:00016a30       _set_error_mode            0000000140017a30 f   LIBCMT:errmode.obj
 0001:00016a70       __security_init_cookie     0000000140017a70 f   LIBCMT:gs_support.obj
 0001:00016b1c       _RTC_Initialize            0000000140017b1c f   LIBCMT:initsect.obj
 0001:00016b54       _RTC_Terminate             0000000140017b54 f   LIBCMT:initsect.obj
 0001:00016b8c       __crtGetEnvironmentStringsA 0000000140017b8c f   LIBCMT:a_env.obj
 0001:00016c80       __crtCaptureCurrentContext 0000000140017c80 f   LIBCMT:winapisupp.obj
 0001:00016cf0       __crtCapturePreviousContext 0000000140017cf0 f   LIBCMT:winapisupp.obj
 0001:00016d64       __crtFlsAlloc              0000000140017d64 f   LIBCMT:winapisupp.obj
 0001:00016d80       __crtFlsFree               0000000140017d80 f   LIBCMT:winapisupp.obj
 0001:00016d9c       __crtFlsGetValue           0000000140017d9c f   LIBCMT:winapisupp.obj
 0001:00016db8       __crtFlsSetValue           0000000140017db8 f   LIBCMT:winapisupp.obj
 0001:00016dd4       __crtGetShowWindowMode     0000000140017dd4 f   LIBCMT:winapisupp.obj
 0001:00016e00       __crtInitializeCriticalSectionEx 0000000140017e00 f   LIBCMT:winapisupp.obj
 0001:00016e2c       __crtIsPackagedApp         0000000140017e2c f   LIBCMT:winapisupp.obj
 0001:00016e78       __crtLoadWinApiPointers    0000000140017e78 f   LIBCMT:winapisupp.obj
 0001:00017274       __crtSetUnhandledExceptionFilter 0000000140018274 f   LIBCMT:winapisupp.obj
 0001:0001727c       __crtSleep                 000000014001827c f   LIBCMT:winapisupp.obj
 0001:00017284       __crtTerminateProcess      0000000140018284 f   LIBCMT:winapisupp.obj
 0001:000172a4       __crtUnhandledException    00000001400182a4 f   LIBCMT:winapisupp.obj
 0001:000172c4       _wincmdln                  00000001400182c4 f   LIBCMT:wincmdln.obj
 0001:00017340       realloc                    0000000140018340 f   LIBCMT:realloc.obj
 0001:00017414       __crt_debugger_hook        0000000140018414 f   LIBCMT:dbghook.obj
 0001:0001741c       __GSHandlerCheck           000000014001841c f   LIBCMT:gshandler.obj
 0001:0001743c       __GSHandlerCheckCommon     000000014001843c f   LIBCMT:gshandler.obj
 0001:000174b0       __security_check_cookie    00000001400184b0 f   LIBCMT:amdsecgs.obj
 0001:000174d0       _lock                      00000001400184d0 f   LIBCMT:mlock.obj
 0001:00017514       _mtdeletelocks             0000000140018514 f   LIBCMT:mlock.obj
 0001:0001759c       _mtinitlocknum             000000014001859c f   LIBCMT:mlock.obj
 0001:0001765c       _mtinitlocks               000000014001865c f   LIBCMT:mlock.obj
 0001:000176c0       _unlock                    00000001400186c0 f   LIBCMT:mlock.obj
 0001:000176f0       _local_unwind              00000001400186f0 f   LIBCMT:jmpuwind.obj
 0001:00017720       _NLG_Notify                0000000140018720 f   LIBCMT:jmpuwind.obj
 0001:00017740       __NLG_Dispatch2            0000000140018740 f   LIBCMT:jmpuwind.obj
 0001:00017750       __NLG_Return2              0000000140018750 f   LIBCMT:jmpuwind.obj
 0001:00017760       _FindPESection             0000000140018760 f   LIBCMT:pesect.obj
 0001:000177b0       _IsNonwritableInCurrentImage 00000001400187b0 f   LIBCMT:pesect.obj
 0001:00017800       _ValidateImageBase         0000000140018800 f   LIBCMT:pesect.obj
 0001:00017830       _initp_misc_cfltcvt_tab    0000000140018830 f   LIBCMT:cmiscdat.obj
 0001:0001786c       __get_sigabrt              000000014001886c f   LIBCMT:winsig.obj
 0001:0001787c       _initp_misc_winsig         000000014001887c f   LIBCMT:winsig.obj
 0001:0001789c       raise                      000000014001889c f   LIBCMT:winsig.obj
 0001:00017ad0       _initp_misc_rand_s         0000000140018ad0 f   LIBCMT:rand_s.obj
 0001:00017ad8       _calloc_impl               0000000140018ad8 f   LIBCMT:calloc_impl.obj
 0001:00017b74       __free_lconv_mon           0000000140018b74 f   LIBCMT:initmon.obj
 0001:00017c80       __free_lconv_num           0000000140018c80 f   LIBCMT:initnum.obj
 0001:00017cec       __free_lc_time             0000000140018cec f   LIBCMT:inittime.obj
 0001:000183d4       __crtLCMapStringA          00000001400193d4 f   LIBCMT:a_map.obj
 0001:000185e4       __crtGetStringTypeA        00000001400195e4 f   LIBCMT:a_str.obj
 0001:00018660       GetTableIndexFromLocaleName 0000000140019660 f   LIBCMT:winapinls.obj
 0001:000186ec       __crtDownlevelLocaleNameToLCID 00000001400196ec f   LIBCMT:winapinls.obj
 0001:00018720       __crtLCMapStringEx         0000000140019720 f   LIBCMT:winapinls.obj
 0001:000187b0       __wcsnicmp_ascii           00000001400197b0 f   LIBCMT:winapinls.obj
 0001:00018808       wcscat_s                   0000000140019808 f   LIBCMT:wcscat_s.obj
 0001:00018890       wcscpy_s                   0000000140019890 f   LIBCMT:wcscpy_s.obj
 0001:000188fc       wcslen                     00000001400198fc f   LIBCMT:wcslen.obj
 0001:00018918       wcsncpy_s                  0000000140019918 f   LIBCMT:wcsncpy_s.obj
 0001:000189e4       __crtMessageBoxW           00000001400199e4 f   LIBCMT:crtmboxw.obj
 0001:00018c58       __initstdio                0000000140019c58 f   LIBCMT:_file.obj
 0001:00018cf0       __endstdio                 0000000140019cf0 f   LIBCMT:_file.obj
 0001:00018d20       _lock_file                 0000000140019d20 f   LIBCMT:_file.obj
 0001:00018d88       _lock_file2                0000000140019d88 f   LIBCMT:_file.obj
 0001:00018dbc       _unlock_file               0000000140019dbc f   LIBCMT:_file.obj
 0001:00018e0c       _unlock_file2              0000000140019e0c f   LIBCMT:_file.obj
 0001:00018ea8       _ismbblead                 0000000140019ea8 f   LIBCMT:ismbbyte.obj
 0001:00018ebc       __raise_securityfailure    0000000140019ebc f   LIBCMT:gs_report.obj
 0001:00018f08       __report_gsfailure         0000000140019f08 f   LIBCMT:gs_report.obj
 0001:00018fdc       _fptrap                    0000000140019fdc f   LIBCMT:crt0fp.obj
 0001:00018fe8       _fileno                    0000000140019fe8 f   LIBCMT:fileno.obj
 0001:00019010       _isatty                    000000014001a010 f   LIBCMT:isatty.obj
 0001:00019070       _fflush_nolock             000000014001a070 f   LIBCMT:fflush.obj
 0001:000190bc       _flush                     000000014001a0bc f   LIBCMT:fflush.obj
 0001:00019138       _flushall                  000000014001a138 f   LIBCMT:fflush.obj
 0001:0001922c       _locterm                   000000014001a22c f   LIBCMT:wsetloca.obj
 0001:00019290       _alloca_probe              000000014001a290 f   LIBCMT:chkstk.obj
 0001:00019290       __chkstk                   000000014001a290 f   LIBCMT:chkstk.obj
 0001:000192e0       _fcloseall                 000000014001a2e0 f   LIBCMT:closeall.obj
 0001:00019388       _commit                    000000014001a388 f   LIBCMT:commit.obj
 0001:00019460       _write                     000000014001a460 f   LIBCMT:write.obj
 0001:00019544       _write_nolock              000000014001a544 f   LIBCMT:write.obj
 0001:00019d50       memcmp                     000000014001ad50 f   LIBCMT:memcmp.obj
 0001:00019e18       _fclose_nolock             000000014001ae18 f   LIBCMT:fclose.obj
 0001:00019e94       fclose                     000000014001ae94 f   LIBCMT:fclose.obj
 0001:00019efc       _isctype_l                 000000014001aefc f   LIBCMT:isctype.obj
 0001:00019fd8       __crt_atoflt_l             000000014001afd8 f   LIBCMT:atodbl.obj
 0001:0001a0a8       _atodbl_l                  000000014001b0a8 f   LIBCMT:atodbl.obj
 0001:0001a170       _atoflt_l                  000000014001b170 f   LIBCMT:atodbl.obj
 0001:0001a178       _fpmath                    000000014001b178 f   LIBCMT:fpinit.obj
 0001:0001a180       _cfltcvt_init              000000014001b180 f   LIBCMT:fpinit.obj
 0001:0001a208       __lock_fhandle             000000014001b208 f   LIBCMT:osfinfo.obj
 0001:0001a2a0       _free_osfhnd               000000014001b2a0 f   LIBCMT:osfinfo.obj
 0001:0001a34c       _get_osfhandle             000000014001b34c f   LIBCMT:osfinfo.obj
 0001:0001a3c0       _unlock_fhandle            000000014001b3c0 f   LIBCMT:osfinfo.obj
 0001:0001a3ec       _isleadbyte_l              000000014001b3ec f i LIBCMT:_wctype.obj
 0001:0001a430       isleadbyte                 000000014001b430 f i LIBCMT:_wctype.obj
 0001:0001a478       _lseeki64_nolock           000000014001b478 f   LIBCMT:lseeki64.obj
 0001:0001a50c       _mbtowc_l                  000000014001b50c f   LIBCMT:mbtowc.obj
 0001:0001a660       mbtowc                     000000014001b660 f   LIBCMT:mbtowc.obj
 0001:0001a668       _putwch_nolock             000000014001b668 f   LIBCMT:putwch.obj
 0001:0001a6c4       _close                     000000014001b6c4 f   LIBCMT:close.obj
 0001:0001a788       _close_nolock              000000014001b788 f   LIBCMT:close.obj
 0001:0001a844       _freebuf                   000000014001b844 f   LIBCMT:_freebuf.obj
 0001:0001a880       _ld12tod                   000000014001b880 f   LIBCMT:intrncvt.obj
 0001:0001ae38       _ld12tof                   000000014001be38 f   LIBCMT:intrncvt.obj
 0001:0001b3f0       __strgtold12_l             000000014001c3f0 f   LIBCMT:strgtold.obj
 0001:0001bc54       _cfltcvt                   000000014001cc54 f   LIBCMT:cvt.obj
 0001:0001bc78       _cfltcvt_l                 000000014001cc78 f   LIBCMT:cvt.obj
 0001:0001bcf8       _cftoa_l                   000000014001ccf8 f   LIBCMT:cvt.obj
 0001:0001c2a4       _cftoe_l                   000000014001d2a4 f   LIBCMT:cvt.obj
 0001:0001c500       _cftof_l                   000000014001d500 f   LIBCMT:cvt.obj
 0001:0001c5d4       _cftog_l                   000000014001d5d4 f   LIBCMT:cvt.obj
 0001:0001c708       _cropzeros                 000000014001d708 f   LIBCMT:cvt.obj
 0001:0001c710       _cropzeros_l               000000014001d710 f   LIBCMT:cvt.obj
 0001:0001c7a8       _fassign                   000000014001d7a8 f   LIBCMT:cvt.obj
 0001:0001c7b0       _fassign_l                 000000014001d7b0 f   LIBCMT:cvt.obj
 0001:0001c7f0       _forcdecpt                 000000014001d7f0 f   LIBCMT:cvt.obj
 0001:0001c7f8       _forcdecpt_l               000000014001d7f8 f   LIBCMT:cvt.obj
 0001:0001c878       _positive                  000000014001d878 f   LIBCMT:cvt.obj
 0001:0001c88c       __termconout               000000014001d88c f   LIBCMT:initcon.obj
 0001:0001c8ac       __initconout               000000014001d8ac f   LIBCMT:initcon.obj
 0001:0001c8e8       __mtold12                  000000014001d8e8 f   LIBCMT:mantold.obj
 0001:0001cb0c       isdigit                    000000014001db0c f i LIBCMT:_ctype.obj
 0001:0001cb88       _tolower_l                 000000014001db88 f   LIBCMT:tolower.obj
 0001:0001ccdc       tolower                    000000014001dcdc f   LIBCMT:tolower.obj
 0001:0001ccfc       strrchr                    000000014001dcfc f   LIBCMT:strrchr.obj
 0001:0001ce40       _fptostr                   000000014001de40 f   LIBCMT:_fptostr.obj
 0001:0001cf0c       __dtold                    000000014001df0c f   LIBCMT:cfout.obj
 0001:0001cfdc       _fltout2                   000000014001dfdc f   LIBCMT:cfout.obj
 0001:0001d094       $I10_OUTPUT                000000014001e094 f   LIBCMT:x10fout.obj
 0001:0001db6c       IsProcessorFeaturePresent  000000014001eb6c f   kernel32:KERNEL32.dll
 0001:0001db72       RtlUnwindEx                000000014001eb72 f   kernel32:KERNEL32.dll
 0001:0001db78       ?_GetEstablisherFrame@@YAPEA_KPEA_KPEAU_xDISPATCHER_CONTEXT@@PEBU_s_FuncInfo@@0@Z 000000014001eb78 f   LIBCMT:trnsctrl.obj
 0001:0001dc44       ?_GetRangeOfTrysToCheck@@YAPEBU_s_TryBlockMapEntry@@PEA_KPEBU_s_FuncInfo@@HHPEAI2PEAU_xDISPATCHER_CONTEXT@@@Z 000000014001ec44 f   LIBCMT:trnsctrl.obj
 0001:0001dd70       ?__FrameUnwindToEmptyState@@YAXPEA_KPEAU_xDISPATCHER_CONTEXT@@PEBU_s_FuncInfo@@@Z 000000014001ed70 f   LIBCMT:trnsctrl.obj
 0001:0001de04       ?__SehTransFilter@@YAHPEAU_EXCEPTION_POINTERS@@PEAUEHExceptionRecord@@PEA_KPEAU_CONTEXT@@PEAU_xDISPATCHER_CONTEXT@@PEBU_s_FuncInfo@@PEAH@Z 000000014001ee04 f   LIBCMT:trnsctrl.obj
 0001:0001dea8       _CallSETranslator          000000014001eea8 f   LIBCMT:trnsctrl.obj
 0001:0001defc       _CreateFrameInfo           000000014001eefc f   LIBCMT:trnsctrl.obj
 0001:0001df40       _FindAndUnlinkFrame        000000014001ef40 f   LIBCMT:trnsctrl.obj
 0001:0001dfa0       _GetImageBase              000000014001efa0 f   LIBCMT:trnsctrl.obj
 0001:0001dfb8       _GetThrowImageBase         000000014001efb8 f   LIBCMT:trnsctrl.obj
 0001:0001dfd0       _IsExceptionObjectToBeDestroyed 000000014001efd0 f   LIBCMT:trnsctrl.obj
 0001:0001e004       _SetImageBase              000000014001f004 f   LIBCMT:trnsctrl.obj
 0001:0001e020       _SetThrowImageBase         000000014001f020 f   LIBCMT:trnsctrl.obj
 0001:0001e03c       _UnwindNestedFrames        000000014001f03c f   LIBCMT:trnsctrl.obj
 0001:0001e160       __CxxFrameHandler3         000000014001f160 f   LIBCMT:trnsctrl.obj
 0001:0001e1e8       __DestructExceptionObject  000000014001f1e8 f   LIBCMT:frame.obj
 0001:0001e258       ??0bad_exception@std@@QEAA@AEBV01@@Z 000000014001f258 f i LIBCMT:frame.obj
 0001:0001e27c       ??1bad_exception@std@@UEAA@XZ 000000014001f27c f i LIBCMT:frame.obj
 0001:0001e28c       ??_Gbad_exception@std@@UEAAPEAXI@Z 000000014001f28c f i LIBCMT:frame.obj
 0001:0001e28c       ??_Ebad_exception@std@@UEAAPEAXI@Z 000000014001f28c f i LIBCMT:frame.obj
 0001:0001eb80       __AdjustPointer            000000014001fb80 f   LIBCMT:frame.obj
 0001:0001eba4       __BuildCatchObject         000000014001fba4 f   LIBCMT:frame.obj
 0001:0001ec5c       __BuildCatchObjectHelper   000000014001fc5c f   LIBCMT:frame.obj
 0001:0001eeac       __CxxCallCatchBlock        000000014001feac f   LIBCMT:frame.obj
 0001:0001f0b0       __FrameUnwindFilter        00000001400200b0 f   LIBCMT:frame.obj
 0001:0001f104       __FrameUnwindToState       0000000140020104 f   LIBCMT:frame.obj
 0001:0001f298       __InternalCxxFrameHandler  0000000140020298 f   LIBCMT:frame.obj
 0001:0001f4bc       __TypeMatch                00000001400204bc f   LIBCMT:frame.obj
 0001:0001f5ec       ?__GetCurrentState@@YAHPEA_KPEAU_xDISPATCHER_CONTEXT@@PEBU_s_FuncInfo@@@Z 00000001400205ec f   LIBCMT:ehstate.obj
 0001:0001f614       ?__GetUnwindTryBlock@@YAHPEA_KPEAU_xDISPATCHER_CONTEXT@@PEBU_s_FuncInfo@@@Z 0000000140020614 f   LIBCMT:ehstate.obj
 0001:0001f640       ?__SetState@@YAXPEA_KPEAU_xDISPATCHER_CONTEXT@@PEBU_s_FuncInfo@@H@Z 0000000140020640 f   LIBCMT:ehstate.obj
 0001:0001f64c       ?__SetUnwindTryBlock@@YAXPEA_KPEAU_xDISPATCHER_CONTEXT@@PEBU_s_FuncInfo@@H@Z 000000014002064c f   LIBCMT:ehstate.obj
 0001:0001f688       ?__StateFromControlPc@@YAHPEBU_s_FuncInfo@@PEAU_xDISPATCHER_CONTEXT@@@Z 0000000140020688 f   LIBCMT:ehstate.obj
 0001:0001f690       ?__StateFromIp@@YAHPEBU_s_FuncInfo@@PEAU_xDISPATCHER_CONTEXT@@_J@Z 0000000140020690 f   LIBCMT:ehstate.obj
 0001:0001f71c       ?_ValidateWrite@@YAHPEAXI@Z 000000014002071c f   LIBCMT:validate.obj
 0001:0001f71c       ?_ValidateExecute@@YAHP6A_JXZ@Z 000000014002071c f   LIBCMT:validate.obj
 0001:0001f71c       ?_ValidateRead@@YAHPEBXI@Z 000000014002071c f   LIBCMT:validate.obj
 0001:0001f740       _CallSettingFrame          0000000140020740 f   LIBCMT:handlers.obj
 0001:0001f780       _GetNextInstrOffset        0000000140020780 f   LIBCMT:handlers.obj
 0001:0001ff60       ??__FcModuleState@?1??GetCModuleState@CWinApp@@SAPEAVCModuleState@@XZ@YAXXZ 0000000140020f60 f i ChildView.obj
 0002:00000000       __imp_InitCommonControlsEx 0000000140022000     comctl32:COMCTL32.dll
 0002:00000008       \177COMCTL32_NULL_THUNK_DATA 0000000140022008     comctl32:COMCTL32.dll
 0002:00000010       __imp_SaveDC               0000000140022010     gdi32:GDI32.dll
 0002:00000018       __imp_DeleteObject         0000000140022018     gdi32:GDI32.dll
 0002:00000020       __imp_SelectObject         0000000140022020     gdi32:GDI32.dll
 0002:00000028       __imp_GetTextMetricsA      0000000140022028     gdi32:GDI32.dll
 0002:00000030       __imp_SetBkColor           0000000140022030     gdi32:GDI32.dll
 0002:00000038       __imp_ExtTextOutA          0000000140022038     gdi32:GDI32.dll
 0002:00000040       __imp_IntersectClipRect    0000000140022040     gdi32:GDI32.dll
 0002:00000048       __imp_RestoreDC            0000000140022048     gdi32:GDI32.dll
 0002:00000050       __imp_ExcludeClipRect      0000000140022050     gdi32:GDI32.dll
 0002:00000058       __imp_GetDeviceCaps        0000000140022058     gdi32:GDI32.dll
 0002:00000060       __imp_GetCharWidthA        0000000140022060     gdi32:GDI32.dll
 0002:00000068       __imp_CreateFontA          0000000140022068     gdi32:GDI32.dll
 0002:00000070       __imp_GetObjectA           0000000140022070     gdi32:GDI32.dll
 0002:00000078       __imp_StretchDIBits        0000000140022078     gdi32:GDI32.dll
 0002:00000080       __imp_CreateCompatibleDC   0000000140022080     gdi32:GDI32.dll
 0002:00000088       __imp_CreateCompatibleBitmap 0000000140022088     gdi32:GDI32.dll
 0002:00000090       __imp_GetBkColor           0000000140022090     gdi32:GDI32.dll
 0002:00000098       __imp_DeleteDC             0000000140022098     gdi32:GDI32.dll
 0002:000000a0       __imp_TextOutA             00000001400220a0     gdi32:GDI32.dll
 0002:000000a8       \177GDI32_NULL_THUNK_DATA  00000001400220a8     gdi32:GDI32.dll
 0002:000000b0       __imp_GetModuleFileNameA   00000001400220b0     kernel32:KERNEL32.dll
 0002:000000b8       __imp_lstrcpyA             00000001400220b8     kernel32:KERNEL32.dll
 0002:000000c0       __imp_HeapAlloc            00000001400220c0     kernel32:KERNEL32.dll
 0002:000000c8       __imp_HeapFree             00000001400220c8     kernel32:KERNEL32.dll
 0002:000000d0       __imp_GetProcessHeap       00000001400220d0     kernel32:KERNEL32.dll
 0002:000000d8       __imp_InitializeSListHead  00000001400220d8     kernel32:KERNEL32.dll
 0002:000000e0       __imp_InterlockedPopEntrySList 00000001400220e0     kernel32:KERNEL32.dll
 0002:000000e8       __imp_InterlockedPushEntrySList 00000001400220e8     kernel32:KERNEL32.dll
 0002:000000f0       __imp_VirtualAlloc         00000001400220f0     kernel32:KERNEL32.dll
 0002:000000f8       __imp_VirtualFree          00000001400220f8     kernel32:KERNEL32.dll
 0002:00000100       __imp_IsDebuggerPresent    0000000140022100     kernel32:KERNEL32.dll
 0002:00000108       __imp_OutputDebugStringW   0000000140022108     kernel32:KERNEL32.dll
 0002:00000110       __imp_WriteConsoleW        0000000140022110     kernel32:KERNEL32.dll
 0002:00000118       __imp_SetFilePointerEx     0000000140022118     kernel32:KERNEL32.dll
 0002:00000120       __imp_SetStdHandle         0000000140022120     kernel32:KERNEL32.dll
 0002:00000128       __imp_GetConsoleMode       0000000140022128     kernel32:KERNEL32.dll
 0002:00000130       __imp_GetConsoleCP         0000000140022130     kernel32:KERNEL32.dll
 0002:00000138       __imp_FlushFileBuffers     0000000140022138     kernel32:KERNEL32.dll
 0002:00000140       __imp_LCMapStringW         0000000140022140     kernel32:KERNEL32.dll
 0002:00000148       __imp_GetStringTypeW       0000000140022148     kernel32:KERNEL32.dll
 0002:00000150       __imp_LoadLibraryExW       0000000140022150     kernel32:KERNEL32.dll
 0002:00000158       __imp_HeapReAlloc          0000000140022158     kernel32:KERNEL32.dll
 0002:00000160       __imp_GetModuleHandleW     0000000140022160     kernel32:KERNEL32.dll
 0002:00000168       __imp_TlsFree              0000000140022168     kernel32:KERNEL32.dll
 0002:00000170       __imp_DecodePointer        0000000140022170     kernel32:KERNEL32.dll
 0002:00000178       __imp_TlsGetValue          0000000140022178     kernel32:KERNEL32.dll
 0002:00000180       __imp_TlsAlloc             0000000140022180     kernel32:KERNEL32.dll
 0002:00000188       __imp_TerminateProcess     0000000140022188     kernel32:KERNEL32.dll
 0002:00000190       __imp_Sleep                0000000140022190     kernel32:KERNEL32.dll
 0002:00000198       __imp_InitializeCriticalSectionAndSpinCount 0000000140022198     kernel32:KERNEL32.dll
 0002:000001a0       __imp_SetUnhandledExceptionFilter 00000001400221a0     kernel32:KERNEL32.dll
 0002:000001a8       __imp_UnhandledExceptionFilter 00000001400221a8     kernel32:KERNEL32.dll
 0002:000001b0       __imp_RtlVirtualUnwind     00000001400221b0     kernel32:KERNEL32.dll
 0002:000001b8       __imp_RtlLookupFunctionEntry 00000001400221b8     kernel32:KERNEL32.dll
 0002:000001c0       __imp_RtlCaptureContext    00000001400221c0     kernel32:KERNEL32.dll
 0002:000001c8       __imp_FreeEnvironmentStringsW 00000001400221c8     kernel32:KERNEL32.dll
 0002:000001d0       __imp_GetEnvironmentStringsW 00000001400221d0     kernel32:KERNEL32.dll
 0002:000001d8       __imp_GetSystemTimeAsFileTime 00000001400221d8     kernel32:KERNEL32.dll
 0002:000001e0       __imp_GetCurrentProcessId  00000001400221e0     kernel32:KERNEL32.dll
 0002:000001e8       __imp_QueryPerformanceCounter 00000001400221e8     kernel32:KERNEL32.dll
 0002:000001f0       __imp_GetStartupInfoW      00000001400221f0     kernel32:KERNEL32.dll
 0002:000001f8       __imp_GetFileType          00000001400221f8     kernel32:KERNEL32.dll
 0002:00000200       __imp_GetModuleFileNameW   0000000140022200     kernel32:KERNEL32.dll
 0002:00000208       __imp_WriteFile            0000000140022208     kernel32:KERNEL32.dll
 0002:00000210       __imp_GetStdHandle         0000000140022210     kernel32:KERNEL32.dll
 0002:00000218       __imp_SetLastError         0000000140022218     kernel32:KERNEL32.dll
 0002:00000220       __imp_GetCPInfo            0000000140022220     kernel32:KERNEL32.dll
 0002:00000228       __imp_GetOEMCP             0000000140022228     kernel32:KERNEL32.dll
 0002:00000230       __imp_GetACP               0000000140022230     kernel32:KERNEL32.dll
 0002:00000238       __imp_IsValidCodePage      0000000140022238     kernel32:KERNEL32.dll
 0002:00000240       __imp_RtlPcToFileHeader    0000000140022240     kernel32:KERNEL32.dll
 0002:00000248       __imp_RtlUnwindEx          0000000140022248     kernel32:KERNEL32.dll
 0002:00000250       __imp_HeapSize             0000000140022250     kernel32:KERNEL32.dll
 0002:00000258       __imp_GetProcAddress       0000000140022258     kernel32:KERNEL32.dll
 0002:00000260       __imp_GetModuleHandleExW   0000000140022260     kernel32:KERNEL32.dll
 0002:00000268       __imp_ExitProcess          0000000140022268     kernel32:KERNEL32.dll
 0002:00000270       __imp_IsProcessorFeaturePresent 0000000140022270     kernel32:KERNEL32.dll
 0002:00000278       __imp_GetCommandLineA      0000000140022278     kernel32:KERNEL32.dll
 0002:00000280       __imp_EncodePointer        0000000140022280     kernel32:KERNEL32.dll
 0002:00000288       __imp_FindResourceW        0000000140022288     kernel32:KERNEL32.dll
 0002:00000290       __imp_SizeofResource       0000000140022290     kernel32:KERNEL32.dll
 0002:00000298       __imp_WideCharToMultiByte  0000000140022298     kernel32:KERNEL32.dll
 0002:000002a0       __imp_lstrcpynA            00000001400222a0     kernel32:KERNEL32.dll
 0002:000002a8       __imp_MultiByteToWideChar  00000001400222a8     kernel32:KERNEL32.dll
 0002:000002b0       __imp_lstrcmpiA            00000001400222b0     kernel32:KERNEL32.dll
 0002:000002b8       __imp_FindResourceA        00000001400222b8     kernel32:KERNEL32.dll
 0002:000002c0       __imp_FreeResource         00000001400222c0     kernel32:KERNEL32.dll
 0002:000002c8       __imp_LoadResource         00000001400222c8     kernel32:KERNEL32.dll
 0002:000002d0       __imp_LockResource         00000001400222d0     kernel32:KERNEL32.dll
 0002:000002d8       __imp_GlobalDeleteAtom     00000001400222d8     kernel32:KERNEL32.dll
 0002:000002e0       __imp_CloseHandle          00000001400222e0     kernel32:KERNEL32.dll
 0002:000002e8       __imp_lstrcmpA             00000001400222e8     kernel32:KERNEL32.dll
 0002:000002f0       __imp_LeaveCriticalSection 00000001400222f0     kernel32:KERNEL32.dll
 0002:000002f8       __imp_EnterCriticalSection 00000001400222f8     kernel32:KERNEL32.dll
 0002:00000300       __imp_GetCurrentThreadId   0000000140022300     kernel32:KERNEL32.dll
 0002:00000308       __imp_RaiseException       0000000140022308     kernel32:KERNEL32.dll
 0002:00000310       __imp_DeleteCriticalSection 0000000140022310     kernel32:KERNEL32.dll
 0002:00000318       __imp_InitializeCriticalSectionEx 0000000140022318     kernel32:KERNEL32.dll
 0002:00000320       __imp_GetLastError         0000000140022320     kernel32:KERNEL32.dll
 0002:00000328       __imp_FlushInstructionCache 0000000140022328     kernel32:KERNEL32.dll
 0002:00000330       __imp_GetCurrentProcess    0000000140022330     kernel32:KERNEL32.dll
 0002:00000338       __imp_TlsSetValue          0000000140022338     kernel32:KERNEL32.dll
 0002:00000340       __imp_lstrlenA             0000000140022340     kernel32:KERNEL32.dll
 0002:00000348       __imp_CreateFileW          0000000140022348     kernel32:KERNEL32.dll
 0002:00000350       \177KERNEL32_NULL_THUNK_DATA 0000000140022350     kernel32:KERNEL32.dll
 0002:00000358       __imp_DragQueryFileA       0000000140022358     shell32:SHELL32.dll
 0002:00000360       __imp_DragFinish           0000000140022360     shell32:SHELL32.dll
 0002:00000368       \177SHELL32_NULL_THUNK_DATA 0000000140022368     shell32:SHELL32.dll
 0002:00000370       __imp_PathFindExtensionA   0000000140022370     shlwapi:SHLWAPI.dll
 0002:00000378       __imp_PathFindFileNameA    0000000140022378     shlwapi:SHLWAPI.dll
 0002:00000380       \177SHLWAPI_NULL_THUNK_DATA 0000000140022380     shlwapi:SHLWAPI.dll
 0002:00000388       __imp_SetParent            0000000140022388     user32:USER32.dll
 0002:00000390       __imp_GetCursorPos         0000000140022390     user32:USER32.dll
 0002:00000398       __imp_GetForegroundWindow  0000000140022398     user32:USER32.dll
 0002:000003a0       __imp_AppendMenuA          00000001400223a0     user32:USER32.dll
 0002:000003a8       __imp_DeleteMenu           00000001400223a8     user32:USER32.dll
 0002:000003b0       __imp_GetSystemMenu        00000001400223b0     user32:USER32.dll
 0002:000003b8       __imp_GetCapture           00000001400223b8     user32:USER32.dll
 0002:000003c0       __imp_IsChild              00000001400223c0     user32:USER32.dll
 0002:000003c8       __imp_WindowFromPoint      00000001400223c8     user32:USER32.dll
 0002:000003d0       __imp_GetWindowDC          00000001400223d0     user32:USER32.dll
 0002:000003d8       __imp_IsWindow             00000001400223d8     user32:USER32.dll
 0002:000003e0       __imp_SetFocus             00000001400223e0     user32:USER32.dll
 0002:000003e8       __imp_OffsetRect           00000001400223e8     user32:USER32.dll
 0002:000003f0       __imp_GetDC                00000001400223f0     user32:USER32.dll
 0002:000003f8       __imp_ReleaseDC            00000001400223f8     user32:USER32.dll
 0002:00000400       __imp_IsZoomed             0000000140022400     user32:USER32.dll
 0002:00000408       __imp_GetSystemMetrics     0000000140022408     user32:USER32.dll
 0002:00000410       __imp_KillTimer            0000000140022410     user32:USER32.dll
 0002:00000418       __imp_GetSysColor          0000000140022418     user32:USER32.dll
 0002:00000420       __imp_SetRectEmpty         0000000140022420     user32:USER32.dll
 0002:00000428       __imp_TranslateAcceleratorA 0000000140022428     user32:USER32.dll
 0002:00000430       __imp_InvalidateRect       0000000140022430     user32:USER32.dll
 0002:00000438       __imp_IsIconic             0000000140022438     user32:USER32.dll
 0002:00000440       __imp_BringWindowToTop     0000000140022440     user32:USER32.dll
 0002:00000448       __imp_LoadMenuA            0000000140022448     user32:USER32.dll
 0002:00000450       __imp_LoadAcceleratorsA    0000000140022450     user32:USER32.dll
 0002:00000458       __imp_LoadStringA          0000000140022458     user32:USER32.dll
 0002:00000460       __imp_ShowOwnedPopups      0000000140022460     user32:USER32.dll
 0002:00000468       __imp_SetWindowLongA       0000000140022468     user32:USER32.dll
 0002:00000470       __imp_WinHelpA             0000000140022470     user32:USER32.dll
 0002:00000478       __imp_GetSubMenu           0000000140022478     user32:USER32.dll
 0002:00000480       __imp_GetMenuItemCount     0000000140022480     user32:USER32.dll
 0002:00000488       __imp_GetMenuItemID        0000000140022488     user32:USER32.dll
 0002:00000490       __imp_GetKeyState          0000000140022490     user32:USER32.dll
 0002:00000498       __imp_BeginDeferWindowPos  0000000140022498     user32:USER32.dll
 0002:000004a0       __imp_CopyRect             00000001400224a0     user32:USER32.dll
 0002:000004a8       __imp_ScreenToClient       00000001400224a8     user32:USER32.dll
 0002:000004b0       __imp_EqualRect            00000001400224b0     user32:USER32.dll
 0002:000004b8       __imp_DeferWindowPos       00000001400224b8     user32:USER32.dll
 0002:000004c0       __imp_EndDeferWindowPos    00000001400224c0     user32:USER32.dll
 0002:000004c8       __imp_GetClassNameA        00000001400224c8     user32:USER32.dll
 0002:000004d0       __imp_IsDialogMessageA     00000001400224d0     user32:USER32.dll
 0002:000004d8       __imp_CreateDialogIndirectParamA 00000001400224d8     user32:USER32.dll
 0002:000004e0       __imp_MonitorFromWindow    00000001400224e0     user32:USER32.dll
 0002:000004e8       __imp_GetMonitorInfoA      00000001400224e8     user32:USER32.dll
 0002:000004f0       __imp_MapWindowPoints      00000001400224f0     user32:USER32.dll
 0002:000004f8       __imp_SendDlgItemMessageA  00000001400224f8     user32:USER32.dll
 0002:00000500       __imp_EndDialog            0000000140022500     user32:USER32.dll
 0002:00000508       __imp_IsWindowEnabled      0000000140022508     user32:USER32.dll
 0002:00000510       __imp_SetActiveWindow      0000000140022510     user32:USER32.dll
 0002:00000518       __imp_UpdateWindow         0000000140022518     user32:USER32.dll
 0002:00000520       __imp_GetDlgItem           0000000140022520     user32:USER32.dll
 0002:00000528       __imp_GetDesktopWindow     0000000140022528     user32:USER32.dll
 0002:00000530       __imp_GetLastActivePopup   0000000140022530     user32:USER32.dll
 0002:00000538       __imp_GetClientRect        0000000140022538     user32:USER32.dll
 0002:00000540       __imp_SetWindowPos         0000000140022540     user32:USER32.dll
 0002:00000548       __imp_IsWindowVisible      0000000140022548     user32:USER32.dll
 0002:00000550       __imp_GetTopWindow         0000000140022550     user32:USER32.dll
 0002:00000558       __imp_ShowWindow           0000000140022558     user32:USER32.dll
 0002:00000560       __imp_GetMessageA          0000000140022560     user32:USER32.dll
 0002:00000568       __imp_GetActiveWindow      0000000140022568     user32:USER32.dll
 0002:00000570       __imp_TranslateMessage     0000000140022570     user32:USER32.dll
 0002:00000578       __imp_DispatchMessageA     0000000140022578     user32:USER32.dll
 0002:00000580       __imp_PeekMessageA         0000000140022580     user32:USER32.dll
 0002:00000588       __imp_EndPaint             0000000140022588     user32:USER32.dll
 0002:00000590       __imp_BeginPaint           0000000140022590     user32:USER32.dll
 0002:00000598       __imp_wsprintfA            0000000140022598     user32:USER32.dll
 0002:000005a0       __imp_ChildWindowFromPointEx 00000001400225a0     user32:USER32.dll
 0002:000005a8       __imp_ClientToScreen       00000001400225a8     user32:USER32.dll
 0002:000005b0       __imp_GetWindow            00000001400225b0     user32:USER32.dll
 0002:000005b8       __imp_GetWindowRect        00000001400225b8     user32:USER32.dll
 0002:000005c0       __imp_PtInRect             00000001400225c0     user32:USER32.dll
 0002:000005c8       __imp_GetDlgCtrlID         00000001400225c8     user32:USER32.dll
 0002:000005d0       __imp_EnableMenuItem       00000001400225d0     user32:USER32.dll
 0002:000005d8       __imp_GetFocus             00000001400225d8     user32:USER32.dll
 0002:000005e0       __imp_GetParent            00000001400225e0     user32:USER32.dll
 0002:000005e8       __imp_CheckMenuItem        00000001400225e8     user32:USER32.dll
 0002:000005f0       __imp_GetMenuState         00000001400225f0     user32:USER32.dll
 0002:000005f8       __imp_ModifyMenuA          00000001400225f8     user32:USER32.dll
 0002:00000600       __imp_GetWindowTextA       0000000140022600     user32:USER32.dll
 0002:00000608       __imp_SetWindowTextA       0000000140022608     user32:USER32.dll
 0002:00000610       __imp_PostQuitMessage      0000000140022610     user32:USER32.dll
 0002:00000618       __imp_SendMessageA         0000000140022618     user32:USER32.dll
 0002:00000620       __imp_GetClassInfoExA      0000000140022620     user32:USER32.dll
 0002:00000628       __imp_SetWindowsHookExA    0000000140022628     user32:USER32.dll
 0002:00000630       __imp_GetClassLongA        0000000140022630     user32:USER32.dll
 0002:00000638       __imp_UnregisterClassA     0000000140022638     user32:USER32.dll
 0002:00000640       __imp_SetWindowLongPtrA    0000000140022640     user32:USER32.dll
 0002:00000648       __imp_AdjustWindowRectEx   0000000140022648     user32:USER32.dll
 0002:00000650       __imp_GetWindowLongA       0000000140022650     user32:USER32.dll
 0002:00000658       __imp_DestroyWindow        0000000140022658     user32:USER32.dll
 0002:00000660       __imp_EnableWindow         0000000140022660     user32:USER32.dll
 0002:00000668       __imp_DestroyMenu          0000000140022668     user32:USER32.dll
 0002:00000670       __imp_GetMenu              0000000140022670     user32:USER32.dll
 0002:00000678       __imp_SetMenu              0000000140022678     user32:USER32.dll
 0002:00000680       __imp_CallWindowProcA      0000000140022680     user32:USER32.dll
 0002:00000688       __imp_CallNextHookEx       0000000140022688     user32:USER32.dll
 0002:00000690       __imp_CreateWindowExA      0000000140022690     user32:USER32.dll
 0002:00000698       __imp_UnhookWindowsHookEx  0000000140022698     user32:USER32.dll
 0002:000006a0       __imp_DefWindowProcA       00000001400226a0     user32:USER32.dll
 0002:000006a8       __imp_LoadCursorA          00000001400226a8     user32:USER32.dll
 0002:000006b0       __imp_LoadIconW            00000001400226b0     user32:USER32.dll
 0002:000006b8       __imp_LoadIconA            00000001400226b8     user32:USER32.dll
 0002:000006c0       __imp_GetClassInfoA        00000001400226c0     user32:USER32.dll
 0002:000006c8       __imp_RegisterClassA       00000001400226c8     user32:USER32.dll
 0002:000006d0       __imp_PostMessageA         00000001400226d0     user32:USER32.dll
 0002:000006d8       __imp_SetTimer             00000001400226d8     user32:USER32.dll
 0002:000006e0       \177USER32_NULL_THUNK_DATA 00000001400226e0     user32:USER32.dll
 0002:000006e8       __xc_a                     00000001400226e8     LIBCMT:crt0init.obj
 0002:00000728       __xc_z                     0000000140022728     LIBCMT:crt0init.obj
 0002:00000730       __xi_a                     0000000140022730     LIBCMT:crt0init.obj
 0002:00000760       __xi_z                     0000000140022760     LIBCMT:crt0init.obj
 0002:00000768       __xp_a                     0000000140022768     LIBCMT:crt0init.obj
 0002:00000788       __xp_z                     0000000140022788     LIBCMT:crt0init.obj
 0002:00000790       __xt_a                     0000000140022790     LIBCMT:crt0init.obj
 0002:00000798       __xt_z                     0000000140022798     LIBCMT:crt0init.obj
 0002:000007a0       GUID_ATLVer110             00000001400227a0     atls:atlbase.obj
 0002:000007b0       ??_C@_1IC@ONKHOIDK@?$AAE?$AAR?$AAR?$AAO?$AAR?$AA?5?$AA?3?$AA?5?$AAU?$AAn?$AAa?$AAb?$AAl?$AAe?$AA?5?$AAt?$AAo?$AA?5?$AAi?$AAn?$AAi?$AAt?$AAi?$AAa?$AAl?$AAi?$AAz?$AAe?$AA?5?$AAc?$AAr?$AAi@ 00000001400227b0     atls:atlbase.obj
 0002:00000840       ??_7type_info@@6B@         0000000140022840     LIBCMT:typinfo.obj
 0002:00000850       ??_7bad_alloc@std@@6B@     0000000140022850     LIBCMT:new.obj
 0002:00000860       ??_C@_0P@GHFPNOJB@bad?5allocation?$AA@ 0000000140022860     LIBCMT:new.obj
 0002:00000870       ??_C@_1BI@BGOHAHKC@?$AAm?$AAs?$AAc?$AAo?$AAr?$AAe?$AAe?$AA?4?$AAd?$AAl?$AAl?$AA?$AA@ 0000000140022870     LIBCMT:crt0dat.obj
 0002:00000888       ??_C@_0P@MIGLKIOC@CorExitProcess?$AA@ 0000000140022888     LIBCMT:crt0dat.obj
 0002:000008a0       ??_7exception@std@@6B@     00000001400228a0     LIBCMT:stdexcpt.obj
 0002:000008b0       ??_C@_0BC@EOODALEL@Unknown?5exception?$AA@ 00000001400228b0     LIBCMT:stdexcpt.obj
 0002:00000930       ??_C@_1M@HPNHIDJI@?$AAj?$AAa?$AA?9?$AAJ?$AAP?$AA?$AA@ 0000000140022930     LIBCMT:mbctype.obj
 0002:00000940       ??_C@_1M@BIBDDEMK@?$AAz?$AAh?$AA?9?$AAC?$AAN?$AA?$AA@ 0000000140022940     LIBCMT:mbctype.obj
 0002:00000950       ??_C@_1M@JLOOOEGK@?$AAk?$AAo?$AA?9?$AAK?$AAR?$AA?$AA@ 0000000140022950     LIBCMT:mbctype.obj
 0002:00000960       ??_C@_1M@CLNBBOPM@?$AAz?$AAh?$AA?9?$AAT?$AAW?$AA?$AA@ 0000000140022960     LIBCMT:mbctype.obj
 0002:0000096c       ??_C@_03KOEHGMDN@Sun?$AA@  000000014002296c     LIBCMT:nlsdata.obj
 0002:00000970       ??_C@_03PDAGKDH@Mon?$AA@   0000000140022970     LIBCMT:nlsdata.obj
 0002:00000974       ??_C@_03NAGEINEP@Tue?$AA@  0000000140022974     LIBCMT:nlsdata.obj
 0002:00000978       ??_C@_03MHOMLAJA@Wed?$AA@  0000000140022978     LIBCMT:nlsdata.obj
 0002:0000097c       ??_C@_03IOFIKPDN@Thu?$AA@  000000014002297c     LIBCMT:nlsdata.obj
 0002:00000980       ??_C@_03IDIOELNC@Fri?$AA@  0000000140022980     LIBCMT:nlsdata.obj
 0002:00000984       ??_C@_03FEFJNEK@Sat?$AA@   0000000140022984     LIBCMT:nlsdata.obj
 0002:00000988       ??_C@_06OOPIFAJ@Sunday?$AA@ 0000000140022988     LIBCMT:nlsdata.obj
 0002:00000990       ??_C@_06JLEDEDGH@Monday?$AA@ 0000000140022990     LIBCMT:nlsdata.obj
 0002:00000998       ??_C@_07BAAGCFCM@Tuesday?$AA@ 0000000140022998     LIBCMT:nlsdata.obj
 0002:000009a0       ??_C@_09DLIGFAKA@Wednesday?$AA@ 00000001400229a0     LIBCMT:nlsdata.obj
 0002:000009b0       ??_C@_08HACCIKIA@Thursday?$AA@ 00000001400229b0     LIBCMT:nlsdata.obj
 0002:000009bc       ??_C@_06JECMNKMI@Friday?$AA@ 00000001400229bc     LIBCMT:nlsdata.obj
 0002:000009c8       ??_C@_08INBOOONO@Saturday?$AA@ 00000001400229c8     LIBCMT:nlsdata.obj
 0002:000009d4       ??_C@_03JIHJHPIE@Jan?$AA@  00000001400229d4     LIBCMT:nlsdata.obj
 0002:000009d8       ??_C@_03HJBDCHOM@Feb?$AA@  00000001400229d8     LIBCMT:nlsdata.obj
 0002:000009dc       ??_C@_03ODNJBKGA@Mar?$AA@  00000001400229dc     LIBCMT:nlsdata.obj
 0002:000009e0       ??_C@_03LEOLGMJP@Apr?$AA@  00000001400229e0     LIBCMT:nlsdata.obj
 0002:000009e4       ??_C@_03CNMDKL@May?$AA@    00000001400229e4     LIBCMT:nlsdata.obj
 0002:000009e8       ??_C@_03IDFGHECI@Jun?$AA@  00000001400229e8     LIBCMT:nlsdata.obj
 0002:000009ec       ??_C@_03LBGABGKK@Jul?$AA@  00000001400229ec     LIBCMT:nlsdata.obj
 0002:000009f0       ??_C@_03IFJFEIGA@Aug?$AA@  00000001400229f0     LIBCMT:nlsdata.obj
 0002:000009f4       ??_C@_03GGCAPAJC@Sep?$AA@  00000001400229f4     LIBCMT:nlsdata.obj
 0002:000009f8       ??_C@_03BMAOKBAD@Oct?$AA@  00000001400229f8     LIBCMT:nlsdata.obj
 0002:000009fc       ??_C@_03JPJOFNIA@Nov?$AA@  00000001400229fc     LIBCMT:nlsdata.obj
 0002:00000a00       ??_C@_03MKABNOCG@Dec?$AA@  0000000140022a00     LIBCMT:nlsdata.obj
 0002:00000a08       ??_C@_07CGJPFGJA@January?$AA@ 0000000140022a08     LIBCMT:nlsdata.obj
 0002:00000a10       ??_C@_08GNJGEPFN@February?$AA@ 0000000140022a10     LIBCMT:nlsdata.obj
 0002:00000a1c       ??_C@_05HPCKOFNC@March?$AA@ 0000000140022a1c     LIBCMT:nlsdata.obj
 0002:00000a24       ??_C@_05DMJDNLEJ@April?$AA@ 0000000140022a24     LIBCMT:nlsdata.obj
 0002:00000a2c       ??_C@_04CNLMGBGM@June?$AA@ 0000000140022a2c     LIBCMT:nlsdata.obj
 0002:00000a34       ??_C@_04MIEPOIFP@July?$AA@ 0000000140022a34     LIBCMT:nlsdata.obj
 0002:00000a3c       ??_C@_06LBBHFDDG@August?$AA@ 0000000140022a3c     LIBCMT:nlsdata.obj
 0002:00000a48       ??_C@_09BHHEALKD@September?$AA@ 0000000140022a48     LIBCMT:nlsdata.obj
 0002:00000a58       ??_C@_07JJNFCEND@October?$AA@ 0000000140022a58     LIBCMT:nlsdata.obj
 0002:00000a60       ??_C@_08HCHEGEOA@November?$AA@ 0000000140022a60     LIBCMT:nlsdata.obj
 0002:00000a70       ??_C@_08EDHMEBNP@December?$AA@ 0000000140022a70     LIBCMT:nlsdata.obj
 0002:00000a7c       ??_C@_02DEDBPAFC@AM?$AA@   0000000140022a7c     LIBCMT:nlsdata.obj
 0002:00000a80       ??_C@_02CJNFDJBF@PM?$AA@   0000000140022a80     LIBCMT:nlsdata.obj
 0002:00000a88       ??_C@_08BPBNCDIB@MM?1dd?1yy?$AA@ 0000000140022a88     LIBCMT:nlsdata.obj
 0002:00000a98       ??_C@_0BE@CKGJFCPC@dddd?0?5MMMM?5dd?0?5yyyy?$AA@ 0000000140022a98     LIBCMT:nlsdata.obj
 0002:00000ab0       ??_C@_08JCCMCCIL@HH?3mm?3ss?$AA@ 0000000140022ab0     LIBCMT:nlsdata.obj
 0002:00000ac0       ??_C@_17MBGCMIPB@?$AAS?$AAu?$AAn?$AA?$AA@ 0000000140022ac0     LIBCMT:nlsdata.obj
 0002:00000ac8       ??_C@_17KBOMKBF@?$AAM?$AAo?$AAn?$AA?$AA@ 0000000140022ac8     LIBCMT:nlsdata.obj
 0002:00000ad0       ??_C@_17BMKGEGOJ@?$AAT?$AAu?$AAe?$AA?$AA@ 0000000140022ad0     LIBCMT:nlsdata.obj
 0002:00000ad8       ??_C@_17CJEDCEPE@?$AAW?$AAe?$AAd?$AA?$AA@ 0000000140022ad8     LIBCMT:nlsdata.obj
 0002:00000ae0       ??_C@_17PDPHAADD@?$AAT?$AAh?$AAu?$AA?$AA@ 0000000140022ae0     LIBCMT:nlsdata.obj
 0002:00000ae8       ??_C@_17HFOLPPLP@?$AAF?$AAr?$AAi?$AA?$AA@ 0000000140022ae8     LIBCMT:nlsdata.obj
 0002:00000af0       ??_C@_17GGIBDPIH@?$AAS?$AAa?$AAt?$AA?$AA@ 0000000140022af0     LIBCMT:nlsdata.obj
 0002:00000af8       ??_C@_1O@IHNHDHPB@?$AAS?$AAu?$AAn?$AAd?$AAa?$AAy?$AA?$AA@ 0000000140022af8     LIBCMT:nlsdata.obj
 0002:00000b08       ??_C@_1O@MMNBFLIA@?$AAM?$AAo?$AAn?$AAd?$AAa?$AAy?$AA?$AA@ 0000000140022b08     LIBCMT:nlsdata.obj
 0002:00000b18       ??_C@_1BA@ENFBFFEK@?$AAT?$AAu?$AAe?$AAs?$AAd?$AAa?$AAy?$AA?$AA@ 0000000140022b18     LIBCMT:nlsdata.obj
 0002:00000b28       ??_C@_1BE@EBOGMDOH@?$AAW?$AAe?$AAd?$AAn?$AAe?$AAs?$AAd?$AAa?$AAy?$AA?$AA@ 0000000140022b28     LIBCMT:nlsdata.obj
 0002:00000b40       ??_C@_1BC@HHMNLIHE@?$AAT?$AAh?$AAu?$AAr?$AAs?$AAd?$AAa?$AAy?$AA?$AA@ 0000000140022b40     LIBCMT:nlsdata.obj
 0002:00000b58       ??_C@_1O@PDICJHAG@?$AAF?$AAr?$AAi?$AAd?$AAa?$AAy?$AA?$AA@ 0000000140022b58     LIBCMT:nlsdata.obj
 0002:00000b68       ??_C@_1BC@ENMNNPAJ@?$AAS?$AAa?$AAt?$AAu?$AAr?$AAd?$AAa?$AAy?$AA?$AA@ 0000000140022b68     LIBCMT:nlsdata.obj
 0002:00000b80       ??_C@_17DKNBKCHM@?$AAJ?$AAa?$AAn?$AA?$AA@ 0000000140022b80     LIBCMT:nlsdata.obj
 0002:00000b88       ??_C@_17LMDJEKJN@?$AAF?$AAe?$AAb?$AA?$AA@ 0000000140022b88     LIBCMT:nlsdata.obj
 0002:00000b90       ??_C@_17CKNLEDEC@?$AAM?$AAa?$AAr?$AA?$AA@ 0000000140022b90     LIBCMT:nlsdata.obj
 0002:00000b98       ??_C@_17LFPOIHDD@?$AAA?$AAp?$AAr?$AA?$AA@ 0000000140022b98     LIBCMT:nlsdata.obj
 0002:00000ba0       ??_C@_17PNNKMEED@?$AAM?$AAa?$AAy?$AA?$AA@ 0000000140022ba0     LIBCMT:nlsdata.obj
 0002:00000ba8       ??_C@_17KCJGOCPB@?$AAJ?$AAu?$AAn?$AA?$AA@ 0000000140022ba8     LIBCMT:nlsdata.obj
 0002:00000bb0       ??_C@_17IJPCKHK@?$AAJ?$AAu?$AAl?$AA?$AA@ 0000000140022bb0     LIBCMT:nlsdata.obj
 0002:00000bb8       ??_C@_17ICPELBCN@?$AAA?$AAu?$AAg?$AA?$AA@ 0000000140022bb8     LIBCMT:nlsdata.obj
 0002:00000bc0       ??_C@_17HCHCOKMG@?$AAS?$AAe?$AAp?$AA?$AA@ 0000000140022bc0     LIBCMT:nlsdata.obj
 0002:00000bc8       ??_C@_17FNLKOI@?$AAO?$AAc?$AAt?$AA?$AA@ 0000000140022bc8     LIBCMT:nlsdata.obj
 0002:00000bd0       ??_C@_17BBDMLCIG@?$AAN?$AAo?$AAv?$AA?$AA@ 0000000140022bd0     LIBCMT:nlsdata.obj
 0002:00000bd8       ??_C@_17EGKACKIF@?$AAD?$AAe?$AAc?$AA?$AA@ 0000000140022bd8     LIBCMT:nlsdata.obj
 0002:00000be0       ??_C@_1BA@EFMEIEBA@?$AAJ?$AAa?$AAn?$AAu?$AAa?$AAr?$AAy?$AA?$AA@ 0000000140022be0     LIBCMT:nlsdata.obj
 0002:00000bf0       ??_C@_1BC@JGDDFFAM@?$AAF?$AAe?$AAb?$AAr?$AAu?$AAa?$AAr?$AAy?$AA?$AA@ 0000000140022bf0     LIBCMT:nlsdata.obj
 0002:00000c08       ??_C@_1M@IKEENEDF@?$AAM?$AAa?$AAr?$AAc?$AAh?$AA?$AA@ 0000000140022c08     LIBCMT:nlsdata.obj
 0002:00000c18       ??_C@_1M@GJNLMHFD@?$AAA?$AAp?$AAr?$AAi?$AAl?$AA?$AA@ 0000000140022c18     LIBCMT:nlsdata.obj
 0002:00000c28       ??_C@_19EPFLPGAP@?$AAJ?$AAu?$AAn?$AAe?$AA?$AA@ 0000000140022c28     LIBCMT:nlsdata.obj
 0002:00000c38       ??_C@_19BIFMLPCD@?$AAJ?$AAu?$AAl?$AAy?$AA?$AA@ 0000000140022c38     LIBCMT:nlsdata.obj
 0002:00000c48       ??_C@_1O@PAHLKOAC@?$AAA?$AAu?$AAg?$AAu?$AAs?$AAt?$AA?$AA@ 0000000140022c48     LIBCMT:nlsdata.obj
 0002:00000c58       ??_C@_1BE@DKAAMBJL@?$AAS?$AAe?$AAp?$AAt?$AAe?$AAm?$AAb?$AAe?$AAr?$AA?$AA@ 0000000140022c58     LIBCMT:nlsdata.obj
 0002:00000c70       ??_C@_1BA@EPANDLNG@?$AAO?$AAc?$AAt?$AAo?$AAb?$AAe?$AAr?$AA?$AA@ 0000000140022c70     LIBCMT:nlsdata.obj
 0002:00000c80       ??_C@_1BC@BGLIFPF@?$AAN?$AAo?$AAv?$AAe?$AAm?$AAb?$AAe?$AAr?$AA?$AA@ 0000000140022c80     LIBCMT:nlsdata.obj
 0002:00000c98       ??_C@_1BC@FEMKIFH@?$AAD?$AAe?$AAc?$AAe?$AAm?$AAb?$AAe?$AAr?$AA?$AA@ 0000000140022c98     LIBCMT:nlsdata.obj
 0002:00000cac       ??_C@_15ODEHAHHF@?$AAA?$AAM?$AA?$AA@ 0000000140022cac     LIBCMT:nlsdata.obj
 0002:00000cb4       ??_C@_15CLMNNGEL@?$AAP?$AAM?$AA?$AA@ 0000000140022cb4     LIBCMT:nlsdata.obj
 0002:00000cc0       ??_C@_1BC@IEBCMHCM@?$AAM?$AAM?$AA?1?$AAd?$AAd?$AA?1?$AAy?$AAy?$AA?$AA@ 0000000140022cc0     LIBCMT:nlsdata.obj
 0002:00000cd8       ??_C@_1CI@KNAKOEBC@?$AAd?$AAd?$AAd?$AAd?$AA?0?$AA?5?$AAM?$AAM?$AAM?$AAM?$AA?5?$AAd?$AAd?$AA?0?$AA?5?$AAy?$AAy?$AAy?$AAy?$AA?$AA@ 0000000140022cd8     LIBCMT:nlsdata.obj
 0002:00000d00       ??_C@_1BC@GDGBMEMK@?$AAH?$AAH?$AA?3?$AAm?$AAm?$AA?3?$AAs?$AAs?$AA?$AA@ 0000000140022d00     LIBCMT:nlsdata.obj
 0002:00000d18       ??_C@_1M@BMHNFIME@?$AAe?$AAn?$AA?9?$AAU?$AAS?$AA?$AA@ 0000000140022d18     LIBCMT:nlsdata.obj
 0002:00000ea0       ??_C@_1FK@PGACCAFB@?$AAR?$AA6?$AA0?$AA0?$AA2?$AA?$AN?$AA?6?$AA?9?$AA?5?$AAf?$AAl?$AAo?$AAa?$AAt?$AAi?$AAn?$AAg?$AA?5?$AAp?$AAo?$AAi?$AAn?$AAt?$AA?5?$AAs?$AAu?$AAp?$AAp?$AAo?$AAr?$AAt?$AA?5@ 0000000140022ea0     LIBCMT:crt0msg.obj
 0002:00000f00       ??_C@_1FE@LLNEDJMD@?$AAR?$AA6?$AA0?$AA0?$AA8?$AA?$AN?$AA?6?$AA?9?$AA?5?$AAn?$AAo?$AAt?$AA?5?$AAe?$AAn?$AAo?$AAu?$AAg?$AAh?$AA?5?$AAs?$AAp?$AAa?$AAc?$AAe?$AA?5?$AAf?$AAo?$AAr?$AA?5?$AAa?$AAr@ 0000000140022f00     LIBCMT:crt0msg.obj
 0002:00000f60       ??_C@_1FI@HONFMGBI@?$AAR?$AA6?$AA0?$AA0?$AA9?$AA?$AN?$AA?6?$AA?9?$AA?5?$AAn?$AAo?$AAt?$AA?5?$AAe?$AAn?$AAo?$AAu?$AAg?$AAh?$AA?5?$AAs?$AAp?$AAa?$AAc?$AAe?$AA?5?$AAf?$AAo?$AAr?$AA?5?$AAe?$AAn@ 0000000140022f60     LIBCMT:crt0msg.obj
 0002:00000fc0       ??_C@_1EG@BEHAGFJD@?$AAR?$AA6?$AA0?$AA1?$AA0?$AA?$AN?$AA?6?$AA?9?$AA?5?$AAa?$AAb?$AAo?$AAr?$AAt?$AA?$CI?$AA?$CJ?$AA?5?$AAh?$AAa?$AAs?$AA?5?$AAb?$AAe?$AAe?$AAn?$AA?5?$AAc?$AAa?$AAl?$AAl?$AAe?$AAd@ 0000000140022fc0     LIBCMT:crt0msg.obj
 0002:00001010       ??_C@_1FI@LOGNIKDM@?$AAR?$AA6?$AA0?$AA1?$AA6?$AA?$AN?$AA?6?$AA?9?$AA?5?$AAn?$AAo?$AAt?$AA?5?$AAe?$AAn?$AAo?$AAu?$AAg?$AAh?$AA?5?$AAs?$AAp?$AAa?$AAc?$AAe?$AA?5?$AAf?$AAo?$AAr?$AA?5?$AAt?$AAh@ 0000000140023010     LIBCMT:crt0msg.obj
 0002:00001070       ??_C@_1FK@BEOGODMC@?$AAR?$AA6?$AA0?$AA1?$AA7?$AA?$AN?$AA?6?$AA?9?$AA?5?$AAu?$AAn?$AAe?$AAx?$AAp?$AAe?$AAc?$AAt?$AAe?$AAd?$AA?5?$AAm?$AAu?$AAl?$AAt?$AAi?$AAt?$AAh?$AAr?$AAe?$AAa?$AAd?$AA?5@ 0000000140023070     LIBCMT:crt0msg.obj
 0002:000010d0       ??_C@_1EC@JIBHAOPH@?$AAR?$AA6?$AA0?$AA1?$AA8?$AA?$AN?$AA?6?$AA?9?$AA?5?$AAu?$AAn?$AAe?$AAx?$AAp?$AAe?$AAc?$AAt?$AAe?$AAd?$AA?5?$AAh?$AAe?$AAa?$AAp?$AA?5?$AAe?$AAr?$AAr?$AAo?$AAr?$AA?$AN?$AA?6@ 00000001400230d0     LIBCMT:crt0msg.obj
 0002:00001120       ??_C@_1FC@ECHBIFBC@?$AAR?$AA6?$AA0?$AA1?$AA9?$AA?$AN?$AA?6?$AA?9?$AA?5?$AAu?$AAn?$AAa?$AAb?$AAl?$AAe?$AA?5?$AAt?$AAo?$AA?5?$AAo?$AAp?$AAe?$AAn?$AA?5?$AAc?$AAo?$AAn?$AAs?$AAo?$AAl?$AAe?$AA?5@ 0000000140023120     LIBCMT:crt0msg.obj
 0002:00001180       ??_C@_1GK@FHCKBEFA@?$AAR?$AA6?$AA0?$AA2?$AA4?$AA?$AN?$AA?6?$AA?9?$AA?5?$AAn?$AAo?$AAt?$AA?5?$AAe?$AAn?$AAo?$AAu?$AAg?$AAh?$AA?5?$AAs?$AAp?$AAa?$AAc?$AAe?$AA?5?$AAf?$AAo?$AAr?$AA?5?$AA_?$AAo@ 0000000140023180     LIBCMT:crt0msg.obj
 0002:000011f0       ??_C@_1EM@MAADIHMB@?$AAR?$AA6?$AA0?$AA2?$AA5?$AA?$AN?$AA?6?$AA?9?$AA?5?$AAp?$AAu?$AAr?$AAe?$AA?5?$AAv?$AAi?$AAr?$AAt?$AAu?$AAa?$AAl?$AA?5?$AAf?$AAu?$AAn?$AAc?$AAt?$AAi?$AAo?$AAn?$AA?5?$AAc@ 00000001400231f0     LIBCMT:crt0msg.obj
 0002:00001240       ??_C@_1GK@MCAAGJMO@?$AAR?$AA6?$AA0?$AA2?$AA6?$AA?$AN?$AA?6?$AA?9?$AA?5?$AAn?$AAo?$AAt?$AA?5?$AAe?$AAn?$AAo?$AAu?$AAg?$AAh?$AA?5?$AAs?$AAp?$AAa?$AAc?$AAe?$AA?5?$AAf?$AAo?$AAr?$AA?5?$AAs?$AAt@ 0000000140023240     LIBCMT:crt0msg.obj
 0002:000012b0       ??_C@_1GK@MFGOKLAG@?$AAR?$AA6?$AA0?$AA2?$AA7?$AA?$AN?$AA?6?$AA?9?$AA?5?$AAn?$AAo?$AAt?$AA?5?$AAe?$AAn?$AAo?$AAu?$AAg?$AAh?$AA?5?$AAs?$AAp?$AAa?$AAc?$AAe?$AA?5?$AAf?$AAo?$AAr?$AA?5?$AAl?$AAo@ 00000001400232b0     LIBCMT:crt0msg.obj
 0002:00001320       ??_C@_1EK@HHFLMAOL@?$AAR?$AA6?$AA0?$AA2?$AA8?$AA?$AN?$AA?6?$AA?9?$AA?5?$AAu?$AAn?$AAa?$AAb?$AAl?$AAe?$AA?5?$AAt?$AAo?$AA?5?$AAi?$AAn?$AAi?$AAt?$AAi?$AAa?$AAl?$AAi?$AAz?$AAe?$AA?5?$AAh?$AAe@ 0000000140023320     LIBCMT:crt0msg.obj
 0002:00001370       ??_C@_1DO@BMFCDCD@?$AAR?$AA6?$AA0?$AA3?$AA0?$AA?$AN?$AA?6?$AA?9?$AA?5?$AAC?$AAR?$AAT?$AA?5?$AAn?$AAo?$AAt?$AA?5?$AAi?$AAn?$AAi?$AAt?$AAi?$AAa?$AAl?$AAi?$AAz?$AAe?$AAd?$AA?$AN?$AA?6?$AA?$AA@ 0000000140023370     LIBCMT:crt0msg.obj
 0002:000013b0       ??_C@_1MG@ENCOOIDF@?$AAR?$AA6?$AA0?$AA3?$AA1?$AA?$AN?$AA?6?$AA?9?$AA?5?$AAA?$AAt?$AAt?$AAe?$AAm?$AAp?$AAt?$AA?5?$AAt?$AAo?$AA?5?$AAi?$AAn?$AAi?$AAt?$AAi?$AAa?$AAl?$AAi?$AAz?$AAe?$AA?5?$AAt@ 00000001400233b0     LIBCMT:crt0msg.obj
 0002:00001480       ??_C@_1GG@GOPILAJP@?$AAR?$AA6?$AA0?$AA3?$AA2?$AA?$AN?$AA?6?$AA?9?$AA?5?$AAn?$AAo?$AAt?$AA?5?$AAe?$AAn?$AAo?$AAu?$AAg?$AAh?$AA?5?$AAs?$AAp?$AAa?$AAc?$AAe?$AA?5?$AAf?$AAo?$AAr?$AA?5?$AAl?$AAo@ 0000000140023480     LIBCMT:crt0msg.obj
 0002:000014f0       ??_C@_1BOO@KGEDBGAJ@?$AAR?$AA6?$AA0?$AA3?$AA3?$AA?$AN?$AA?6?$AA?9?$AA?5?$AAA?$AAt?$AAt?$AAe?$AAm?$AAp?$AAt?$AA?5?$AAt?$AAo?$AA?5?$AAu?$AAs?$AAe?$AA?5?$AAM?$AAS?$AAI?$AAL?$AA?5?$AAc?$AAo?$AAd@ 00000001400234f0     LIBCMT:crt0msg.obj
 0002:000016e0       ??_C@_1GG@MKFPEKFO@?$AAR?$AA6?$AA0?$AA3?$AA4?$AA?$AN?$AA?6?$AA?9?$AA?5?$AAi?$AAn?$AAc?$AAo?$AAn?$AAs?$AAi?$AAs?$AAt?$AAe?$AAn?$AAt?$AA?5?$AAo?$AAn?$AAe?$AAx?$AAi?$AAt?$AA?5?$AAb?$AAe?$AAg@ 00000001400236e0     LIBCMT:crt0msg.obj
 0002:00001748       ??_C@_1BO@BFCDCGC@?$AAD?$AAO?$AAM?$AAA?$AAI?$AAN?$AA?5?$AAe?$AAr?$AAr?$AAo?$AAr?$AA?$AN?$AA?6?$AA?$AA@ 0000000140023748     LIBCMT:crt0msg.obj
 0002:00001768       ??_C@_1BK@KMOMNAAI@?$AAS?$AAI?$AAN?$AAG?$AA?5?$AAe?$AAr?$AAr?$AAo?$AAr?$AA?$AN?$AA?6?$AA?$AA@ 0000000140023768     LIBCMT:crt0msg.obj
 0002:00001788       ??_C@_1BM@JBBEPPHI@?$AAT?$AAL?$AAO?$AAS?$AAS?$AA?5?$AAe?$AAr?$AAr?$AAo?$AAr?$AA?$AN?$AA?6?$AA?$AA@ 0000000140023788     LIBCMT:crt0msg.obj
 0002:000017a4       ??_C@_15JNBOKNOG@?$AA?$AN?$AA?6?$AA?$AA@ 00000001400237a4     LIBCMT:crt0msg.obj
 0002:000017b0       ??_C@_1BO@BKOMIGKJ@?$AAr?$AAu?$AAn?$AAt?$AAi?$AAm?$AAe?$AA?5?$AAe?$AAr?$AAr?$AAo?$AAr?$AA?5?$AA?$AA@ 00000001400237b0     LIBCMT:crt0msg.obj
 0002:000017d0       ??_C@_1DE@JNGNBFGO@?$AAR?$AAu?$AAn?$AAt?$AAi?$AAm?$AAe?$AA?5?$AAE?$AAr?$AAr?$AAo?$AAr?$AA?$CB?$AA?6?$AA?6?$AAP?$AAr?$AAo?$AAg?$AAr?$AAa?$AAm?$AA?3?$AA?5?$AA?$AA@ 00000001400237d0     LIBCMT:crt0msg.obj
 0002:00001808       ??_C@_1CO@EAEJAADC@?$AA?$DM?$AAp?$AAr?$AAo?$AAg?$AAr?$AAa?$AAm?$AA?5?$AAn?$AAa?$AAm?$AAe?$AA?5?$AAu?$AAn?$AAk?$AAn?$AAo?$AAw?$AAn?$AA?$DO?$AA?$AA@ 0000000140023808     LIBCMT:crt0msg.obj
 0002:00001838       ??_C@_17LGKOMLJ@?$AA?4?$AA?4?$AA?4?$AA?$AA@ 0000000140023838     LIBCMT:crt0msg.obj
 0002:00001840       ??_C@_15IABLJNFO@?$AA?6?$AA?6?$AA?$AA@ 0000000140023840     LIBCMT:crt0msg.obj
 0002:00001850       ??_C@_1EK@MBDPDCGA@?$AAM?$AAi?$AAc?$AAr?$AAo?$AAs?$AAo?$AAf?$AAt?$AA?5?$AAV?$AAi?$AAs?$AAu?$AAa?$AAl?$AA?5?$AAC?$AA?$CL?$AA?$CL?$AA?5?$AAR?$AAu?$AAn?$AAt?$AAi?$AAm?$AAe?$AA?5?$AAL?$AAi?$AAb@ 0000000140023850     LIBCMT:crt0msg.obj
 0002:000018a0       _XcptActTab                00000001400238a0     LIBCMT:winxfltr.obj
 0002:00001960       _XcptActTabCount           0000000140023960     LIBCMT:winxfltr.obj
 0002:00001964       _XcptActTabSize            0000000140023964     LIBCMT:winxfltr.obj
 0002:00001968       _First_FPE_Indx            0000000140023968     LIBCMT:winxfltr.obj
 0002:0000196c       _Num_FPE                   000000014002396c     LIBCMT:winxfltr.obj
 0002:00001970       ??_C@_1BK@MGMFAEKH@?$AAk?$AAe?$AAr?$AAn?$AAe?$AAl?$AA3?$AA2?$AA?4?$AAd?$AAl?$AAl?$AA?$AA@ 0000000140023970     LIBCMT:winapisupp.obj
 0002:00001990       ??_C@_08KNHFBNJ@FlsAlloc?$AA@ 0000000140023990     LIBCMT:winapisupp.obj
 0002:000019a0       ??_C@_07PEJMOBNF@FlsFree?$AA@ 00000001400239a0     LIBCMT:winapisupp.obj
 0002:000019a8       ??_C@_0M@GDNOONDI@FlsGetValue?$AA@ 00000001400239a8     LIBCMT:winapisupp.obj
 0002:000019b8       ??_C@_0M@JCPCPOEF@FlsSetValue?$AA@ 00000001400239b8     LIBCMT:winapisupp.obj
 0002:000019c8       ??_C@_0BM@HCFOFFN@InitializeCriticalSectionEx?$AA@ 00000001400239c8     LIBCMT:winapisupp.obj
 0002:000019e8       ??_C@_0P@DLHPPCNH@CreateEventExW?$AA@ 00000001400239e8     LIBCMT:winapisupp.obj
 0002:000019f8       ??_C@_0BD@KIEEOEEH@CreateSemaphoreExW?$AA@ 00000001400239f8     LIBCMT:winapisupp.obj
 0002:00001a10       ??_C@_0BI@BKLFFAPO@SetThreadStackGuarantee?$AA@ 0000000140023a10     LIBCMT:winapisupp.obj
 0002:00001a28       ??_C@_0BG@OGFAJCKC@CreateThreadpoolTimer?$AA@ 0000000140023a28     LIBCMT:winapisupp.obj
 0002:00001a40       ??_C@_0BD@LPLEMMDI@SetThreadpoolTimer?$AA@ 0000000140023a40     LIBCMT:winapisupp.obj
 0002:00001a58       ??_C@_0CA@FMNJENH@WaitForThreadpoolTimerCallbacks?$AA@ 0000000140023a58     LIBCMT:winapisupp.obj
 0002:00001a78       ??_C@_0BF@DCFCCNOC@CloseThreadpoolTimer?$AA@ 0000000140023a78     LIBCMT:winapisupp.obj
 0002:00001a90       ??_C@_0BF@FLABGKKM@CreateThreadpoolWait?$AA@ 0000000140023a90     LIBCMT:winapisupp.obj
 0002:00001aa8       ??_C@_0BC@MGCOHNA@SetThreadpoolWait?$AA@ 0000000140023aa8     LIBCMT:winapisupp.obj
 0002:00001ac0       ??_C@_0BE@OCIOMIMP@CloseThreadpoolWait?$AA@ 0000000140023ac0     LIBCMT:winapisupp.obj
 0002:00001ad8       ??_C@_0BJ@LKGHFHBO@FlushProcessWriteBuffers?$AA@ 0000000140023ad8     LIBCMT:winapisupp.obj
 0002:00001af8       ??_C@_0BP@KALKKPMO@FreeLibraryWhenCallbackReturns?$AA@ 0000000140023af8     LIBCMT:winapisupp.obj
 0002:00001b18       ??_C@_0BK@DFNBACLA@GetCurrentProcessorNumber?$AA@ 0000000140023b18     LIBCMT:winapisupp.obj
 0002:00001b38       ??_C@_0BP@KHGALBC@GetLogicalProcessorInformation?$AA@ 0000000140023b38     LIBCMT:winapisupp.obj
 0002:00001b58       ??_C@_0BE@FKKLLFLM@CreateSymbolicLinkW?$AA@ 0000000140023b58     LIBCMT:winapisupp.obj
 0002:00001b70       ??_C@_0BJ@OHNKDLIJ@SetDefaultDllDirectories?$AA@ 0000000140023b70     LIBCMT:winapisupp.obj
 0002:00001b90       ??_C@_0BE@LJANKFHF@EnumSystemLocalesEx?$AA@ 0000000140023b90     LIBCMT:winapisupp.obj
 0002:00001ba8       ??_C@_0BA@IHGNDAEB@CompareStringEx?$AA@ 0000000140023ba8     LIBCMT:winapisupp.obj
 0002:00001bb8       ??_C@_0BA@EPCJIIPD@GetDateFormatEx?$AA@ 0000000140023bb8     LIBCMT:winapisupp.obj
 0002:00001bc8       ??_C@_0BA@ONOKGCMP@GetLocaleInfoEx?$AA@ 0000000140023bc8     LIBCMT:winapisupp.obj
 0002:00001bd8       ??_C@_0BA@CIJJKCJJ@GetTimeFormatEx?$AA@ 0000000140023bd8     LIBCMT:winapisupp.obj
 0002:00001be8       ??_C@_0BJ@PBCCBIPI@GetUserDefaultLocaleName?$AA@ 0000000140023be8     LIBCMT:winapisupp.obj
 0002:00001c08       ??_C@_0BC@CELBKLLA@IsValidLocaleName?$AA@ 0000000140023c08     LIBCMT:winapisupp.obj
 0002:00001c20       ??_C@_0O@KKBNKAPF@LCMapStringEx?$AA@ 0000000140023c20     LIBCMT:winapisupp.obj
 0002:00001c30       ??_C@_0BE@JOGNEJCI@GetCurrentPackageId?$AA@ 0000000140023c30     LIBCMT:winapisupp.obj
 0002:00001c48       ??_C@_0P@CDHHOHKP@GetTickCount64?$AA@ 0000000140023c48     LIBCMT:winapisupp.obj
 0002:00001c58       ??_C@_0BO@KPCLFDJJ@GetFileInformationByHandleExW?$AA@ 0000000140023c58     LIBCMT:winapisupp.obj
 0002:00001c78       ??_C@_0BM@MHIDLABK@SetFileInformationByHandleW?$AA@ 0000000140023c78     LIBCMT:winapisupp.obj
 0002:00001fb8       ??_C@_08EHJDFFNH@__based?$CI?$AA@ 0000000140023fb8     LIBCMT:undname.obj
 0002:00001fc8       ??_C@_07KOLFKCDI@__cdecl?$AA@ 0000000140023fc8     LIBCMT:undname.obj
 0002:00001fd0       ??_C@_08GHMPAG@__pascal?$AA@ 0000000140023fd0     LIBCMT:undname.obj
 0002:00001fe0       ??_C@_09IFJBGAPI@__stdcall?$AA@ 0000000140023fe0     LIBCMT:undname.obj
 0002:00001ff0       ??_C@_0L@NPHFGOKO@__thiscall?$AA@ 0000000140023ff0     LIBCMT:undname.obj
 0002:00002000       ??_C@_0L@JMKHOMEK@__fastcall?$AA@ 0000000140024000     LIBCMT:undname.obj
 0002:00002010       ??_C@_0N@BCKKPABJ@__vectorcall?$AA@ 0000000140024010     LIBCMT:undname.obj
 0002:00002020       ??_C@_09HIJEGCPM@__clrcall?$AA@ 0000000140024020     LIBCMT:undname.obj
 0002:0000202c       ??_C@_06GHPCKEAG@__eabi?$AA@ 000000014002402c     LIBCMT:undname.obj
 0002:00002038       ??_C@_07JOMMBBKO@__ptr64?$AA@ 0000000140024038     LIBCMT:undname.obj
 0002:00002040       ??_C@_0L@PILCLIHE@__restrict?$AA@ 0000000140024040     LIBCMT:undname.obj
 0002:00002050       ??_C@_0M@GFIIJFMG@__unaligned?$AA@ 0000000140024050     LIBCMT:undname.obj
 0002:00002060       ??_C@_09DHDLOLLB@restrict?$CI?$AA@ 0000000140024060     LIBCMT:undname.obj
 0002:0000206c       ??_C@_04NIHEBCM@?5new?$AA@ 000000014002406c     LIBCMT:undname.obj
 0002:00002078       ??_C@_07FPCDHGMM@?5delete?$AA@ 0000000140024078     LIBCMT:undname.obj
 0002:00002080       ??_C@_01NEMOKFLO@?$DN?$AA@ 0000000140024080     LIBCMT:undname.obj
 0002:00002084       ??_C@_02GPIOPFAK@?$DO?$DO?$AA@ 0000000140024084     LIBCMT:undname.obj
 0002:00002088       ??_C@_02FODMEDOG@?$DM?$DM?$AA@ 0000000140024088     LIBCMT:undname.obj
 0002:0000208c       ??_C@_01DCLJPIOD@?$CB?$AA@ 000000014002408c     LIBCMT:undname.obj
 0002:00002090       ??_C@_02EGOFBIJA@?$DN?$DN?$AA@ 0000000140024090     LIBCMT:undname.obj
 0002:00002094       ??_C@_02FDNJECIE@?$CB?$DN?$AA@ 0000000140024094     LIBCMT:undname.obj
 0002:00002098       ??_C@_02GPECMEKF@?$FL?$FN?$AA@ 0000000140024098     LIBCMT:undname.obj
 0002:000020a0       ??_C@_08LHJFAFGD@operator?$AA@ 00000001400240a0     LIBCMT:undname.obj
 0002:000020ac       ??_C@_02HBOOOICD@?9?$DO?$AA@ 00000001400240ac     LIBCMT:undname.obj
 0002:000020b0       ??_C@_01NBENCBCI@?$CK?$AA@ 00000001400240b0     LIBCMT:undname.obj
 0002:000020b4       ??_C@_02ECNGHCIF@?$CL?$CL?$AA@ 00000001400240b4     LIBCMT:undname.obj
 0002:000020b8       ??_C@_02BAABKJLB@?9?9?$AA@ 00000001400240b8     LIBCMT:undname.obj
 0002:000020bc       ??_C@_01JOAMLHOP@?9?$AA@   00000001400240bc     LIBCMT:undname.obj
 0002:000020c0       ??_C@_01MIFGBAGJ@?$CL?$AA@ 00000001400240c0     LIBCMT:undname.obj
 0002:000020c4       ??_C@_01HNPIGOCE@?$CG?$AA@ 00000001400240c4     LIBCMT:undname.obj
 0002:000020c8       ??_C@_03MNHNFDLC@?9?$DO?$CK?$AA@ 00000001400240c8     LIBCMT:undname.obj
 0002:000020cc       ??_C@_01KMDKNFGN@?1?$AA@   00000001400240cc     LIBCMT:undname.obj
 0002:000020d0       ??_C@_01FGNFDNOH@?$CF?$AA@ 00000001400240d0     LIBCMT:undname.obj
 0002:000020d4       ??_C@_01MNNFJEPP@?$DM?$AA@ 00000001400240d4     LIBCMT:undname.obj
 0002:000020d8       ??_C@_02EHCHHCKH@?$DM?$DN?$AA@ 00000001400240d8     LIBCMT:undname.obj
 0002:000020dc       ??_C@_01PPODPGHN@?$DO?$AA@ 00000001400240dc     LIBCMT:undname.obj
 0002:000020e0       ??_C@_02EEKDKGMJ@?$DO?$DN?$AA@ 00000001400240e0     LIBCMT:undname.obj
 0002:000020e4       ??_C@_01IHBHIGKO@?0?$AA@   00000001400240e4     LIBCMT:undname.obj
 0002:000020e8       ??_C@_02HCKGKOFO@?$CI?$CJ?$AA@ 00000001400240e8     LIBCMT:undname.obj
 0002:000020ec       ??_C@_01PJKLJHI@?$HO?$AA@  00000001400240ec     LIBCMT:undname.obj
 0002:000020f0       ??_C@_01JKBOJNNK@?$FO?$AA@ 00000001400240f0     LIBCMT:undname.obj
 0002:000020f4       ??_C@_01DNKMNLPK@?$HM?$AA@ 00000001400240f4     LIBCMT:undname.obj
 0002:000020f8       ??_C@_02PPKAJPJL@?$CG?$CG?$AA@ 00000001400240f8     LIBCMT:undname.obj
 0002:000020fc       ??_C@_02NONPIBCD@?$HM?$HM?$AA@ 00000001400240fc     LIBCMT:undname.obj
 0002:00002100       ??_C@_02FPIMKNGF@?$CK?$DN?$AA@ 0000000140024100     LIBCMT:undname.obj
 0002:00002104       ??_C@_02FOEOMHFC@?$CL?$DN?$AA@ 0000000140024104     LIBCMT:undname.obj
 0002:00002108       ??_C@_02FKMDLLOA@?9?$DN?$AA@ 0000000140024108     LIBCMT:undname.obj
 0002:0000210c       ??_C@_02FJEHGPIO@?1?$DN?$AA@ 000000014002410c     LIBCMT:undname.obj
 0002:00002110       ??_C@_02FENAOKFI@?$CF?$DN?$AA@ 0000000140024110     LIBCMT:undname.obj
 0002:00002114       ??_C@_03IKFCCPFF@?$DO?$DO?$DN?$AA@ 0000000140024114     LIBCMT:undname.obj
 0002:00002118       ??_C@_03CDNPDDLA@?$DM?$DM?$DN?$AA@ 0000000140024118     LIBCMT:undname.obj
 0002:0000211c       ??_C@_02FGJGFEAB@?$CG?$DN?$AA@ 000000014002411c     LIBCMT:undname.obj
 0002:00002120       ??_C@_02DHLNPPGH@?$HM?$DN?$AA@ 0000000140024120     LIBCMT:undname.obj
 0002:00002124       ??_C@_02MHEGNOJ@?$FO?$DN?$AA@ 0000000140024124     LIBCMT:undname.obj
 0002:00002128       ??_C@_09IFPLHPGF@?$GAvftable?8?$AA@ 0000000140024128     LIBCMT:undname.obj
 0002:00002138       ??_C@_09BLBHBJP@?$GAvbtable?8?$AA@ 0000000140024138     LIBCMT:undname.obj
 0002:00002148       ??_C@_07FEEIOKP@?$GAvcall?8?$AA@ 0000000140024148     LIBCMT:undname.obj
 0002:00002150       ??_C@_08LLFFHHDJ@?$GAtypeof?8?$AA@ 0000000140024150     LIBCMT:undname.obj
 0002:00002160       ??_C@_0BF@KDPPACIK@?$GAlocal?5static?5guard?8?$AA@ 0000000140024160     LIBCMT:undname.obj
 0002:00002178       ??_C@_08OBABFOLI@?$GAstring?8?$AA@ 0000000140024178     LIBCMT:undname.obj
 0002:00002188       ??_C@_0BD@JDLKDPAB@?$GAvbase?5destructor?8?$AA@ 0000000140024188     LIBCMT:undname.obj
 0002:000021a0       ??_C@_0BN@DEGPLNFK@?$GAvector?5deleting?5destructor?8?$AA@ 00000001400241a0     LIBCMT:undname.obj
 0002:000021c0       ??_C@_0BO@OBMKPJIG@?$GAdefault?5constructor?5closure?8?$AA@ 00000001400241c0     LIBCMT:undname.obj
 0002:000021e0       ??_C@_0BN@IMDCHIKM@?$GAscalar?5deleting?5destructor?8?$AA@ 00000001400241e0     LIBCMT:undname.obj
 0002:00002200       ??_C@_0BO@PFGOCPJJ@?$GAvector?5constructor?5iterator?8?$AA@ 0000000140024200     LIBCMT:undname.obj
 0002:00002220       ??_C@_0BN@LFPFMEDL@?$GAvector?5destructor?5iterator?8?$AA@ 0000000140024220     LIBCMT:undname.obj
 0002:00002240       ??_C@_0CE@IKBNEHA@?$GAvector?5vbase?5constructor?5iterat@ 0000000140024240     LIBCMT:undname.obj
 0002:00002268       ??_C@_0BL@NILFHHPC@?$GAvirtual?5displacement?5map?8?$AA@ 0000000140024268     LIBCMT:undname.obj
 0002:00002288       ??_C@_0CB@JONCMFFK@?$GAeh?5vector?5constructor?5iterator?8@ 0000000140024288     LIBCMT:undname.obj
 0002:000022b0       ??_C@_0CA@GCEOPDGL@?$GAeh?5vector?5destructor?5iterator?8?$AA@ 00000001400242b0     LIBCMT:undname.obj
 0002:000022d0       ??_C@_0CH@OOJPLCPH@?$GAeh?5vector?5vbase?5constructor?5ite@ 00000001400242d0     LIBCMT:undname.obj
 0002:000022f8       ??_C@_0BL@LLKPOHJI@?$GAcopy?5constructor?5closure?8?$AA@ 00000001400242f8     LIBCMT:undname.obj
 0002:00002318       ??_C@_0BA@KBCDOMBN@?$GAudt?5returning?8?$AA@ 0000000140024318     LIBCMT:undname.obj
 0002:00002328       ??_C@_03KLGMFNMG@?$GAEH?$AA@ 0000000140024328     LIBCMT:undname.obj
 0002:0000232c       ??_C@_05KHLCHHI@?$GARTTI?$AA@ 000000014002432c     LIBCMT:undname.obj
 0002:00002338       ??_C@_0BA@KKLDJDLB@?$GAlocal?5vftable?8?$AA@ 0000000140024338     LIBCMT:undname.obj
 0002:00002348       ??_C@_0CE@IIHCMGGL@?$GAlocal?5vftable?5constructor?5closu@ 0000000140024348     LIBCMT:undname.obj
 0002:0000236c       ??_C@_06FHBGPFGH@?5new?$FL?$FN?$AA@ 000000014002436c     LIBCMT:undname.obj
 0002:00002378       ??_C@_09LBNFPBCA@?5delete?$FL?$FN?$AA@ 0000000140024378     LIBCMT:undname.obj
 0002:00002388       ??_C@_0P@HJKNJFNN@?$GAomni?5callsig?8?$AA@ 0000000140024388     LIBCMT:undname.obj
 0002:00002398       ??_C@_0BL@CNOONJFP@?$GAplacement?5delete?5closure?8?$AA@ 0000000140024398     LIBCMT:undname.obj
 0002:000023b8       ??_C@_0BN@CKNJLHMB@?$GAplacement?5delete?$FL?$FN?5closure?8?$AA@ 00000001400243b8     LIBCMT:undname.obj
 0002:000023d8       ??_C@_0CG@CFDHKGGD@?$GAmanaged?5vector?5constructor?5iter@ 00000001400243d8     LIBCMT:undname.obj
 0002:00002400       ??_C@_0CF@IMGKMJNO@?$GAmanaged?5vector?5destructor?5itera@ 0000000140024400     LIBCMT:undname.obj
 0002:00002428       ??_C@_0CG@HLDDJMAG@?$GAeh?5vector?5copy?5constructor?5iter@ 0000000140024428     LIBCMT:undname.obj
 0002:00002450       ??_C@_0CM@FCBBDIGB@?$GAeh?5vector?5vbase?5copy?5constructo@ 0000000140024450     LIBCMT:undname.obj
 0002:00002480       ??_C@_0BL@CLIPGLGB@?$GAdynamic?5initializer?5for?5?8?$AA@ 0000000140024480     LIBCMT:undname.obj
 0002:000024a0       ??_C@_0CB@PDBIFEP@?$GAdynamic?5atexit?5destructor?5for?5?8@ 00000001400244a0     LIBCMT:undname.obj
 0002:000024c8       ??_C@_0CD@CGAJBKEJ@?$GAvector?5copy?5constructor?5iterato@ 00000001400244c8     LIBCMT:undname.obj
 0002:000024f0       ??_C@_0CJ@GJELGAMM@?$GAvector?5vbase?5copy?5constructor?5i@ 00000001400244f0     LIBCMT:undname.obj
 0002:00002520       ??_C@_0CL@FGIJHLCE@?$GAmanaged?5vector?5copy?5constructor@ 0000000140024520     LIBCMT:undname.obj
 0002:00002550       ??_C@_0BM@PMGGMLDN@?$GAlocal?5static?5thread?5guard?8?$AA@ 0000000140024550     LIBCMT:undname.obj
 0002:00002570       ??_C@_0BC@DAFEJGAK@?5Type?5Descriptor?8?$AA@ 0000000140024570     LIBCMT:undname.obj
 0002:00002588       ??_C@_0BM@LDKODKLH@?5Base?5Class?5Descriptor?5at?5?$CI?$AA@ 0000000140024588     LIBCMT:undname.obj
 0002:000025a8       ??_C@_0BD@LGICGFMM@?5Base?5Class?5Array?8?$AA@ 00000001400245a8     LIBCMT:undname.obj
 0002:000025c0       ??_C@_0BN@MECKDCOJ@?5Class?5Hierarchy?5Descriptor?8?$AA@ 00000001400245c0     LIBCMT:undname.obj
 0002:000025e0       ??_C@_0BK@CFCOFLF@?5Complete?5Object?5Locator?8?$AA@ 00000001400245e0     LIBCMT:undname.obj
 0002:00002600       __newctype                 0000000140024600     LIBCMT:ctype.obj
 0002:00002900       _wctype                    0000000140024900     LIBCMT:ctype.obj
 0002:00002b10       __newclmap                 0000000140024b10     LIBCMT:ctype.obj
 0002:00002c90       __newcumap                 0000000140024c90     LIBCMT:ctype.obj
 0002:00002e10       LcidToLocaleNameTable      0000000140024e10     LIBCMT:winapinls.obj
 0002:00003c50       LocaleNameToIndexTable     0000000140025c50     LIBCMT:winapinls.obj
 0002:00004a90       ??_C@_15EMKDOKLE@?$AAa?$AAr?$AA?$AA@ 0000000140026a90     LIBCMT:winapinls.obj
 0002:00004a98       ??_C@_15KNPADPLH@?$AAb?$AAg?$AA?$AA@ 0000000140026a98     LIBCMT:winapinls.obj
 0002:00004aa0       ??_C@_15EDMHLDMO@?$AAc?$AAa?$AA?$AA@ 0000000140026aa0     LIBCMT:winapinls.obj
 0002:00004aa8       ??_C@_1O@BPEAJADD@?$AAz?$AAh?$AA?9?$AAC?$AAH?$AAS?$AA?$AA@ 0000000140026aa8     LIBCMT:winapinls.obj
 0002:00004ab8       ??_C@_15LJNHCMNK@?$AAc?$AAs?$AA?$AA@ 0000000140026ab8     LIBCMT:winapinls.obj
 0002:00004ac0       ??_C@_15FOMCIDHG@?$AAd?$AAa?$AA?$AA@ 0000000140026ac0     LIBCMT:winapinls.obj
 0002:00004ac8       ??_C@_15NBKABECB@?$AAd?$AAe?$AA?$AA@ 0000000140026ac8     LIBCMT:winapinls.obj
 0002:00004ad0       ??_C@_15GHPEIIAO@?$AAe?$AAl?$AA?$AA@ 0000000140026ad0     LIBCMT:winapinls.obj
 0002:00004ad8       ??_C@_15MNPNEAIF@?$AAe?$AAn?$AA?$AA@ 0000000140026ad8     LIBCMT:winapinls.obj
 0002:00004ae0       ??_C@_15GPIOMPMH@?$AAe?$AAs?$AA?$AA@ 0000000140026ae0     LIBCMT:winapinls.obj
 0002:00004ae8       ??_C@_15NGLOAKJC@?$AAf?$AAi?$AA?$AA@ 0000000140026ae8     LIBCMT:winapinls.obj
 0002:00004af0       ??_C@_15FBKGNKAM@?$AAf?$AAr?$AA?$AA@ 0000000140026af0     LIBCMT:winapinls.obj
 0002:00004af8       ??_C@_15KGGCNEFK@?$AAh?$AAe?$AA?$AA@ 0000000140026af8     LIBCMT:winapinls.obj
 0002:00004b00       ??_C@_15PGHLIDMF@?$AAh?$AAu?$AA?$AA@ 0000000140026b00     LIBCMT:winapinls.obj
 0002:00004b08       ??_C@_15BIEMAPLM@?$AAi?$AAs?$AA?$AA@ 0000000140026b08     LIBCMT:winapinls.obj
 0002:00004b10       ??_C@_15IFJLDHAF@?$AAi?$AAt?$AA?$AA@ 0000000140026b10     LIBCMT:winapinls.obj
 0002:00004b18       ??_C@_15GEMIOCAG@?$AAj?$AAa?$AA?$AA@ 0000000140026b18     LIBCMT:winapinls.obj
 0002:00004b20       ??_C@_15EPELEGJA@?$AAk?$AAo?$AA?$AA@ 0000000140026b20     LIBCMT:winapinls.obj
 0002:00004b28       ??_C@_15NDDHIMN@?$AAn?$AAl?$AA?$AA@ 0000000140026b28     LIBCMT:winapinls.obj
 0002:00004b30       ??_C@_15BPIGNHCD@?$AAn?$AAo?$AA?$AA@ 0000000140026b30     LIBCMT:winapinls.obj
 0002:00004b38       ??_C@_15DEOPBLCG@?$AAp?$AAl?$AA?$AA@ 0000000140026b38     LIBCMT:winapinls.obj
 0002:00004b40       ??_C@_15KBECGEFG@?$AAp?$AAt?$AA?$AA@ 0000000140026b40     LIBCMT:winapinls.obj
 0002:00004b48       ??_C@_15GLJCBFMD@?$AAr?$AAo?$AA?$AA@ 0000000140026b48     LIBCMT:winapinls.obj
 0002:00004b50       ??_C@_15FEDGKCDI@?$AAr?$AAu?$AA?$AA@ 0000000140026b50     LIBCMT:winapinls.obj
 0002:00004b58       ??_C@_15GLKMLLHM@?$AAh?$AAr?$AA?$AA@ 0000000140026b58     LIBCMT:winapinls.obj
 0002:00004b60       ??_C@_15CPKMFBDB@?$AAs?$AAk?$AA?$AA@ 0000000140026b60     LIBCMT:winapinls.obj
 0002:00004b68       ??_C@_15BAAIOGMK@?$AAs?$AAq?$AA?$AA@ 0000000140026b68     LIBCMT:winapinls.obj
 0002:00004b70       ??_C@_15INNPNOHD@?$AAs?$AAv?$AA?$AA@ 0000000140026b70     LIBCMT:winapinls.obj
 0002:00004b78       ??_C@_15CABMMOGH@?$AAt?$AAh?$AA?$AA@ 0000000140026b78     LIBCMT:winapinls.obj
 0002:00004b80       ??_C@_15BPLIHJJM@?$AAt?$AAr?$AA?$AA@ 0000000140026b80     LIBCMT:winapinls.obj
 0002:00004b88       ??_C@_15NEOEKKDJ@?$AAu?$AAr?$AA?$AA@ 0000000140026b88     LIBCMT:winapinls.obj
 0002:00004b90       ??_C@_15NFICGAJK@?$AAi?$AAd?$AA?$AA@ 0000000140026b90     LIBCMT:winapinls.obj
 0002:00004b98       ??_C@_15PJPFLCCM@?$AAu?$AAk?$AA?$AA@ 0000000140026b98     LIBCMT:winapinls.obj
 0002:00004ba0       ??_C@_15HPJPHDM@?$AAb?$AAe?$AA?$AA@ 0000000140026ba0     LIBCMT:winapinls.obj
 0002:00004ba8       ??_C@_15LCHLGJII@?$AAs?$AAl?$AA?$AA@ 0000000140026ba8     LIBCMT:winapinls.obj
 0002:00004bb0       ??_C@_15PCFJPHHO@?$AAe?$AAt?$AA?$AA@ 0000000140026bb0     LIBCMT:winapinls.obj
 0002:00004bb8       ??_C@_15HPFPGODN@?$AAl?$AAv?$AA?$AA@ 0000000140026bb8     LIBCMT:winapinls.obj
 0002:00004bc0       ??_C@_15NFFGKGLG@?$AAl?$AAt?$AA?$AA@ 0000000140026bc0     LIBCMT:winapinls.obj
 0002:00004bc8       ??_C@_15BDAKCCHN@?$AAf?$AAa?$AA?$AA@ 0000000140026bc8     LIBCMT:winapinls.obj
 0002:00004bd0       ??_C@_15NFGIAIAJ@?$AAv?$AAi?$AA?$AA@ 0000000140026bd0     LIBCMT:winapinls.obj
 0002:00004bd8       ??_C@_15LMKNDMHN@?$AAh?$AAy?$AA?$AA@ 0000000140026bd8     LIBCMT:winapinls.obj
 0002:00004be0       ??_C@_15IJBHMCFL@?$AAa?$AAz?$AA?$AA@ 0000000140026be0     LIBCMT:winapinls.obj
 0002:00004be8       ??_C@_15EKOFJABL@?$AAe?$AAu?$AA?$AA@ 0000000140026be8     LIBCMT:winapinls.obj
 0002:00004bf0       ??_C@_15BGHADCNK@?$AAm?$AAk?$AA?$AA@ 0000000140026bf0     LIBCMT:winapinls.obj
 0002:00004bf8       ??_C@_15JDNICKHM@?$AAa?$AAf?$AA?$AA@ 0000000140026bf8     LIBCMT:winapinls.obj
 0002:00004c00       ??_C@_15KPJEDBKD@?$AAk?$AAa?$AA?$AA@ 0000000140026c00     LIBCMT:winapinls.obj
 0002:00004c08       ??_C@_15PDNFFFEO@?$AAf?$AAo?$AA?$AA@ 0000000140026c08     LIBCMT:winapinls.obj
 0002:00004c10       ??_C@_15OMLEGLOC@?$AAh?$AAi?$AA?$AA@ 0000000140026c10     LIBCMT:winapinls.obj
 0002:00004c18       ??_C@_15IDNNENKK@?$AAm?$AAs?$AA?$AA@ 0000000140026c18     LIBCMT:winapinls.obj
 0002:00004c20       ??_C@_15MACJNBMH@?$AAk?$AAk?$AA?$AA@ 0000000140026c20     LIBCMT:winapinls.obj
 0002:00004c28       ??_C@_15DKDJEOND@?$AAk?$AAy?$AA?$AA@ 0000000140026c28     LIBCMT:winapinls.obj
 0002:00004c30       ??_C@_15DFGDLJBG@?$AAs?$AAw?$AA?$AA@ 0000000140026c30     LIBCMT:winapinls.obj
 0002:00004c38       ??_C@_15BBFAICNG@?$AAu?$AAz?$AA?$AA@ 0000000140026c38     LIBCMT:winapinls.obj
 0002:00004c40       ??_C@_15DKNDCGEA@?$AAt?$AAt?$AA?$AA@ 0000000140026c40     LIBCMT:winapinls.obj
 0002:00004c48       ??_C@_15MGIFMDPL@?$AAp?$AAa?$AA?$AA@ 0000000140026c48     LIBCMT:winapinls.obj
 0002:00004c50       ??_C@_15HCNDBBA@?$AAg?$AAu?$AA?$AA@ 0000000140026c50     LIBCMT:winapinls.obj
 0002:00004c58       ??_C@_15FNBEIBON@?$AAt?$AAa?$AA?$AA@ 0000000140026c58     LIBCMT:winapinls.obj
 0002:00004c60       ??_C@_15NCHGBGLK@?$AAt?$AAe?$AA?$AA@ 0000000140026c60     LIBCMT:winapinls.obj
 0002:00004c68       ??_C@_15PHPHCBPF@?$AAk?$AAn?$AA?$AA@ 0000000140026c68     LIBCMT:winapinls.obj
 0002:00004c70       ??_C@_15DLGBCKMP@?$AAm?$AAr?$AA?$AA@ 0000000140026c70     LIBCMT:winapinls.obj
 0002:00004c78       ??_C@_15EABBLBFF@?$AAs?$AAa?$AA?$AA@ 0000000140026c78     LIBCMT:winapinls.obj
 0002:00004c80       ??_C@_15CBKOMCOI@?$AAm?$AAn?$AA?$AA@ 0000000140026c80     LIBCMT:winapinls.obj
 0002:00004c88       ??_C@_15CKDMCJAF@?$AAg?$AAl?$AA?$AA@ 0000000140026c88     LIBCMT:winapinls.obj
 0002:00004c90       ??_C@_17CNJFBPG@?$AAk?$AAo?$AAk?$AA?$AA@ 0000000140026c90     LIBCMT:winapinls.obj
 0002:00004c98       ??_C@_17FFBJICPL@?$AAs?$AAy?$AAr?$AA?$AA@ 0000000140026c98     LIBCMT:winapinls.obj
 0002:00004ca0       ??_C@_17KPNDCPAF@?$AAd?$AAi?$AAv?$AA?$AA@ 0000000140026ca0     LIBCMT:winapinls.obj
 0002:00004ca8       ??_C@_11LOCGONAA@?$AA?$AA@ 0000000140026ca8     LIBCMT:winapinls.obj
 0002:00004cb0       ??_C@_1M@OKAHONE@?$AAa?$AAr?$AA?9?$AAS?$AAA?$AA?$AA@ 0000000140026cb0     LIBCMT:winapinls.obj
 0002:00004cc0       ??_C@_1M@FFFIGIGK@?$AAb?$AAg?$AA?9?$AAB?$AAG?$AA?$AA@ 0000000140026cc0     LIBCMT:winapinls.obj
 0002:00004cd0       ??_C@_1M@BJNKEDC@?$AAc?$AAa?$AA?9?$AAE?$AAS?$AA?$AA@ 0000000140026cd0     LIBCMT:winapinls.obj
 0002:00004ce0       ??_C@_1M@IJJHFJHA@?$AAc?$AAs?$AA?9?$AAC?$AAZ?$AA?$AA@ 0000000140026ce0     LIBCMT:winapinls.obj
 0002:00004cf0       ??_C@_1M@CLPEOBGI@?$AAd?$AAa?$AA?9?$AAD?$AAK?$AA?$AA@ 0000000140026cf0     LIBCMT:winapinls.obj
 0002:00004d00       ??_C@_1M@MCMADGCB@?$AAd?$AAe?$AA?9?$AAD?$AAE?$AA?$AA@ 0000000140026d00     LIBCMT:winapinls.obj
 0002:00004d10       ??_C@_1M@OOCKEMAM@?$AAe?$AAl?$AA?9?$AAG?$AAR?$AA?$AA@ 0000000140026d10     LIBCMT:winapinls.obj
 0002:00004d20       ??_C@_1M@DDNJFGID@?$AAf?$AAi?$AA?9?$AAF?$AAI?$AA?$AA@ 0000000140026d20     LIBCMT:winapinls.obj
 0002:00004d30       ??_C@_1M@GLIPPMAC@?$AAf?$AAr?$AA?9?$AAF?$AAR?$AA?$AA@ 0000000140026d30     LIBCMT:winapinls.obj
 0002:00004d40       ??_C@_1M@GFMCHPE@?$AAh?$AAe?$AA?9?$AAI?$AAL?$AA?$AA@ 0000000140026d40     LIBCMT:winapinls.obj
 0002:00004d50       ??_C@_1M@MHLPGNKM@?$AAh?$AAu?$AA?9?$AAH?$AAU?$AA?$AA@ 0000000140026d50     LIBCMT:winapinls.obj
 0002:00004d60       ??_C@_1M@LPDDNNPN@?$AAi?$AAs?$AA?9?$AAI?$AAS?$AA?$AA@ 0000000140026d60     LIBCMT:winapinls.obj
 0002:00004d70       ??_C@_1M@MADIPODN@?$AAi?$AAt?$AA?9?$AAI?$AAT?$AA?$AA@ 0000000140026d70     LIBCMT:winapinls.obj
 0002:00004d80       ??_C@_1M@IHBJJGG@?$AAn?$AAl?$AA?9?$AAN?$AAL?$AA?$AA@ 0000000140026d80     LIBCMT:winapinls.obj
 0002:00004d90       ??_C@_1M@EANAGDL@?$AAn?$AAb?$AA?9?$AAN?$AAO?$AA?$AA@ 0000000140026d90     LIBCMT:winapinls.obj
 0002:00004da0       ??_C@_1M@NEIEMEGP@?$AAp?$AAl?$AA?9?$AAP?$AAL?$AA?$AA@ 0000000140026da0     LIBCMT:winapinls.obj
 0002:00004db0       ??_C@_1M@BOCFIGEP@?$AAp?$AAt?$AA?9?$AAB?$AAR?$AA?$AA@ 0000000140026db0     LIBCMT:winapinls.obj
 0002:00004dc0       ??_C@_1M@IMPFOPBG@?$AAr?$AAo?$AA?9?$AAR?$AAO?$AA?$AA@ 0000000140026dc0     LIBCMT:winapinls.obj
 0002:00004dd0       ??_C@_1M@IDNNEJMM@?$AAr?$AAu?$AA?9?$AAR?$AAU?$AA?$AA@ 0000000140026dd0     LIBCMT:winapinls.obj
 0002:00004de0       ??_C@_1M@LILEEOGM@?$AAh?$AAr?$AA?9?$AAH?$AAR?$AA?$AA@ 0000000140026de0     LIBCMT:winapinls.obj
 0002:00004df0       ??_C@_1M@FKIFEHPB@?$AAs?$AAk?$AA?9?$AAS?$AAK?$AA?$AA@ 0000000140026df0     LIBCMT:winapinls.obj
 0002:00004e00       ??_C@_1M@LJMAMNPJ@?$AAs?$AAq?$AA?9?$AAA?$AAL?$AA?$AA@ 0000000140026e00     LIBCMT:winapinls.obj
 0002:00004e10       ??_C@_1M@GIAKDKJK@?$AAs?$AAv?$AA?9?$AAS?$AAE?$AA?$AA@ 0000000140026e10     LIBCMT:winapinls.obj
 0002:00004e20       ??_C@_1M@MKJKIKCL@?$AAt?$AAh?$AA?9?$AAT?$AAH?$AA?$AA@ 0000000140026e20     LIBCMT:winapinls.obj
 0002:00004e30       ??_C@_1M@MFLCCMPB@?$AAt?$AAr?$AA?9?$AAT?$AAR?$AA?$AA@ 0000000140026e30     LIBCMT:winapinls.obj
 0002:00004e40       ??_C@_1M@OIJHDKJN@?$AAu?$AAr?$AA?9?$AAP?$AAK?$AA?$AA@ 0000000140026e40     LIBCMT:winapinls.obj
 0002:00004e50       ??_C@_1M@LHIPCIEK@?$AAi?$AAd?$AA?9?$AAI?$AAD?$AA?$AA@ 0000000140026e50     LIBCMT:winapinls.obj
 0002:00004e60       ??_C@_1M@MFMOBGI@?$AAu?$AAk?$AA?9?$AAU?$AAA?$AA?$AA@ 0000000140026e60     LIBCMT:winapinls.obj
 0002:00004e70       ??_C@_1M@OBGLJIPL@?$AAb?$AAe?$AA?9?$AAB?$AAY?$AA?$AA@ 0000000140026e70     LIBCMT:winapinls.obj
 0002:00004e80       ??_C@_1M@BCFAJEAD@?$AAs?$AAl?$AA?9?$AAS?$AAI?$AA?$AA@ 0000000140026e80     LIBCMT:winapinls.obj
 0002:00004e90       ??_C@_1M@FKFFEDDN@?$AAe?$AAt?$AA?9?$AAE?$AAE?$AA?$AA@ 0000000140026e90     LIBCMT:winapinls.obj
 0002:00004ea0       ??_C@_1M@KGKKAACI@?$AAl?$AAv?$AA?9?$AAL?$AAV?$AA?$AA@ 0000000140026ea0     LIBCMT:winapinls.obj
 0002:00004eb0       ??_C@_1M@IFGBIJO@?$AAl?$AAt?$AA?9?$AAL?$AAT?$AA?$AA@ 0000000140026eb0     LIBCMT:winapinls.obj
 0002:00004ec0       ??_C@_1M@FGEAHEDM@?$AAf?$AAa?$AA?9?$AAI?$AAR?$AA?$AA@ 0000000140026ec0     LIBCMT:winapinls.obj
 0002:00004ed0       ??_C@_1M@KBMAIBFN@?$AAv?$AAi?$AA?9?$AAV?$AAN?$AA?$AA@ 0000000140026ed0     LIBCMT:winapinls.obj
 0002:00004ee0       ??_C@_1M@GPCBKDJK@?$AAh?$AAy?$AA?9?$AAA?$AAM?$AA?$AA@ 0000000140026ee0     LIBCMT:winapinls.obj
 0002:00004ef0       ??_C@_1BG@BECMDDJB@?$AAa?$AAz?$AA?9?$AAA?$AAZ?$AA?9?$AAL?$AAa?$AAt?$AAn?$AA?$AA@ 0000000140026ef0     LIBCMT:winapinls.obj
 0002:00004f08       ??_C@_1M@MAOFCAEA@?$AAe?$AAu?$AA?9?$AAE?$AAS?$AA?$AA@ 0000000140026f08     LIBCMT:winapinls.obj
 0002:00004f18       ??_C@_1M@IGHABKPI@?$AAm?$AAk?$AA?9?$AAM?$AAK?$AA?$AA@ 0000000140026f18     LIBCMT:winapinls.obj
 0002:00004f28       ??_C@_1M@IAIGNEJG@?$AAt?$AAn?$AA?9?$AAZ?$AAA?$AA?$AA@ 0000000140026f28     LIBCMT:winapinls.obj
 0002:00004f38       ??_C@_1M@IIJCOJFA@?$AAx?$AAh?$AA?9?$AAZ?$AAA?$AA?$AA@ 0000000140026f38     LIBCMT:winapinls.obj
 0002:00004f48       ??_C@_1M@LGPJHNJH@?$AAz?$AAu?$AA?9?$AAZ?$AAA?$AA?$AA@ 0000000140026f48     LIBCMT:winapinls.obj
 0002:00004f58       ??_C@_1M@HOKAOIO@?$AAa?$AAf?$AA?9?$AAZ?$AAA?$AA?$AA@ 0000000140026f58     LIBCMT:winapinls.obj
 0002:00004f68       ??_C@_1M@DPCLHLIE@?$AAk?$AAa?$AA?9?$AAG?$AAE?$AA?$AA@ 0000000140026f68     LIBCMT:winapinls.obj
 0002:00004f78       ??_C@_1M@BLKMHJBI@?$AAf?$AAo?$AA?9?$AAF?$AAO?$AA?$AA@ 0000000140026f78     LIBCMT:winapinls.obj
 0002:00004f88       ??_C@_1M@LGGJAPPB@?$AAh?$AAi?$AA?9?$AAI?$AAN?$AA?$AA@ 0000000140026f88     LIBCMT:winapinls.obj
 0002:00004f98       ??_C@_1M@FIKPIHFE@?$AAm?$AAt?$AA?9?$AAM?$AAT?$AA?$AA@ 0000000140026f98     LIBCMT:winapinls.obj
 0002:00004fa8       ??_C@_1M@HEGGPBFA@?$AAs?$AAe?$AA?9?$AAN?$AAO?$AA?$AA@ 0000000140026fa8     LIBCMT:winapinls.obj
 0002:00004fb8       ??_C@_1M@EIBJEEPA@?$AAm?$AAs?$AA?9?$AAM?$AAY?$AA?$AA@ 0000000140026fb8     LIBCMT:winapinls.obj
 0002:00004fc8       ??_C@_1M@FHLBGMPP@?$AAk?$AAk?$AA?9?$AAK?$AAZ?$AA?$AA@ 0000000140026fc8     LIBCMT:winapinls.obj
 0002:00004fd8       ??_C@_1M@NGJJLCGI@?$AAk?$AAy?$AA?9?$AAK?$AAG?$AA?$AA@ 0000000140026fd8     LIBCMT:winapinls.obj
 0002:00004fe8       ??_C@_1M@GIENNBFC@?$AAs?$AAw?$AA?9?$AAK?$AAE?$AA?$AA@ 0000000140026fe8     LIBCMT:winapinls.obj
 0002:00004ff8       ??_C@_1BG@NDGMJIMJ@?$AAu?$AAz?$AA?9?$AAU?$AAZ?$AA?9?$AAL?$AAa?$AAt?$AAn?$AA?$AA@ 0000000140026ff8     LIBCMT:winapinls.obj
 0002:00005010       ??_C@_1M@IDCCIHBC@?$AAt?$AAt?$AA?9?$AAR?$AAU?$AA?$AA@ 0000000140027010     LIBCMT:winapinls.obj
 0002:00005020       ??_C@_1M@LOICPMOJ@?$AAb?$AAn?$AA?9?$AAI?$AAN?$AA?$AA@ 0000000140027020     LIBCMT:winapinls.obj
 0002:00005030       ??_C@_1M@KPKKNEAH@?$AAp?$AAa?$AA?9?$AAI?$AAN?$AA?$AA@ 0000000140027030     LIBCMT:winapinls.obj
 0002:00005040       ??_C@_1M@PJGPPBOG@?$AAg?$AAu?$AA?9?$AAI?$AAN?$AA?$AA@ 0000000140027040     LIBCMT:winapinls.obj
 0002:00005050       ??_C@_1M@KMKMOPHI@?$AAt?$AAa?$AA?9?$AAI?$AAN?$AA?$AA@ 0000000140027050     LIBCMT:winapinls.obj
 0002:00005060       ??_C@_1M@KFEHEPAC@?$AAt?$AAe?$AA?9?$AAI?$AAN?$AA?$AA@ 0000000140027060     LIBCMT:winapinls.obj
 0002:00005070       ??_C@_1M@CDCLMGHI@?$AAk?$AAn?$AA?9?$AAI?$AAN?$AA?$AA@ 0000000140027070     LIBCMT:winapinls.obj
 0002:00005080       ??_C@_1M@MIODLDKF@?$AAm?$AAl?$AA?9?$AAI?$AAN?$AA?$AA@ 0000000140027080     LIBCMT:winapinls.obj
 0002:00005090       ??_C@_1M@PBIEACPO@?$AAm?$AAr?$AA?9?$AAI?$AAN?$AA?$AA@ 0000000140027090     LIBCMT:winapinls.obj
 0002:000050a0       ??_C@_1M@NIDEAGPH@?$AAs?$AAa?$AA?9?$AAI?$AAN?$AA?$AA@ 00000001400270a0     LIBCMT:winapinls.obj
 0002:000050b0       ??_C@_1M@FHIHCBIO@?$AAm?$AAn?$AA?9?$AAM?$AAN?$AA?$AA@ 00000001400270b0     LIBCMT:winapinls.obj
 0002:000050c0       ??_C@_1M@JAIJPENP@?$AAc?$AAy?$AA?9?$AAG?$AAB?$AA?$AA@ 00000001400270c0     LIBCMT:winapinls.obj
 0002:000050d0       ??_C@_1M@PHGFBEPN@?$AAg?$AAl?$AA?9?$AAE?$AAS?$AA?$AA@ 00000001400270d0     LIBCMT:winapinls.obj
 0002:000050e0       ??_C@_1O@KPIPDNCP@?$AAk?$AAo?$AAk?$AA?9?$AAI?$AAN?$AA?$AA@ 00000001400270e0     LIBCMT:winapinls.obj
 0002:000050f0       ??_C@_1O@KNHJLDJA@?$AAs?$AAy?$AAr?$AA?9?$AAS?$AAY?$AA?$AA@ 00000001400270f0     LIBCMT:winapinls.obj
 0002:00005100       ??_C@_1O@MKEKBLAH@?$AAd?$AAi?$AAv?$AA?9?$AAM?$AAV?$AA?$AA@ 0000000140027100     LIBCMT:winapinls.obj
 0002:00005110       ??_C@_1O@OHDCKDDF@?$AAq?$AAu?$AAz?$AA?9?$AAB?$AAO?$AA?$AA@ 0000000140027110     LIBCMT:winapinls.obj
 0002:00005120       ??_C@_1M@LEPJNLFD@?$AAn?$AAs?$AA?9?$AAZ?$AAA?$AA?$AA@ 0000000140027120     LIBCMT:winapinls.obj
 0002:00005130       ??_C@_1M@OMLEIIJB@?$AAm?$AAi?$AA?9?$AAN?$AAZ?$AA?$AA@ 0000000140027130     LIBCMT:winapinls.obj
 0002:00005140       ??_C@_1M@PMPEAILG@?$AAa?$AAr?$AA?9?$AAI?$AAQ?$AA?$AA@ 0000000140027140     LIBCMT:winapinls.obj
 0002:00005150       ??_C@_1M@CNKPNOEE@?$AAd?$AAe?$AA?9?$AAC?$AAH?$AA?$AA@ 0000000140027150     LIBCMT:winapinls.obj
 0002:00005160       ??_C@_1M@LKMGMLKO@?$AAe?$AAn?$AA?9?$AAG?$AAB?$AA?$AA@ 0000000140027160     LIBCMT:winapinls.obj
 0002:00005170       ??_C@_1M@PGKJFFGL@?$AAe?$AAs?$AA?9?$AAM?$AAX?$AA?$AA@ 0000000140027170     LIBCMT:winapinls.obj
 0002:00005180       ??_C@_1M@DNNANBDC@?$AAf?$AAr?$AA?9?$AAB?$AAE?$AA?$AA@ 0000000140027180     LIBCMT:winapinls.obj
 0002:00005190       ??_C@_1M@HLGMDFHM@?$AAi?$AAt?$AA?9?$AAC?$AAH?$AA?$AA@ 0000000140027190     LIBCMT:winapinls.obj
 0002:000051a0       ??_C@_1M@CLLBGJH@?$AAn?$AAl?$AA?9?$AAB?$AAE?$AA?$AA@ 00000001400271a0     LIBCMT:winapinls.obj
 0002:000051b0       ??_C@_1M@BODBOGLF@?$AAn?$AAn?$AA?9?$AAN?$AAO?$AA?$AA@ 00000001400271b0     LIBCMT:winapinls.obj
 0002:000051c0       ??_C@_1M@HFFAHKAD@?$AAp?$AAt?$AA?9?$AAP?$AAT?$AA?$AA@ 00000001400271c0     LIBCMT:winapinls.obj
 0002:000051d0       ??_C@_1BG@LNOAKHIE@?$AAs?$AAr?$AA?9?$AAS?$AAP?$AA?9?$AAL?$AAa?$AAt?$AAn?$AA?$AA@ 00000001400271d0     LIBCMT:winapinls.obj
 0002:000051e8       ??_C@_1M@HBMHBGAK@?$AAs?$AAv?$AA?9?$AAF?$AAI?$AA?$AA@ 00000001400271e8     LIBCMT:winapinls.obj
 0002:000051f8       ??_C@_1BG@DGCJGJBE@?$AAa?$AAz?$AA?9?$AAA?$AAZ?$AA?9?$AAC?$AAy?$AAr?$AAl?$AA?$AA@ 00000001400271f8     LIBCMT:winapinls.obj
 0002:00005210       ??_C@_1M@KEJDAAHB@?$AAs?$AAe?$AA?9?$AAS?$AAE?$AA?$AA@ 0000000140027210     LIBCMT:winapinls.obj
 0002:00005220       ??_C@_1M@HEIBJJAD@?$AAm?$AAs?$AA?9?$AAB?$AAN?$AA?$AA@ 0000000140027220     LIBCMT:winapinls.obj
 0002:00005230       ??_C@_1BG@PBGJMCEM@?$AAu?$AAz?$AA?9?$AAU?$AAZ?$AA?9?$AAC?$AAy?$AAr?$AAl?$AA?$AA@ 0000000140027230     LIBCMT:winapinls.obj
 0002:00005248       ??_C@_1O@LAOBCMDF@?$AAq?$AAu?$AAz?$AA?9?$AAE?$AAC?$AA?$AA@ 0000000140027248     LIBCMT:winapinls.obj
 0002:00005258       ??_C@_1M@POEEMAIO@?$AAa?$AAr?$AA?9?$AAE?$AAG?$AA?$AA@ 0000000140027258     LIBCMT:winapinls.obj
 0002:00005268       ??_C@_1M@EFAKDEDL@?$AAz?$AAh?$AA?9?$AAH?$AAK?$AA?$AA@ 0000000140027268     LIBCMT:winapinls.obj
 0002:00005278       ??_C@_1M@HKKIJHGI@?$AAd?$AAe?$AA?9?$AAA?$AAT?$AA?$AA@ 0000000140027278     LIBCMT:winapinls.obj
 0002:00005288       ??_C@_1M@KBFBEHJF@?$AAe?$AAn?$AA?9?$AAA?$AAU?$AA?$AA@ 0000000140027288     LIBCMT:winapinls.obj
 0002:00005298       ??_C@_1M@MNPLFAAH@?$AAe?$AAs?$AA?9?$AAE?$AAS?$AA?$AA@ 0000000140027298     LIBCMT:winapinls.obj
 0002:000052a8       ??_C@_1M@HJOOJFMA@?$AAf?$AAr?$AA?9?$AAC?$AAA?$AA?$AA@ 00000001400272a8     LIBCMT:winapinls.obj
 0002:000052b8       ??_C@_1BG@JPOFPNAB@?$AAs?$AAr?$AA?9?$AAS?$AAP?$AA?9?$AAC?$AAy?$AAr?$AAl?$AA?$AA@ 00000001400272b8     LIBCMT:winapinls.obj
 0002:000052d0       ??_C@_1M@LNFOCMOB@?$AAs?$AAe?$AA?9?$AAF?$AAI?$AA?$AA@ 00000001400272d0     LIBCMT:winapinls.obj
 0002:000052e0       ??_C@_1O@MGJBOAMB@?$AAq?$AAu?$AAz?$AA?9?$AAP?$AAE?$AA?$AA@ 00000001400272e0     LIBCMT:winapinls.obj
 0002:000052f0       ??_C@_1M@GJINLBOK@?$AAa?$AAr?$AA?9?$AAL?$AAY?$AA?$AA@ 00000001400272f0     LIBCMT:winapinls.obj
 0002:00005300       ??_C@_1M@GGMNHJNL@?$AAz?$AAh?$AA?9?$AAS?$AAG?$AA?$AA@ 0000000140027300     LIBCMT:winapinls.obj
 0002:00005310       ??_C@_1M@HOIKODND@?$AAd?$AAe?$AA?9?$AAL?$AAU?$AA?$AA@ 0000000140027310     LIBCMT:winapinls.obj
 0002:00005320       ??_C@_1M@DDOCCGFG@?$AAe?$AAn?$AA?9?$AAC?$AAA?$AA?$AA@ 0000000140027320     LIBCMT:winapinls.obj
 0002:00005330       ??_C@_1M@BNOEMJLF@?$AAe?$AAs?$AA?9?$AAG?$AAT?$AA?$AA@ 0000000140027330     LIBCMT:winapinls.obj
 0002:00005340       ??_C@_1M@EOGNKEK@?$AAf?$AAr?$AA?9?$AAC?$AAH?$AA?$AA@ 0000000140027340     LIBCMT:winapinls.obj
 0002:00005350       ??_C@_1M@FLIDJFHL@?$AAh?$AAr?$AA?9?$AAB?$AAA?$AA?$AA@ 0000000140027350     LIBCMT:winapinls.obj
 0002:00005360       ??_C@_1O@FMCELNAJ@?$AAs?$AAm?$AAj?$AA?9?$AAN?$AAO?$AA?$AA@ 0000000140027360     LIBCMT:winapinls.obj
 0002:00005370       ??_C@_1M@JHGLJMGJ@?$AAa?$AAr?$AA?9?$AAD?$AAZ?$AA?$AA@ 0000000140027370     LIBCMT:winapinls.obj
 0002:00005380       ??_C@_1M@JKKFDCNP@?$AAz?$AAh?$AA?9?$AAM?$AAO?$AA?$AA@ 0000000140027380     LIBCMT:winapinls.obj
 0002:00005390       ??_C@_1M@GEEFALPE@?$AAd?$AAe?$AA?9?$AAL?$AAI?$AA?$AA@ 0000000140027390     LIBCMT:winapinls.obj
 0002:000053a0       ??_C@_1M@IGEOFBG@?$AAe?$AAn?$AA?9?$AAN?$AAZ?$AA?$AA@ 00000001400273a0     LIBCMT:winapinls.obj
 0002:000053b0       ??_C@_1M@KDBONEHP@?$AAe?$AAs?$AA?9?$AAC?$AAR?$AA?$AA@ 00000001400273b0     LIBCMT:winapinls.obj
 0002:000053c0       ??_C@_1M@FHMDOHNN@?$AAf?$AAr?$AA?9?$AAL?$AAU?$AA?$AA@ 00000001400273c0     LIBCMT:winapinls.obj
 0002:000053d0       ??_C@_1BG@NFKKMAFG@?$AAb?$AAs?$AA?9?$AAB?$AAA?$AA?9?$AAL?$AAa?$AAt?$AAn?$AA?$AA@ 00000001400273d0     LIBCMT:winapinls.obj
 0002:000053e8       ??_C@_1O@IMNBEMCI@?$AAs?$AAm?$AAj?$AA?9?$AAS?$AAE?$AA?$AA@ 00000001400273e8     LIBCMT:winapinls.obj
 0002:000053f8       ??_C@_1M@DHHMBNDP@?$AAa?$AAr?$AA?9?$AAM?$AAA?$AA?$AA@ 00000001400273f8     LIBCMT:winapinls.obj
 0002:00005408       ??_C@_1M@BNBLJCGH@?$AAe?$AAn?$AA?9?$AAI?$AAE?$AA?$AA@ 0000000140027408     LIBCMT:winapinls.obj
 0002:00005418       ??_C@_1M@GEPAFMDL@?$AAe?$AAs?$AA?9?$AAP?$AAA?$AA?$AA@ 0000000140027418     LIBCMT:winapinls.obj
 0002:00005428       ??_C@_1M@OJONDMDL@?$AAf?$AAr?$AA?9?$AAM?$AAC?$AA?$AA@ 0000000140027428     LIBCMT:winapinls.obj
 0002:00005438       ??_C@_1BG@OBCNFJB@?$AAs?$AAr?$AA?9?$AAB?$AAA?$AA?9?$AAL?$AAa?$AAt?$AAn?$AA?$AA@ 0000000140027438     LIBCMT:winapinls.obj
 0002:00005450       ??_C@_1O@KEMEEGPO@?$AAs?$AAm?$AAa?$AA?9?$AAN?$AAO?$AA?$AA@ 0000000140027450     LIBCMT:winapinls.obj
 0002:00005460       ??_C@_1M@ELMGFODK@?$AAa?$AAr?$AA?9?$AAT?$AAN?$AA?$AA@ 0000000140027460     LIBCMT:winapinls.obj
 0002:00005470       ??_C@_1M@BHDLHFAF@?$AAe?$AAn?$AA?9?$AAZ?$AAA?$AA?$AA@ 0000000140027470     LIBCMT:winapinls.obj
 0002:00005480       ??_C@_1M@BMGIGLIF@?$AAe?$AAs?$AA?9?$AAD?$AAO?$AA?$AA@ 0000000140027480     LIBCMT:winapinls.obj
 0002:00005490       ??_C@_1BG@CMBHIPBE@?$AAs?$AAr?$AA?9?$AAB?$AAA?$AA?9?$AAC?$AAy?$AAr?$AAl?$AA?$AA@ 0000000140027490     LIBCMT:winapinls.obj
 0002:000054a8       ??_C@_1O@HEDBLHNP@?$AAs?$AAm?$AAa?$AA?9?$AAS?$AAE?$AA?$AA@ 00000001400274a8     LIBCMT:winapinls.obj
 0002:000054b8       ??_C@_1M@DAGCADIM@?$AAa?$AAr?$AA?9?$AAO?$AAM?$AA?$AA@ 00000001400274b8     LIBCMT:winapinls.obj
 0002:000054c8       ??_C@_1M@FODLMICG@?$AAe?$AAn?$AA?9?$AAJ?$AAM?$AA?$AA@ 00000001400274c8     LIBCMT:winapinls.obj
 0002:000054d8       ??_C@_1M@DNMLCIHB@?$AAe?$AAs?$AA?9?$AAV?$AAE?$AA?$AA@ 00000001400274d8     LIBCMT:winapinls.obj
 0002:000054e8       ??_C@_1O@EOKHMKJK@?$AAs?$AAm?$AAs?$AA?9?$AAF?$AAI?$AA?$AA@ 00000001400274e8     LIBCMT:winapinls.obj
 0002:000054f8       ??_C@_1M@CAFJMKOF@?$AAa?$AAr?$AA?9?$AAY?$AAE?$AA?$AA@ 00000001400274f8     LIBCMT:winapinls.obj
 0002:00005508       ??_C@_1M@CBFHIJLI@?$AAe?$AAn?$AA?9?$AAC?$AAB?$AA?$AA@ 0000000140027508     LIBCMT:winapinls.obj
 0002:00005518       ??_C@_1M@BGNFLDN@?$AAe?$AAs?$AA?9?$AAC?$AAO?$AA?$AA@ 0000000140027518     LIBCMT:winapinls.obj
 0002:00005528       ??_C@_1O@JMPHMAMC@?$AAs?$AAm?$AAn?$AA?9?$AAF?$AAI?$AA?$AA@ 0000000140027528     LIBCMT:winapinls.obj
 0002:00005538       ??_C@_1M@JLANABKE@?$AAa?$AAr?$AA?9?$AAS?$AAY?$AA?$AA@ 0000000140027538     LIBCMT:winapinls.obj
 0002:00005548       ??_C@_1M@HPKGCFGN@?$AAe?$AAn?$AA?9?$AAB?$AAZ?$AA?$AA@ 0000000140027548     LIBCMT:winapinls.obj
 0002:00005558       ??_C@_1M@OLJCMLGM@?$AAe?$AAs?$AA?9?$AAP?$AAE?$AA?$AA@ 0000000140027558     LIBCMT:winapinls.obj
 0002:00005568       ??_C@_1M@MKKGFKLE@?$AAa?$AAr?$AA?9?$AAJ?$AAO?$AA?$AA@ 0000000140027568     LIBCMT:winapinls.obj
 0002:00005578       ??_C@_1M@EKPGLDNI@?$AAe?$AAn?$AA?9?$AAT?$AAT?$AA?$AA@ 0000000140027578     LIBCMT:winapinls.obj
 0002:00005588       ??_C@_1M@OONGHFHE@?$AAe?$AAs?$AA?9?$AAA?$AAR?$AA?$AA@ 0000000140027588     LIBCMT:winapinls.obj
 0002:00005598       ??_C@_1M@OOJFGBHE@?$AAa?$AAr?$AA?9?$AAL?$AAB?$AA?$AA@ 0000000140027598     LIBCMT:winapinls.obj
 0002:000055a8       ??_C@_1M@GCEJHNEG@?$AAe?$AAn?$AA?9?$AAZ?$AAW?$AA?$AA@ 00000001400275a8     LIBCMT:winapinls.obj
 0002:000055b8       ??_C@_1M@JNOCAHJI@?$AAe?$AAs?$AA?9?$AAE?$AAC?$AA?$AA@ 00000001400275b8     LIBCMT:winapinls.obj
 0002:000055c8       ??_C@_1M@JEFHPGGB@?$AAa?$AAr?$AA?9?$AAK?$AAW?$AA?$AA@ 00000001400275c8     LIBCMT:winapinls.obj
 0002:000055d8       ??_C@_1M@MLKIBJOJ@?$AAe?$AAn?$AA?9?$AAP?$AAH?$AA?$AA@ 00000001400275d8     LIBCMT:winapinls.obj
 0002:000055e8       ??_C@_1M@BDNIPEND@?$AAe?$AAs?$AA?9?$AAC?$AAL?$AA?$AA@ 00000001400275e8     LIBCMT:winapinls.obj
 0002:000055f8       ??_C@_1M@MPNMEKBD@?$AAa?$AAr?$AA?9?$AAA?$AAE?$AA?$AA@ 00000001400275f8     LIBCMT:winapinls.obj
 0002:00005608       ??_C@_1M@KBJALCPI@?$AAe?$AAs?$AA?9?$AAU?$AAY?$AA?$AA@ 0000000140027608     LIBCMT:winapinls.obj
 0002:00005618       ??_C@_1M@LLCCOAGA@?$AAa?$AAr?$AA?9?$AAB?$AAH?$AA?$AA@ 0000000140027618     LIBCMT:winapinls.obj
 0002:00005628       ??_C@_1M@PBFNCDEL@?$AAe?$AAs?$AA?9?$AAP?$AAY?$AA?$AA@ 0000000140027628     LIBCMT:winapinls.obj
 0002:00005638       ??_C@_1M@EDGINPNP@?$AAa?$AAr?$AA?9?$AAQ?$AAA?$AA?$AA@ 0000000140027638     LIBCMT:winapinls.obj
 0002:00005648       ??_C@_1M@MKDBIIJI@?$AAe?$AAs?$AA?9?$AAB?$AAO?$AA?$AA@ 0000000140027648     LIBCMT:winapinls.obj
 0002:00005658       ??_C@_1M@CPKKEBLD@?$AAe?$AAs?$AA?9?$AAS?$AAV?$AA?$AA@ 0000000140027658     LIBCMT:winapinls.obj
 0002:00005668       ??_C@_1M@NDBGMMJL@?$AAe?$AAs?$AA?9?$AAH?$AAN?$AA?$AA@ 0000000140027668     LIBCMT:winapinls.obj
 0002:00005678       ??_C@_1M@JIJIBHDP@?$AAe?$AAs?$AA?9?$AAN?$AAI?$AA?$AA@ 0000000140027678     LIBCMT:winapinls.obj
 0002:00005688       ??_C@_1M@CGFMKEEK@?$AAe?$AAs?$AA?9?$AAP?$AAR?$AA?$AA@ 0000000140027688     LIBCMT:winapinls.obj
 0002:00005698       ??_C@_1O@ICJHKIIK@?$AAz?$AAh?$AA?9?$AAC?$AAH?$AAT?$AA?$AA@ 0000000140027698     LIBCMT:winapinls.obj
 0002:000056a8       ??_C@_15CLNEJCE@?$AAs?$AAr?$AA?$AA@ 00000001400276a8     LIBCMT:winapinls.obj
 0002:000056b0       ??_C@_1M@KAHEKEIG@?$AAa?$AAf?$AA?9?$AAz?$AAa?$AA?$AA@ 00000001400276b0     LIBCMT:winapinls.obj
 0002:000056c0       ??_C@_1M@GIECOABL@?$AAa?$AAr?$AA?9?$AAa?$AAe?$AA?$AA@ 00000001400276c0     LIBCMT:winapinls.obj
 0002:000056d0       ??_C@_1M@BMLMEKGI@?$AAa?$AAr?$AA?9?$AAb?$AAh?$AA?$AA@ 00000001400276d0     LIBCMT:winapinls.obj
 0002:000056e0       ??_C@_1M@DAPFDGGB@?$AAa?$AAr?$AA?9?$AAd?$AAz?$AA?$AA@ 00000001400276e0     LIBCMT:winapinls.obj
 0002:000056f0       ??_C@_1M@FJNKGKIG@?$AAa?$AAr?$AA?9?$AAe?$AAg?$AA?$AA@ 00000001400276f0     LIBCMT:winapinls.obj
 0002:00005700       ??_C@_1M@FLGKKCLO@?$AAa?$AAr?$AA?9?$AAi?$AAq?$AA?$AA@ 0000000140027700     LIBCMT:winapinls.obj
 0002:00005710       ??_C@_1M@GNDIPALM@?$AAa?$AAr?$AA?9?$AAj?$AAo?$AA?$AA@ 0000000140027710     LIBCMT:winapinls.obj
 0002:00005720       ??_C@_1M@DDMJFMGJ@?$AAa?$AAr?$AA?9?$AAk?$AAw?$AA?$AA@ 0000000140027720     LIBCMT:winapinls.obj
 0002:00005730       ??_C@_1M@EJALMLHM@?$AAa?$AAr?$AA?9?$AAl?$AAb?$AA?$AA@ 0000000140027730     LIBCMT:winapinls.obj
 0002:00005740       ??_C@_1M@MOBDBLOC@?$AAa?$AAr?$AA?9?$AAl?$AAy?$AA?$AA@ 0000000140027740     LIBCMT:winapinls.obj
 0002:00005750       ??_C@_1M@JAOCLHDH@?$AAa?$AAr?$AA?9?$AAm?$AAa?$AA?$AA@ 0000000140027750     LIBCMT:winapinls.obj
 0002:00005760       ??_C@_1M@JHPMKJIE@?$AAa?$AAr?$AA?9?$AAo?$AAm?$AA?$AA@ 0000000140027760     LIBCMT:winapinls.obj
 0002:00005770       ??_C@_1M@OEPGHFNH@?$AAa?$AAr?$AA?9?$AAq?$AAa?$AA?$AA@ 0000000140027770     LIBCMT:winapinls.obj
 0002:00005780       ??_C@_1M@KJDONENM@?$AAa?$AAr?$AA?9?$AAs?$AAa?$AA?$AA@ 0000000140027780     LIBCMT:winapinls.obj
 0002:00005790       ??_C@_1M@DMJDKLKM@?$AAa?$AAr?$AA?9?$AAs?$AAy?$AA?$AA@ 0000000140027790     LIBCMT:winapinls.obj
 0002:000057a0       ??_C@_1M@OMFIPEDC@?$AAa?$AAr?$AA?9?$AAt?$AAn?$AA?$AA@ 00000001400277a0     LIBCMT:winapinls.obj
 0002:000057b0       ??_C@_1M@IHMHGAON@?$AAa?$AAr?$AA?9?$AAy?$AAe?$AA?$AA@ 00000001400277b0     LIBCMT:winapinls.obj
 0002:000057c0       ??_C@_1BG@KDCPGJGB@?$AAa?$AAz?$AA?9?$AAa?$AAz?$AA?9?$AAc?$AAy?$AAr?$AAl?$AA?$AA@ 00000001400277c0     LIBCMT:winapinls.obj
 0002:000057d8       ??_C@_1BG@IBCKDDOE@?$AAa?$AAz?$AA?9?$AAa?$AAz?$AA?9?$AAl?$AAa?$AAt?$AAn?$AA?$AA@ 00000001400277d8     LIBCMT:winapinls.obj
 0002:000057f0       ??_C@_1M@EGPFDCPD@?$AAb?$AAe?$AA?9?$AAb?$AAy?$AA?$AA@ 00000001400277f0     LIBCMT:winapinls.obj
 0002:00005800       ??_C@_1M@PCMGMCGC@?$AAb?$AAg?$AA?9?$AAb?$AAg?$AA?$AA@ 0000000140027800     LIBCMT:winapinls.obj
 0002:00005810       ??_C@_1M@BJBMFGOB@?$AAb?$AAn?$AA?9?$AAi?$AAn?$AA?$AA@ 0000000140027810     LIBCMT:winapinls.obj
 0002:00005820       ??_C@_1BG@EAKMMACD@?$AAb?$AAs?$AA?9?$AAb?$AAa?$AA?9?$AAl?$AAa?$AAt?$AAn?$AA?$AA@ 0000000140027820     LIBCMT:winapinls.obj
 0002:00005838       ??_C@_1M@KGADAODK@?$AAc?$AAa?$AA?9?$AAe?$AAs?$AA?$AA@ 0000000140027838     LIBCMT:winapinls.obj
 0002:00005848       ??_C@_1M@COAJPDHI@?$AAc?$AAs?$AA?9?$AAc?$AAz?$AA?$AA@ 0000000140027848     LIBCMT:winapinls.obj
 0002:00005858       ??_C@_1M@DHBHFONH@?$AAc?$AAy?$AA?9?$AAg?$AAb?$AA?$AA@ 0000000140027858     LIBCMT:winapinls.obj
 0002:00005868       ??_C@_1M@IMGKELGA@?$AAd?$AAa?$AA?9?$AAd?$AAk?$AA?$AA@ 0000000140027868     LIBCMT:winapinls.obj
 0002:00005878       ??_C@_1M@NNDGDNGA@?$AAd?$AAe?$AA?9?$AAa?$AAt?$AA?$AA@ 0000000140027878     LIBCMT:winapinls.obj
 0002:00005888       ??_C@_1M@IKDBHEEM@?$AAd?$AAe?$AA?9?$AAc?$AAh?$AA?$AA@ 0000000140027888     LIBCMT:winapinls.obj
 0002:00005898       ??_C@_1M@GFFOJMCJ@?$AAd?$AAe?$AA?9?$AAd?$AAe?$AA?$AA@ 0000000140027898     LIBCMT:winapinls.obj
 0002:000058a8       ??_C@_1M@MDNLKBPM@?$AAd?$AAe?$AA?9?$AAl?$AAi?$AA?$AA@ 00000001400278a8     LIBCMT:winapinls.obj
 0002:000058b8       ??_C@_1M@NJBEEJNL@?$AAd?$AAe?$AA?9?$AAl?$AAu?$AA?$AA@ 00000001400278b8     LIBCMT:winapinls.obj
 0002:000058c8       ??_C@_1O@GNNELBAP@?$AAd?$AAi?$AAv?$AA?9?$AAm?$AAv?$AA?$AA@ 00000001400278c8     LIBCMT:winapinls.obj
 0002:000058d8       ??_C@_1M@EJLEOGAE@?$AAe?$AAl?$AA?9?$AAg?$AAr?$AA?$AA@ 00000001400278d8     LIBCMT:winapinls.obj
 0002:000058e8       ??_C@_1M@GMPONJN@?$AAe?$AAn?$AA?9?$AAa?$AAu?$AA?$AA@ 00000001400278e8     LIBCMT:winapinls.obj
 0002:000058f8       ??_C@_1M@NIDIIPGF@?$AAe?$AAn?$AA?9?$AAb?$AAz?$AA?$AA@ 00000001400278f8     LIBCMT:winapinls.obj
 0002:00005908       ??_C@_1M@JEHMIMFO@?$AAe?$AAn?$AA?9?$AAc?$AAa?$AA?$AA@ 0000000140027908     LIBCMT:winapinls.obj
 0002:00005918       ??_C@_1M@IGMJCDLA@?$AAe?$AAn?$AA?9?$AAc?$AAb?$AA?$AA@ 0000000140027918     LIBCMT:winapinls.obj
 0002:00005928       ??_C@_1M@BNFIGBKG@?$AAe?$AAn?$AA?9?$AAg?$AAb?$AA?$AA@ 0000000140027928     LIBCMT:winapinls.obj
 0002:00005938       ??_C@_1M@LKIFDIGP@?$AAe?$AAn?$AA?9?$AAi?$AAe?$AA?$AA@ 0000000140027938     LIBCMT:winapinls.obj
 0002:00005948       ??_C@_1M@PJKFGCCO@?$AAe?$AAn?$AA?9?$AAj?$AAm?$AA?$AA@ 0000000140027948     LIBCMT:winapinls.obj
 0002:00005958       ??_C@_1M@KPPKEPBO@?$AAe?$AAn?$AA?9?$AAn?$AAz?$AA?$AA@ 0000000140027958     LIBCMT:winapinls.obj
 0002:00005968       ??_C@_1M@GMDGLDOB@?$AAe?$AAn?$AA?9?$AAp?$AAh?$AA?$AA@ 0000000140027968     LIBCMT:winapinls.obj
 0002:00005978       ??_C@_1M@ONGIBJNA@?$AAe?$AAn?$AA?9?$AAt?$AAt?$AA?$AA@ 0000000140027978     LIBCMT:winapinls.obj
 0002:00005988       ??_C@_1M@LLODPCMM@?$AAe?$AAn?$AA?9?$AAu?$AAs?$AA?$AA@ 0000000140027988     LIBCMT:winapinls.obj
 0002:00005998       ??_C@_1M@LAKFNPAN@?$AAe?$AAn?$AA?9?$AAz?$AAa?$AA?$AA@ 0000000140027998     LIBCMT:winapinls.obj
 0002:000059a8       ??_C@_1M@MFNHNHEO@?$AAe?$AAn?$AA?9?$AAz?$AAw?$AA?$AA@ 00000001400279a8     LIBCMT:winapinls.obj
 0002:000059b8       ??_C@_1M@EJEINPHM@?$AAe?$AAs?$AA?9?$AAa?$AAr?$AA?$AA@ 00000001400279b8     LIBCMT:winapinls.obj
 0002:000059c8       ??_C@_1M@GNKPCCJA@?$AAe?$AAs?$AA?9?$AAb?$AAo?$AA?$AA@ 00000001400279c8     LIBCMT:winapinls.obj
 0002:000059d8       ??_C@_1M@LEEGFONL@?$AAe?$AAs?$AA?9?$AAc?$AAl?$AA?$AA@ 00000001400279d8     LIBCMT:winapinls.obj
 0002:000059e8       ??_C@_1M@KGPDPBDF@?$AAe?$AAs?$AA?9?$AAc?$AAo?$AA?$AA@ 00000001400279e8     LIBCMT:winapinls.obj
 0002:000059f8       ??_C@_1M@EIAHOHH@?$AAe?$AAs?$AA?9?$AAc?$AAr?$AA?$AA@ 00000001400279f8     LIBCMT:winapinls.obj
 0002:00005a08       ??_C@_1M@LLPGMBIN@?$AAe?$AAs?$AA?9?$AAd?$AAo?$AA?$AA@ 0000000140027a08     LIBCMT:winapinls.obj
 0002:00005a18       ??_C@_1M@DKHMKNJA@?$AAe?$AAs?$AA?9?$AAe?$AAc?$AA?$AA@ 0000000140027a18     LIBCMT:winapinls.obj
 0002:00005a28       ??_C@_1M@GKGFPKAP@?$AAe?$AAs?$AA?9?$AAe?$AAs?$AA?$AA@ 0000000140027a28     LIBCMT:winapinls.obj
 0002:00005a38       ??_C@_1M@LKHKGDLN@?$AAe?$AAs?$AA?9?$AAg?$AAt?$AA?$AA@ 0000000140027a38     LIBCMT:winapinls.obj
 0002:00005a48       ??_C@_1M@HEIIGGJD@?$AAe?$AAs?$AA?9?$AAh?$AAn?$AA?$AA@ 0000000140027a48     LIBCMT:winapinls.obj
 0002:00005a58       ??_C@_1M@FBDHPPGD@?$AAe?$AAs?$AA?9?$AAm?$AAx?$AA?$AA@ 0000000140027a58     LIBCMT:winapinls.obj
 0002:00005a68       ??_C@_1M@DPAGLNDH@?$AAe?$AAs?$AA?9?$AAn?$AAi?$AA?$AA@ 0000000140027a68     LIBCMT:winapinls.obj
 0002:00005a78       ??_C@_1M@MDGOPGDD@?$AAe?$AAs?$AA?9?$AAp?$AAa?$AA?$AA@ 0000000140027a78     LIBCMT:winapinls.obj
 0002:00005a88       ??_C@_1M@EMAMGBGE@?$AAe?$AAs?$AA?9?$AAp?$AAe?$AA?$AA@ 0000000140027a88     LIBCMT:winapinls.obj
 0002:00005a98       ??_C@_1M@IBMCAOEC@?$AAe?$AAs?$AA?9?$AAp?$AAr?$AA?$AA@ 0000000140027a98     LIBCMT:winapinls.obj
 0002:00005aa8       ??_C@_1M@FGMDIJED@?$AAe?$AAs?$AA?9?$AAp?$AAy?$AA?$AA@ 0000000140027aa8     LIBCMT:winapinls.obj
 0002:00005ab8       ??_C@_1M@IIDEOLLL@?$AAe?$AAs?$AA?9?$AAs?$AAv?$AA?$AA@ 0000000140027ab8     LIBCMT:winapinls.obj
 0002:00005ac8       ??_C@_1M@GAOBIPA@?$AAe?$AAs?$AA?9?$AAu?$AAy?$AA?$AA@ 0000000140027ac8     LIBCMT:winapinls.obj
 0002:00005ad8       ??_C@_1M@JKFFICHJ@?$AAe?$AAs?$AA?9?$AAv?$AAe?$AA?$AA@ 0000000140027ad8     LIBCMT:winapinls.obj
 0002:00005ae8       ??_C@_1M@PNMLOJDF@?$AAe?$AAt?$AA?9?$AAe?$AAe?$AA?$AA@ 0000000140027ae8     LIBCMT:winapinls.obj
 0002:00005af8       ??_C@_1M@GHHLIKEI@?$AAe?$AAu?$AA?9?$AAe?$AAs?$AA?$AA@ 0000000140027af8     LIBCMT:winapinls.obj
 0002:00005b08       ??_C@_1M@PBNONODE@?$AAf?$AAa?$AA?9?$AAi?$AAr?$AA?$AA@ 0000000140027b08     LIBCMT:winapinls.obj
 0002:00005b18       ??_C@_1M@JEEHPMIL@?$AAf?$AAi?$AA?9?$AAf?$AAi?$AA?$AA@ 0000000140027b18     LIBCMT:winapinls.obj
 0002:00005b28       ??_C@_1M@LMDCNDBA@?$AAf?$AAo?$AA?9?$AAf?$AAo?$AA?$AA@ 0000000140027b28     LIBCMT:winapinls.obj
 0002:00005b38       ??_C@_1M@JKEOHLDK@?$AAf?$AAr?$AA?9?$AAb?$AAe?$AA?$AA@ 0000000140027b38     LIBCMT:winapinls.obj
 0002:00005b48       ??_C@_1M@NOHADPMI@?$AAf?$AAr?$AA?9?$AAc?$AAa?$AA?$AA@ 0000000140027b48     LIBCMT:winapinls.obj
 0002:00005b58       ??_C@_1M@KDHIHAEC@?$AAf?$AAr?$AA?9?$AAc?$AAh?$AA?$AA@ 0000000140027b58     LIBCMT:winapinls.obj
 0002:00005b68       ??_C@_1M@MMBBFGAK@?$AAf?$AAr?$AA?9?$AAf?$AAr?$AA?$AA@ 0000000140027b68     LIBCMT:winapinls.obj
 0002:00005b78       ??_C@_1M@PAFNENNF@?$AAf?$AAr?$AA?9?$AAl?$AAu?$AA?$AA@ 0000000140027b78     LIBCMT:winapinls.obj
 0002:00005b88       ??_C@_1M@EOHDJGDD@?$AAf?$AAr?$AA?9?$AAm?$AAc?$AA?$AA@ 0000000140027b88     LIBCMT:winapinls.obj
 0002:00005b98       ??_C@_1M@FAPLLOPF@?$AAg?$AAl?$AA?9?$AAe?$AAs?$AA?$AA@ 0000000140027b98     LIBCMT:winapinls.obj
 0002:00005ba8       ??_C@_1M@FOPBFLOO@?$AAg?$AAu?$AA?9?$AAi?$AAn?$AA?$AA@ 0000000140027ba8     LIBCMT:winapinls.obj
 0002:00005bb8       ??_C@_1M@KBMCINPM@?$AAh?$AAe?$AA?9?$AAi?$AAl?$AA?$AA@ 0000000140027bb8     LIBCMT:winapinls.obj
 0002:00005bc8       ??_C@_1M@BBPHKFPJ@?$AAh?$AAi?$AA?9?$AAi?$AAn?$AA?$AA@ 0000000140027bc8     LIBCMT:winapinls.obj
 0002:00005bd8       ??_C@_1M@PMBNDPHD@?$AAh?$AAr?$AA?9?$AAb?$AAa?$AA?$AA@ 0000000140027bd8     LIBCMT:winapinls.obj
 0002:00005be8       ??_C@_1M@BPCKOEGE@?$AAh?$AAr?$AA?9?$AAh?$AAr?$AA?$AA@ 0000000140027be8     LIBCMT:winapinls.obj
 0002:00005bf8       ??_C@_1M@GACBMHKE@?$AAh?$AAu?$AA?9?$AAh?$AAu?$AA?$AA@ 0000000140027bf8     LIBCMT:winapinls.obj
 0002:00005c08       ??_C@_1M@MILPAJJC@?$AAh?$AAy?$AA?9?$AAa?$AAm?$AA?$AA@ 0000000140027c08     LIBCMT:winapinls.obj
 0002:00005c18       ??_C@_1M@BABBICEC@?$AAi?$AAd?$AA?9?$AAi?$AAd?$AA?$AA@ 0000000140027c18     LIBCMT:winapinls.obj
 0002:00005c28       ??_C@_1M@BIKNHHPF@?$AAi?$AAs?$AA?9?$AAi?$AAs?$AA?$AA@ 0000000140027c28     LIBCMT:winapinls.obj
 0002:00005c38       ??_C@_1M@NMPCJPHE@?$AAi?$AAt?$AA?9?$AAc?$AAh?$AA?$AA@ 0000000140027c38     LIBCMT:winapinls.obj
 0002:00005c48       ??_C@_1M@GHKGFEDF@?$AAi?$AAt?$AA?9?$AAi?$AAt?$AA?$AA@ 0000000140027c48     LIBCMT:winapinls.obj
 0002:00005c58       ??_C@_1M@NIEJCJJA@?$AAj?$AAa?$AA?9?$AAj?$AAp?$AA?$AA@ 0000000140027c58     LIBCMT:winapinls.obj
 0002:00005c68       ??_C@_1M@JILFNBIM@?$AAk?$AAa?$AA?9?$AAg?$AAe?$AA?$AA@ 0000000140027c68     LIBCMT:winapinls.obj
 0002:00005c78       ??_C@_1M@PACPMGPH@?$AAk?$AAk?$AA?9?$AAk?$AAz?$AA?$AA@ 0000000140027c78     LIBCMT:winapinls.obj
 0002:00005c88       ??_C@_1M@IELFGMHA@?$AAk?$AAn?$AA?9?$AAi?$AAn?$AA?$AA@ 0000000140027c88     LIBCMT:winapinls.obj
 0002:00005c98       ??_C@_1O@IBBJHCH@?$AAk?$AAo?$AAk?$AA?9?$AAi?$AAn?$AA?$AA@ 0000000140027c98     LIBCMT:winapinls.obj
 0002:00005ca8       ??_C@_1M@DMHAEOGC@?$AAk?$AAo?$AA?9?$AAk?$AAr?$AA?$AA@ 0000000140027ca8     LIBCMT:winapinls.obj
 0002:00005cb8       ??_C@_1M@HBAHBIGA@?$AAk?$AAy?$AA?9?$AAk?$AAg?$AA?$AA@ 0000000140027cb8     LIBCMT:winapinls.obj
 0002:00005cc8       ??_C@_1M@KPMILCJG@?$AAl?$AAt?$AA?9?$AAl?$AAt?$AA?$AA@ 0000000140027cc8     LIBCMT:winapinls.obj
 0002:00005cd8       ??_C@_1M@BDEKKCA@?$AAl?$AAv?$AA?9?$AAl?$AAv?$AA?$AA@ 0000000140027cd8     LIBCMT:winapinls.obj
 0002:00005ce8       ??_C@_1M@ELCKCCJJ@?$AAm?$AAi?$AA?9?$AAn?$AAz?$AA?$AA@ 0000000140027ce8     LIBCMT:winapinls.obj
 0002:00005cf8       ??_C@_1M@CBOOLAPA@?$AAm?$AAk?$AA?9?$AAm?$AAk?$AA?$AA@ 0000000140027cf8     LIBCMT:winapinls.obj
 0002:00005d08       ??_C@_1M@GPHNBJKN@?$AAm?$AAl?$AA?9?$AAi?$AAn?$AA?$AA@ 0000000140027d08     LIBCMT:winapinls.obj
 0002:00005d18       ??_C@_1M@PABJILIG@?$AAm?$AAn?$AA?9?$AAm?$AAn?$AA?$AA@ 0000000140027d18     LIBCMT:winapinls.obj
 0002:00005d28       ??_C@_1M@FGBKKIPG@?$AAm?$AAr?$AA?9?$AAi?$AAn?$AA?$AA@ 0000000140027d28     LIBCMT:winapinls.obj
 0002:00005d38       ??_C@_1M@NDBPDDAL@?$AAm?$AAs?$AA?9?$AAb?$AAn?$AA?$AA@ 0000000140027d38     LIBCMT:winapinls.obj
 0002:00005d48       ??_C@_1M@OPIHOOPI@?$AAm?$AAs?$AA?9?$AAm?$AAy?$AA?$AA@ 0000000140027d48     LIBCMT:winapinls.obj
 0002:00005d58       ??_C@_1M@PPDBCNFM@?$AAm?$AAt?$AA?9?$AAm?$AAt?$AA?$AA@ 0000000140027d58     LIBCMT:winapinls.obj
 0002:00005d68       ??_C@_1M@KDJDKMDD@?$AAn?$AAb?$AA?9?$AAn?$AAo?$AA?$AA@ 0000000140027d68     LIBCMT:winapinls.obj
 0002:00005d78       ??_C@_1M@KFCFLMJP@?$AAn?$AAl?$AA?9?$AAb?$AAe?$AA?$AA@ 0000000140027d78     LIBCMT:winapinls.obj
 0002:00005d88       ??_C@_1M@KPOPDDGO@?$AAn?$AAl?$AA?9?$AAn?$AAl?$AA?$AA@ 0000000140027d88     LIBCMT:winapinls.obj
 0002:00005d98       ??_C@_1M@LJKPEMLN@?$AAn?$AAn?$AA?9?$AAn?$AAo?$AA?$AA@ 0000000140027d98     LIBCMT:winapinls.obj
 0002:00005da8       ??_C@_1M@BDGHHBFL@?$AAn?$AAs?$AA?9?$AAz?$AAa?$AA?$AA@ 0000000140027da8     LIBCMT:winapinls.obj
 0002:00005db8       ??_C@_1M@IDEHOAP@?$AAp?$AAa?$AA?9?$AAi?$AAn?$AA?$AA@ 0000000140027db8     LIBCMT:winapinls.obj
 0002:00005dc8       ??_C@_1M@HDBKGOGH@?$AAp?$AAl?$AA?9?$AAp?$AAl?$AA?$AA@ 0000000140027dc8     LIBCMT:winapinls.obj
 0002:00005dd8       ??_C@_1M@LJLLCMEH@?$AAp?$AAt?$AA?9?$AAb?$AAr?$AA?$AA@ 0000000140027dd8     LIBCMT:winapinls.obj
 0002:00005de8       ??_C@_1M@NCMONAAL@?$AAp?$AAt?$AA?9?$AAp?$AAt?$AA?$AA@ 0000000140027de8     LIBCMT:winapinls.obj
 0002:00005df8       ??_C@_1O@EAKMAJDN@?$AAq?$AAu?$AAz?$AA?9?$AAb?$AAo?$AA?$AA@ 0000000140027df8     LIBCMT:winapinls.obj
 0002:00005e08       ??_C@_1O@BHHPIGDN@?$AAq?$AAu?$AAz?$AA?9?$AAe?$AAc?$AA?$AA@ 0000000140027e08     LIBCMT:winapinls.obj
 0002:00005e18       ??_C@_1O@GBAPEKMJ@?$AAq?$AAu?$AAz?$AA?9?$AAp?$AAe?$AA?$AA@ 0000000140027e18     LIBCMT:winapinls.obj
 0002:00005e28       ??_C@_1M@CLGLEFBO@?$AAr?$AAo?$AA?9?$AAr?$AAo?$AA?$AA@ 0000000140027e28     LIBCMT:winapinls.obj
 0002:00005e38       ??_C@_1M@CEEDODME@?$AAr?$AAu?$AA?9?$AAr?$AAu?$AA?$AA@ 0000000140027e38     LIBCMT:winapinls.obj
 0002:00005e48       ??_C@_1M@HPKKKMPP@?$AAs?$AAa?$AA?9?$AAi?$AAn?$AA?$AA@ 0000000140027e48     LIBCMT:winapinls.obj
 0002:00005e58       ??_C@_1M@BKMAIGOJ@?$AAs?$AAe?$AA?9?$AAf?$AAi?$AA?$AA@ 0000000140027e58     LIBCMT:winapinls.obj
 0002:00005e68       ??_C@_1M@NDPIFLFI@?$AAs?$AAe?$AA?9?$AAn?$AAo?$AA?$AA@ 0000000140027e68     LIBCMT:winapinls.obj
 0002:00005e78       ??_C@_1M@DANKKHJ@?$AAs?$AAe?$AA?9?$AAs?$AAe?$AA?$AA@ 0000000140027e78     LIBCMT:winapinls.obj
 0002:00005e88       ??_C@_1M@PNBLONPJ@?$AAs?$AAk?$AA?9?$AAs?$AAk?$AA?$AA@ 0000000140027e88     LIBCMT:winapinls.obj
 0002:00005e98       ??_C@_1M@LFMODOAL@?$AAs?$AAl?$AA?9?$AAs?$AAi?$AA?$AA@ 0000000140027e98     LIBCMT:winapinls.obj
 0002:00005ea8       ??_C@_1O@DFKOMPG@?$AAs?$AAm?$AAa?$AA?9?$AAn?$AAo?$AA?$AA@ 0000000140027ea8     LIBCMT:winapinls.obj
 0002:00005eb8       ??_C@_1O@NDKPBNNH@?$AAs?$AAm?$AAa?$AA?9?$AAs?$AAe?$AA?$AA@ 0000000140027eb8     LIBCMT:winapinls.obj
 0002:00005ec8       ??_C@_1O@PLLKBHAB@?$AAs?$AAm?$AAj?$AA?9?$AAn?$AAo?$AA?$AA@ 0000000140027ec8     LIBCMT:winapinls.obj
 0002:00005ed8       ??_C@_1O@CLEPOGCA@?$AAs?$AAm?$AAj?$AA?9?$AAs?$AAe?$AA?$AA@ 0000000140027ed8     LIBCMT:winapinls.obj
 0002:00005ee8       ??_C@_1O@DLGJGKMK@?$AAs?$AAm?$AAn?$AA?9?$AAf?$AAi?$AA?$AA@ 0000000140027ee8     LIBCMT:winapinls.obj
 0002:00005ef8       ??_C@_1O@OJDJGAJC@?$AAs?$AAm?$AAs?$AA?9?$AAf?$AAi?$AA?$AA@ 0000000140027ef8     LIBCMT:winapinls.obj
 0002:00005f08       ??_C@_1M@BOFOGHPB@?$AAs?$AAq?$AA?9?$AAa?$AAl?$AA?$AA@ 0000000140027f08     LIBCMT:winapinls.obj
 0002:00005f18       ??_C@_1BG@LJBBIPGB@?$AAs?$AAr?$AA?9?$AAb?$AAa?$AA?9?$AAc?$AAy?$AAr?$AAl?$AA?$AA@ 0000000140027f18     LIBCMT:winapinls.obj
 0002:00005f30       ??_C@_1BG@JLBENFOE@?$AAs?$AAr?$AA?9?$AAb?$AAa?$AA?9?$AAl?$AAa?$AAt?$AAn?$AA?$AA@ 0000000140027f30     LIBCMT:winapinls.obj
 0002:00005f48       ??_C@_1BG@KODPNHE@?$AAs?$AAr?$AA?9?$AAs?$AAp?$AA?9?$AAc?$AAy?$AAr?$AAl?$AA?$AA@ 0000000140027f48     LIBCMT:winapinls.obj
 0002:00005f60       ??_C@_1BG@CIOGKHPB@?$AAs?$AAr?$AA?9?$AAs?$AAp?$AA?9?$AAl?$AAa?$AAt?$AAn?$AA?$AA@ 0000000140027f60     LIBCMT:winapinls.obj
 0002:00005f78       ??_C@_1M@NGFJLMAC@?$AAs?$AAv?$AA?9?$AAf?$AAi?$AA?$AA@ 0000000140027f78     LIBCMT:winapinls.obj
 0002:00005f88       ??_C@_1M@MPJEJAJC@?$AAs?$AAv?$AA?9?$AAs?$AAe?$AA?$AA@ 0000000140027f88     LIBCMT:winapinls.obj
 0002:00005f98       ??_C@_1M@MPNDHLFK@?$AAs?$AAw?$AA?9?$AAk?$AAe?$AA?$AA@ 0000000140027f98     LIBCMT:winapinls.obj
 0002:00005fa8       ??_C@_1O@KOHBJJI@?$AAs?$AAy?$AAr?$AA?9?$AAs?$AAy?$AA?$AA@ 0000000140027fa8     LIBCMT:winapinls.obj
 0002:00005fb8       ??_C@_1M@LDCEFHA@?$AAt?$AAa?$AA?9?$AAi?$AAn?$AA?$AA@ 0000000140027fb8     LIBCMT:winapinls.obj
 0002:00005fc8       ??_C@_1M@CNJOFAK@?$AAt?$AAe?$AA?9?$AAi?$AAn?$AA?$AA@ 0000000140027fc8     LIBCMT:winapinls.obj
 0002:00005fd8       ??_C@_1M@GNAECACD@?$AAt?$AAh?$AA?9?$AAt?$AAh?$AA?$AA@ 0000000140027fd8     LIBCMT:winapinls.obj
 0002:00005fe8       ??_C@_1M@CHBIHOJO@?$AAt?$AAn?$AA?9?$AAz?$AAa?$AA?$AA@ 0000000140027fe8     LIBCMT:winapinls.obj
 0002:00005ff8       ??_C@_1M@GCCMIGPJ@?$AAt?$AAr?$AA?9?$AAt?$AAr?$AA?$AA@ 0000000140027ff8     LIBCMT:winapinls.obj
 0002:00006008       ??_C@_1M@CELMCNBK@?$AAt?$AAt?$AA?9?$AAr?$AAu?$AA?$AA@ 0000000140028008     LIBCMT:winapinls.obj
 0002:00006018       ??_C@_1M@KLMCELGA@?$AAu?$AAk?$AA?9?$AAu?$AAa?$AA?$AA@ 0000000140028018     LIBCMT:winapinls.obj
 0002:00006028       ??_C@_1M@EPAJJAJF@?$AAu?$AAr?$AA?9?$AAp?$AAk?$AA?$AA@ 0000000140028028     LIBCMT:winapinls.obj
 0002:00006038       ??_C@_1BG@GEGPMCDJ@?$AAu?$AAz?$AA?9?$AAu?$AAz?$AA?9?$AAc?$AAy?$AAr?$AAl?$AA?$AA@ 0000000140028038     LIBCMT:winapinls.obj
 0002:00006050       ??_C@_1BG@EGGKJILM@?$AAu?$AAz?$AA?9?$AAu?$AAz?$AA?9?$AAl?$AAa?$AAt?$AAn?$AA?$AA@ 0000000140028050     LIBCMT:winapinls.obj
 0002:00006068       ??_C@_1M@GFOCLFF@?$AAv?$AAi?$AA?9?$AAv?$AAn?$AA?$AA@ 0000000140028068     LIBCMT:winapinls.obj
 0002:00006078       ??_C@_1M@CPAMEDFI@?$AAx?$AAh?$AA?9?$AAz?$AAa?$AA?$AA@ 0000000140028078     LIBCMT:winapinls.obj
 0002:00006088       ??_C@_1O@EBKIFIGN@?$AAz?$AAh?$AA?9?$AAc?$AAh?$AAs?$AA?$AA@ 0000000140028088     LIBCMT:winapinls.obj
 0002:00006098       ??_C@_1O@NMHPGANE@?$AAz?$AAh?$AA?9?$AAc?$AAh?$AAt?$AA?$AA@ 0000000140028098     LIBCMT:winapinls.obj
 0002:000060a8       ??_C@_1M@LPINJOMC@?$AAz?$AAh?$AA?9?$AAc?$AAn?$AA?$AA@ 00000001400280a8     LIBCMT:winapinls.obj
 0002:000060b8       ??_C@_1M@OCJEJODD@?$AAz?$AAh?$AA?9?$AAh?$AAk?$AA?$AA@ 00000001400280b8     LIBCMT:winapinls.obj
 0002:000060c8       ??_C@_1M@DNDLJINH@?$AAz?$AAh?$AA?9?$AAm?$AAo?$AA?$AA@ 00000001400280c8     LIBCMT:winapinls.obj
 0002:000060d8       ??_C@_1M@MBFDNDND@?$AAz?$AAh?$AA?9?$AAs?$AAg?$AA?$AA@ 00000001400280d8     LIBCMT:winapinls.obj
 0002:000060e8       ??_C@_1M@IMEPLEPE@?$AAz?$AAh?$AA?9?$AAt?$AAw?$AA?$AA@ 00000001400280e8     LIBCMT:winapinls.obj
 0002:000060f8       ??_C@_1M@BBGHNHJP@?$AAz?$AAu?$AA?9?$AAz?$AAa?$AA?$AA@ 00000001400280f8     LIBCMT:winapinls.obj
 0002:00006108       ??_C@_1BG@GOEBHBDC@?$AAU?$AAS?$AAE?$AAR?$AA3?$AA2?$AA?4?$AAD?$AAL?$AAL?$AA?$AA@ 0000000140028108     LIBCMT:crtmboxw.obj
 0002:00006120       ??_C@_0M@DLDCCGNP@MessageBoxW?$AA@ 0000000140028120     LIBCMT:crtmboxw.obj
 0002:00006130       ??_C@_0BA@HNOPNCHB@GetActiveWindow?$AA@ 0000000140028130     LIBCMT:crtmboxw.obj
 0002:00006140       ??_C@_0BD@HHGDFDBJ@GetLastActivePopup?$AA@ 0000000140028140     LIBCMT:crtmboxw.obj
 0002:00006158       ??_C@_0BK@DEKFELLI@GetUserObjectInformationW?$AA@ 0000000140028158     LIBCMT:crtmboxw.obj
 0002:00006178       ??_C@_0BI@DFKBFLJE@GetProcessWindowStation?$AA@ 0000000140028178     LIBCMT:crtmboxw.obj
 0002:00006220       __rg_language_count        0000000140028220     LIBCMT:getqloc.obj
 0002:00006224       __rg_country_count         0000000140028224     LIBCMT:getqloc.obj
 0002:00006228       _FPinit                    0000000140028228     LIBCMT:fpinit.obj
 0002:00006230       ??_C@_05KLBDPFGC@e?$CL000?$AA@ 0000000140028230     LIBCMT:cvt.obj
 0002:00006238       __real@0000000000000000    0000000140028238     LIBCMT:cvt.obj
 0002:00006240       ??_C@_1BA@BALFACEM@?$AAC?$AAO?$AAN?$AAO?$AAU?$AAT?$AA$?$AA?$AA@ 0000000140028240     LIBCMT:initcon.obj
 0002:00006250       ??_C@_06PGGFOGJG@1?$CDSNAN?$AA@ 0000000140028250     LIBCMT:x10fout.obj
 0002:00006258       ??_C@_05PHHOCPM@1?$CDIND?$AA@ 0000000140028258     LIBCMT:x10fout.obj
 0002:00006260       ??_C@_05DNEBIAHO@1?$CDINF?$AA@ 0000000140028260     LIBCMT:x10fout.obj
 0002:00006268       ??_C@_06IMKFLFPG@1?$CDQNAN?$AA@ 0000000140028268     LIBCMT:x10fout.obj
 0002:00006278       ??_7CPaintDCMTL@@6B@       0000000140028278     ChildView.obj
 0002:000062a8       ??_C@_09NJJHGIHK@Afx?3?$CFp?3?$CFx?$AA@ 00000001400282a8     ChildView.obj
 0002:000062b8       ??_C@_0BD@EOLFNIPD@Afx?3?$CFp?3?$CFx?3?$CFp?3?$CFp?3?$CFp?$AA@ 00000001400282b8     ChildView.obj
 0002:000062d8       ??_7CChildView@@6B@        00000001400282d8     ChildView.obj
 0002:000063c0       ??_C@_00CNPNBAHC@?$AA@     00000001400283c0     ChildView.obj
 0002:000063d0       ??_7CCmdUI@@6B@            00000001400283d0     ChildView.obj
 0002:000063f8       ??_7CTestCmdUI@@6B@        00000001400283f8     ChildView.obj
 0002:00006420       ??_7CDCMTL@@6B@            0000000140028420     ChildView.obj
 0002:00006458       ??_7CMenuMTL@@6B@          0000000140028458     ChildView.obj
 0002:00006468       ??_7CWMHnd@@6B@            0000000140028468     ChildView.obj
 0002:00006500       ??_C@_0BC@JFPEICKM@AfxOleControlMtls?$AA@ 0000000140028500     ChildView.obj
 0002:00006518       ??_C@_0BC@FKIOCHOL@AfxControlBarMtls?$AA@ 0000000140028518     ChildView.obj
 0002:00006530       ??_C@_0BA@KMGIIJIM@AfxMDIFrameMtls?$AA@ 0000000140028530     ChildView.obj
 0002:00006540       ??_C@_0BD@FIGPECAF@AfxFrameOrViewMtls?$AA@ 0000000140028540     ChildView.obj
 0002:00006558       ??_C@_0L@CNCKOKP@AfxWndMtls?$AA@ 0000000140028558     ChildView.obj
 0002:00006570       ??_7CWnd@@6B@              0000000140028570     ChildView.obj
 0002:00006658       ??_C@_0CH@LGHPHLNB@Local?5AppWizard?9Generated?5Applic@ 0000000140028658     FrmVC6.obj
 0002:00006688       ??_7CAboutDlg@@6B@         0000000140028688     FrmVC6.obj
 0002:000067a0       ??_C@_04BBNPPDNC@Edit?$AA@ 00000001400287a0     FrmVC6.obj
 0002:000067b0       ??_7CDialog@@6B@           00000001400287b0     FrmVC6.obj
 0002:000068d0       ??_7CFrmVC6App@@6B@        00000001400288d0     FrmVC6.obj
 0002:00006948       ??_7CWinThread@@6B@        0000000140028948     FrmVC6.obj
 0002:00006978       ??_7CWinApp@@6B@           0000000140028978     FrmVC6.obj
 0002:000069e8       ??_C@_0L@GOKPKJAL@CMainFrame?$AA@ 00000001400289e8     MainFrm.obj
 0002:00006a00       ??_7CToolCmdUI@@6B@        0000000140028a00     MainFrm.obj
 0002:00006a20       ??_C@_07LPPPNDC@Marlett?$AA@ 0000000140028a20     MainFrm.obj
 0002:00006a28       ??_C@_0BA@EHLJJKFN@ToolbarWindow32?$AA@ 0000000140028a28     MainFrm.obj
 0002:00006a40       ??_7CToolBar@@6B@          0000000140028a40     MainFrm.obj
 0002:00006b78       ??_7CWindowDCMTL@@6B@      0000000140028b78     MainFrm.obj
 0002:00006bb0       ??_7CControlBar@@6B@       0000000140028bb0     MainFrm.obj
 0002:00006cd0       ??_C@_0BB@HKOHPAJO@tooltips_class32?$AA@ 0000000140028cd0     MainFrm.obj
 0002:00006cf0       ??_7CToolTipCtrlMTL@@6B@   0000000140028cf0     MainFrm.obj
 0002:00006de0       ??_7CStatusCmdUI@@6B@      0000000140028de0     MainFrm.obj
 0002:00006e08       ??_7CClientDCMTL@@6B@      0000000140028e08     MainFrm.obj
 0002:00006e38       ??_C@_0BD@JCNJFDND@msctls_statusbar32?$AA@ 0000000140028e38     MainFrm.obj
 0002:00006e58       ??_7CStatusBar@@6B@        0000000140028e58     MainFrm.obj
 0002:00006f90       ??_7CMainFrame@@6B@        0000000140028f90     MainFrm.obj
 0002:000070e0       ??_7CFrameWnd@@6B@         00000001400290e0     MainFrm.obj
 0002:00007228       ??_C@_03NLJIHOMM@?5?9?5?$AA@ 0000000140029228     MainFrm.obj
 0002:0000722c       ??_C@_03HODKBCIO@?3?$CFd?$AA@ 000000014002922c     MainFrm.obj
 0002:00007230       ?classCMainFrame@CMainFrame@@2UCRuntimeClass@@B 0000000140029230     MainFrm.obj
 0002:00007260       ?classCDialog@CDialog@@2UCRuntimeClass@@B 0000000140029260     StdAfx.obj
 0002:00007290       ?classCToolBar@CToolBar@@2UCRuntimeClass@@B 0000000140029290     StdAfx.obj
 0002:000072c0       ?classCDockBar@CDockBar@@2UCRuntimeClass@@B 00000001400292c0     StdAfx.obj
 0002:000072f0       ?classCControlBar@CControlBar@@2UCRuntimeClass@@B 00000001400292f0     StdAfx.obj
 0002:00007320       ?classCFrameWnd@CFrameWnd@@2UCRuntimeClass@@B 0000000140029320     StdAfx.obj
 0002:00007350       ??_C@_04PFNDIDGE@?4CHM?$AA@ 0000000140029350     StdAfx.obj
 0002:00007358       ??_C@_04NKLHMAKF@?4HLP?$AA@ 0000000140029358     StdAfx.obj
 0002:00007360       ??_C@_04PKIPNKLG@?4INI?$AA@ 0000000140029360     StdAfx.obj
 0002:00007368       ?classCWnd@CWnd@@2UCRuntimeClass@@B 0000000140029368     StdAfx.obj
 0002:00007398       ?sizeDefault@CScrollView@@2UtagSIZE@@B 0000000140029398     StdAfx.obj
 0002:000073a0       ?classCObject@CObject@@2UCRuntimeClass@@B 00000001400293a0     StdAfx.obj
 0002:000073d0       ?classCCmdTarget@CCmdTarget@@2UCRuntimeClass@@B 00000001400293d0     StdAfx.obj
 0002:00007400       ?classCToolTipCtrlMTL@CToolTipCtrlMTL@@2UCRuntimeClass@@B 0000000140029400     StdAfx.obj
 0002:00007430       ??_C@_07BEAIOPAP@CObject?$AA@ 0000000140029430     StdAfx.obj
 0002:00007438       ??_C@_0L@GDEMJNJL@CCmdTarget?$AA@ 0000000140029438     StdAfx.obj
 0002:00007444       ??_C@_04DDIMFFOJ@CWnd?$AA@ 0000000140029444     StdAfx.obj
 0002:00007450       ??_C@_07BOOFINFL@CDialog?$AA@ 0000000140029450     StdAfx.obj
 0002:00007458       ??_C@_09PHHOBLDA@CFrameWnd?$AA@ 0000000140029458     StdAfx.obj
 0002:00007468       ??_C@_0M@KLLMHFML@CControlBar?$AA@ 0000000140029468     StdAfx.obj
 0002:00007478       ??_C@_08CLEDDFPF@CDockBar?$AA@ 0000000140029478     StdAfx.obj
 0002:00007488       ??_C@_08JCBKBILF@CToolBar?$AA@ 0000000140029488     StdAfx.obj
 0002:00007498       ??_C@_0BA@CAKJCBDC@CToolTipCtrlMTL?$AA@ 0000000140029498     StdAfx.obj
 0002:00007660       __xmm@00007fff00007fff0000000000000000 0000000140029660     MainFrm.obj
 0002:00007b98       _pDestructExceptionObject  0000000140029b98     LIBCMT:frame.obj
 0002:00007ba8       ??_7bad_exception@std@@6B@ 0000000140029ba8     LIBCMT:frame.obj
 0002:00007bb8       ??_C@_0O@DPKOEFFH@bad?5exception?$AA@ 0000000140029bb8     LIBCMT:frame.obj
 0002:00007bd0       _load_config_used          0000000140029bd0     LIBCMT:loadcfg.obj
 0002:00007c40       ??_R4type_info@@6B@        0000000140029c40     LIBCMT:typinfo.obj
 0002:00007c68       ??_R3type_info@@8          0000000140029c68     LIBCMT:typinfo.obj
 0002:00007c80       ??_R2type_info@@8          0000000140029c80     LIBCMT:typinfo.obj
 0002:00007c90       ??_R1A@?0A@EA@type_info@@8 0000000140029c90     LIBCMT:typinfo.obj
 0002:00007cb8       ??_R1A@?0A@EA@exception@std@@8 0000000140029cb8     LIBCMT:new.obj
 0002:00007ce0       ??_R3exception@std@@8      0000000140029ce0     LIBCMT:new.obj
 0002:00007cf8       ??_R2exception@std@@8      0000000140029cf8     LIBCMT:new.obj
 0002:00007d08       ??_R4bad_alloc@std@@6B@    0000000140029d08     LIBCMT:new.obj
 0002:00007d30       ??_R3bad_alloc@std@@8      0000000140029d30     LIBCMT:new.obj
 0002:00007d48       ??_R2bad_alloc@std@@8      0000000140029d48     LIBCMT:new.obj
 0002:00007d60       ??_R1A@?0A@EA@bad_alloc@std@@8 0000000140029d60     LIBCMT:new.obj
 0002:00007d88       ??_R4exception@std@@6B@    0000000140029d88     LIBCMT:stdexcpt.obj
 0002:00007db0       ??_R2CChildView@@8         0000000140029db0     ChildView.obj
 0002:00007de8       ??_R1A@?0A@EA@CChildView@@8 0000000140029de8     ChildView.obj
 0002:00007e10       ??_R3CChildView@@8         0000000140029e10     ChildView.obj
 0002:00007e28       ??_R4CChildView@@6B@       0000000140029e28     ChildView.obj
 0002:00007e50       ??_R1A@?0A@EA@CPaintDCMTL@@8 0000000140029e50     ChildView.obj
 0002:00007e78       ??_R2CPaintDCMTL@@8        0000000140029e78     ChildView.obj
 0002:00007ea0       ??_R3CPaintDCMTL@@8        0000000140029ea0     ChildView.obj
 0002:00007eb8       ??_R4CPaintDCMTL@@6B@      0000000140029eb8     ChildView.obj
 0002:00007ee0       ??_R1A@?0A@EA@CWnd@@8      0000000140029ee0     ChildView.obj
 0002:00007f08       ??_R2CWnd@@8               0000000140029f08     ChildView.obj
 0002:00007f38       ??_R3CWnd@@8               0000000140029f38     ChildView.obj
 0002:00007f50       ??_R4CWnd@@6B@             0000000140029f50     ChildView.obj
 0002:00007f78       ??_R4CCmdUI@@6B@           0000000140029f78     ChildView.obj
 0002:00007fa0       ??_R1A@?0A@EA@CTestCmdUI@@8 0000000140029fa0     ChildView.obj
 0002:00007fc8       ??_R2CCmdUI@@8             0000000140029fc8     ChildView.obj
 0002:00007fd8       ??_R3CCmdUI@@8             0000000140029fd8     ChildView.obj
 0002:00007ff0       ??_R1A@?0A@EA@CCmdUI@@8    0000000140029ff0     ChildView.obj
 0002:00008018       ??_R2CTestCmdUI@@8         000000014002a018     ChildView.obj
 0002:00008030       ??_R3CTestCmdUI@@8         000000014002a030     ChildView.obj
 0002:00008048       ??_R4CTestCmdUI@@6B@       000000014002a048     ChildView.obj
 0002:00008070       ??_R1A@?0A@EA@CDCMTL@@8    000000014002a070     ChildView.obj
 0002:00008098       ??_R2?$CHandleWrapper@VCDCMTL@@PEAUHDC__@@V?$CDCT@$00@WTL@@@@8 000000014002a098     ChildView.obj
 0002:000080b0       ??_R3?$CHandleWrapper@VCDCMTL@@PEAUHDC__@@V?$CDCT@$00@WTL@@@@8 000000014002a0b0     ChildView.obj
 0002:000080c8       ??_R1A@?0A@EA@?$CHandleWrapper@VCDCMTL@@PEAUHDC__@@V?$CDCT@$00@WTL@@@@8 000000014002a0c8     ChildView.obj
 0002:000080f0       ??_R1A@?0A@EA@?$CDCT@$00@WTL@@8 000000014002a0f0     ChildView.obj
 0002:00008118       ??_R2?$CDCT@$00@WTL@@8     000000014002a118     ChildView.obj
 0002:00008128       ??_R3?$CDCT@$00@WTL@@8     000000014002a128     ChildView.obj
 0002:00008140       ??_R17?0A@EA@?$CDCT@$00@WTL@@8 000000014002a140     ChildView.obj
 0002:00008168       ??_R2CDCMTL@@8             000000014002a168     ChildView.obj
 0002:00008188       ??_R3CDCMTL@@8             000000014002a188     ChildView.obj
 0002:000081a0       ??_R4CDCMTL@@6B@           000000014002a1a0     ChildView.obj
 0002:000081c8       ??_R1A@?0A@EA@CWMHnd@@8    000000014002a1c8     ChildView.obj
 0002:000081f0       ??_R2CCmdTarget@@8         000000014002a1f0     ChildView.obj
 0002:00008208       ??_R3CCmdTarget@@8         000000014002a208     ChildView.obj
 0002:00008220       ??_R1A@?0A@EA@CCmdTarget@@8 000000014002a220     ChildView.obj
 0002:00008248       ??_R2CObject@@8            000000014002a248     ChildView.obj
 0002:00008258       ??_R3CObject@@8            000000014002a258     ChildView.obj
 0002:00008270       ??_R1A@?0A@EA@CObject@@8   000000014002a270     ChildView.obj
 0002:00008298       ??_R1A@?0A@EA@CWindow@ATL@@8 000000014002a298     ChildView.obj
 0002:000082c0       ??_R2CWindow@ATL@@8        000000014002a2c0     ChildView.obj
 0002:000082d0       ??_R3CWindow@ATL@@8        000000014002a2d0     ChildView.obj
 0002:000082e8       ??_R17?0A@EA@CWindow@ATL@@8 000000014002a2e8     ChildView.obj
 0002:00008310       ??_R2CWMHnd@@8             000000014002a310     ChildView.obj
 0002:00008338       ??_R3CWMHnd@@8             000000014002a338     ChildView.obj
 0002:00008350       ??_R4CWMHnd@@6B@           000000014002a350     ChildView.obj
 0002:00008378       ??_R1A@?0A@EA@CMenuMTL@@8  000000014002a378     ChildView.obj
 0002:000083a0       ??_R2?$CHandleWrapper@VCMenuMTL@@PEAUHMENU__@@V?$CMenuT@$00@WTL@@@@8 000000014002a3a0     ChildView.obj
 0002:000083b8       ??_R3?$CHandleWrapper@VCMenuMTL@@PEAUHMENU__@@V?$CMenuT@$00@WTL@@@@8 000000014002a3b8     ChildView.obj
 0002:000083d0       ??_R1A@?0A@EA@?$CHandleWrapper@VCMenuMTL@@PEAUHMENU__@@V?$CMenuT@$00@WTL@@@@8 000000014002a3d0     ChildView.obj
 0002:000083f8       ??_R1A@?0A@EA@?$CMenuT@$00@WTL@@8 000000014002a3f8     ChildView.obj
 0002:00008420       ??_R2?$CMenuT@$00@WTL@@8   000000014002a420     ChildView.obj
 0002:00008430       ??_R3?$CMenuT@$00@WTL@@8   000000014002a430     ChildView.obj
 0002:00008448       ??_R17?0A@EA@?$CMenuT@$00@WTL@@8 000000014002a448     ChildView.obj
 0002:00008470       ??_R2CMenuMTL@@8           000000014002a470     ChildView.obj
 0002:00008490       ??_R3CMenuMTL@@8           000000014002a490     ChildView.obj
 0002:000084a8       ??_R4CMenuMTL@@6B@         000000014002a4a8     ChildView.obj
 0002:000084d0       ??_R2CAboutDlg@@8          000000014002a4d0     FrmVC6.obj
 0002:00008510       ??_R2CFrmVC6App@@8         000000014002a510     FrmVC6.obj
 0002:00008558       ??_R1A@?0A@EA@CAboutDlg@@8 000000014002a558     FrmVC6.obj
 0002:00008580       ??_R1A@?0A@EA@CFrmVC6App@@8 000000014002a580     FrmVC6.obj
 0002:000085a8       ??_R3CAboutDlg@@8          000000014002a5a8     FrmVC6.obj
 0002:000085c0       ??_R3CFrmVC6App@@8         000000014002a5c0     FrmVC6.obj
 0002:000085d8       ??_R4CAboutDlg@@6B@        000000014002a5d8     FrmVC6.obj
 0002:00008600       ??_R4CFrmVC6App@@6B@       000000014002a600     FrmVC6.obj
 0002:00008628       ??_R1A@?0A@EA@CDialog@@8   000000014002a628     FrmVC6.obj
 0002:00008650       ??_R2CDialog@@8            000000014002a650     FrmVC6.obj
 0002:00008688       ??_R3CDialog@@8            000000014002a688     FrmVC6.obj
 0002:000086a0       ??_R4CDialog@@6B@          000000014002a6a0     FrmVC6.obj
 0002:000086c8       ??_R4CWinThread@@6B@       000000014002a6c8     FrmVC6.obj
 0002:000086f0       ??_R1A@?0A@EA@CWinApp@@8   000000014002a6f0     FrmVC6.obj
 0002:00008718       ??_R2CWinThread@@8         000000014002a718     FrmVC6.obj
 0002:00008738       ??_R3CWinThread@@8         000000014002a738     FrmVC6.obj
 0002:00008750       ??_R1A@?0A@EA@CWinThread@@8 000000014002a750     FrmVC6.obj
 0002:00008778       ??_R1A@?0A@EA@CModuleThreadState@@8 000000014002a778     FrmVC6.obj
 0002:000087a0       ??_R2CModuleThreadState@@8 000000014002a7a0     FrmVC6.obj
 0002:000087b8       ??_R3CModuleThreadState@@8 000000014002a7b8     FrmVC6.obj
 0002:000087d0       ??_R1DA@?0A@EA@CModuleThreadState@@8 000000014002a7d0     FrmVC6.obj
 0002:000087f8       ??_R1A@?0A@EA@CThreadState@@8 000000014002a7f8     FrmVC6.obj
 0002:00008820       ??_R2CThreadState@@8       000000014002a820     FrmVC6.obj
 0002:00008830       ??_R3CThreadState@@8       000000014002a830     FrmVC6.obj
 0002:00008848       ??_R1DA@?0A@EA@CThreadState@@8 000000014002a848     FrmVC6.obj
 0002:00008870       ??_R1A@?0A@EA@CWinMsg@@8   000000014002a870     FrmVC6.obj
 0002:00008898       ??_R2CWinMsg@@8            000000014002a898     FrmVC6.obj
 0002:000088a8       ??_R3CWinMsg@@8            000000014002a8a8     FrmVC6.obj
 0002:000088c0       ??_R1BEI@?0A@EA@CWinMsg@@8 000000014002a8c0     FrmVC6.obj
 0002:000088e8       ??_R2CWinApp@@8            000000014002a8e8     FrmVC6.obj
 0002:00008928       ??_R3CWinApp@@8            000000014002a928     FrmVC6.obj
 0002:00008940       ??_R4CWinApp@@6B@          000000014002a940     FrmVC6.obj
 0002:00008968       ??_R2CMainFrame@@8         000000014002a968     MainFrm.obj
 0002:000089a8       ??_R1A@?0A@EA@CMainFrame@@8 000000014002a9a8     MainFrm.obj
 0002:000089d0       ??_R3CMainFrame@@8         000000014002a9d0     MainFrm.obj
 0002:000089e8       ??_R4CMainFrame@@6B@       000000014002a9e8     MainFrm.obj
 0002:00008a10       ??_R1A@?0A@EA@CToolBar@@8  000000014002aa10     MainFrm.obj
 0002:00008a38       ??_R2CToolBar@@8           000000014002aa38     MainFrm.obj
 0002:00008a78       ??_R3CToolBar@@8           000000014002aa78     MainFrm.obj
 0002:00008a90       ??_R4CToolBar@@6B@         000000014002aa90     MainFrm.obj
 0002:00008ab8       ??_R1A@?0A@EA@CToolCmdUI@@8 000000014002aab8     MainFrm.obj
 0002:00008ae0       ??_R2CToolCmdUI@@8         000000014002aae0     MainFrm.obj
 0002:00008af8       ??_R3CToolCmdUI@@8         000000014002aaf8     MainFrm.obj
 0002:00008b10       ??_R4CToolCmdUI@@6B@       000000014002ab10     MainFrm.obj
 0002:00008b38       ??_R1A@?0A@EA@CStatusBar@@8 000000014002ab38     MainFrm.obj
 0002:00008b60       ??_R2CStatusBar@@8         000000014002ab60     MainFrm.obj
 0002:00008ba0       ??_R3CStatusBar@@8         000000014002aba0     MainFrm.obj
 0002:00008bb8       ??_R4CStatusBar@@6B@       000000014002abb8     MainFrm.obj
 0002:00008be0       ??_R1A@?0A@EA@CWindowDCMTL@@8 000000014002abe0     MainFrm.obj
 0002:00008c08       ??_R2CWindowDCMTL@@8       000000014002ac08     MainFrm.obj
 0002:00008c30       ??_R3CWindowDCMTL@@8       000000014002ac30     MainFrm.obj
 0002:00008c48       ??_R4CWindowDCMTL@@6B@     000000014002ac48     MainFrm.obj
 0002:00008c70       ??_R1A@?0A@EA@CControlBar@@8 000000014002ac70     MainFrm.obj
 0002:00008c98       ??_R2CControlBar@@8        000000014002ac98     MainFrm.obj
 0002:00008cd0       ??_R3CControlBar@@8        000000014002acd0     MainFrm.obj
 0002:00008ce8       ??_R4CControlBar@@6B@      000000014002ace8     MainFrm.obj
 0002:00008d10       ??_R1A@?0A@EA@CToolTipCtrlMTL@@8 000000014002ad10     MainFrm.obj
 0002:00008d38       ??_R2?$CToolTipCtrlT@VCWnd@@@WTL@@8 000000014002ad38     MainFrm.obj
 0002:00008d70       ??_R3?$CToolTipCtrlT@VCWnd@@@WTL@@8 000000014002ad70     MainFrm.obj
 0002:00008d88       ??_R1A@?0A@EA@?$CToolTipCtrlT@VCWnd@@@WTL@@8 000000014002ad88     MainFrm.obj
 0002:00008db0       ??_R2CToolTipCtrlMTL@@8    000000014002adb0     MainFrm.obj
 0002:00008df0       ??_R3CToolTipCtrlMTL@@8    000000014002adf0     MainFrm.obj
 0002:00008e08       ??_R4CToolTipCtrlMTL@@6B@  000000014002ae08     MainFrm.obj
 0002:00008e30       ??_R1A@?0A@EA@CStatusCmdUI@@8 000000014002ae30     MainFrm.obj
 0002:00008e58       ??_R2CStatusCmdUI@@8       000000014002ae58     MainFrm.obj
 0002:00008e70       ??_R3CStatusCmdUI@@8       000000014002ae70     MainFrm.obj
 0002:00008e88       ??_R4CStatusCmdUI@@6B@     000000014002ae88     MainFrm.obj
 0002:00008eb0       ??_R1A@?0A@EA@CClientDCMTL@@8 000000014002aeb0     MainFrm.obj
 0002:00008ed8       ??_R2CClientDCMTL@@8       000000014002aed8     MainFrm.obj
 0002:00008f00       ??_R3CClientDCMTL@@8       000000014002af00     MainFrm.obj
 0002:00008f18       ??_R4CClientDCMTL@@6B@     000000014002af18     MainFrm.obj
 0002:00008f40       ??_R1A@?0A@EA@CFrameWnd@@8 000000014002af40     MainFrm.obj
 0002:00008f68       ??_R2CFrameWnd@@8          000000014002af68     MainFrm.obj
 0002:00008fa0       ??_R3CFrameWnd@@8          000000014002afa0     MainFrm.obj
 0002:00008fb8       ??_R4CFrameWnd@@6B@        000000014002afb8     MainFrm.obj
 0002:00008fe0       ??_R4bad_exception@std@@6B@ 000000014002afe0     LIBCMT:frame.obj
 0002:00009008       ??_R3bad_exception@std@@8  000000014002b008     LIBCMT:frame.obj
 0002:00009020       ??_R2bad_exception@std@@8  000000014002b020     LIBCMT:frame.obj
 0002:00009038       ??_R1A@?0A@EA@bad_exception@std@@8 000000014002b038     LIBCMT:frame.obj
 0002:00009060       __rtc_iaa                  000000014002b060     LIBCMT:initsect.obj
 0002:00009068       __rtc_izz                  000000014002b068     LIBCMT:initsect.obj
 0002:00009070       __rtc_taa                  000000014002b070     LIBCMT:initsect.obj
 0002:00009078       __rtc_tzz                  000000014002b078     LIBCMT:initsect.obj
 0002:0000bd08       _TI2?AVbad_alloc@std@@     000000014002dd08     LIBCMT:new.obj
 0002:0000bd28       _CTA2?AVbad_alloc@std@@    000000014002dd28     LIBCMT:new.obj
 0002:0000bd40       _CT??_R0?AVbad_alloc@std@@@8??0bad_alloc@std@@QEAA@AEBV01@@Z24 000000014002dd40     LIBCMT:new.obj
 0002:0000bd68       _CT??_R0?AVexception@std@@@8??0exception@std@@QEAA@AEBV01@@Z24 000000014002dd68     LIBCMT:new.obj
 0002:0000bd90       _CT??_R0?AVCAtlException@ATL@@@84 000000014002dd90     ChildView.obj
 0002:0000bdb8       _CTA1?AVCAtlException@ATL@@ 000000014002ddb8     ChildView.obj
 0002:0000bdc8       _TI1?AVCAtlException@ATL@@ 000000014002ddc8     ChildView.obj
 0002:0000bde8       _TI2?AVbad_exception@std@@ 000000014002dde8     LIBCMT:frame.obj
 0002:0000be08       _CTA2?AVbad_exception@std@@ 000000014002de08     LIBCMT:frame.obj
 0002:0000be20       _CT??_R0?AVbad_exception@std@@@8??0bad_exception@std@@QEAA@AEBV01@@Z24 000000014002de20     LIBCMT:frame.obj
 0002:0000be48       __IMPORT_DESCRIPTOR_KERNEL32 000000014002de48     kernel32:KERNEL32.dll
 0002:0000be5c       __IMPORT_DESCRIPTOR_USER32 000000014002de5c     user32:USER32.dll
 0002:0000be70       __IMPORT_DESCRIPTOR_SHELL32 000000014002de70     shell32:SHELL32.dll
 0002:0000be84       __IMPORT_DESCRIPTOR_SHLWAPI 000000014002de84     shlwapi:SHLWAPI.dll
 0002:0000be98       __IMPORT_DESCRIPTOR_GDI32  000000014002de98     gdi32:GDI32.dll
 0002:0000beac       __IMPORT_DESCRIPTOR_COMCTL32 000000014002deac     comctl32:COMCTL32.dll
 0002:0000bec0       __NULL_IMPORT_DESCRIPTOR   000000014002dec0     kernel32:KERNEL32.dll
 0003:00000170       _mbctype                   0000000140030170     LIBCMT:mbctype.obj
 0003:00000280       _mbcasemap                 0000000140030280     LIBCMT:mbctype.obj
 0003:00000380       __initialmbcinfo           0000000140030380     LIBCMT:mbctype.obj
 0003:000006a0       __ptmbcinfo                00000001400306a0     LIBCMT:mbctype.obj
 0003:000006a8       __flsindex                 00000001400306a8     LIBCMT:tidtable.obj
 0003:000006ac       __mb_cur_max               00000001400306ac     LIBCMT:nlsdata.obj
 0003:000006b0       __wclocalestr              00000001400306b0     LIBCMT:nlsdata.obj
 0003:000006c0       __lc_time_c                00000001400306c0     LIBCMT:nlsdata.obj
 0003:00000980       __ptlocinfo                0000000140030980     LIBCMT:nlsdata.obj
 0003:00000990       __initiallocinfo           0000000140030990     LIBCMT:nlsdata.obj
 0003:00000ae8       __globallocalestatus       0000000140030ae8     LIBCMT:glstatus.obj
 0003:00000aec       __isa_available            0000000140030aec     LIBCMT:cpu_disp.obj
 0003:00000af0       __isa_enabled              0000000140030af0     LIBCMT:cpu_disp.obj
 0003:00000af4       __abort_behavior           0000000140030af4     LIBCMT:abort.obj
 0003:00000b00       __badioinfo                0000000140030b00     LIBCMT:ioinit.obj
 0003:00000b60       __security_cookie          0000000140030b60     LIBCMT:gs_cookie.obj
 0003:00000b68       __security_cookie_complement 0000000140030b68     LIBCMT:gs_cookie.obj
 0003:00000db0       _cfltcvt_tab               0000000140030db0     LIBCMT:cmiscdat.obj
 0003:00000e00       __lconv_c                  0000000140030e00     LIBCMT:lconv.obj
 0003:00000e98       __lconv_static_decimal     0000000140030e98     LIBCMT:lconv.obj
 0003:00000e9c       __lconv_static_W_decimal   0000000140030e9c     LIBCMT:lconv.obj
 0003:00000ea0       __lconv                    0000000140030ea0     LIBCMT:lconv.obj
 0003:00000ea8       _pctype                    0000000140030ea8     LIBCMT:ctype.obj
 0003:00000eb0       _pwctype                   0000000140030eb0     LIBCMT:ctype.obj
 0003:00000ec0       _iob                       0000000140030ec0     LIBCMT:_file.obj
 0003:00001290       _fltused                   0000000140031290     LIBCMT:fpinit.obj
 0003:00001294       _ldused                    0000000140031294     LIBCMT:fpinit.obj
 0003:000012a0       _HUGE                      00000001400312a0     LIBCMT:huge.obj
 0003:000012d8       _confh                     00000001400312d8     LIBCMT:initcon.obj
 0003:000012e0       _pow10pos                  00000001400312e0     LIBCMT:constpow.obj
 0003:00001440       _pow10neg                  0000000140031440     LIBCMT:constpow.obj
 0003:000015a0       ?_atltmpPchNil@WTL@@3PEBDEB 00000001400315a0     ChildView.obj
 0003:000015a8       ?rgInitData@WTL@@3PAHA     00000001400315a8     ChildView.obj
 0003:000015b8       ?_afxDropDownWidth@?1??_AfxGetDropDownWidth@CToolBar@@SAHXZ@4HA 00000001400315b8     MainFrm.obj
 0003:000015c0       ?dmDockBarMap@?1??GetDockBarMap@CFrameWnd@@SAAEAU_DocBarMap@2@XZ@4U32@A 00000001400315c0     MainFrm.obj
 0003:000015e0       ?rectDefault@CFrameWnd@@2VCRect@WTL@@B 00000001400315e0     StdAfx.obj
 0003:000015f0       ?wndNoTopMost@CWMHnd@@2V1@B 00000001400315f0     StdAfx.obj
 0003:00001640       ?wndTopMost@CWMHnd@@2V1@B  0000000140031640     StdAfx.obj
 0003:00001690       ?wndBottom@CWMHnd@@2V1@B   0000000140031690     StdAfx.obj
 0003:000016e0       ?wndTop@CWMHnd@@2V1@B      00000001400316e0     StdAfx.obj
 0003:00001730       ??_R0?AVtype_info@@@8      0000000140031730     LIBCMT:typinfo.obj
 0003:00001750       ??_R0?AVbad_alloc@std@@@8  0000000140031750     LIBCMT:new.obj
 0003:00001778       ??_R0?AVexception@std@@@8  0000000140031778     LIBCMT:new.obj
 0003:000017a0       ??_R0?AVCChildView@@@8     00000001400317a0     ChildView.obj
 0003:000017c8       ??_R0?AVCPaintDCMTL@@@8    00000001400317c8     ChildView.obj
 0003:000017f0       ??_R0?AVCWnd@@@8           00000001400317f0     ChildView.obj
 0003:00001810       ??_R0?AVCTestCmdUI@@@8     0000000140031810     ChildView.obj
 0003:00001838       ??_R0?AVCCmdUI@@@8         0000000140031838     ChildView.obj
 0003:00001858       ??_R0?AVCDCMTL@@@8         0000000140031858     ChildView.obj
 0003:00001880       ??_R0?AV?$CHandleWrapper@VCDCMTL@@PEAUHDC__@@V?$CDCT@$00@WTL@@@@@8 0000000140031880     ChildView.obj
 0003:000018d0       ??_R0?AV?$CDCT@$00@WTL@@@8 00000001400318d0     ChildView.obj
 0003:000018f8       ??_R0?AVCWMHnd@@@8         00000001400318f8     ChildView.obj
 0003:00001918       ??_R0?AVCCmdTarget@@@8     0000000140031918     ChildView.obj
 0003:00001940       ??_R0?AVCObject@@@8        0000000140031940     ChildView.obj
 0003:00001960       ??_R0?AVCWindow@ATL@@@8    0000000140031960     ChildView.obj
 0003:00001988       ??_R0?AVCMenuMTL@@@8       0000000140031988     ChildView.obj
 0003:000019b0       ??_R0?AV?$CHandleWrapper@VCMenuMTL@@PEAUHMENU__@@V?$CMenuT@$00@WTL@@@@@8 00000001400319b0     ChildView.obj
 0003:00001a08       ??_R0?AV?$CMenuT@$00@WTL@@@8 0000000140031a08     ChildView.obj
 0003:00001a30       ??_R0?AVCAtlException@ATL@@@8 0000000140031a30     ChildView.obj
 0003:00001a58       ??_R0?AVCAboutDlg@@@8      0000000140031a58     FrmVC6.obj
 0003:00001a78       ??_R0?AVCFrmVC6App@@@8     0000000140031a78     FrmVC6.obj
 0003:00001aa0       ??_R0?AVCDialog@@@8        0000000140031aa0     FrmVC6.obj
 0003:00001ac0       ??_R0?AVCWinApp@@@8        0000000140031ac0     FrmVC6.obj
 0003:00001ae0       ??_R0?AVCWinThread@@@8     0000000140031ae0     FrmVC6.obj
 0003:00001b08       ??_R0?AVCModuleThreadState@@@8 0000000140031b08     FrmVC6.obj
 0003:00001b38       ??_R0?AVCThreadState@@@8   0000000140031b38     FrmVC6.obj
 0003:00001b60       ??_R0?AVCWinMsg@@@8        0000000140031b60     FrmVC6.obj
 0003:00001b80       ??_R0?AVCMainFrame@@@8     0000000140031b80     MainFrm.obj
 0003:00001ba8       ??_R0?AVCToolBar@@@8       0000000140031ba8     MainFrm.obj
 0003:00001bc8       ??_R0?AVCToolCmdUI@@@8     0000000140031bc8     MainFrm.obj
 0003:00001bf0       ??_R0?AVCStatusBar@@@8     0000000140031bf0     MainFrm.obj
 0003:00001c18       ??_R0?AVCWindowDCMTL@@@8   0000000140031c18     MainFrm.obj
 0003:00001c40       ??_R0?AVCControlBar@@@8    0000000140031c40     MainFrm.obj
 0003:00001c68       ??_R0?AVCToolTipCtrlMTL@@@8 0000000140031c68     MainFrm.obj
 0003:00001c90       ??_R0?AV?$CToolTipCtrlT@VCWnd@@@WTL@@@8 0000000140031c90     MainFrm.obj
 0003:00001cc8       ??_R0?AVCStatusCmdUI@@@8   0000000140031cc8     MainFrm.obj
 0003:00001cf0       ??_R0?AVCClientDCMTL@@@8   0000000140031cf0     MainFrm.obj
 0003:00001d18       ??_R0?AVCFrameWnd@@@8      0000000140031d18     MainFrm.obj
 0003:00001d38       ??_R0?AVbad_exception@std@@@8 0000000140031d38     LIBCMT:frame.obj
 0003:00001d60       ?__AtlThunkPool@@3PEAT_SLIST_HEADER@@EA 0000000140031d60     atls:atlthunk.obj
 0003:00001d70       ?_AtlBaseModule@ATL@@3VCAtlBaseModule@1@A 0000000140031d70     atls:atlbase.obj
 0003:00001dd0       __@@_PchSym_@00@UwwUexgllohUexHoryhUhsrkUzgonuxUhixUzgoUzgohUlyqBiUznwGEUhgwzucOlyq@84C1280690CF6209 0000000140031dd0     atls:stdafx.obj
 0003:00001dd8       _aenvptr                   0000000140031dd8     LIBCMT:wincrt0.obj
 0003:00001de0       _wenvptr                   0000000140031de0     LIBCMT:wincrt0.obj
 0003:00001de8       __pInvalidArgHandler       0000000140031de8     LIBCMT:invarg.obj
 0003:00001e00       _C_Exit_Done               0000000140031e00     LIBCMT:crt0dat.obj
 0003:00001e04       __argc                     0000000140031e04     LIBCMT:crt0dat.obj
 0003:00001e08       __argv                     0000000140031e08     LIBCMT:crt0dat.obj
 0003:00001e10       __wargv                    0000000140031e10     LIBCMT:crt0dat.obj
 0003:00001e18       _environ                   0000000140031e18     LIBCMT:crt0dat.obj
 0003:00001e20       _wenviron                  0000000140031e20     LIBCMT:crt0dat.obj
 0003:00001e28       _pgmptr                    0000000140031e28     LIBCMT:crt0dat.obj
 0003:00001e30       _wpgmptr                   0000000140031e30     LIBCMT:crt0dat.obj
 0003:00001e38       _umaskval                  0000000140031e38     LIBCMT:crt0dat.obj
 0003:00001e3c       _exitflag                  0000000140031e3c     LIBCMT:crt0dat.obj
 0003:00001e40       _C_Termination_Done        0000000140031e40     LIBCMT:crt0dat.obj
 0003:00001e48       __winitenv                 0000000140031e48     LIBCMT:crt0dat.obj
 0003:00001e50       __initenv                  0000000140031e50     LIBCMT:crt0dat.obj
 0003:00001e58       _maxwait                   0000000140031e58     LIBCMT:crtheap.obj
 0003:00001e60       ?_pnhHeap@@3P6AH_K@ZEA     0000000140031e60     LIBCMT:handler.obj
 0003:00001e68       _crtheap                   0000000140031e68     LIBCMT:heapinit.obj
 0003:00001e70       __mbcodepage               0000000140031e70     LIBCMT:mbctype.obj
 0003:00001e74       __ismbcodepage             0000000140031e74     LIBCMT:mbctype.obj
 0003:00001e78       __mbulinfo                 0000000140031e78     LIBCMT:mbctype.obj
 0003:00001e88       __mblocalename             0000000140031e88     LIBCMT:mbctype.obj
 0003:00001e94       __favor                    0000000140031e94     LIBCMT:cpu_disp.obj
 0003:00001e98       __pPurecall                0000000140031e98     LIBCMT:inithelp.obj
 0003:00001ea0       __app_type                 0000000140031ea0     LIBCMT:crt0msg.obj
 0003:000024d8       _newmode                   00000001400324d8     LIBCMT:_newmode.obj
 0003:000024e0       ?__pInconsistency@@3P6AXXZEA 00000001400324e0     LIBCMT:hooks.obj
 0003:000024f0       __pioinfo                  00000001400324f0     LIBCMT:ioinit.obj
 0003:000027f8       __error_mode               00000001400327f8     LIBCMT:errmode.obj
 0003:00002a30       ?m_pGetParameter@UnDecorator@@0P6APEADJ@ZEA 0000000140032a30     LIBCMT:undname.obj
 0003:00002a38       ?pArgList@UnDecorator@@0PEAVReplicator@@EA 0000000140032a38     LIBCMT:undname.obj
 0003:00002a40       ?pZNameList@UnDecorator@@0PEAVReplicator@@EA 0000000140032a40     LIBCMT:undname.obj
 0003:00002a48       ?pTemplateArgList@UnDecorator@@0PEAVReplicator@@EA 0000000140032a48     LIBCMT:undname.obj
 0003:00002a50       ?gName@UnDecorator@@0PEBDEB 0000000140032a50     LIBCMT:undname.obj
 0003:00002a58       ?name@UnDecorator@@0PEBDEB 0000000140032a58     LIBCMT:undname.obj
 0003:00002a60       ?outputString@UnDecorator@@0PEADEA 0000000140032a60     LIBCMT:undname.obj
 0003:00002a68       ?maxStringLength@UnDecorator@@0HA 0000000140032a68     LIBCMT:undname.obj
 0003:00002a6c       ?disableFlags@UnDecorator@@0KA 0000000140032a6c     LIBCMT:undname.obj
 0003:00002a70       ?fExplicitTemplateParams@UnDecorator@@0_NA 0000000140032a70     LIBCMT:undname.obj
 0003:00002a71       ?fGetTemplateArgumentList@UnDecorator@@0_NA 0000000140032a71     LIBCMT:undname.obj
 0003:00002ad0       _stdbuf                    0000000140032ad0     LIBCMT:_sftbuf.obj
 0003:00002ae0       __lconv_static_null        0000000140032ae0     LIBCMT:lconv.obj
 0003:00002ae4       __lconv_static_W_null      0000000140032ae4     LIBCMT:lconv.obj
 0003:00002b18       _cflush                    0000000140032b18     LIBCMT:_file.obj
 0003:00003094       __locale_changed           0000000140033094     LIBCMT:wsetloca.obj
 0003:00003098       __fastflag                 0000000140033098     LIBCMT:fpinit.obj
 0003:0000309c       _outputformat              000000014003309c     LIBCMT:outputformat.obj
 0003:000030a0       ?m_bInitFailed@CAtlBaseModule@ATL@@2_NA 00000001400330a0     ChildView.obj
 0003:000030a8       ?m_lastSentMsg@?1??GetLastSentMsg@CCmdTarget@@SAAEAPEAU_ATL_MSG@ATL@@XZ@4PEAU34@EA 00000001400330a8     ChildView.obj
 0003:000030b0       ?cwp@?1??GetHookOldCbtFilter@CWnd@@SAAEAU_CreateWindowParam@2@XZ@4U32@A 00000001400330b0     ChildView.obj
 0003:000030c8       ??_B?1??GetCModuleState@CWinApp@@SAPEAVCModuleState@@XZ@51 00000001400330c8     ChildView.obj
 0003:000030d0       ?cModuleState@?1??GetCModuleState@CWinApp@@SAPEAVCModuleState@@XZ@4V3@A 00000001400330d0     ChildView.obj
 0003:00003110       ?hHalftoneBrush@?1??HalftoneBrush@CAfx@@SAPEAUHBRUSH__@@H@Z@4PEAU3@EA 0000000140033110     FrmVC6.obj
 0003:00003118       ??_B?1??AfxLoadSysColorBitmap@@YAPEAUHBITMAP__@@PEAUHINSTANCE__@@PEAUHRSRC__@@H@Z@51 0000000140033118     MainFrm.obj
 0003:00003120       ?_afxSysColorMap@?1??AfxLoadSysColorBitmap@@YAPEAUHBITMAP__@@PEAUHINSTANCE__@@PEAUHRSRC__@@H@Z@4QBUAFX_COLORMAP@@B 0000000140033120     MainFrm.obj
 0003:00003140       ?_afxdata@?1??GetAfxData@CAfx@@SAAEBU_AUX_DATA@@XZ@4U3@A 0000000140033140     MainFrm.obj
 0003:00003180       ??_B?1??GetAfxData@CAfx@@SAAEBU_AUX_DATA@@XZ@51 0000000140033180     MainFrm.obj
 0003:00003184       __@@_PchSym_@00@UwirevUuUexUngonuxUhznkovhUuinexGUivovzhvGEUhgwzucOlyq@9F41ADAB9D229315 0000000140033184     StdAfx.obj
 0003:00003190       ?m_pCWinApp@CWinApp@@2PEAV1@EA 0000000140033190     StdAfx.obj
 0003:000031a0       ?theApp@@3VCFrmVC6App@@A   00000001400331a0     FrmVC6.obj
 0003:00003390       ?_AtlWinModule@ATL@@3VCAtlWinModule@1@A 0000000140033390     ChildView.obj
 0003:000033d8       ?g_OutOfMemoryExceptionCallback@@3P6APEAXXZEA 00000001400333d8     LIBCMT:frame.obj
 0003:000033e0       __piob                     00000001400333e0     <common>
 0003:000033e8       _nstream                   00000001400333e8     <common>
 0003:00003400       _bufin                     0000000140033400     <common>
 0003:00004400       _debugger_hook_dummy       0000000140034400     <common>
 0003:00004420       encodedKERNEL32Functions   0000000140034420     <common>
 0003:00004528       _nhandle                   0000000140034528     <common>
 0003:00004530       __dyn_tls_init_callback    0000000140034530     <common>
 0003:00004538       __onexitend                0000000140034538     <common>
 0003:00004540       __onexitbegin              0000000140034540     <common>
 0003:00004548       __mbctype_initialized      0000000140034548     <common>
 0003:0000454c       __env_initialized          000000014003454c     <common>
 0003:00004550       _acmdln                    0000000140034550     <common>

 entry point at        0001:0001383c

 Static symbols

 0002:fffde000       .idata$6                   0000000140000000     oleaut32:OLEAUT32.dll
 0001:00000000       ??__E_AtlWinModule@ATL@@YAXXZ 0000000140001000 f   ChildView.obj
 0001:00000020       ??__EtheApp@@YAXXZ         0000000140001020 f   FrmVC6.obj
 0001:00000050       ??__E?wndTop@CWMHnd@@2V1@B@@YAXXZ 0000000140001050 f   StdAfx.obj
 0001:00000070       ??__E?wndBottom@CWMHnd@@2V1@B@@YAXXZ 0000000140001070 f   StdAfx.obj
 0001:00000090       ??__E?wndTopMost@CWMHnd@@2V1@B@@YAXXZ 0000000140001090 f   StdAfx.obj
 0001:000000b0       ??__E?wndNoTopMost@CWMHnd@@2V1@B@@YAXXZ 00000001400010b0 f   StdAfx.obj
 0001:000000cc       ??__E_AtlBaseModule@ATL@@YAXXZ 00000001400010cc f   atls:atlbase.obj
 0001:00012a38       ?__InitializeThunkPool@@YAHXZ 0000000140013a38 f   atls:atlthunk.obj
 0001:000131e0       $$000000                   00000001400141e0     LIBCMT:memcpy.obj
 0001:000132d0       MoveSmall                  00000001400142d0     LIBCMT:memcpy.obj
 0001:00013850       __tmainCRTStartup          0000000140014850 f   LIBCMT:wincrt0.obj
 0001:000139dc       fast_error_exit            00000001400149dc f   LIBCMT:wincrt0.obj
 0001:00013a10       $$000000                   0000000140014a10     LIBCMT:memset.obj
 0001:00013bb5       MsetTab                    0000000140014bb5     LIBCMT:memset.obj
 0001:00013ef0       $$000000                   0000000140014ef0     LIBCMT:strcmp.obj
 0001:00014168       _initterm                  0000000140015168 f   LIBCMT:crt0dat.obj
 0001:0001421c       doexit                     000000014001521c f   LIBCMT:crt0dat.obj
 0001:00014a90       $$000000                   0000000140015a90     LIBCMT:strlen.obj
 0001:00014f14       ?getSystemCP@@YAHH@Z       0000000140015f14 f   LIBCMT:mbctype.obj
 0001:00014f94       ?setSBCS@@YAXPEAUthreadmbcinfostruct@@@Z 0000000140015f94 f   LIBCMT:mbctype.obj
 0001:00015024       ?setSBUpLow@@YAXPEAUthreadmbcinfostruct@@@Z 0000000140016024 f   LIBCMT:mbctype.obj
 0001:0001672c       parse_cmdline              000000014001772c f   LIBCMT:stdargv.obj
 0001:000174a0       $$000000                   00000001400184a0     LIBCMT:amdsecgs.obj
 0001:000176e0       $$000000                   00000001400186e0     LIBCMT:jmpuwind.obj
 0001:000180e8       ?__crtLCMapStringA_stat@@YAHPEAUlocaleinfo_struct@@PEB_WKPEBDHPEADHHH@Z 00000001400190e8 f   LIBCMT:a_map.obj
 0001:0001846c       ?__crtGetStringTypeA_stat@@YAHPEAUlocaleinfo_struct@@KPEBDHPEAGHH@Z 000000014001946c f   LIBCMT:a_str.obj
 0001:00018e2c       ?x_ismbbtype_l@@YAHPEAUlocaleinfo_struct@@IHH@Z 0000000140019e2c f   LIBCMT:ismbbyte.obj
 0001:00019144       flsall                     000000014001a144 f   LIBCMT:fflush.obj
 0001:00019280       $$000000                   000000014001a280     LIBCMT:chkstk.obj
 0001:00019d40       $$000000                   000000014001ad40     LIBCMT:memcmp.obj
 0001:0001c0a8       _cftoe2_l                  000000014001d0a8 f   LIBCMT:cvt.obj
 0001:0001c39c       _cftof2_l                  000000014001d39c f   LIBCMT:cvt.obj
 0001:0001e2c8       ?CatchIt@@YAXPEAUEHExceptionRecord@@PEA_KPEAU_CONTEXT@@PEAU_xDISPATCHER_CONTEXT@@PEBU_s_FuncInfo@@PEBU_s_HandlerType@@PEBU_s_CatchableType@@PEBU_s_TryBlockMapEntry@@H1EE@Z 000000014001f2c8 f   LIBCMT:frame.obj
 0001:0001e38c       ?FindHandler@@YAXPEAUEHExceptionRecord@@PEA_KPEAU_CONTEXT@@PEAU_xDISPATCHER_CONTEXT@@PEBU_s_FuncInfo@@EH1@Z 000000014001f38c f   LIBCMT:frame.obj
 0001:0001e840       ?FindHandlerForForeignException@@YAXPEAUEHExceptionRecord@@PEA_KPEAU_CONTEXT@@PEAU_xDISPATCHER_CONTEXT@@PEBU_s_FuncInfo@@HH1@Z 000000014001f840 f   LIBCMT:frame.obj
 0001:0001eaa8       ?IsInExceptionSpec@@YAEPEAUEHExceptionRecord@@PEBU_s_ESTypeList@@@Z 000000014001faa8 f   LIBCMT:frame.obj
 0001:0001f730       $$000000                   0000000140020730     LIBCMT:handlers.obj
 0001:0001f790       ?dtor$3@?0??OnPaint@CChildView@@IEAAXXZ@4HA 0000000140020790 f   ChildView.obj
 0001:0001f7a0       ?dtor$1@?0???1CDCMTL@@UEAA@XZ@4HA 00000001400207a0 f   ChildView.obj
 0001:0001f7a0       ?dtor$1@?0???_GCDCMTL@@UEAAPEAXI@Z@4HA 00000001400207a0 f   ChildView.obj
 0001:0001f7a0       ?dtor$2@?0???1CClientDCMTL@@UEAA@XZ@4HA 00000001400207a0 f   MainFrm.obj
 0001:0001f7a0       ?dtor$2@?0???1CWindowDCMTL@@UEAA@XZ@4HA 00000001400207a0 f   MainFrm.obj
 0001:0001f7a0       ?dtor$2@?0???1CPaintDCMTL@@UEAA@XZ@4HA 00000001400207a0 f   ChildView.obj
 0001:0001f7b0       ?dtor$0@?0???_GCWMHnd@@UEAAPEAXI@Z@4HA 00000001400207b0 f   ChildView.obj
 0001:0001f7b0       ?dtor$1@?0???1CWnd@@UEAA@XZ@4HA 00000001400207b0 f   ChildView.obj
 0001:0001f7c0       ?dtor$0@?0??_ProcessWindowMessage@CWnd@@UEAAHPEAUHWND__@@I_K_JAEA_J@Z@4HA 00000001400207c0 f   ChildView.obj
 0001:0001f7cc       ?dtor$2@?0??_ProcessWindowMessage@CWnd@@UEAAHPEAUHWND__@@I_K_JAEA_J@Z@4HA 00000001400207cc f   ChildView.obj
 0001:0001f7e0       ?dtor$1@?0???_GCMenuMTL@@UEAAPEAXI@Z@4HA 00000001400207e0 f   ChildView.obj
 0001:0001f7e0       ?dtor$1@?0???1CMenuMTL@@UEAA@XZ@4HA 00000001400207e0 f   ChildView.obj
 0001:0001f7f0       ?dtor$0@?0???1CModuleState@@QEAA@XZ@4HA 00000001400207f0 f   ChildView.obj
 0001:0001f800       ?catch$0@?0??AllocBuffer@CString@WTL@@IEAAHH@Z@4HA 0000000140020800 f   ChildView.obj
 0001:0001f80d       __catch$?AllocBuffer@CString@WTL@@IEAAHH@Z$0 000000014002080d f   ChildView.obj
 0001:0001f820       ?dtor$0@?0??InitInstance@CFrmVC6App@@UEAAHXZ@4HA 0000000140020820 f   FrmVC6.obj
 0001:0001f830       ?dtor$0@?0??OnAppAbout@CFrmVC6App@@QEAAXXZ@4HA 0000000140020830 f   FrmVC6.obj
 0001:0001f840       ?dtor$0@?0???1CCommandLineInfo@@QEAA@XZ@4HA 0000000140020840 f   FrmVC6.obj
 0001:0001f850       ?dtor$1@?0???1CCommandLineInfo@@QEAA@XZ@4HA 0000000140020850 f   FrmVC6.obj
 0001:0001f860       ?dtor$2@?0???1CCommandLineInfo@@QEAA@XZ@4HA 0000000140020860 f   FrmVC6.obj
 0001:0001f870       ?dtor$0@?0???1CWinApp@@QEAA@XZ@4HA 0000000140020870 f   FrmVC6.obj
 0001:0001f87c       ?dtor$1@?0???1CWinApp@@QEAA@XZ@4HA 000000014002087c f   FrmVC6.obj
 0001:0001f88c       ?dtor$2@?0???1CWinApp@@QEAA@XZ@4HA 000000014002088c f   FrmVC6.obj
 0001:0001f8a0       ?dtor$0@?0???0CModuleThreadState@@QEAA@XZ@4HA 00000001400208a0 f   FrmVC6.obj
 0001:0001f8a0       ?dtor$0@?0???1CModuleThreadState@@QEAA@XZ@4HA 00000001400208a0 f   FrmVC6.obj
 0001:0001f8c0       ?dtor$0@?0???0CWinApp@@QEAA@XZ@4HA 00000001400208c0 f   FrmVC6.obj
 0001:0001f8d0       ?dtor$0@?0???_GCMainFrame@@UEAAPEAXI@Z@4HA 00000001400208d0 f   MainFrm.obj
 0001:0001f8dc       ?dtor$1@?0???_GCMainFrame@@UEAAPEAXI@Z@4HA 00000001400208dc f   MainFrm.obj
 0001:0001f8ef       ?dtor$2@?0???_GCMainFrame@@UEAAPEAXI@Z@4HA 00000001400208ef f   MainFrm.obj
 0001:0001f910       ?dtor$0@?0??EraseNonClient@CControlBar@@QEAAXXZ@4HA 0000000140020910 f   MainFrm.obj
 0001:0001f91c       ?dtor$3@?0??EraseNonClient@CControlBar@@QEAAXXZ@4HA 000000014002091c f   MainFrm.obj
 0001:0001f930       ?dtor$0@?0??Create@CMiniDockFrameWnd@@QEAAHPEAVCWnd@@K@Z@4HA 0000000140020930 f   MainFrm.obj
 0001:0001f940       ?dtor$0@?0???1CControlBar@@UEAA@XZ@4HA 0000000140020940 f   MainFrm.obj
 0001:0001f950       ?dtor$0@?0??UpdateAllPanes@CStatusBar@@QEAAXHH@Z@4HA 0000000140020950 f   MainFrm.obj
 0001:0001f960       ?dtor$0@?0??UpdateDialogControls@CWnd@@QEAAXPEAVCCmdTarget@@H@Z@4HA 0000000140020960 f   MainFrm.obj
 0001:0001f96c       ?dtor$3@?0??UpdateDialogControls@CWnd@@QEAAXPEAVCCmdTarget@@H@Z@4HA 000000014002096c f   MainFrm.obj
 0001:0001f980       ?dtor$3@?0??CalcFixedLayout@CStatusBar@@UEAA?AVCSize@WTL@@HH@Z@4HA 0000000140020980 f   MainFrm.obj
 0001:0001f990       ?dtor$0@?0???1CFrameWnd@@UEAA@XZ@4HA 0000000140020990 f   MainFrm.obj
 0001:0001f99c       ?dtor$1@?0???1CFrameWnd@@UEAA@XZ@4HA 000000014002099c f   MainFrm.obj
 0001:0001f9b0       ?dtor$0@?0??LoadFrame@CFrameWnd@@UEAAHIKPEAVCWnd@@PEAUCCreateContext@@@Z@4HA 00000001400209b0 f   MainFrm.obj
 0001:0001f9bc       ?dtor$1@?0??LoadFrame@CFrameWnd@@UEAAHIKPEAVCWnd@@PEAUCCreateContext@@@Z@4HA 00000001400209bc f   MainFrm.obj
 0001:0001f9d0       ?dtor$0@?0???0CFrameWnd@@QEAA@XZ@4HA 00000001400209d0 f   MainFrm.obj
 0001:0001f9dc       ?dtor$1@?0???0CFrameWnd@@QEAA@XZ@4HA 00000001400209dc f   MainFrm.obj
 0001:0001f9ec       ?dtor$2@?0???0CFrameWnd@@QEAA@XZ@4HA 00000001400209ec f   MainFrm.obj
 0001:0001fa00       ?dtor$0@?0??DestroyDockBars@CFrameWnd@@QEAAXXZ@4HA 0000000140020a00 f   MainFrm.obj
 0001:0001fa0c       ?dtor$1@?0??DestroyDockBars@CFrameWnd@@QEAAXXZ@4HA 0000000140020a0c f   MainFrm.obj
 0001:0001fa20       ?dtor$0@?0??OnSetMessageString@CFrameWnd@@QEAA_J_K_J@Z@4HA 0000000140020a20 f   MainFrm.obj
 0001:0001fa30       ?dtor$0@?0??UpdateFrameTitleForDocument@CFrameWnd@@QEAAXPEBD@Z@4HA 0000000140020a30 f   MainFrm.obj
 0001:0001fa40       ?dtor$0@?0??OnToolTipText@CFrameWnd@@QEAAHIPEAUtagNMHDR@@PEA_J@Z@4HA 0000000140020a40 f   MainFrm.obj
 0001:0001fa50       ?dtor$0@?0??_ProcessWindowMessage@CFrameWnd@@UEAAHPEAUHWND__@@I_K_JAEA_J@Z@4HA 0000000140020a50 f   MainFrm.obj
 0001:0001fa5c       ?dtor$4@?0??_ProcessWindowMessage@CFrameWnd@@UEAAHPEAUHWND__@@I_K_JAEA_J@Z@4HA 0000000140020a5c f   MainFrm.obj
 0001:0001fa6c       ?dtor$1@?0??_ProcessWindowMessage@CFrameWnd@@UEAAHPEAUHWND__@@I_K_JAEA_J@Z@4HA 0000000140020a6c f   MainFrm.obj
 0001:0001fa78       ?dtor$6@?0??_ProcessWindowMessage@CFrameWnd@@UEAAHPEAUHWND__@@I_K_JAEA_J@Z@4HA 0000000140020a78 f   MainFrm.obj
 0001:0001fa88       ?dtor$2@?0??_ProcessWindowMessage@CFrameWnd@@UEAAHPEAUHWND__@@I_K_JAEA_J@Z@4HA 0000000140020a88 f   MainFrm.obj
 0001:0001fa94       ?dtor$8@?0??_ProcessWindowMessage@CFrameWnd@@UEAAHPEAUHWND__@@I_K_JAEA_J@Z@4HA 0000000140020a94 f   MainFrm.obj
 0001:0001fab0       ?dtor$0@?0???__F?wndTop@CWMHnd@@2V1@B@@YAXXZ@4HA 0000000140020ab0 f   StdAfx.obj
 0001:0001fac0       ?dtor$0@?0???__F?wndBottom@CWMHnd@@2V1@B@@YAXXZ@4HA 0000000140020ac0 f   StdAfx.obj
 0001:0001fad0       ?dtor$0@?0???__F?wndTopMost@CWMHnd@@2V1@B@@YAXXZ@4HA 0000000140020ad0 f   StdAfx.obj
 0001:0001fae0       ?dtor$0@?0???__F?wndNoTopMost@CWMHnd@@2V1@B@@YAXXZ@4HA 0000000140020ae0 f   StdAfx.obj
 0001:0001faf0       ?dtor$0@?0??CreateObject@CFrameWnd@@SAPEAVCObject@@XZ@4HA 0000000140020af0 f   StdAfx.obj
 0001:0001fafc       _onexit$fin$0              0000000140020afc f   LIBCMT:onexit.obj
 0001:0001fb10       __tmainCRTStartup$filt$0   0000000140020b10 f   LIBCMT:wincrt0.obj
 0001:0001fb2e       ?fin$0@?0??_Type_info_dtor@type_info@@CAXPEAV1@@Z@4HA 0000000140020b2e f   LIBCMT:typname.obj
 0001:0001fb47       doexit$fin$0               0000000140020b47 f   LIBCMT:crt0dat.obj
 0001:0001fb6b       __updatetmbcinfo$fin$0     0000000140020b6b f   LIBCMT:mbctype.obj
 0001:0001fb6b       _setmbcp$fin$0             0000000140020b6b f   LIBCMT:mbctype.obj
 0001:0001fb84       _initptd$fin$1             0000000140020b84 f   LIBCMT:tidtable.obj
 0001:0001fb84       _freefls$fin$1             0000000140020b84 f   LIBCMT:tidtable.obj
 0001:0001fb9d       _initptd$fin$0             0000000140020b9d f   LIBCMT:tidtable.obj
 0001:0001fb9d       _freefls$fin$0             0000000140020b9d f   LIBCMT:tidtable.obj
 0001:0001fbb6       _ioinit$fin$0              0000000140020bb6 f   LIBCMT:ioinit.obj
 0001:0001fbd1       _mtinitlocknum$fin$0       0000000140020bd1 f   LIBCMT:mlock.obj
 0001:0001fbf0       _IsNonwritableInCurrentImage$filt$0 0000000140020bf0 f   LIBCMT:pesect.obj
 0001:0001fc10       raise$fin$0                0000000140020c10 f   LIBCMT:winsig.obj
 0001:0001fc2e       flsall$fin$0               0000000140020c2e f   LIBCMT:fflush.obj
 0001:0001fc56       flsall$fin$1               0000000140020c56 f   LIBCMT:fflush.obj
 0001:0001fc6f       _locterm$fin$0             0000000140020c6f f   LIBCMT:wsetloca.obj
 0001:0001fc6f       __updatetlocinfo$fin$0     0000000140020c6f f   LIBCMT:wsetloca.obj
 0001:0001fc88       _fcloseall$fin$0           0000000140020c88 f   LIBCMT:closeall.obj
 0001:0001fca1       _write$fin$0               0000000140020ca1 f   LIBCMT:write.obj
 0001:0001fcb8       fclose$fin$0               0000000140020cb8 f   LIBCMT:fclose.obj
 0001:0001fcd0       __lock_fhandle$fin$0       0000000140020cd0 f   LIBCMT:osfinfo.obj
 0001:0001fce9       _commit$fin$0              0000000140020ce9 f   LIBCMT:close.obj
 0001:0001fce9       _close$fin$0               0000000140020ce9 f   LIBCMT:close.obj
 0001:0001fd00       _CallSETranslator$filt$0   0000000140020d00 f   LIBCMT:trnsctrl.obj
 0001:0001fd46       __CxxCallCatchBlock$filt$0 0000000140020d46 f   LIBCMT:frame.obj
 0001:0001fe3a       __CxxCallCatchBlock$fin$1  0000000140020e3a f   LIBCMT:frame.obj
 0001:0001feb8       __DestructExceptionObject$filt$0 0000000140020eb8 f   LIBCMT:frame.obj
 0001:0001fed0       __FrameUnwindToState$filt$0 0000000140020ed0 f   LIBCMT:frame.obj
 0001:0001fee6       __FrameUnwindToState$fin$1 0000000140020ee6 f   LIBCMT:frame.obj
 0001:0001ff10       ??__F_AtlWinModule@ATL@@YAXXZ 0000000140020f10 f   ChildView.obj
 0001:0001ff70       ??__FtheApp@@YAXXZ         0000000140020f70 f   FrmVC6.obj
 0001:0001ff80       ??__F?wndTop@CWMHnd@@2V1@B@@YAXXZ 0000000140020f80 f   StdAfx.obj
 0001:0001fff0       ??__F?wndBottom@CWMHnd@@2V1@B@@YAXXZ 0000000140020ff0 f   StdAfx.obj
 0001:00020060       ??__F?wndTopMost@CWMHnd@@2V1@B@@YAXXZ 0000000140021060 f   StdAfx.obj
 0001:000200d0       ??__F?wndNoTopMost@CWMHnd@@2V1@B@@YAXXZ 00000001400210d0 f   StdAfx.obj
 0001:00020138       ??__F_AtlBaseModule@ATL@@YAXXZ 0000000140021138 f   atls:atlbase.obj
 0002:000006f0       _AtlBaseModule$initializer$ 00000001400226f0     atls:atlbase.obj
 0002:000006f8       _AtlWinModule$initializer$ 00000001400226f8     ChildView.obj
 0002:00000700       theApp$initializer$        0000000140022700     FrmVC6.obj
 0002:00000708       ?wndTop$initializer$@CWMHnd@@2P6AXXZEA 0000000140022708     StdAfx.obj
 0002:00000710       ?wndBottom$initializer$@CWMHnd@@2P6AXXZEA 0000000140022710     StdAfx.obj
 0002:00000718       ?wndTopMost$initializer$@CWMHnd@@2P6AXXZEA 0000000140022718     StdAfx.obj
 0002:00000720       ?wndNoTopMost$initializer$@CWMHnd@@2P6AXXZEA 0000000140022720     StdAfx.obj
 0002:00000738       pinit                      0000000140022738     LIBCMT:onexit.obj
 0002:00000740       pinit                      0000000140022740     LIBCMT:mbctype.obj
 0002:00000748       pinit                      0000000140022748     LIBCMT:cpu_disp.obj
 0002:00000750       pinit                      0000000140022750     LIBCMT:_file.obj
 0002:00000758       pinit                      0000000140022758     LIBCMT:wincrt0.obj
 0002:00000770       pterm                      0000000140022770     LIBCMT:wsetloca.obj
 0002:00000778       pterm                      0000000140022778     LIBCMT:initcon.obj
 0002:00000780       pterm                      0000000140022780     LIBCMT:_file.obj
 0002:000008d0       ?ExceptionTemplate@?1??_CxxThrowException@@9@4UEHExceptionRecord@@B 00000001400228d0     LIBCMT:throw.obj
 0002:00000910       _mb_locale_names           0000000140022910     LIBCMT:mbctype.obj
 0002:00000d30       rterrs                     0000000140022d30     LIBCMT:crt0msg.obj
 0002:00001ca0       tokenTable                 0000000140023ca0     LIBCMT:undname.obj
 0002:00001d10       nameTable                  0000000140023d10     LIBCMT:undname.obj
 0002:00001f90       rttiTable                  0000000140023f90     LIBCMT:undname.obj
 0002:00006190       GS_ExceptionPointers       0000000140028190     LIBCMT:gs_report.obj
 0002:000061a0       _first_127char             00000001400281a0     LIBCMT:wsetloca.obj
 0002:000074a8       $cppxdata$?AllocBuffer@CString@WTL@@IEAAHH@Z 00000001400294a8     ChildView.obj
 0002:000074d0       $cppxdata$??1CModuleState@@QEAA@XZ 00000001400294d0     ChildView.obj
 0002:000074f8       $cppxdata$??1CMenuMTL@@UEAA@XZ 00000001400294f8     ChildView.obj
 0002:00007520       $cppxdata$??_GCMenuMTL@@UEAAPEAXI@Z 0000000140029520     ChildView.obj
 0002:00007548       $cppxdata$??_GCWMHnd@@UEAAPEAXI@Z 0000000140029548     ChildView.obj
 0002:00007570       $cppxdata$?_ProcessWindowMessage@CWnd@@UEAAHPEAUHWND__@@I_K_JAEA_J@Z 0000000140029570     ChildView.obj
 0002:00007598       $cppxdata$??1CWnd@@UEAA@XZ 0000000140029598     ChildView.obj
 0002:000075c0       $cppxdata$??1CDCMTL@@UEAA@XZ 00000001400295c0     ChildView.obj
 0002:000075e8       $cppxdata$??_GCDCMTL@@UEAAPEAXI@Z 00000001400295e8     ChildView.obj
 0002:00007610       $cppxdata$??1CPaintDCMTL@@UEAA@XZ 0000000140029610     ChildView.obj
 0002:00007638       $cppxdata$?OnPaint@CChildView@@IEAAXXZ 0000000140029638     ChildView.obj
 0002:00007670       $cppxdata$??0CWinApp@@QEAA@XZ 0000000140029670     FrmVC6.obj
 0002:00007698       $cppxdata$??1CModuleThreadState@@QEAA@XZ 0000000140029698     FrmVC6.obj
 0002:000076c0       $cppxdata$??0CModuleThreadState@@QEAA@XZ 00000001400296c0     FrmVC6.obj
 0002:000076e8       $cppxdata$??1CWinApp@@QEAA@XZ 00000001400296e8     FrmVC6.obj
 0002:00007710       $cppxdata$??1CCommandLineInfo@@QEAA@XZ 0000000140029710     FrmVC6.obj
 0002:00007738       $cppxdata$?OnAppAbout@CFrmVC6App@@QEAAXXZ 0000000140029738     FrmVC6.obj
 0002:00007760       $cppxdata$?InitInstance@CFrmVC6App@@UEAAHXZ 0000000140029760     FrmVC6.obj
 0002:00007788       $cppxdata$?_ProcessWindowMessage@CFrameWnd@@UEAAHPEAUHWND__@@I_K_JAEA_J@Z 0000000140029788     MainFrm.obj
 0002:000077b0       $cppxdata$?OnToolTipText@CFrameWnd@@QEAAHIPEAUtagNMHDR@@PEA_J@Z 00000001400297b0     MainFrm.obj
 0002:000077d8       $cppxdata$?UpdateFrameTitleForDocument@CFrameWnd@@QEAAXPEBD@Z 00000001400297d8     MainFrm.obj
 0002:00007800       $cppxdata$?OnSetMessageString@CFrameWnd@@QEAA_J_K_J@Z 0000000140029800     MainFrm.obj
 0002:00007828       $cppxdata$?DestroyDockBars@CFrameWnd@@QEAAXXZ 0000000140029828     MainFrm.obj
 0002:00007850       $cppxdata$??0CFrameWnd@@QEAA@XZ 0000000140029850     MainFrm.obj
 0002:00007878       $cppxdata$?LoadFrame@CFrameWnd@@UEAAHIKPEAVCWnd@@PEAUCCreateContext@@@Z 0000000140029878     MainFrm.obj
 0002:000078a0       $cppxdata$??1CFrameWnd@@UEAA@XZ 00000001400298a0     MainFrm.obj
 0002:000078c8       $cppxdata$?CalcFixedLayout@CStatusBar@@UEAA?AVCSize@WTL@@HH@Z 00000001400298c8     MainFrm.obj
 0002:000078f0       $cppxdata$??1CClientDCMTL@@UEAA@XZ 00000001400298f0     MainFrm.obj
 0002:00007918       $cppxdata$?UpdateDialogControls@CWnd@@QEAAXPEAVCCmdTarget@@H@Z 0000000140029918     MainFrm.obj
 0002:00007940       $cppxdata$?UpdateAllPanes@CStatusBar@@QEAAXHH@Z 0000000140029940     MainFrm.obj
 0002:00007968       $cppxdata$??1CControlBar@@UEAA@XZ 0000000140029968     MainFrm.obj
 0002:00007990       $cppxdata$?Create@CMiniDockFrameWnd@@QEAAHPEAVCWnd@@K@Z 0000000140029990     MainFrm.obj
 0002:000079b8       $cppxdata$?EraseNonClient@CControlBar@@QEAAXXZ 00000001400299b8     MainFrm.obj
 0002:000079e0       $cppxdata$??1CWindowDCMTL@@UEAA@XZ 00000001400299e0     MainFrm.obj
 0002:00007a08       $cppxdata$??_GCMainFrame@@UEAAPEAXI@Z 0000000140029a08     MainFrm.obj
 0002:00007a30       $cppxdata$?CreateObject@CFrameWnd@@SAPEAVCObject@@XZ 0000000140029a30     StdAfx.obj
 0002:00007a58       $cppxdata$??__F?wndNoTopMost@CWMHnd@@2V1@B@@YAXXZ 0000000140029a58     StdAfx.obj
 0002:00007a80       $cppxdata$??__F?wndTopMost@CWMHnd@@2V1@B@@YAXXZ 0000000140029a80     StdAfx.obj
 0002:00007aa8       $cppxdata$??__F?wndBottom@CWMHnd@@2V1@B@@YAXXZ 0000000140029aa8     StdAfx.obj
 0002:00007ad0       $cppxdata$??__F?wndTop@CWMHnd@@2V1@B@@YAXXZ 0000000140029ad0     StdAfx.obj
 0002:00007b00       ?ExceptionTemplate@?1??_UnwindNestedFrames@@9@4U_EXCEPTION_RECORD@@B 0000000140029b00     LIBCMT:trnsctrl.obj
 0002:00009080       $unwind$_initp_misc_cfltcvt_tab 000000014002b080     LIBCMT:cmiscdat.obj
 0002:00009080       $unwind$_close_nolock      000000014002b080     LIBCMT:close.obj
 0002:00009080       $unwind$_FindAndUnlinkFrame 000000014002b080     LIBCMT:trnsctrl.obj
 0002:00009080       $unwind$??_GCStatusBar@@UEAAPEAXI@Z 000000014002b080     MainFrm.obj
 0002:00009080       $unwind$??_GCAboutDlg@@UEAAPEAXI@Z 000000014002b080     FrmVC6.obj
 0002:00009080       $unwind$?__InitializeThunkPool@@YAHXZ 000000014002b080     atls:atlthunk.obj
 0002:00009080       $unwind$??0CControlBar@@QEAA@XZ 000000014002b080     MainFrm.obj
 0002:00009080       $unwind$??_Gbad_exception@std@@UEAAPEAXI@Z 000000014002b080     LIBCMT:frame.obj
 0002:00009080       $unwind$??_GCDialog@@UEAAPEAXI@Z 000000014002b080     FrmVC6.obj
 0002:00009080       $unwind$__initstdio        000000014002b080     LIBCMT:_file.obj
 0002:00009080       $unwind$?UnsubclassWindow@CWMHnd@@QEAAPEAUHWND__@@XZ 000000014002b080     ChildView.obj
 0002:00009080       $unwind$??0CAtlBaseModule@ATL@@QEAA@XZ 000000014002b080     atls:atlbase.obj
 0002:00009080       $unwind$?AtlWinModuleExtractCreateWndData@ATL@@YAPEAXPEAU_ATL_WIN_MODULE70@1@@Z 000000014002b080     ChildView.obj
 0002:00009080       $unwind$?PumpMessage@CWinApp@@UEAAHXZ 000000014002b080     FrmVC6.obj
 0002:00009080       $unwind$??_GCWindowDCMTL@@UEAAPEAXI@Z 000000014002b080     MainFrm.obj
 0002:00009080       $unwind$?OnSetMinHeight@CStatusBar@@QEAA_J_K_J@Z 000000014002b080     MainFrm.obj
 0002:00009080       $unwind$?AfxGetParentOwner@CWnd@@SAPEAUHWND__@@PEAU2@@Z 000000014002b080     MainFrm.obj
 0002:00009080       $unwind$?CopyBeforeWrite@CString@WTL@@IEAAXXZ 000000014002b080     MainFrm.obj
 0002:00009080       $unwind$_dosmaperr         000000014002b080     LIBCMT:dosmap.obj
 0002:00009080       $unwind$??_GCToolBar@@UEAAPEAXI@Z 000000014002b080     MainFrm.obj
 0002:00009080       $unwind$?GetSafeOwner_@CWnd@@SAPEAUHWND__@@PEAU2@PEAPEAU2@@Z 000000014002b080     FrmVC6.obj
 0002:00009080       $unwind$_RTC_Initialize    000000014002b080     LIBCMT:initsect.obj
 0002:00009080       $unwind$??_Gbad_alloc@std@@UEAAPEAXI@Z 000000014002b080     LIBCMT:new.obj
 0002:00009080       $unwind$?HookWindowCreate@CWnd@@SAHPEAV1@G@Z 000000014002b080     ChildView.obj
 0002:00009080       $unwind$?GetDockingFrame@CControlBar@@QEAAPEAVCFrameWnd@@XZ 000000014002b080     MainFrm.obj
 0002:00009080       $unwind$_fptostr           000000014002b080     LIBCMT:_fptostr.obj
 0002:00009080       $unwind$?RestoreDC@CDCMTL@@UEAAHH@Z 000000014002b080     ChildView.obj
 0002:00009080       $unwind$?__SetUnwindTryBlock@@YAXPEA_KPEAU_xDISPATCHER_CONTEXT@@PEBU_s_FuncInfo@@H@Z 000000014002b080     LIBCMT:ehstate.obj
 0002:00009080       $unwind$?SaveDC@CDCMTL@@UEAAHXZ 000000014002b080     ChildView.obj
 0002:00009080       $unwind$?Init@CDynamicStdCallThunk@ATL@@QEAAH_KPEAX@Z 000000014002b080     ChildView.obj
 0002:00009080       $unwind$?__AllocStdCallThunk@ATL@@YAPEAXXZ 000000014002b080     atls:atlthunk.obj
 0002:00009080       $unwind$??_GCControlBar@@UEAAPEAXI@Z 000000014002b080     MainFrm.obj
 0002:00009080       $unwind$?AfxIsDescendant@CFrameWnd@@SAHPEAUHWND__@@0@Z 000000014002b080     MainFrm.obj
 0002:00009080       $unwind$??_GCChildView@@UEAAPEAXI@Z 000000014002b080     ChildView.obj
 0002:00009080       $unwind$_lock              000000014002b080     LIBCMT:mlock.obj
 0002:00009080       $unwind$?PreTranslateMessage@CFrameWnd@@UEAAHPEAUtagMSG@@@Z 000000014002b080     MainFrm.obj
 0002:00009080       $unwind$?PreCreateWindow@CChildView@@MEAAHAEAUtagCREATESTRUCTA@@@Z 000000014002b080     ChildView.obj
 0002:00009080       $unwind$??_GCFrameWnd@@UEAAPEAXI@Z 000000014002b080     MainFrm.obj
 0002:00009080       $unwind$?PreCreateWindow@CControlBar@@UEAAHAEAUtagCREATESTRUCTA@@@Z 000000014002b080     MainFrm.obj
 0002:00009080       $unwind$?SetStatusText@CControlBar@@UEAAH_J@Z 000000014002b080     MainFrm.obj
 0002:00009080       $unwind$??_Gtype_info@@UEAAPEAXI@Z 000000014002b080     LIBCMT:typinfo.obj
 0002:00009080       $unwind$?SetRadio@CCmdUI@@UEAAXH@Z 000000014002b080     ChildView.obj
 0002:00009080       $unwind$??_GCPaintDCMTL@@UEAAPEAXI@Z 000000014002b080     ChildView.obj
 0002:00009080       $unwind$?SetCheck@CCmdUI@@UEAAXH@Z 000000014002b080     ChildView.obj
 0002:00009080       $unwind$??4exception@std@@QEAAAEAV01@AEBV01@@Z 000000014002b080     LIBCMT:stdexcpt.obj
 0002:00009080       $unwind$??_GCWnd@@UEAAPEAXI@Z 000000014002b080     ChildView.obj
 0002:00009080       $unwind$?RemoveFrameWnd@CFrameWnd@@QEAAXXZ 000000014002b080     MainFrm.obj
 0002:00009080       $unwind$_calloc_impl       000000014002b080     LIBCMT:calloc_impl.obj
 0002:00009080       $unwind$?OnSize@CFrameWnd@@QEAAXIHH@Z 000000014002b080     MainFrm.obj
 0002:00009080       $unwind$_RTC_Terminate     000000014002b080     LIBCMT:initsect.obj
 0002:00009080       $unwind$?CancelToolTips@CWnd@@QEAAXH@Z 000000014002b080     MainFrm.obj
 0002:00009080       $unwind$?PreTranslateMessage@CWnd@@UEAAHPEAUtagMSG@@@Z 000000014002b080     ChildView.obj
 0002:00009080       $unwind$_wincmdln          000000014002b080     LIBCMT:wincmdln.obj
 0002:00009080       $unwind$?PreCreateWindow@CWnd@@UEAAHAEAUtagCREATESTRUCTA@@@Z 000000014002b080     ChildView.obj
 0002:00009080       $unwind$_initterm_e        000000014002b080     LIBCMT:crt0dat.obj
 0002:00009080       $unwind$??_Gexception@std@@UEAAPEAXI@Z 000000014002b080     LIBCMT:stdexcpt.obj
 0002:00009080       $unwind$??_GCClientDCMTL@@UEAAPEAXI@Z 000000014002b080     MainFrm.obj
 0002:00009080       $unwind$?Create@CDialog@@UEAAHPEBDPEAVCWnd@@@Z 000000014002b080     FrmVC6.obj
 0002:00009080       $unwind$??_GCToolTipCtrlMTL@@UEAAPEAXI@Z 000000014002b080     MainFrm.obj
 0002:00009080       $unwind$_getptd_noexit     000000014002b080     LIBCMT:tidtable.obj
 0002:00009080       $unwind$_updatetlocinfoEx_nolock 000000014002b080     LIBCMT:localref.obj
 0002:00009080       $unwind$_fclose_nolock     000000014002b080     LIBCMT:fclose.obj
 0002:0000908c       $unwind$_cfltcvt_l         000000014002b08c     LIBCMT:cvt.obj
 0002:0000908c       $unwind$?DefWindowProcA@CWMHnd@@UEAA_JI_K_J@Z 000000014002b08c     ChildView.obj
 0002:0000908c       $unwind$?_ProcessWindowMessage@CChildView@@UEAAHPEAUHWND__@@I_K_JAEA_J@Z 000000014002b08c     ChildView.obj
 0002:0000908c       $unwind$_invalid_parameter_noinfo 000000014002b08c     LIBCMT:invarg.obj
 0002:0000908c       $unwind$?Create@CStatusBar@@UEAAHPEAVCWnd@@KI@Z 000000014002b08c     MainFrm.obj
 0002:00009094       $unwind$?OnPaint@CChildView@@IEAAXXZ 000000014002b094     ChildView.obj
 0002:000090a8       $stateUnwindMap$?OnPaint@CChildView@@IEAAXXZ 000000014002b0a8     ChildView.obj
 0002:000090b0       $ip2state$?OnPaint@CChildView@@IEAAXXZ 000000014002b0b0     ChildView.obj
 0002:000090c8       $unwind$??1CPaintDCMTL@@UEAA@XZ 000000014002b0c8     ChildView.obj
 0002:000090d8       $stateUnwindMap$??1CPaintDCMTL@@UEAA@XZ 000000014002b0d8     ChildView.obj
 0002:000090d8       $stateUnwindMap$??1CClientDCMTL@@UEAA@XZ 000000014002b0d8     MainFrm.obj
 0002:000090d8       $stateUnwindMap$??1CDCMTL@@UEAA@XZ 000000014002b0d8     ChildView.obj
 0002:000090d8       $stateUnwindMap$??1CWindowDCMTL@@UEAA@XZ 000000014002b0d8     MainFrm.obj
 0002:000090d8       $stateUnwindMap$??_GCDCMTL@@UEAAPEAXI@Z 000000014002b0d8     ChildView.obj
 0002:000090e0       $ip2state$??1CPaintDCMTL@@UEAA@XZ 000000014002b0e0     ChildView.obj
 0002:000090f8       $unwind$?AfxRegisterWndClass@CAfx@@SAPEBDIPEAUHICON__@@PEAUHBRUSH__@@0@Z 000000014002b0f8     ChildView.obj
 0002:00009114       $unwind$?WindowProc@CWnd@@UEAA_JI_K_J@Z 000000014002b114     ChildView.obj
 0002:00009128       $unwind$?_AfxTopChildWindowFromPoint@CWnd@@SAPEAUHWND__@@PEAU2@UtagPOINT@@@Z 000000014002b128     ChildView.obj
 0002:00009138       $unwind$?AssignCopy@CString@WTL@@IEAAXHPEBD@Z 000000014002b138     MainFrm.obj
 0002:00009138       $unwind$?OnToolHitTest@CWnd@@UEBA_JVCPoint@WTL@@PEAUtagTOOLINFOA@@@Z 000000014002b138     ChildView.obj
 0002:00009148       $chain$0$?OnToolHitTest@CWnd@@UEBA_JVCPoint@WTL@@PEAUtagTOOLINFOA@@@Z 000000014002b148     ChildView.obj
 0002:0000915c       $chain$1$?OnToolHitTest@CWnd@@UEBA_JVCPoint@WTL@@PEAUtagTOOLINFOA@@@Z 000000014002b15c     ChildView.obj
 0002:0000916c       $unwind$?GetDlgItem@CWnd@@QEAAPEAV1@H@Z 000000014002b16c     MainFrm.obj
 0002:0000916c       $unwind$?GetParent@CWnd@@QEAAPEAV1@XZ 000000014002b16c     ChildView.obj
 0002:0000916c       $unwind$?GetLastActivePopup@CWnd@@QEAAPEAV1@XZ 000000014002b16c     MainFrm.obj
 0002:0000916c       $unwind$?SetActiveWindow@CWnd@@QEAAPEAV1@XZ 000000014002b16c     MainFrm.obj
 0002:00009184       $chain$3$?GetParent@CWnd@@QEAAPEAV1@XZ 000000014002b184     ChildView.obj
 0002:00009198       $chain$4$?GetParent@CWnd@@QEAAPEAV1@XZ 000000014002b198     ChildView.obj
 0002:00009198       $chain$8$?GetParent@CWnd@@QEAAPEAV1@XZ 000000014002b198     ChildView.obj
 0002:000091a8       $chain$5$?GetParent@CWnd@@QEAAPEAV1@XZ 000000014002b1a8     ChildView.obj
 0002:000091bc       $chain$6$?GetParent@CWnd@@QEAAPEAV1@XZ 000000014002b1bc     ChildView.obj
 0002:000091d0       $chain$7$?GetParent@CWnd@@QEAAPEAV1@XZ 000000014002b1d0     ChildView.obj
 0002:000091e0       $unwind$?Enable@CCmdUI@@UEAAXH@Z 000000014002b1e0     ChildView.obj
 0002:000091ec       $chain$0$?Enable@CCmdUI@@UEAAXH@Z 000000014002b1ec     ChildView.obj
 0002:00009200       $chain$1$?Enable@CCmdUI@@UEAAXH@Z 000000014002b200     ChildView.obj
 0002:00009210       $unwind$?AfxSetWindowText@CAfx@@SAXPEAUHWND__@@PEBD@Z 000000014002b210     ChildView.obj
 0002:00009224       $unwind$?ReflectLastMsg@CWnd@@SAHPEAUHWND__@@PEA_J@Z 000000014002b224     ChildView.obj
 0002:00009224       $unwind$?_ProcessWindowMessage@CDialog@@UEAAHPEAUHWND__@@I_K_JAEA_J@Z 000000014002b224     FrmVC6.obj
 0002:00009224       $unwind$?OnNcCalcSize@CStatusBar@@QEAAXHPEAUtagNCCALCSIZE_PARAMS@@@Z 000000014002b224     MainFrm.obj
 0002:00009224       $unwind$?SetText@CCmdUI@@UEAAXPEBD@Z 000000014002b224     ChildView.obj
 0002:00009230       $unwind$?OnCommand@CWnd@@UEAAH_K_J@Z 000000014002b230     ChildView.obj
 0002:00009244       $unwind$??_GCDCMTL@@UEAAPEAXI@Z 000000014002b244     ChildView.obj
 0002:00009258       $ip2state$??_GCDCMTL@@UEAAPEAXI@Z 000000014002b258     ChildView.obj
 0002:00009270       $unwind$_flush             000000014002b270     LIBCMT:fflush.obj
 0002:00009270       $unwind$?ResetTimer@CControlBar@@QEAAX_KI@Z 000000014002b270     MainFrm.obj
 0002:00009270       $unwind$malloc             000000014002b270     LIBCMT:malloc.obj
 0002:00009270       $unwind$?AddFrameWnd@CFrameWnd@@QEAAXXZ 000000014002b270     MainFrm.obj
 0002:00009270       $unwind$??0CMainFrame@@QEAA@XZ 000000014002b270     MainFrm.obj
 0002:00009270       $unwind$?RemoveHandle@?$CHandleList@PEAUHMENU__@@VCMenuMTL@@PEAUHWND__@@@@QEAAPEAUHMENU__@@QEAU2@@Z 000000014002b270     ChildView.obj
 0002:00009270       $unwind$?AfxExtractSubString@CAfx@@SAHAEAVCString@WTL@@PEBDHD@Z 000000014002b270     MainFrm.obj
 0002:00009270       $unwind$?ActivateFrame@CFrameWnd@@UEAAXH@Z 000000014002b270     MainFrm.obj
 0002:00009270       $unwind$_mtinitlocks       000000014002b270     LIBCMT:mlock.obj
 0002:00009270       $unwind$?WalkPreTranslateTree@CWnd@@SAHPEAUHWND__@@PEAUtagMSG@@@Z 000000014002b270     FrmVC6.obj
 0002:00009270       $unwind$?OnBarCheck@CFrameWnd@@QEAAHI@Z 000000014002b270     MainFrm.obj
 0002:00009270       $unwind$memcpy_s           000000014002b270     LIBCMT:memcpy_s.obj
 0002:00009270       $unwind$_lseeki64_nolock   000000014002b270     LIBCMT:lseeki64.obj
 0002:00009270       $unwind$?RemoveHandle@?$CHandleHashList@PEAUHWND__@@VCWMHnd@@PEAU1@$0BB@@@QEAAPEAUHWND__@@QEAU2@@Z 000000014002b270     ChildView.obj
 0002:00009270       $unwind$?OnCreateHelper@CFrameWnd@@QEAAHPEAUtagCREATESTRUCTA@@PEAUCCreateContext@@@Z 000000014002b270     MainFrm.obj
 0002:00009270       $unwind$?RemoveHandle@?$CHandleList@PEAUHDC__@@VCDCMTL@@PEAUHWND__@@@@QEAAPEAUHDC__@@QEAU2@@Z 000000014002b270     ChildView.obj
 0002:00009270       $unwind$?LoadBitmapA@CToolBar@@QEAAHPEBD@Z 000000014002b270     MainFrm.obj
 0002:00009270       $unwind$realloc            000000014002b270     LIBCMT:realloc.obj
 0002:00009280       $unwind$??1CDCMTL@@UEAA@XZ 000000014002b280     ChildView.obj
 0002:00009290       $ip2state$??1CDCMTL@@UEAA@XZ 000000014002b290     ChildView.obj
 0002:000092a8       $unwind$??1CWnd@@UEAA@XZ   000000014002b2a8     ChildView.obj
 0002:000092b8       $stateUnwindMap$??1CWnd@@UEAA@XZ 000000014002b2b8     ChildView.obj
 0002:000092b8       $stateUnwindMap$??_GCWMHnd@@UEAAPEAXI@Z 000000014002b2b8     ChildView.obj
 0002:000092c0       $ip2state$??1CWnd@@UEAA@XZ 000000014002b2c0     ChildView.obj
 0002:000092d8       $unwind$__crtCorExitProcess 000000014002b2d8     LIBCMT:crt0dat.obj
 0002:000092d8       $unwind$?DestroyWindow@CControlBar@@UEAAHXZ 000000014002b2d8     MainFrm.obj
 0002:000092d8       $unwind$__raise_securityfailure 000000014002b2d8     LIBCMT:gs_report.obj
 0002:000092d8       $unwind$??0_AUX_DATA@@QEAA@XZ 000000014002b2d8     MainFrm.obj
 0002:000092d8       $unwind$?OnInitDialog@CWMHnd@@UEAAHXZ 000000014002b2d8     ChildView.obj
 0002:000092d8       $unwind$??0CToolBar@@QEAA@XZ 000000014002b2d8     MainFrm.obj
 0002:000092d8       $unwind$??1CAtlBaseModule@ATL@@QEAA@XZ 000000014002b2d8     atls:atlbase.obj
 0002:000092d8       $unwind$?OnDestroy@CFrameWnd@@QEAAXXZ 000000014002b2d8     MainFrm.obj
 0002:000092d8       $unwind$?RemovePlaceHolder@CDockBar@@QEAAXPEAVCControlBar@@@Z 000000014002b2d8     MainFrm.obj
 0002:000092d8       $unwind$?CalcFixedLayout@CToolBar@@UEAA?AVCSize@WTL@@HH@Z 000000014002b2d8     MainFrm.obj
 0002:000092d8       $unwind$?OnPaint@CToolBar@@QEAAXXZ 000000014002b2d8     MainFrm.obj
 0002:000092d8       $unwind$?Empty@CString@WTL@@QEAAXXZ 000000014002b2d8     MainFrm.obj
 0002:000092d8       $unwind$??1?$CArray@HAEBH@@QEAA@XZ 000000014002b2d8     MainFrm.obj
 0002:000092d8       $unwind$_lock_file2        000000014002b2d8     LIBCMT:_file.obj
 0002:000092d8       $unwind$_cinit             000000014002b2d8     LIBCMT:crt0dat.obj
 0002:000092d8       $unwind$?classHandleFuncCMenuMTL@CMenuMTL@@SAPEAXPEAX0@Z 000000014002b2d8     ChildView.obj
 0002:000092d8       $unwind$_fflush_nolock     000000014002b2d8     LIBCMT:fflush.obj
 0002:000092d8       $unwind$?classHandleFuncCWnd@CWnd@@SAPEAXPEAX0@Z 000000014002b2d8     ChildView.obj
 0002:000092d8       $unwind$_lock_file         000000014002b2d8     LIBCMT:_file.obj
 0002:000092d8       $unwind$?RemoveAt@?$CArray@PEAXAEBQEAX@@QEAAX_J0@Z 000000014002b2d8     MainFrm.obj
 0002:000092d8       $unwind$_freebuf           000000014002b2d8     LIBCMT:_freebuf.obj
 0002:000092d8       $unwind$??0bad_exception@std@@QEAA@AEBV01@@Z 000000014002b2d8     LIBCMT:frame.obj
 0002:000092d8       $unwind$_IsExceptionObjectToBeDestroyed 000000014002b2d8     LIBCMT:trnsctrl.obj
 0002:000092d8       $unwind$fast_error_exit    000000014002b2d8     LIBCMT:wincrt0.obj
 0002:000092d8       $unwind$__GSHandlerCheckCommon 000000014002b2d8     LIBCMT:gshandler.obj
 0002:000092d8       $unwind$?CalcDynamicLayout@CToolBar@@UEAA?AVCSize@WTL@@HK@Z 000000014002b2d8     MainFrm.obj
 0002:000092d8       $unwind$?PreCreateWindow@CFrameWnd@@UEAAHAEAUtagCREATESTRUCTA@@@Z 000000014002b2d8     MainFrm.obj
 0002:000092d8       $unwind$?_ProcessWindowMessage@CWinApp@@UEAAHPEAUHWND__@@I_K_JAEA_J@Z 000000014002b2d8     FrmVC6.obj
 0002:000092d8       $unwind$__crtExitProcess   000000014002b2d8     LIBCMT:crt0dat.obj
 0002:000092d8       $unwind$wcscpy_s           000000014002b2d8     LIBCMT:wcscpy_s.obj
 0002:000092d8       $unwind$wcsncpy_s          000000014002b2d8     LIBCMT:wcsncpy_s.obj
 0002:000092d8       $unwind$_SetImageBase      000000014002b2d8     LIBCMT:trnsctrl.obj
 0002:000092d8       $unwind$?RemoveControlBar@CFrameWnd@@QEAAXPEAVCControlBar@@@Z 000000014002b2d8     MainFrm.obj
 0002:000092d8       $unwind$?classHandleFuncCDialog@CDialog@@SAPEAXPEAX0@Z 000000014002b2d8     FrmVC6.obj
 0002:000092d8       $unwind$_amsg_exit         000000014002b2d8     LIBCMT:crt0dat.obj
 0002:000092d8       $unwind$_SetThrowImageBase 000000014002b2d8     LIBCMT:trnsctrl.obj
 0002:000092d8       $unwind$__crtLoadWinApiPointers 000000014002b2d8     LIBCMT:winapisupp.obj
 0002:000092d8       $unwind$?_ProcessWindowMessage@CFrmVC6App@@UEAAHPEAUHWND__@@I_K_JAEA_J@Z 000000014002b2d8     FrmVC6.obj
 0002:000092d8       $unwind$__crtTerminateProcess 000000014002b2d8     LIBCMT:winapisupp.obj
 0002:000092d8       $unwind$__crtUnhandledException 000000014002b2d8     LIBCMT:winapisupp.obj
 0002:000092d8       $unwind$?__GetUnwindTryBlock@@YAHPEA_KPEAU_xDISPATCHER_CONTEXT@@PEBU_s_FuncInfo@@@Z 000000014002b2d8     LIBCMT:ehstate.obj
 0002:000092d8       $unwind$??0CAtlWinModule@ATL@@QEAA@XZ 000000014002b2d8     ChildView.obj
 0002:000092d8       $unwind$??1?$CMenuT@$00@WTL@@QEAA@XZ 000000014002b2d8     ChildView.obj
 0002:000092d8       $unwind$__crtIsPackagedApp 000000014002b2d8     LIBCMT:winapisupp.obj
 0002:000092d8       $unwind$?OnDestroy@CControlBar@@QEAAXXZ 000000014002b2d8     MainFrm.obj
 0002:000092d8       $unwind$?classHandleFuncCWMHnd@CWMHnd@@SAPEAXPEAX0@Z 000000014002b2d8     ChildView.obj
 0002:000092d8       $unwind$?PreCreateWindow@CMainFrame@@UEAAHAEAUtagCREATESTRUCTA@@@Z 000000014002b2d8     MainFrm.obj
 0002:000092d8       $unwind$_callnewh          000000014002b2d8     LIBCMT:handler.obj
 0002:000092d8       $unwind$_init_pointers     000000014002b2d8     LIBCMT:crt0dat.obj
 0002:000092d8       $unwind$_getptd            000000014002b2d8     LIBCMT:tidtable.obj
 0002:000092d8       $unwind$??0exception@std@@QEAA@AEBQEBD@Z 000000014002b2d8     LIBCMT:stdexcpt.obj
 0002:000092d8       $unwind$?SetMenuBarState@CFrameWnd@@QEAAHK@Z 000000014002b2d8     MainFrm.obj
 0002:000092d8       $unwind$??0exception@std@@QEAA@AEBV01@@Z 000000014002b2d8     LIBCMT:stdexcpt.obj
 0002:000092d8       $unwind$__onexitinit       000000014002b2d8     LIBCMT:onexit.obj
 0002:000092d8       $unwind$??0bad_alloc@std@@QEAA@AEBV01@@Z 000000014002b2d8     LIBCMT:new.obj
 0002:000092d8       $unwind$_mtinit            000000014002b2d8     LIBCMT:tidtable.obj
 0002:000092d8       $unwind$?_Tidy@exception@std@@AEAAXXZ 000000014002b2d8     LIBCMT:stdexcpt.obj
 0002:000092d8       $unwind$WinMain            000000014002b2d8     StdAfx.obj
 0002:000092d8       $unwind$?OnCancel@CDialog@@UEAAXXZ 000000014002b2d8     FrmVC6.obj
 0002:000092d8       $unwind$?OnUpdateFrameTitle@CFrameWnd@@UEAAXH@Z 000000014002b2d8     MainFrm.obj
 0002:000092d8       $unwind$??0_LocaleUpdate@@QEAA@PEAUlocaleinfo_struct@@@Z 000000014002b2d8     LIBCMT:mbschr.obj
 0002:000092d8       $unwind$?CalcDynamicLayout@CControlBar@@UEAA?AVCSize@WTL@@HK@Z 000000014002b2d8     MainFrm.obj
 0002:000092d8       $unwind$?OnIdleUpdateCmdUI@CFrameWnd@@QEAAXXZ 000000014002b2d8     MainFrm.obj
 0002:000092d8       $unwind$strcpy_s           000000014002b2d8     LIBCMT:strcpy_s.obj
 0002:000092d8       $unwind$wcscat_s           000000014002b2d8     LIBCMT:wcscat_s.obj
 0002:000092d8       $unwind$_CreateFrameInfo   000000014002b2d8     LIBCMT:trnsctrl.obj
 0002:000092e0       $unwind$?OnNcDestroy@CWnd@@QEAAXXZ 000000014002b2e0     ChildView.obj
 0002:000092e0       $unwind$?Create@CDockBar@@QEAAHPEAVCWnd@@KI@Z 000000014002b2e0     MainFrm.obj
 0002:000092e0       $unwind$__crtLCMapStringA  000000014002b2e0     LIBCMT:a_map.obj
 0002:000092f0       $unwind$?_ProcessWindowMessage@CWnd@@UEAAHPEAUHWND__@@I_K_JAEA_J@Z 000000014002b2f0     ChildView.obj
 0002:00009314       $stateUnwindMap$?_ProcessWindowMessage@CWnd@@UEAAHPEAUHWND__@@I_K_JAEA_J@Z 000000014002b314     ChildView.obj
 0002:00009328       $ip2state$?_ProcessWindowMessage@CWnd@@UEAAHPEAUHWND__@@I_K_JAEA_J@Z 000000014002b328     ChildView.obj
 0002:00009348       $unwind$?GetParentOwner@CWnd@@QEAAPEAV1@XZ 000000014002b348     MainFrm.obj
 0002:00009348       $unwind$_fassign_l         000000014002b348     LIBCMT:cvt.obj
 0002:00009348       $unwind$?GetTopLevelParent@CWnd@@QEAAPEAV1@XZ 000000014002b348     MainFrm.obj
 0002:00009348       $unwind$?OnWndMsg@CWnd@@UEAAHI_K_JPEA_J@Z 000000014002b348     ChildView.obj
 0002:00009348       $unwind$?GetOwner@CWnd@@QEAAPEAV1@XZ 000000014002b348     MainFrm.obj
 0002:00009348       $unwind$?GetMenu@CWMHnd@@UEBAPEAVCMenuMTL@@XZ 000000014002b348     ChildView.obj
 0002:00009350       $unwind$?ReflectChildNotify@CWnd@@QEAAHI_K_JPEA_J@Z 000000014002b350     ChildView.obj
 0002:00009358       $chain$0$?ReflectChildNotify@CWnd@@QEAAHI_K_JPEA_J@Z 000000014002b358     ChildView.obj
 0002:0000936c       $chain$1$?ReflectChildNotify@CWnd@@QEAAHI_K_JPEA_J@Z 000000014002b36c     ChildView.obj
 0002:0000937c       $unwind$?OnNotify@CWnd@@UEAAH_K_JPEA_J@Z 000000014002b37c     ChildView.obj
 0002:00009394       $unwind$?Create@CWnd@@UEAAHPEBD0KAEBUtagRECT@@PEAV1@IPEAUCCreateContext@@@Z 000000014002b394     ChildView.obj
 0002:000093ac       $unwind$?AtlWinModuleTerm@ATL@@YAJPEAU_ATL_WIN_MODULE70@1@PEAUHINSTANCE__@@@Z 000000014002b3ac     ChildView.obj
 0002:000093ac       $unwind$?GetControlBar@CFrameWnd@@QEAAPEAVCControlBar@@I@Z 000000014002b3ac     MainFrm.obj
 0002:000093b4       $chain$2$?AtlWinModuleTerm@ATL@@YAJPEAU_ATL_WIN_MODULE70@1@PEAUHINSTANCE__@@@Z 000000014002b3b4     ChildView.obj
 0002:000093d0       $chain$3$?AtlWinModuleTerm@ATL@@YAJPEAU_ATL_WIN_MODULE70@1@PEAUHINSTANCE__@@@Z 000000014002b3d0     ChildView.obj
 0002:000093e0       $chain$4$?AtlWinModuleTerm@ATL@@YAJPEAU_ATL_WIN_MODULE70@1@PEAUHINSTANCE__@@@Z 000000014002b3e0     ChildView.obj
 0002:000093fc       $unwind$__FrameUnwindFilter 000000014002b3fc     LIBCMT:frame.obj
 0002:000093fc       $unwind$_msize             000000014002b3fc     LIBCMT:msize.obj
 0002:000093fc       $unwind$_heap_init         000000014002b3fc     LIBCMT:heapinit.obj
 0002:000093fc       $unwind$??1?$CList@PEAVCFrameWnd@@AEBQEAV1@@@QEAA@XZ 000000014002b3fc     FrmVC6.obj
 0002:000093fc       $unwind$?CreateObject@CWnd@@SAPEAVCObject@@XZ 000000014002b3fc     StdAfx.obj
 0002:000093fc       $unwind$WinMainCRTStartup  000000014002b3fc     LIBCMT:wincrt0.obj
 0002:000093fc       $unwind$_initp_eh_hooks    000000014002b3fc     LIBCMT:hooks.obj
 0002:000093fc       $unwind$?AfxGetModuleState@@YAPEAVCModuleState@@XZ 000000014002b3fc     ChildView.obj
 0002:000093fc       $unwind$_FF_MSGBANNER      000000014002b3fc     LIBCMT:crt0msg.obj
 0002:000093fc       $unwind$?memcpy_x@SecureHelper@WTL@@YAXPEAX_KPEBX1@Z 000000014002b3fc     ChildView.obj
 0002:000093fc       $unwind$__endstdio         000000014002b3fc     LIBCMT:_file.obj
 0002:000093fc       $unwind$_isatty            000000014002b3fc     LIBCMT:isatty.obj
 0002:000093fc       $unwind$??1?$CList@PEAUHWND__@@PEAU1@@@QEAA@XZ 000000014002b3fc     MainFrm.obj
 0002:000093fc       $unwind$_set_error_mode    000000014002b3fc     LIBCMT:errmode.obj
 0002:000093fc       $unwind$??__E_AtlBaseModule@ATL@@YAXXZ 000000014002b3fc     atls:atlbase.obj
 0002:000093fc       $unwind$_GetImageBase      000000014002b3fc     LIBCMT:trnsctrl.obj
 0002:000093fc       $unwind$_GetThrowImageBase 000000014002b3fc     LIBCMT:trnsctrl.obj
 0002:000093fc       $unwind$?IsVisible@CControlBar@@UEBAHXZ 000000014002b3fc     MainFrm.obj
 0002:000093fc       $unwind$?__GetCurrentState@@YAHPEA_KPEAU_xDISPATCHER_CONTEXT@@PEBU_s_FuncInfo@@@Z 000000014002b3fc     LIBCMT:ehstate.obj
 0002:000093fc       $unwind$?AfxDlgProc@CWnd@@SA_JPEAUHWND__@@I_K_J@Z 000000014002b3fc     FrmVC6.obj
 0002:000093fc       $unwind$_fileno            000000014002b3fc     LIBCMT:fileno.obj
 0002:000093fc       $unwind$?GetParentFrame@CWnd@@QEAAPEAVCFrameWnd@@XZ 000000014002b3fc     MainFrm.obj
 0002:000093fc       $unwind$?__CxxUnhandledExceptionFilter@@YAJPEAU_EXCEPTION_POINTERS@@@Z 000000014002b3fc     LIBCMT:unhandld.obj
 0002:000093fc       $unwind$abort              000000014002b3fc     LIBCMT:abort.obj
 0002:000093fc       $unwind$__CxxSetUnhandledExceptionFilter 000000014002b3fc     LIBCMT:unhandld.obj
 0002:000093fc       $unwind$?OnCreateClient@CFrameWnd@@UEAAHPEAUtagCREATESTRUCTA@@PEAUCCreateContext@@@Z 000000014002b3fc     MainFrm.obj
 0002:000093fc       $unwind$_invoke_watson     000000014002b3fc     LIBCMT:invarg.obj
 0002:000093fc       $unwind$__GSHandlerCheck   000000014002b3fc     LIBCMT:gshandler.obj
 0002:000093fc       $unwind$?AtlThrowImpl@ATL@@YAXJ@Z 000000014002b3fc     ChildView.obj
 0002:000093fc       $unwind$??__EtheApp@@YAXXZ 000000014002b3fc     FrmVC6.obj
 0002:000093fc       $unwind$__crtInitializeCriticalSectionEx 000000014002b3fc     LIBCMT:winapisupp.obj
 0002:000093fc       $unwind$??8type_info@@QEBA_NAEBV0@@Z 000000014002b3fc     LIBCMT:typinfo.obj
 0002:000093fc       $unwind$??__F_AtlWinModule@ATL@@YAXXZ 000000014002b3fc     ChildView.obj
 0002:000093fc       $unwind$??1?$CList@PEAXPEAX@@QEAA@XZ 000000014002b3fc     MainFrm.obj
 0002:000093fc       $unwind$??__E_AtlWinModule@ATL@@YAXXZ 000000014002b3fc     ChildView.obj
 0002:000093fc       $unwind$??1?$CList@PEAUCRuntimeClass@@AEBQEAU1@@@QEAA@XZ 000000014002b3fc     ChildView.obj
 0002:000093fc       $unwind$__crtDownlevelLocaleNameToLCID 000000014002b3fc     LIBCMT:winapinls.obj
 0002:000093fc       $unwind$__termconout       000000014002b3fc     LIBCMT:initcon.obj
 0002:000093fc       $unwind$_purecall          000000014002b3fc     LIBCMT:purevirt.obj
 0002:000093fc       $unwind$_mtterm            000000014002b3fc     LIBCMT:tidtable.obj
 0002:000093fc       $unwind$_errno             000000014002b3fc     LIBCMT:dosmap.obj
 0002:000093fc       $unwind$atexit             000000014002b3fc     LIBCMT:onexit.obj
 0002:000093fc       $unwind$__initmbctable     000000014002b3fc     LIBCMT:mbctype.obj
 0002:000093fc       $unwind$__doserrno         000000014002b3fc     LIBCMT:dosmap.obj
 0002:000093fc       $unwind$_get_osfhandle     000000014002b3fc     LIBCMT:osfinfo.obj
 0002:00009404       $unwind$?AfxWindowProc@CWMHnd@@SA_JPEAUHWND__@@I_K_J@Z 000000014002b404     ChildView.obj
 0002:0000940c       $unwind$?FromHandle@?$CHandleHashList@PEAUHWND__@@VCWMHnd@@PEAU1@$0BB@@@QEAAPEAVCWMHnd@@QEAUHWND__@@PEAV2@0Q6APEAXPEAX2@Z@Z 000000014002b40c     ChildView.obj
 0002:0000941c       $chain$1$?FromHandle@?$CHandleHashList@PEAUHWND__@@VCWMHnd@@PEAU1@$0BB@@@QEAAPEAVCWMHnd@@QEAUHWND__@@PEAV2@0Q6APEAXPEAX2@Z@Z 000000014002b41c     ChildView.obj
 0002:00009434       $chain$2$?FromHandle@?$CHandleHashList@PEAUHWND__@@VCWMHnd@@PEAU1@$0BB@@@QEAAPEAVCWMHnd@@QEAUHWND__@@PEAV2@0Q6APEAXPEAX2@Z@Z 000000014002b434     ChildView.obj
 0002:00009444       $chain$3$?FromHandle@?$CHandleHashList@PEAUHWND__@@VCWMHnd@@PEAU1@$0BB@@@QEAAPEAVCWMHnd@@QEAUHWND__@@PEAV2@0Q6APEAXPEAX2@Z@Z 000000014002b444     ChildView.obj
 0002:0000945c       $chain$4$?FromHandle@?$CHandleHashList@PEAUHWND__@@VCWMHnd@@PEAU1@$0BB@@@QEAAPEAVCWMHnd@@QEAUHWND__@@PEAV2@0Q6APEAXPEAX2@Z@Z 000000014002b45c     ChildView.obj
 0002:00009470       $chain$5$?FromHandle@?$CHandleHashList@PEAUHWND__@@VCWMHnd@@PEAU1@$0BB@@@QEAAPEAVCWMHnd@@QEAUHWND__@@PEAV2@0Q6APEAXPEAX2@Z@Z 000000014002b470     ChildView.obj
 0002:00009480       $unwind$?OnCmdMsg@CCmdTarget@@UEAAHIHPEAXPEAUAFX_CMDHANDLERINFO@@@Z 000000014002b480     ChildView.obj
 0002:0000948c       $chain$0$?OnCmdMsg@CCmdTarget@@UEAAHIHPEAXPEAUAFX_CMDHANDLERINFO@@@Z 000000014002b48c     ChildView.obj
 0002:000094a0       $chain$1$?OnCmdMsg@CCmdTarget@@UEAAHIHPEAXPEAUAFX_CMDHANDLERINFO@@@Z 000000014002b4a0     ChildView.obj
 0002:000094b0       $unwind$??_GCWMHnd@@UEAAPEAXI@Z 000000014002b4b0     ChildView.obj
 0002:000094c8       $ip2state$??_GCWMHnd@@UEAAPEAXI@Z 000000014002b4c8     ChildView.obj
 0002:000094e0       $unwind$?GetBuffer@CString@WTL@@QEAAPEADH@Z 000000014002b4e0     MainFrm.obj
 0002:000094e0       $unwind$__freetlocinfo     000000014002b4e0     LIBCMT:localref.obj
 0002:000094e0       $unwind$?SetCheck@CStatusCmdUI@@UEAAXH@Z 000000014002b4e0     MainFrm.obj
 0002:000094e0       $unwind$?Enable@CStatusCmdUI@@UEAAXH@Z 000000014002b4e0     MainFrm.obj
 0002:000094e0       $unwind$?CbtFilterHook@CWnd@@SA_JH_K_J@Z 000000014002b4e0     ChildView.obj
 0002:000094e0       $unwind$?__StateFromIp@@YAHPEBU_s_FuncInfo@@PEAU_xDISPATCHER_CONTEXT@@_J@Z 000000014002b4e0     LIBCMT:ehstate.obj
 0002:000094e0       $unwind$?CalcWindowRect@CWMHnd@@UEAAXPEAUtagRECT@@I@Z 000000014002b4e0     ChildView.obj
 0002:000094e0       $unwind$_XcptFilter        000000014002b4e0     LIBCMT:winxfltr.obj
 0002:000094e0       $unwind$_initterm          000000014002b4e0     LIBCMT:crt0dat.obj
 0002:000094e0       $unwind$?CreateIndirect@CDialog@@UEAAHPEAXPEAVCWnd@@PEAUHINSTANCE__@@@Z 000000014002b4e0     FrmVC6.obj
 0002:000094e0       $unwind$_mtdeletelocks     000000014002b4e0     LIBCMT:mlock.obj
 0002:000094e0       $unwind$?ExecuteDlgInit@CWnd@@QEAAHPEBD@Z 000000014002b4e0     FrmVC6.obj
 0002:000094e0       $unwind$?setSBCS@@YAXPEAUthreadmbcinfostruct@@@Z 000000014002b4e0     LIBCMT:mbctype.obj
 0002:000094f4       $unwind$?RemoveOwner@?$CHandleList@PEAXVCGdiObject@@PEAUHWND__@@@@QEAAHQEAUHWND__@@@Z 000000014002b4f4     ChildView.obj
 0002:000094f4       $unwind$?RemoveOwner@?$CHandleList@PEAXXPEAUHWND__@@@@QEAAHQEAUHWND__@@@Z 000000014002b4f4     ChildView.obj
 0002:000094f4       $unwind$?RemoveOwner@?$CHandleList@PEAUHMENU__@@VCMenuMTL@@PEAUHWND__@@@@QEAAHQEAUHWND__@@@Z 000000014002b4f4     ChildView.obj
 0002:000094f4       $unwind$?RemoveOwner@?$CHandleList@PEAUHDC__@@VCDCMTL@@PEAUHWND__@@@@QEAAHQEAUHWND__@@@Z 000000014002b4f4     ChildView.obj
 0002:000094f4       $unwind$?FromHandle@?$CHandleList@PEAUHMENU__@@VCMenuMTL@@PEAUHWND__@@@@QEAAPEAVCMenuMTL@@QEAUHMENU__@@PEAV2@QEAUHWND__@@Q6APEAXPEAX3@Z@Z 000000014002b4f4     ChildView.obj
 0002:00009504       $chain$1$?FromHandle@?$CHandleList@PEAUHMENU__@@VCMenuMTL@@PEAUHWND__@@@@QEAAPEAVCMenuMTL@@QEAUHMENU__@@PEAV2@QEAUHWND__@@Q6APEAXPEAX3@Z@Z 000000014002b504     ChildView.obj
 0002:0000951c       $chain$2$?FromHandle@?$CHandleList@PEAUHMENU__@@VCMenuMTL@@PEAUHWND__@@@@QEAAPEAVCMenuMTL@@QEAUHMENU__@@PEAV2@QEAUHWND__@@Q6APEAXPEAX3@Z@Z 000000014002b51c     ChildView.obj
 0002:0000952c       $chain$3$?FromHandle@?$CHandleList@PEAUHMENU__@@VCMenuMTL@@PEAUHWND__@@@@QEAAPEAVCMenuMTL@@QEAUHMENU__@@PEAV2@QEAUHWND__@@Q6APEAXPEAX3@Z@Z 000000014002b52c     ChildView.obj
 0002:00009544       $unwind$??_GCMenuMTL@@UEAAPEAXI@Z 000000014002b544     ChildView.obj
 0002:00009558       $stateUnwindMap$??1CMenuMTL@@UEAA@XZ 000000014002b558     ChildView.obj
 0002:00009558       $stateUnwindMap$??_GCMenuMTL@@UEAAPEAXI@Z 000000014002b558     ChildView.obj
 0002:00009560       $ip2state$??_GCMenuMTL@@UEAAPEAXI@Z 000000014002b560     ChildView.obj
 0002:00009578       $unwind$??1CMenuMTL@@UEAA@XZ 000000014002b578     ChildView.obj
 0002:00009588       $ip2state$??1CMenuMTL@@UEAA@XZ 000000014002b588     ChildView.obj
 0002:000095a0       $unwind$?RemoveOwner@?$CHandleHashList@PEAUHWND__@@VCWMHnd@@PEAU1@$0BB@@@QEAAHQEAUHWND__@@@Z 000000014002b5a0     ChildView.obj
 0002:000095bc       $chain$1$?RemoveOwner@?$CHandleList@PEAUHDC__@@VCDCMTL@@PEAUHWND__@@@@QEAAHQEAUHWND__@@@Z 000000014002b5bc     ChildView.obj
 0002:000095bc       $chain$1$?RemoveOwner@?$CHandleList@PEAXXPEAUHWND__@@@@QEAAHQEAUHWND__@@@Z 000000014002b5bc     ChildView.obj
 0002:000095bc       $chain$1$?RemoveOwner@?$CHandleList@PEAXVCGdiObject@@PEAUHWND__@@@@QEAAHQEAUHWND__@@@Z 000000014002b5bc     ChildView.obj
 0002:000095bc       $chain$1$?RemoveOwner@?$CHandleList@PEAUHMENU__@@VCMenuMTL@@PEAUHWND__@@@@QEAAHQEAUHWND__@@@Z 000000014002b5bc     ChildView.obj
 0002:000095d4       $chain$2$?RemoveOwner@?$CHandleList@PEAXVCGdiObject@@PEAUHWND__@@@@QEAAHQEAUHWND__@@@Z 000000014002b5d4     ChildView.obj
 0002:000095d4       $chain$2$?RemoveOwner@?$CHandleList@PEAUHDC__@@VCDCMTL@@PEAUHWND__@@@@QEAAHQEAUHWND__@@@Z 000000014002b5d4     ChildView.obj
 0002:000095d4       $chain$2$?RemoveOwner@?$CHandleList@PEAXXPEAUHWND__@@@@QEAAHQEAUHWND__@@@Z 000000014002b5d4     ChildView.obj
 0002:000095d4       $chain$2$?RemoveOwner@?$CHandleList@PEAUHMENU__@@VCMenuMTL@@PEAUHWND__@@@@QEAAHQEAUHWND__@@@Z 000000014002b5d4     ChildView.obj
 0002:000095e4       $unwind$?RemoveHandleWnd@CModuleThreadState@@QEAAPEAUHWND__@@PEAU2@@Z 000000014002b5e4     ChildView.obj
 0002:000095f4       $unwind$?SubclassWindow@CWMHnd@@QEAAHPEAUHWND__@@PEAUtagCREATESTRUCTA@@@Z 000000014002b5f4     ChildView.obj
 0002:00009604       $chain$0$?SubclassWindow@CWMHnd@@QEAAHPEAUHWND__@@PEAUtagCREATESTRUCTA@@@Z 000000014002b604     ChildView.obj
 0002:00009618       $chain$1$?SubclassWindow@CWMHnd@@QEAAHPEAUHWND__@@PEAUtagCREATESTRUCTA@@@Z 000000014002b618     ChildView.obj
 0002:00009628       $unwind$?CreateEx@CWnd@@UEAAHKPEBD0KHHHHPEAUHWND__@@PEAUHMENU__@@PEAX@Z 000000014002b628     ChildView.obj
 0002:0000963c       $chain$1$?CreateEx@CWnd@@UEAAHKPEBD0KHHHHPEAUHWND__@@PEAUHMENU__@@PEAX@Z 000000014002b63c     ChildView.obj
 0002:00009650       $chain$2$?CreateEx@CWnd@@UEAAHKPEBD0KHHHHPEAUHWND__@@PEAUHMENU__@@PEAX@Z 000000014002b650     ChildView.obj
 0002:00009660       $chain$0$??1?$CList@PEAVCFrameWnd@@AEBQEAV1@@@QEAA@XZ 000000014002b660     FrmVC6.obj
 0002:00009660       $chain$0$??1?$CList@PEAUHWND__@@PEAU1@@@QEAA@XZ 000000014002b660     MainFrm.obj
 0002:00009660       $chain$0$??1?$CList@PEAUCRuntimeClass@@AEBQEAU1@@@QEAA@XZ 000000014002b660     ChildView.obj
 0002:00009660       $chain$0$??1?$CList@PEAXPEAX@@QEAA@XZ 000000014002b660     MainFrm.obj
 0002:00009674       $chain$1$??1?$CList@PEAUCRuntimeClass@@AEBQEAU1@@@QEAA@XZ 000000014002b674     ChildView.obj
 0002:00009674       $chain$1$??1?$CList@PEAXPEAX@@QEAA@XZ 000000014002b674     MainFrm.obj
 0002:00009674       $chain$1$??1?$CList@PEAVCFrameWnd@@AEBQEAV1@@@QEAA@XZ 000000014002b674     FrmVC6.obj
 0002:00009674       $chain$1$??1?$CList@PEAUHWND__@@PEAU1@@@QEAA@XZ 000000014002b674     MainFrm.obj
 0002:00009684       $unwind$??1CModuleState@@QEAA@XZ 000000014002b684     ChildView.obj
 0002:00009694       $stateUnwindMap$??1CModuleState@@QEAA@XZ 000000014002b694     ChildView.obj
 0002:000096a0       $ip2state$??1CModuleState@@QEAA@XZ 000000014002b6a0     ChildView.obj
 0002:000096b8       $unwind$?AllocBuffer@CString@WTL@@IEAAHH@Z 000000014002b6b8     ChildView.obj
 0002:000096cc       $stateUnwindMap$?AllocBuffer@CString@WTL@@IEAAHH@Z 000000014002b6cc     ChildView.obj
 0002:000096dc       $tryMap$?AllocBuffer@CString@WTL@@IEAAHH@Z 000000014002b6dc     ChildView.obj
 0002:000096f0       $handlerMap$0$?AllocBuffer@CString@WTL@@IEAAHH@Z 000000014002b6f0     ChildView.obj
 0002:00009708       $ip2state$?AllocBuffer@CString@WTL@@IEAAHH@Z 000000014002b708     ChildView.obj
 0002:00009728       $unwind$?catch$0@?0??AllocBuffer@CString@WTL@@IEAAHH@Z@4HA 000000014002b728     ChildView.obj
 0002:00009738       $unwind$?ConcatCopy@CString@WTL@@IEAAHHPEBDH0@Z 000000014002b738     ChildView.obj
 0002:0000974c       $chain$0$?ConcatCopy@CString@WTL@@IEAAHHPEBDH0@Z 000000014002b74c     ChildView.obj
 0002:00009760       $chain$1$?ConcatCopy@CString@WTL@@IEAAHHPEBDH0@Z 000000014002b760     ChildView.obj
 0002:00009774       $chain$2$?ConcatCopy@CString@WTL@@IEAAHHPEBDH0@Z 000000014002b774     ChildView.obj
 0002:00009784       $chain$3$?ConcatCopy@CString@WTL@@IEAAHHPEBDH0@Z 000000014002b784     ChildView.obj
 0002:00009794       $unwind$_strdup            000000014002b794     LIBCMT:strdup.obj
 0002:00009794       $unwind$?ConcatInPlace@CString@WTL@@IEAAXHPEBD@Z 000000014002b794     ChildView.obj
 0002:000097a4       $unwind$?AfxEndDeferRegisterClass@CAfx@@SAHJ@Z 000000014002b7a4     ChildView.obj
 0002:000097b4       $chain$2$?AfxEndDeferRegisterClass@CAfx@@SAHJ@Z 000000014002b7b4     ChildView.obj
 0002:000097d0       $chain$3$?AfxEndDeferRegisterClass@CAfx@@SAHJ@Z 000000014002b7d0     ChildView.obj
 0002:000097e4       $chain$4$?AfxEndDeferRegisterClass@CAfx@@SAHJ@Z 000000014002b7e4     ChildView.obj
 0002:000097f4       $chain$5$?AfxEndDeferRegisterClass@CAfx@@SAHJ@Z 000000014002b7f4     ChildView.obj
 0002:0000980c       $unwind$?InitInstance@CFrmVC6App@@UEAAHXZ 000000014002b80c     FrmVC6.obj
 0002:00009820       $stateUnwindMap$?InitInstance@CFrmVC6App@@UEAAHXZ 000000014002b820     FrmVC6.obj
 0002:00009828       $ip2state$?InitInstance@CFrmVC6App@@UEAAHXZ 000000014002b828     FrmVC6.obj
 0002:00009840       $unwind$?OnAppAbout@CFrmVC6App@@QEAAXXZ 000000014002b840     FrmVC6.obj
 0002:00009850       $stateUnwindMap$?OnAppAbout@CFrmVC6App@@QEAAXXZ 000000014002b850     FrmVC6.obj
 0002:00009858       $ip2state$?OnAppAbout@CFrmVC6App@@QEAAXXZ 000000014002b858     FrmVC6.obj
 0002:00009870       $unwind$?Run@CWinApp@@UEAAHXZ 000000014002b870     FrmVC6.obj
 0002:00009870       $unwind$?CreateDlgIndirect@CWnd@@QEAAHPEBUDLGTEMPLATE@@PEAV1@PEAUHINSTANCE__@@@Z 000000014002b870     FrmVC6.obj
 0002:00009870       $unwind$?OnCmdMsg@CMainFrame@@UEAAHIHPEAXPEAUAFX_CMDHANDLERINFO@@@Z 000000014002b870     MainFrm.obj
 0002:00009870       $unwind$?OnCmdMsg@CDialog@@UEAAHIHPEAXPEAUAFX_CMDHANDLERINFO@@@Z 000000014002b870     FrmVC6.obj
 0002:00009888       $unwind$?PreTranslateMessage@CDialog@@UEAAHPEAUtagMSG@@@Z 000000014002b888     FrmVC6.obj
 0002:00009888       $unwind$?_ProcessWindowMessage@CToolBar@@UEAAHPEAUHWND__@@I_K_JAEA_J@Z 000000014002b888     MainFrm.obj
 0002:00009894       $unwind$?x_ismbbtype_l@@YAHPEAUlocaleinfo_struct@@IHH@Z 000000014002b894     LIBCMT:ismbbyte.obj
 0002:00009894       $unwind$?DrawNonThemedGripper@CControlBar@@QEAAHPEAVCDCMTL@@AEBVCRect@WTL@@@Z 000000014002b894     MainFrm.obj
 0002:00009894       $unwind$_mbscmp_l          000000014002b894     LIBCMT:mbscmp.obj
 0002:00009894       $unwind$_mbschr_l          000000014002b894     LIBCMT:mbschr.obj
 0002:00009894       $unwind$?OnOK@CDialog@@UEAAXXZ 000000014002b894     FrmVC6.obj
 0002:00009894       $unwind$?AfxLoadString@CAfx@@SAHIPEADI@Z 000000014002b894     MainFrm.obj
 0002:00009894       $unwind$?RecalcDelayShow@CControlBar@@QEAAKPEAUAFX_SIZEPARENTPARAMS@@@Z 000000014002b894     MainFrm.obj
 0002:000098a4       $unwind$?CenterWindow@CWindow@ATL@@QEAAHPEAUHWND__@@@Z 000000014002b8a4     FrmVC6.obj
 0002:000098bc       $unwind$?RunModalLoop@CWnd@@QEAAHK@Z 000000014002b8bc     FrmVC6.obj
 0002:000098bc       $unwind$?ExecuteDlgInit@CWnd@@QEAAHPEAX@Z 000000014002b8bc     FrmVC6.obj
 0002:000098d8       $unwind$?OnInitDialog@CDialog@@UEAAHXZ 000000014002b8d8     FrmVC6.obj
 0002:000098e8       $chain$0$?AfxDlgProc@CWnd@@SA_JPEAUHWND__@@I_K_J@Z 000000014002b8e8     FrmVC6.obj
 0002:000098fc       $chain$2$?AfxDlgProc@CWnd@@SA_JPEAUHWND__@@I_K_J@Z 000000014002b8fc     FrmVC6.obj
 0002:00009910       $chain$3$?AfxDlgProc@CWnd@@SA_JPEAUHWND__@@I_K_J@Z 000000014002b910     FrmVC6.obj
 0002:00009920       $unwind$?OnMenuSelect@CFrameWnd@@QEAAXIIPEAUHMENU__@@@Z 000000014002b920     MainFrm.obj
 0002:00009920       $unwind$?OnPreserveZeroBorderHelper@CToolBar@@QEAA_J_K_J@Z 000000014002b920     MainFrm.obj
 0002:00009920       $unwind$?CreateDlg@CWnd@@QEAAHPEBDPEAV1@@Z 000000014002b920     FrmVC6.obj
 0002:00009938       $unwind$?DoModal@CDialog@@UEAA_JXZ 000000014002b938     FrmVC6.obj
 0002:00009944       $chain$3$?DoModal@CDialog@@UEAA_JXZ 000000014002b944     FrmVC6.obj
 0002:00009964       $chain$5$?DoModal@CDialog@@UEAA_JXZ 000000014002b964     FrmVC6.obj
 0002:0000997c       $chain$6$?DoModal@CDialog@@UEAA_JXZ 000000014002b97c     FrmVC6.obj
 0002:0000998c       $chain$7$?DoModal@CDialog@@UEAA_JXZ 000000014002b98c     FrmVC6.obj
 0002:000099a4       $chain$8$?DoModal@CDialog@@UEAA_JXZ 000000014002b9a4     FrmVC6.obj
 0002:000099b4       $unwind$?GetCapture@CWnd@@SAPEAV1@XZ 000000014002b9b4     MainFrm.obj
 0002:000099b4       $unwind$?GetActiveWindow@CWnd@@SAPEAV1@XZ 000000014002b9b4     FrmVC6.obj
 0002:000099b4       $unwind$?GetForegroundWindow@CWnd@@SAPEAV1@XZ 000000014002b9b4     MainFrm.obj
 0002:000099cc       $chain$3$?GetActiveWindow@CWnd@@SAPEAV1@XZ 000000014002b9cc     FrmVC6.obj
 0002:000099e0       $chain$8$?GetActiveWindow@CWnd@@SAPEAV1@XZ 000000014002b9e0     FrmVC6.obj
 0002:000099e0       $chain$4$?GetActiveWindow@CWnd@@SAPEAV1@XZ 000000014002b9e0     FrmVC6.obj
 0002:000099f0       $chain$5$?GetActiveWindow@CWnd@@SAPEAV1@XZ 000000014002b9f0     FrmVC6.obj
 0002:00009a04       $chain$6$?GetActiveWindow@CWnd@@SAPEAV1@XZ 000000014002ba04     FrmVC6.obj
 0002:00009a18       $chain$7$?GetActiveWindow@CWnd@@SAPEAV1@XZ 000000014002ba18     FrmVC6.obj
 0002:00009a28       $unwind$??1CCommandLineInfo@@QEAA@XZ 000000014002ba28     FrmVC6.obj
 0002:00009a40       $stateUnwindMap$??1CCommandLineInfo@@QEAA@XZ 000000014002ba40     FrmVC6.obj
 0002:00009a58       $ip2state$??1CCommandLineInfo@@QEAA@XZ 000000014002ba58     FrmVC6.obj
 0002:00009a80       $unwind$??1CWinApp@@QEAA@XZ 000000014002ba80     FrmVC6.obj
 0002:00009a90       $stateUnwindMap$??1CWinApp@@QEAA@XZ 000000014002ba90     FrmVC6.obj
 0002:00009aa8       $ip2state$??1CWinApp@@QEAA@XZ 000000014002baa8     FrmVC6.obj
 0002:00009ad8       $unwind$??0CModuleThreadState@@QEAA@XZ 000000014002bad8     FrmVC6.obj
 0002:00009aec       $stateUnwindMap$??1CModuleThreadState@@QEAA@XZ 000000014002baec     FrmVC6.obj
 0002:00009aec       $stateUnwindMap$??0CModuleThreadState@@QEAA@XZ 000000014002baec     FrmVC6.obj
 0002:00009af8       $ip2state$??0CModuleThreadState@@QEAA@XZ 000000014002baf8     FrmVC6.obj
 0002:00009b10       $unwind$??1CModuleThreadState@@QEAA@XZ 000000014002bb10     FrmVC6.obj
 0002:00009b20       $ip2state$??1CModuleThreadState@@QEAA@XZ 000000014002bb20     FrmVC6.obj
 0002:00009b38       $unwind$?SendMessageToDescendants@CWnd@@QEAAXPEAUHWND__@@I_K_JHH@Z 000000014002bb38     FrmVC6.obj
 0002:00009b48       $chain$0$?SendMessageToDescendants@CWnd@@QEAAXPEAUHWND__@@I_K_JHH@Z 000000014002bb48     FrmVC6.obj
 0002:00009b5c       $chain$1$?SendMessageToDescendants@CWnd@@QEAAXPEAUHWND__@@I_K_JHH@Z 000000014002bb5c     FrmVC6.obj
 0002:00009b6c       $unwind$?OnIdle@CWinApp@@UEAAHH@Z 000000014002bb6c     FrmVC6.obj
 0002:00009b84       $unwind$?PreTranslateMessage@CWinApp@@UEAAHPEAUtagMSG@@@Z 000000014002bb84     FrmVC6.obj
 0002:00009b94       $chain$0$?PreTranslateMessage@CWinApp@@UEAAHPEAUtagMSG@@@Z 000000014002bb94     FrmVC6.obj
 0002:00009ba8       $chain$1$?PreTranslateMessage@CWinApp@@UEAAHPEAUtagMSG@@@Z 000000014002bba8     FrmVC6.obj
 0002:00009bb8       $unwind$??0CWinApp@@QEAA@XZ 000000014002bbb8     FrmVC6.obj
 0002:00009bc8       $stateUnwindMap$??0CWinApp@@QEAA@XZ 000000014002bbc8     FrmVC6.obj
 0002:00009bd0       $ip2state$??0CWinApp@@QEAA@XZ 000000014002bbd0     FrmVC6.obj
 0002:00009be8       $unwind$?_ProcessWindowMessage@CMainFrame@@UEAAHPEAUHWND__@@I_K_JAEA_J@Z 000000014002bbe8     MainFrm.obj
 0002:00009bf4       $chain$0$?_ProcessWindowMessage@CMainFrame@@UEAAHPEAUHWND__@@I_K_JAEA_J@Z 000000014002bbf4     MainFrm.obj
 0002:00009c08       $chain$2$?_ProcessWindowMessage@CMainFrame@@UEAAHPEAUHWND__@@I_K_JAEA_J@Z 000000014002bc08     MainFrm.obj
 0002:00009c20       $chain$4$?_ProcessWindowMessage@CMainFrame@@UEAAHPEAUHWND__@@I_K_JAEA_J@Z 000000014002bc20     MainFrm.obj
 0002:00009c38       $chain$5$?_ProcessWindowMessage@CMainFrame@@UEAAHPEAUHWND__@@I_K_JAEA_J@Z 000000014002bc38     MainFrm.obj
 0002:00009c4c       $chain$6$?_ProcessWindowMessage@CMainFrame@@UEAAHPEAUHWND__@@I_K_JAEA_J@Z 000000014002bc4c     MainFrm.obj
 0002:00009c5c       $chain$7$?_ProcessWindowMessage@CMainFrame@@UEAAHPEAUHWND__@@I_K_JAEA_J@Z 000000014002bc5c     MainFrm.obj
 0002:00009c6c       $chain$8$?_ProcessWindowMessage@CMainFrame@@UEAAHPEAUHWND__@@I_K_JAEA_J@Z 000000014002bc6c     MainFrm.obj
 0002:00009c7c       $chain$9$?_ProcessWindowMessage@CMainFrame@@UEAAHPEAUHWND__@@I_K_JAEA_J@Z 000000014002bc7c     MainFrm.obj
 0002:00009c8c       $unwind$??_GCMainFrame@@UEAAPEAXI@Z 000000014002bc8c     MainFrm.obj
 0002:00009ca0       $stateUnwindMap$??_GCMainFrame@@UEAAPEAXI@Z 000000014002bca0     MainFrm.obj
 0002:00009cb8       $ip2state$??_GCMainFrame@@UEAAPEAXI@Z 000000014002bcb8     MainFrm.obj
 0002:00009ce0       $unwind$?RecalcLayout@CFrameWnd@@UEAAXH@Z 000000014002bce0     MainFrm.obj
 0002:00009ce0       $unwind$?OnCreate@CMainFrame@@IEAAHPEAUtagCREATESTRUCTA@@@Z 000000014002bce0     MainFrm.obj
 0002:00009ce8       $chain$0$?OnCreate@CMainFrame@@IEAAHPEAUtagCREATESTRUCTA@@@Z 000000014002bce8     MainFrm.obj
 0002:00009cfc       $chain$2$?OnCreate@CMainFrame@@IEAAHPEAUtagCREATESTRUCTA@@@Z 000000014002bcfc     MainFrm.obj
 0002:00009d10       $unwind$?SetButtons@CToolBar@@QEAAHPEBIH@Z 000000014002bd10     MainFrm.obj
 0002:00009d28       $unwind$?AfxLoadSysColorBitmap@@YAPEAUHBITMAP__@@PEAUHINSTANCE__@@PEAUHRSRC__@@H@Z 000000014002bd28     MainFrm.obj
 0002:00009d28       $unwind$__crtGetShowWindowMode 000000014002bd28     LIBCMT:winapisupp.obj
 0002:00009d30       $chain$2$?AfxLoadSysColorBitmap@@YAPEAUHBITMAP__@@PEAUHINSTANCE__@@PEAUHRSRC__@@H@Z 000000014002bd30     MainFrm.obj
 0002:00009d4c       $chain$9$?AfxLoadSysColorBitmap@@YAPEAUHBITMAP__@@PEAUHINSTANCE__@@PEAUHRSRC__@@H@Z 000000014002bd4c     MainFrm.obj
 0002:00009d7c       $chain$10$?AfxLoadSysColorBitmap@@YAPEAUHBITMAP__@@PEAUHINSTANCE__@@PEAUHRSRC__@@H@Z 000000014002bd7c     MainFrm.obj
 0002:00009d90       $unwind$?AddReplaceBitmap@CToolBar@@QEAAHPEAUHBITMAP__@@@Z 000000014002bd90     MainFrm.obj
 0002:00009da0       $unwind$?LoadToolBar@CToolBar@@QEAAHPEBD@Z 000000014002bda0     MainFrm.obj
 0002:00009dac       $chain$0$?LoadToolBar@CToolBar@@QEAAHPEBD@Z 000000014002bdac     MainFrm.obj
 0002:00009dc0       $chain$2$?LoadToolBar@CToolBar@@QEAAHPEBD@Z 000000014002bdc0     MainFrm.obj
 0002:00009dd4       $chain$4$?LoadToolBar@CToolBar@@QEAAHPEBD@Z 000000014002bdd4     MainFrm.obj
 0002:00009dec       $chain$5$?LoadToolBar@CToolBar@@QEAAHPEBD@Z 000000014002bdec     MainFrm.obj
 0002:00009e00       $unwind$?_GetEstablisherFrame@@YAPEA_KPEA_KPEAU_xDISPATCHER_CONTEXT@@PEBU_s_FuncInfo@@0@Z 000000014002be00     LIBCMT:trnsctrl.obj
 0002:00009e00       $unwind$?OnSetSizeHelper@CToolBar@@QEAA_JAEAVCSize@WTL@@_J@Z 000000014002be00     MainFrm.obj
 0002:00009e18       $unwind$?OnPreserveSizingPolicyHelper@CToolBar@@QEAA_J_K_J@Z 000000014002be18     MainFrm.obj
 0002:00009e30       $chain$0$?OnPreserveSizingPolicyHelper@CToolBar@@QEAA_J_K_J@Z 000000014002be30     MainFrm.obj
 0002:00009e44       $chain$1$?OnPreserveSizingPolicyHelper@CToolBar@@QEAA_J_K_J@Z 000000014002be44     MainFrm.obj
 0002:00009e54       $unwind$?OnToolHitTest@CToolBar@@UEBA_JVCPoint@WTL@@PEAUtagTOOLINFOA@@@Z 000000014002be54     MainFrm.obj
 0002:00009e60       $chain$2$?OnToolHitTest@CToolBar@@UEBA_JVCPoint@WTL@@PEAUtagTOOLINFOA@@@Z 000000014002be60     MainFrm.obj
 0002:00009e7c       $chain$3$?OnToolHitTest@CToolBar@@UEBA_JVCPoint@WTL@@PEAUtagTOOLINFOA@@@Z 000000014002be7c     MainFrm.obj
 0002:00009e8c       $chain$4$?OnToolHitTest@CToolBar@@UEBA_JVCPoint@WTL@@PEAUtagTOOLINFOA@@@Z 000000014002be8c     MainFrm.obj
 0002:00009ea8       $unwind$?getSystemCP@@YAHH@Z 000000014002bea8     LIBCMT:mbctype.obj
 0002:00009ea8       $unwind$??2@YAPEAX_K@Z     000000014002bea8     LIBCMT:new.obj
 0002:00009ea8       $unwind$?_ProcessWindowMessage@CControlBar@@UEAAHPEAUHWND__@@I_K_JAEA_J@Z 000000014002bea8     MainFrm.obj
 0002:00009ea8       $unwind$_cropzeros_l       000000014002bea8     LIBCMT:cvt.obj
 0002:00009ea8       $unwind$isleadbyte         000000014002bea8     LIBCMT:_wctype.obj
 0002:00009ea8       $unwind$?OnClose@CFrameWnd@@QEAAXXZ 000000014002bea8     MainFrm.obj
 0002:00009ea8       $unwind$_forcdecpt_l       000000014002bea8     LIBCMT:cvt.obj
 0002:00009ea8       $unwind$_isleadbyte_l      000000014002bea8     LIBCMT:_wctype.obj
 0002:00009ea8       $unwind$?OnBarStyleChange@CToolBar@@UEAAXKK@Z 000000014002bea8     MainFrm.obj
 0002:00009ea8       $unwind$isdigit            000000014002bea8     LIBCMT:_ctype.obj
 0002:00009eb0       $unwind$?WindowProc@CControlBar@@UEAA_JI_K_J@Z 000000014002beb0     MainFrm.obj
 0002:00009eb0       $unwind$?SetCheck@CToolCmdUI@@UEAAXH@Z 000000014002beb0     MainFrm.obj
 0002:00009eb0       $unwind$?__SehTransFilter@@YAHPEAU_EXCEPTION_POINTERS@@PEAUEHExceptionRecord@@PEA_KPEAU_CONTEXT@@PEAU_xDISPATCHER_CONTEXT@@PEBU_s_FuncInfo@@PEAH@Z 000000014002beb0     LIBCMT:trnsctrl.obj
 0002:00009eb0       $unwind$?Enable@CToolCmdUI@@UEAAXH@Z 000000014002beb0     MainFrm.obj
 0002:00009eb0       $unwind$?ShowControlBar@CFrameWnd@@QEAAXPEAVCControlBar@@HH@Z 000000014002beb0     MainFrm.obj
 0002:00009ec4       $unwind$?OnUpdateCmdUI@CToolBar@@UEAAXPEAVCFrameWnd@@H@Z 000000014002bec4     MainFrm.obj
 0002:00009ed8       $chain$0$?OnUpdateCmdUI@CToolBar@@UEAAXPEAVCFrameWnd@@H@Z 000000014002bed8     MainFrm.obj
 0002:00009eec       $chain$1$?OnUpdateCmdUI@CToolBar@@UEAAXPEAVCFrameWnd@@H@Z 000000014002beec     MainFrm.obj
 0002:00009efc       $unwind$?WrapToolBar@CToolBar@@QEAAHPEAU_TBBUTTON@@HH@Z 000000014002befc     MainFrm.obj
 0002:00009f14       $unwind$?SizeToolBar@CToolBar@@QEAAXPEAU_TBBUTTON@@HHH@Z 000000014002bf14     MainFrm.obj
 0002:00009f2c       $chain$0$?SizeToolBar@CToolBar@@QEAAXPEAU_TBBUTTON@@HHH@Z 000000014002bf2c     MainFrm.obj
 0002:00009f40       $chain$1$?SizeToolBar@CToolBar@@QEAAXPEAU_TBBUTTON@@HHH@Z 000000014002bf40     MainFrm.obj
 0002:00009f50       $unwind$?CalcSize@CToolBar@@QEAA?AVCSize@WTL@@PEAU_TBBUTTON@@H@Z 000000014002bf50     MainFrm.obj
 0002:00009f64       $chain$1$?CalcSize@CToolBar@@QEAA?AVCSize@WTL@@PEAU_TBBUTTON@@H@Z 000000014002bf64     MainFrm.obj
 0002:00009f7c       $chain$2$?CalcSize@CToolBar@@QEAA?AVCSize@WTL@@PEAU_TBBUTTON@@H@Z 000000014002bf7c     MainFrm.obj
 0002:00009f8c       $unwind$?_SetButton@CToolBar@@QEAAXHPEAU_TBBUTTON@@@Z 000000014002bf8c     MainFrm.obj
 0002:00009f9c       $chain$1$?_SetButton@CToolBar@@QEAAXHPEAU_TBBUTTON@@@Z 000000014002bf9c     MainFrm.obj
 0002:00009fb4       $chain$2$?_SetButton@CToolBar@@QEAAXHPEAU_TBBUTTON@@@Z 000000014002bfb4     MainFrm.obj
 0002:00009fc4       $unwind$?CalcLayout@CToolBar@@QEAA?AVCSize@WTL@@KH@Z 000000014002bfc4     MainFrm.obj
 0002:00009fe0       $unwind$?OnBarStyleChange@CStatusBar@@UEAAXKK@Z 000000014002bfe0     MainFrm.obj
 0002:00009fe0       $unwind$?Create@CToolBar@@UEAAHPEAVCWnd@@KI@Z 000000014002bfe0     MainFrm.obj
 0002:00009fe0       $unwind$__initconout       000000014002bfe0     LIBCMT:initcon.obj
 0002:00009fe0       $unwind$_cfltcvt           000000014002bfe0     LIBCMT:cvt.obj
 0002:00009fe8       $unwind$?_AfxGetDropDownWidth@CToolBar@@SAHXZ 000000014002bfe8     MainFrm.obj
 0002:00009ff0       $chain$2$?_AfxGetDropDownWidth@CToolBar@@SAHXZ 000000014002bff0     MainFrm.obj
 0002:0000a00c       $chain$3$?_AfxGetDropDownWidth@CToolBar@@SAHXZ 000000014002c00c     MainFrm.obj
 0002:0000a01c       $unwind$?SetSizes@CToolBar@@QEAAXUtagSIZE@@0@Z 000000014002c01c     MainFrm.obj
 0002:0000a024       $unwind$?CreateEx@CToolBar@@UEAAHPEAVCWnd@@KKVCRect@WTL@@I@Z 000000014002c024     MainFrm.obj
 0002:0000a024       $unwind$?CreateEx@CStatusBar@@UEAAHPEAVCWnd@@KKI@Z 000000014002c024     MainFrm.obj
 0002:0000a038       $unwind$?GetTopLevelFrame@CWnd@@QEAAPEAVCFrameWnd@@XZ 000000014002c038     MainFrm.obj
 0002:0000a038       $unwind$?OnGetText@CStatusBar@@QEAAHHPEAD@Z 000000014002c038     MainFrm.obj
 0002:0000a040       $chain$0$?OnGetText@CStatusBar@@QEAAHHPEAD@Z 000000014002c040     MainFrm.obj
 0002:0000a054       $chain$2$?OnGetText@CStatusBar@@QEAAHHPEAD@Z 000000014002c054     MainFrm.obj
 0002:0000a068       $unwind$??1CWindowDCMTL@@UEAA@XZ 000000014002c068     MainFrm.obj
 0002:0000a078       $ip2state$??1CWindowDCMTL@@UEAA@XZ 000000014002c078     MainFrm.obj
 0002:0000a090       $unwind$?DrawBorders@CControlBar@@QEAAXPEAVCDCMTL@@AEAVCRect@WTL@@@Z 000000014002c090     MainFrm.obj
 0002:0000a0a0       $chain$4$?DrawBorders@CControlBar@@QEAAXPEAVCDCMTL@@AEAVCRect@WTL@@@Z 000000014002c0a0     MainFrm.obj
 0002:0000a0c4       $chain$5$?DrawBorders@CControlBar@@QEAAXPEAVCDCMTL@@AEAVCRect@WTL@@@Z 000000014002c0c4     MainFrm.obj
 0002:0000a0dc       $chain$6$?DrawBorders@CControlBar@@QEAAXPEAVCDCMTL@@AEAVCRect@WTL@@@Z 000000014002c0dc     MainFrm.obj
 0002:0000a0f0       $chain$7$?DrawBorders@CControlBar@@QEAAXPEAVCDCMTL@@AEAVCRect@WTL@@@Z 000000014002c0f0     MainFrm.obj
 0002:0000a100       $unwind$?FillSolidRect@?$CDCT@$00@WTL@@QEAAXHHHHK@Z 000000014002c100     MainFrm.obj
 0002:0000a10c       $unwind$?Draw3dRect@?$CDCT@$00@WTL@@QEAAXHHHHKK@Z 000000014002c10c     MainFrm.obj
 0002:0000a128       $unwind$?EraseNonClient@CControlBar@@QEAAXXZ 000000014002c128     MainFrm.obj
 0002:0000a150       $stateUnwindMap$?EraseNonClient@CControlBar@@QEAAXXZ 000000014002c150     MainFrm.obj
 0002:0000a160       $ip2state$?EraseNonClient@CControlBar@@QEAAXXZ 000000014002c160     MainFrm.obj
 0002:0000a188       $unwind$?_ProcessWindowMessage@CStatusBar@@UEAAHPEAUHWND__@@I_K_JAEA_J@Z 000000014002c188     MainFrm.obj
 0002:0000a190       $chain$0$?_ProcessWindowMessage@CStatusBar@@UEAAHPEAUHWND__@@I_K_JAEA_J@Z 000000014002c190     MainFrm.obj
 0002:0000a1a4       $chain$1$?_ProcessWindowMessage@CStatusBar@@UEAAHPEAUHWND__@@I_K_JAEA_J@Z 000000014002c1a4     MainFrm.obj
 0002:0000a1b4       $unwind$?OnCreate@CControlBar@@QEAAHPEAUtagCREATESTRUCTA@@@Z 000000014002c1b4     MainFrm.obj
 0002:0000a1c0       $chain$1$?OnCreate@CControlBar@@QEAAHPEAUtagCREATESTRUCTA@@@Z 000000014002c1c0     MainFrm.obj
 0002:0000a1d4       $chain$2$?OnCreate@CControlBar@@QEAAHPEAUtagCREATESTRUCTA@@@Z 000000014002c1d4     MainFrm.obj
 0002:0000a1e4       $unwind$free               000000014002c1e4     LIBCMT:free.obj
 0002:0000a1e4       $unwind$__free_lconv_num   000000014002c1e4     LIBCMT:initnum.obj
 0002:0000a1e4       $unwind$?OnLButtonDown@CControlBar@@QEAAXIVCPoint@WTL@@@Z 000000014002c1e4     MainFrm.obj
 0002:0000a1ec       $unwind$?ReDockControlBar@CDockBar@@QEAAXPEAVCControlBar@@PEBUtagRECT@@@Z 000000014002c1ec     MainFrm.obj
 0002:0000a200       $chain$0$?ReDockControlBar@CDockBar@@QEAAXPEAVCControlBar@@PEBUtagRECT@@@Z 000000014002c200     MainFrm.obj
 0002:0000a214       $chain$1$?ReDockControlBar@CDockBar@@QEAAXPEAVCControlBar@@PEBUtagRECT@@@Z 000000014002c214     MainFrm.obj
 0002:0000a228       $chain$2$?ReDockControlBar@CDockBar@@QEAAXPEAVCControlBar@@PEBUtagRECT@@@Z 000000014002c228     MainFrm.obj
 0002:0000a238       $chain$3$?ReDockControlBar@CDockBar@@QEAAXPEAVCControlBar@@PEBUtagRECT@@@Z 000000014002c238     MainFrm.obj
 0002:0000a248       $unwind$?ReDockControlBar@CFrameWnd@@QEAAXPEAVCControlBar@@PEAVCDockBar@@PEBUtagRECT@@@Z 000000014002c248     MainFrm.obj
 0002:0000a258       $chain$3$?ReDockControlBar@CFrameWnd@@QEAAXPEAVCControlBar@@PEAVCDockBar@@PEBUtagRECT@@@Z 000000014002c258     MainFrm.obj
 0002:0000a278       $chain$4$?ReDockControlBar@CFrameWnd@@QEAAXPEAVCControlBar@@PEAVCDockBar@@PEBUtagRECT@@@Z 000000014002c278     MainFrm.obj
 0002:0000a288       $unwind$?ToggleDocking@CDockContext@@QEAAXXZ 000000014002c288     MainFrm.obj
 0002:0000a294       $unwind$?OnTimer@CControlBar@@QEAAX_K@Z 000000014002c294     MainFrm.obj
 0002:0000a2a0       $chain$5$?OnTimer@CControlBar@@QEAAX_K@Z 000000014002c2a0     MainFrm.obj
 0002:0000a2c8       $chain$6$?OnTimer@CControlBar@@QEAAX_K@Z 000000014002c2c8     MainFrm.obj
 0002:0000a2dc       $chain$7$?OnTimer@CControlBar@@QEAAX_K@Z 000000014002c2dc     MainFrm.obj
 0002:0000a2ec       $unwind$?OnSizeParent@CControlBar@@QEAA_J_K_J@Z 000000014002c2ec     MainFrm.obj
 0002:0000a2f8       $chain$2$?OnSizeParent@CControlBar@@QEAA_J_K_J@Z 000000014002c2f8     MainFrm.obj
 0002:0000a314       $chain$3$?OnSizeParent@CControlBar@@QEAA_J_K_J@Z 000000014002c314     MainFrm.obj
 0002:0000a324       $unwind$?OnIdleUpdateCmdUI@CControlBar@@QEAA_J_K_J@Z 000000014002c324     MainFrm.obj
 0002:0000a330       $chain$0$?OnIdleUpdateCmdUI@CControlBar@@QEAA_J_K_J@Z 000000014002c330     MainFrm.obj
 0002:0000a344       $chain$1$?OnIdleUpdateCmdUI@CControlBar@@QEAA_J_K_J@Z 000000014002c344     MainFrm.obj
 0002:0000a354       $chain$3$?GetCapture@CWnd@@SAPEAV1@XZ 000000014002c354     MainFrm.obj
 0002:0000a368       $chain$8$?GetCapture@CWnd@@SAPEAV1@XZ 000000014002c368     MainFrm.obj
 0002:0000a368       $chain$4$?GetCapture@CWnd@@SAPEAV1@XZ 000000014002c368     MainFrm.obj
 0002:0000a378       $chain$5$?GetCapture@CWnd@@SAPEAV1@XZ 000000014002c378     MainFrm.obj
 0002:0000a38c       $chain$6$?GetCapture@CWnd@@SAPEAV1@XZ 000000014002c38c     MainFrm.obj
 0002:0000a3a0       $chain$7$?GetCapture@CWnd@@SAPEAV1@XZ 000000014002c3a0     MainFrm.obj
 0002:0000a3b0       $unwind$?Create@CMiniDockFrameWnd@@QEAAHPEAVCWnd@@K@Z 000000014002c3b0     MainFrm.obj
 0002:0000a3d0       $stateUnwindMap$?Create@CMiniDockFrameWnd@@QEAAHPEAVCWnd@@K@Z 000000014002c3d0     MainFrm.obj
 0002:0000a3d8       $ip2state$?Create@CMiniDockFrameWnd@@QEAAHPEAVCWnd@@K@Z 000000014002c3d8     MainFrm.obj
 0002:0000a3f0       $chain$3$?GetDlgItem@CWnd@@QEAAPEAV1@H@Z 000000014002c3f0     MainFrm.obj
 0002:0000a404       $chain$4$?GetDlgItem@CWnd@@QEAAPEAV1@H@Z 000000014002c404     MainFrm.obj
 0002:0000a404       $chain$8$?GetDlgItem@CWnd@@QEAAPEAV1@H@Z 000000014002c404     MainFrm.obj
 0002:0000a414       $chain$5$?GetDlgItem@CWnd@@QEAAPEAV1@H@Z 000000014002c414     MainFrm.obj
 0002:0000a428       $chain$6$?GetDlgItem@CWnd@@QEAAPEAV1@H@Z 000000014002c428     MainFrm.obj
 0002:0000a43c       $chain$7$?GetDlgItem@CWnd@@QEAAPEAV1@H@Z 000000014002c43c     MainFrm.obj
 0002:0000a44c       $chain$0$?GetParentOwner@CWnd@@QEAAPEAV1@XZ 000000014002c44c     MainFrm.obj
 0002:0000a460       $chain$4$?GetParentOwner@CWnd@@QEAAPEAV1@XZ 000000014002c460     MainFrm.obj
 0002:0000a47c       $chain$6$?GetParentOwner@CWnd@@QEAAPEAV1@XZ 000000014002c47c     MainFrm.obj
 0002:0000a494       $chain$7$?GetParentOwner@CWnd@@QEAAPEAV1@XZ 000000014002c494     MainFrm.obj
 0002:0000a494       $chain$11$?GetParentOwner@CWnd@@QEAAPEAV1@XZ 000000014002c494     MainFrm.obj
 0002:0000a4a4       $chain$8$?GetParentOwner@CWnd@@QEAAPEAV1@XZ 000000014002c4a4     MainFrm.obj
 0002:0000a4bc       $chain$9$?GetParentOwner@CWnd@@QEAAPEAV1@XZ 000000014002c4bc     MainFrm.obj
 0002:0000a4d0       $chain$10$?GetParentOwner@CWnd@@QEAAPEAV1@XZ 000000014002c4d0     MainFrm.obj
 0002:0000a4e0       $chain$12$?GetParentOwner@CWnd@@QEAAPEAV1@XZ 000000014002c4e0     MainFrm.obj
 0002:0000a4f0       $unwind$__crtGetStringTypeA 000000014002c4f0     LIBCMT:a_str.obj
 0002:0000a4f0       $unwind$?Create@CToolTipCtrlMTL@@QEAAHPEAVCWnd@@K@Z 000000014002c4f0     MainFrm.obj
 0002:0000a500       $chain$3$?GetForegroundWindow@CWnd@@SAPEAV1@XZ 000000014002c500     MainFrm.obj
 0002:0000a514       $chain$4$?GetForegroundWindow@CWnd@@SAPEAV1@XZ 000000014002c514     MainFrm.obj
 0002:0000a514       $chain$8$?GetForegroundWindow@CWnd@@SAPEAV1@XZ 000000014002c514     MainFrm.obj
 0002:0000a524       $chain$5$?GetForegroundWindow@CWnd@@SAPEAV1@XZ 000000014002c524     MainFrm.obj
 0002:0000a538       $chain$6$?GetForegroundWindow@CWnd@@SAPEAV1@XZ 000000014002c538     MainFrm.obj
 0002:0000a54c       $chain$7$?GetForegroundWindow@CWnd@@SAPEAV1@XZ 000000014002c54c     MainFrm.obj
 0002:0000a55c       $chain$3$?GetLastActivePopup@CWnd@@QEAAPEAV1@XZ 000000014002c55c     MainFrm.obj
 0002:0000a570       $chain$4$?GetLastActivePopup@CWnd@@QEAAPEAV1@XZ 000000014002c570     MainFrm.obj
 0002:0000a570       $chain$8$?GetLastActivePopup@CWnd@@QEAAPEAV1@XZ 000000014002c570     MainFrm.obj
 0002:0000a580       $chain$5$?GetLastActivePopup@CWnd@@QEAAPEAV1@XZ 000000014002c580     MainFrm.obj
 0002:0000a594       $chain$6$?GetLastActivePopup@CWnd@@QEAAPEAV1@XZ 000000014002c594     MainFrm.obj
 0002:0000a5a8       $chain$7$?GetLastActivePopup@CWnd@@QEAAPEAV1@XZ 000000014002c5a8     MainFrm.obj
 0002:0000a5b8       $unwind$?_AfxRelayToolTipMessage@CWnd@@SAXPEAVCToolTipCtrlMTL@@PEAUtagMSG@@@Z 000000014002c5b8     MainFrm.obj
 0002:0000a5c4       $unwind$?FilterToolTipMessage@CWnd@@QEAAXPEAUtagMSG@@@Z 000000014002c5c4     MainFrm.obj
 0002:0000a5dc       $unwind$?_EnableToolTips@CWnd@@QEAAHHI@Z 000000014002c5dc     MainFrm.obj
 0002:0000a5e8       $chain$0$?_EnableToolTips@CWnd@@QEAAHHI@Z 000000014002c5e8     MainFrm.obj
 0002:0000a5fc       $chain$1$?_EnableToolTips@CWnd@@QEAAHHI@Z 000000014002c5fc     MainFrm.obj
 0002:0000a60c       $unwind$?Insert@CDockBar@@QEAAHPEAVCControlBar@@VCRect@WTL@@VCPoint@4@@Z 000000014002c60c     MainFrm.obj
 0002:0000a624       $unwind$?SetSize@?$CArray@HAEBH@@QEAAX_J0@Z 000000014002c624     MainFrm.obj
 0002:0000a624       $unwind$?SetSize@?$CArray@PEAXAEBQEAX@@QEAAX_J0@Z 000000014002c624     MainFrm.obj
 0002:0000a634       $chain$0$?SetSize@?$CArray@PEAXAEBQEAX@@QEAAX_J0@Z 000000014002c634     MainFrm.obj
 0002:0000a648       $chain$1$?SetSize@?$CArray@PEAXAEBQEAX@@QEAAX_J0@Z 000000014002c648     MainFrm.obj
 0002:0000a658       $unwind$?SetParent@CWnd@@QEAAPEAV1@PEAV1@@Z 000000014002c658     MainFrm.obj
 0002:0000a670       $chain$3$?SetParent@CWnd@@QEAAPEAV1@PEAV1@@Z 000000014002c670     MainFrm.obj
 0002:0000a684       $chain$4$?SetParent@CWnd@@QEAAPEAV1@PEAV1@@Z 000000014002c684     MainFrm.obj
 0002:0000a684       $chain$8$?SetParent@CWnd@@QEAAPEAV1@PEAV1@@Z 000000014002c684     MainFrm.obj
 0002:0000a694       $chain$5$?SetParent@CWnd@@QEAAPEAV1@PEAV1@@Z 000000014002c694     MainFrm.obj
 0002:0000a6a8       $chain$6$?SetParent@CWnd@@QEAAPEAV1@PEAV1@@Z 000000014002c6a8     MainFrm.obj
 0002:0000a6bc       $chain$7$?SetParent@CWnd@@QEAAPEAV1@PEAV1@@Z 000000014002c6bc     MainFrm.obj
 0002:0000a6cc       $unwind$?DockControlBar@CDockBar@@QEAAXPEAVCControlBar@@PEBUtagRECT@@@Z 000000014002c6cc     MainFrm.obj
 0002:0000a6dc       $chain$0$?DockControlBar@CDockBar@@QEAAXPEAVCControlBar@@PEBUtagRECT@@@Z 000000014002c6dc     MainFrm.obj
 0002:0000a6f0       $chain$3$?DockControlBar@CDockBar@@QEAAXPEAVCControlBar@@PEBUtagRECT@@@Z 000000014002c6f0     MainFrm.obj
 0002:0000a70c       $chain$4$?DockControlBar@CDockBar@@QEAAXPEAVCControlBar@@PEBUtagRECT@@@Z 000000014002c70c     MainFrm.obj
 0002:0000a724       $chain$5$?DockControlBar@CDockBar@@QEAAXPEAVCControlBar@@PEBUtagRECT@@@Z 000000014002c724     MainFrm.obj
 0002:0000a734       $chain$6$?DockControlBar@CDockBar@@QEAAXPEAVCControlBar@@PEBUtagRECT@@@Z 000000014002c734     MainFrm.obj
 0002:0000a744       $unwind$?FloatControlBar@CFrameWnd@@QEAAXPEAVCControlBar@@VCPoint@WTL@@K@Z 000000014002c744     MainFrm.obj
 0002:0000a758       $chain$0$?RemovePlaceHolder@CDockBar@@QEAAXPEAVCControlBar@@@Z 000000014002c758     MainFrm.obj
 0002:0000a76c       $chain$1$?RemovePlaceHolder@CDockBar@@QEAAXPEAVCControlBar@@@Z 000000014002c76c     MainFrm.obj
 0002:0000a77c       $unwind$?RemoveControlBar@CDockBar@@QEAAHPEAVCControlBar@@HH@Z 000000014002c77c     MainFrm.obj
 0002:0000a788       $chain$3$?RemoveControlBar@CDockBar@@QEAAHPEAVCControlBar@@HH@Z 000000014002c788     MainFrm.obj
 0002:0000a7a8       $chain$4$?RemoveControlBar@CDockBar@@QEAAHPEAVCControlBar@@HH@Z 000000014002c7a8     MainFrm.obj
 0002:0000a7c0       $unwind$??1CControlBar@@UEAA@XZ 000000014002c7c0     MainFrm.obj
 0002:0000a7d0       $stateUnwindMap$??1CControlBar@@UEAA@XZ 000000014002c7d0     MainFrm.obj
 0002:0000a7d8       $ip2state$??1CControlBar@@UEAA@XZ 000000014002c7d8     MainFrm.obj
 0002:0000a7f0       $unwind$?PreTranslateMessage@CControlBar@@UEAAHPEAUtagMSG@@@Z 000000014002c7f0     MainFrm.obj
 0002:0000a800       $chain$0$?PreTranslateMessage@CControlBar@@UEAAHPEAUtagMSG@@@Z 000000014002c800     MainFrm.obj
 0002:0000a814       $chain$3$?PreTranslateMessage@CControlBar@@UEAAHPEAUtagMSG@@@Z 000000014002c814     MainFrm.obj
 0002:0000a830       $chain$4$?PreTranslateMessage@CControlBar@@UEAAHPEAUtagMSG@@@Z 000000014002c830     MainFrm.obj
 0002:0000a840       $chain$5$?PreTranslateMessage@CControlBar@@UEAAHPEAUtagMSG@@@Z 000000014002c840     MainFrm.obj
 0002:0000a850       $chain$0$?SetSize@?$CArray@HAEBH@@QEAAX_J0@Z 000000014002c850     MainFrm.obj
 0002:0000a864       $chain$1$?SetSize@?$CArray@HAEBH@@QEAAX_J0@Z 000000014002c864     MainFrm.obj
 0002:0000a874       $unwind$?UpdateAllPanes@CStatusBar@@QEAAXHH@Z 000000014002c874     MainFrm.obj
 0002:0000a898       $stateUnwindMap$?UpdateAllPanes@CStatusBar@@QEAAXHH@Z 000000014002c898     MainFrm.obj
 0002:0000a8a0       $ip2state$?UpdateAllPanes@CStatusBar@@QEAAXHH@Z 000000014002c8a0     MainFrm.obj
 0002:0000a8b8       $unwind$?SetPaneText@CStatusBar@@QEAAHHPEBDH@Z 000000014002c8b8     MainFrm.obj
 0002:0000a8d0       $unwind$?UpdateDialogControls@CWnd@@QEAAXPEAVCCmdTarget@@H@Z 000000014002c8d0     MainFrm.obj
 0002:0000a8f4       $stateUnwindMap$?UpdateDialogControls@CWnd@@QEAAXPEAVCCmdTarget@@H@Z 000000014002c8f4     MainFrm.obj
 0002:0000a908       $ip2state$?UpdateDialogControls@CWnd@@QEAAXPEAVCCmdTarget@@H@Z 000000014002c908     MainFrm.obj
 0002:0000a930       $unwind$?OnUpdateCmdUI@CStatusBar@@UEAAXPEAVCFrameWnd@@H@Z 000000014002c930     MainFrm.obj
 0002:0000a940       $chain$1$?OnUpdateCmdUI@CStatusBar@@UEAAXPEAVCFrameWnd@@H@Z 000000014002c940     MainFrm.obj
 0002:0000a958       $chain$2$?OnUpdateCmdUI@CStatusBar@@UEAAXPEAVCFrameWnd@@H@Z 000000014002c958     MainFrm.obj
 0002:0000a968       $unwind$??1CClientDCMTL@@UEAA@XZ 000000014002c968     MainFrm.obj
 0002:0000a978       $ip2state$??1CClientDCMTL@@UEAA@XZ 000000014002c978     MainFrm.obj
 0002:0000a990       $unwind$?CalcFixedLayout@CStatusBar@@UEAA?AVCSize@WTL@@HH@Z 000000014002c990     MainFrm.obj
 0002:0000a9b8       $stateUnwindMap$?CalcFixedLayout@CStatusBar@@UEAA?AVCSize@WTL@@HH@Z 000000014002c9b8     MainFrm.obj
 0002:0000a9c0       $ip2state$?CalcFixedLayout@CStatusBar@@UEAA?AVCSize@WTL@@HH@Z 000000014002c9c0     MainFrm.obj
 0002:0000a9d8       $unwind$?OnCmdMsg@CFrameWnd@@UEAAHIHPEAXPEAUAFX_CMDHANDLERINFO@@@Z 000000014002c9d8     MainFrm.obj
 0002:0000a9d8       $unwind$_setenvp           000000014002c9d8     LIBCMT:stdenvp.obj
 0002:0000a9d8       $unwind$_invalid_parameter 000000014002c9d8     LIBCMT:invarg.obj
 0002:0000a9ec       $unwind$?ShowOwnedWindows@CFrameWnd@@QEAAXH@Z 000000014002c9ec     MainFrm.obj
 0002:0000a9f8       $chain$4$?ShowOwnedWindows@CFrameWnd@@QEAAXH@Z 000000014002c9f8     MainFrm.obj
 0002:0000aa1c       $chain$5$?ShowOwnedWindows@CFrameWnd@@QEAAXH@Z 000000014002ca1c     MainFrm.obj
 0002:0000aa2c       $unwind$?OnSetPreviewMode@CFrameWnd@@UEAAXHPEAUCPrintPreviewState@@@Z 000000014002ca2c     MainFrm.obj
 0002:0000aa3c       $chain$2$?OnSetPreviewMode@CFrameWnd@@UEAAXHPEAUCPrintPreviewState@@@Z 000000014002ca3c     MainFrm.obj
 0002:0000aa58       $chain$3$?OnSetPreviewMode@CFrameWnd@@UEAAXHPEAUCPrintPreviewState@@@Z 000000014002ca58     MainFrm.obj
 0002:0000aa6c       $chain$4$?OnSetPreviewMode@CFrameWnd@@UEAAXHPEAUCPrintPreviewState@@@Z 000000014002ca6c     MainFrm.obj
 0002:0000aa7c       $chain$5$?OnSetPreviewMode@CFrameWnd@@UEAAXHPEAUCPrintPreviewState@@@Z 000000014002ca7c     MainFrm.obj
 0002:0000aa8c       $unwind$?GetIconWndClass@CFrameWnd@@QEAAPEBDKI@Z 000000014002ca8c     MainFrm.obj
 0002:0000aaa0       $unwind$??1CFrameWnd@@UEAA@XZ 000000014002caa0     MainFrm.obj
 0002:0000aab4       $stateUnwindMap$??1CFrameWnd@@UEAA@XZ 000000014002cab4     MainFrm.obj
 0002:0000aac8       $ip2state$??1CFrameWnd@@UEAA@XZ 000000014002cac8     MainFrm.obj
 0002:0000aae8       $unwind$?Create@CFrameWnd@@UEAAHPEBD0KAEBUtagRECT@@PEAVCWnd@@0KPEAUCCreateContext@@@Z 000000014002cae8     MainFrm.obj
 0002:0000ab00       $chain$0$?Create@CFrameWnd@@UEAAHPEBD0KAEBUtagRECT@@PEAVCWnd@@0KPEAUCCreateContext@@@Z 000000014002cb00     MainFrm.obj
 0002:0000ab14       $chain$1$?Create@CFrameWnd@@UEAAHPEBD0KAEBUtagRECT@@PEAVCWnd@@0KPEAUCCreateContext@@@Z 000000014002cb14     MainFrm.obj
 0002:0000ab24       $unwind$?LoadFrame@CFrameWnd@@UEAAHIKPEAVCWnd@@PEAUCCreateContext@@@Z 000000014002cb24     MainFrm.obj
 0002:0000ab48       $stateUnwindMap$?LoadFrame@CFrameWnd@@UEAAHIKPEAVCWnd@@PEAUCCreateContext@@@Z 000000014002cb48     MainFrm.obj
 0002:0000ab58       $ip2state$?LoadFrame@CFrameWnd@@UEAAHIKPEAVCWnd@@PEAUCCreateContext@@@Z 000000014002cb58     MainFrm.obj
 0002:0000ab80       $unwind$??0CFrameWnd@@QEAA@XZ 000000014002cb80     MainFrm.obj
 0002:0000ab90       $stateUnwindMap$??0CFrameWnd@@QEAA@XZ 000000014002cb90     MainFrm.obj
 0002:0000aba8       $ip2state$??0CFrameWnd@@QEAA@XZ 000000014002cba8     MainFrm.obj
 0002:0000abd0       $unwind$?LoadStringA@CString@WTL@@QEAAHI@Z 000000014002cbd0     MainFrm.obj
 0002:0000abe4       $chain$1$?LoadStringA@CString@WTL@@QEAAHI@Z 000000014002cbe4     MainFrm.obj
 0002:0000abfc       $chain$2$?LoadStringA@CString@WTL@@QEAAHI@Z 000000014002cbfc     MainFrm.obj
 0002:0000ac0c       $chain$0$?OnClose@CFrameWnd@@QEAAXXZ 000000014002cc0c     MainFrm.obj
 0002:0000ac20       $chain$2$?OnClose@CFrameWnd@@QEAAXXZ 000000014002cc20     MainFrm.obj
 0002:0000ac34       $unwind$?CreateView@CFrameWnd@@QEAAPEAVCWnd@@PEAUCCreateContext@@I@Z 000000014002cc34     MainFrm.obj
 0002:0000ac44       $chain$0$?CreateView@CFrameWnd@@QEAAPEAVCWnd@@PEAUCCreateContext@@I@Z 000000014002cc44     MainFrm.obj
 0002:0000ac58       $chain$2$?CreateView@CFrameWnd@@QEAAPEAVCWnd@@PEAUCCreateContext@@I@Z 000000014002cc58     MainFrm.obj
 0002:0000ac6c       $chain$3$?CreateView@CFrameWnd@@QEAAPEAVCWnd@@PEAUCCreateContext@@I@Z 000000014002cc6c     MainFrm.obj
 0002:0000ac7c       $unwind$?DestroyDockBars@CFrameWnd@@QEAAXXZ 000000014002cc7c     MainFrm.obj
 0002:0000aca0       $stateUnwindMap$?DestroyDockBars@CFrameWnd@@QEAAXXZ 000000014002cca0     MainFrm.obj
 0002:0000acb0       $ip2state$?DestroyDockBars@CFrameWnd@@QEAAXXZ 000000014002ccb0     MainFrm.obj
 0002:0000acd8       $chain$0$?OnDestroy@CFrameWnd@@QEAAXXZ 000000014002ccd8     MainFrm.obj
 0002:0000acec       $chain$1$?OnDestroy@CFrameWnd@@QEAAXXZ 000000014002ccec     MainFrm.obj
 0002:0000acfc       $chain$3$?SetActiveWindow@CWnd@@QEAAPEAV1@XZ 000000014002ccfc     MainFrm.obj
 0002:0000ad10       $chain$4$?SetActiveWindow@CWnd@@QEAAPEAV1@XZ 000000014002cd10     MainFrm.obj
 0002:0000ad10       $chain$8$?SetActiveWindow@CWnd@@QEAAPEAV1@XZ 000000014002cd10     MainFrm.obj
 0002:0000ad20       $chain$5$?SetActiveWindow@CWnd@@QEAAPEAV1@XZ 000000014002cd20     MainFrm.obj
 0002:0000ad34       $chain$6$?SetActiveWindow@CWnd@@QEAAPEAV1@XZ 000000014002cd34     MainFrm.obj
 0002:0000ad48       $chain$7$?SetActiveWindow@CWnd@@QEAAPEAV1@XZ 000000014002cd48     MainFrm.obj
 0002:0000ad58       $unwind$?OnDropFiles@CFrameWnd@@QEAAXPEAUHDROP__@@@Z 000000014002cd58     MainFrm.obj
 0002:0000ad70       $chain$2$?GetOwner@CWnd@@QEAAPEAV1@XZ 000000014002cd70     MainFrm.obj
 0002:0000ad8c       $chain$4$?GetOwner@CWnd@@QEAAPEAV1@XZ 000000014002cd8c     MainFrm.obj
 0002:0000ada4       $chain$9$?GetOwner@CWnd@@QEAAPEAV1@XZ 000000014002cda4     MainFrm.obj
 0002:0000ada4       $chain$5$?GetOwner@CWnd@@QEAAPEAV1@XZ 000000014002cda4     MainFrm.obj
 0002:0000adb4       $chain$6$?GetOwner@CWnd@@QEAAPEAV1@XZ 000000014002cdb4     MainFrm.obj
 0002:0000adcc       $chain$7$?GetOwner@CWnd@@QEAAPEAV1@XZ 000000014002cdcc     MainFrm.obj
 0002:0000ade0       $chain$8$?GetOwner@CWnd@@QEAAPEAV1@XZ 000000014002cde0     MainFrm.obj
 0002:0000adf0       $chain$10$?GetOwner@CWnd@@QEAAPEAV1@XZ 000000014002cdf0     MainFrm.obj
 0002:0000ae00       $chain$0$?GetTopLevelParent@CWnd@@QEAAPEAV1@XZ 000000014002ce00     MainFrm.obj
 0002:0000ae14       $chain$4$?GetTopLevelParent@CWnd@@QEAAPEAV1@XZ 000000014002ce14     MainFrm.obj
 0002:0000ae30       $chain$6$?GetTopLevelParent@CWnd@@QEAAPEAV1@XZ 000000014002ce30     MainFrm.obj
 0002:0000ae48       $chain$11$?GetTopLevelParent@CWnd@@QEAAPEAV1@XZ 000000014002ce48     MainFrm.obj
 0002:0000ae48       $chain$7$?GetTopLevelParent@CWnd@@QEAAPEAV1@XZ 000000014002ce48     MainFrm.obj
 0002:0000ae58       $chain$8$?GetTopLevelParent@CWnd@@QEAAPEAV1@XZ 000000014002ce58     MainFrm.obj
 0002:0000ae70       $chain$9$?GetTopLevelParent@CWnd@@QEAAPEAV1@XZ 000000014002ce70     MainFrm.obj
 0002:0000ae84       $chain$10$?GetTopLevelParent@CWnd@@QEAAPEAV1@XZ 000000014002ce84     MainFrm.obj
 0002:0000ae94       $chain$12$?GetTopLevelParent@CWnd@@QEAAPEAV1@XZ 000000014002ce94     MainFrm.obj
 0002:0000aea4       $unwind$?OnIdle@CCmdUI@@QEAAHPEAVCCmdTarget@@H@Z 000000014002cea4     MainFrm.obj
 0002:0000aeb8       $unwind$?OnInitMenuPopup@CFrameWnd@@QEAAXPEAVCMenuMTL@@IH@Z 000000014002ceb8     MainFrm.obj
 0002:0000aec4       $chain$2$?OnInitMenuPopup@CFrameWnd@@QEAAXPEAVCMenuMTL@@IH@Z 000000014002cec4     MainFrm.obj
 0002:0000aee0       $chain$3$?OnInitMenuPopup@CFrameWnd@@QEAAXPEAVCMenuMTL@@IH@Z 000000014002cee0     MainFrm.obj
 0002:0000aef4       $chain$4$?OnInitMenuPopup@CFrameWnd@@QEAAXPEAVCMenuMTL@@IH@Z 000000014002cef4     MainFrm.obj
 0002:0000af04       $chain$5$?OnInitMenuPopup@CFrameWnd@@QEAAXPEAVCMenuMTL@@IH@Z 000000014002cf04     MainFrm.obj
 0002:0000af14       $chain$6$?OnInitMenuPopup@CFrameWnd@@QEAAXPEAVCMenuMTL@@IH@Z 000000014002cf14     MainFrm.obj
 0002:0000af30       $chain$0$?GetTopLevelFrame@CWnd@@QEAAPEAVCFrameWnd@@XZ 000000014002cf30     MainFrm.obj
 0002:0000af44       $chain$3$?GetTopLevelFrame@CWnd@@QEAAPEAVCFrameWnd@@XZ 000000014002cf44     MainFrm.obj
 0002:0000af44       $chain$1$?GetTopLevelFrame@CWnd@@QEAAPEAVCFrameWnd@@XZ 000000014002cf44     MainFrm.obj
 0002:0000af54       $chain$2$?GetTopLevelFrame@CWnd@@QEAAPEAVCFrameWnd@@XZ 000000014002cf54     MainFrm.obj
 0002:0000af68       $unwind$?GetDescendantWindow@CWnd@@QEAAPEAV1@PEAUHWND__@@HH@Z 000000014002cf68     MainFrm.obj
 0002:0000af7c       $unwind$?OnSetMessageString@CFrameWnd@@QEAA_J_K_J@Z 000000014002cf7c     MainFrm.obj
 0002:0000af9c       $stateUnwindMap$?OnSetMessageString@CFrameWnd@@QEAA_J_K_J@Z 000000014002cf9c     MainFrm.obj
 0002:0000afa8       $ip2state$?OnSetMessageString@CFrameWnd@@QEAA_J_K_J@Z 000000014002cfa8     MainFrm.obj
 0002:0000afc0       $unwind$?UpdateFrameTitleForDocument@CFrameWnd@@QEAAXPEBD@Z 000000014002cfc0     MainFrm.obj
 0002:0000afe0       $stateUnwindMap$?UpdateFrameTitleForDocument@CFrameWnd@@QEAAXPEBD@Z 000000014002cfe0     MainFrm.obj
 0002:0000afe8       $ip2state$?UpdateFrameTitleForDocument@CFrameWnd@@QEAAXPEBD@Z 000000014002cfe8     MainFrm.obj
 0002:0000b000       $unwind$?OnUpdateControlBarMenu@CFrameWnd@@QEAAXPEAVCCmdUI@@@Z 000000014002d000     MainFrm.obj
 0002:0000b014       $chain$1$?GetControlBar@CFrameWnd@@QEAAPEAVCControlBar@@I@Z 000000014002d014     MainFrm.obj
 0002:0000b02c       $chain$3$?GetControlBar@CFrameWnd@@QEAAPEAVCControlBar@@I@Z 000000014002d02c     MainFrm.obj
 0002:0000b044       $chain$0$?GetParentFrame@CWnd@@QEAAPEAVCFrameWnd@@XZ 000000014002d044     MainFrm.obj
 0002:0000b058       $chain$2$?GetParentFrame@CWnd@@QEAAPEAVCFrameWnd@@XZ 000000014002d058     MainFrm.obj
 0002:0000b06c       $chain$3$?GetParentFrame@CWnd@@QEAAPEAVCFrameWnd@@XZ 000000014002d06c     MainFrm.obj
 0002:0000b07c       $unwind$?AfxRepositionWindow@CAfx@@SAXPEAUAFX_SIZEPARENTPARAMS@@PEAUHWND__@@PEBUtagRECT@@@Z 000000014002d07c     MainFrm.obj
 0002:0000b090       $unwind$?RepositionBars@CWnd@@QEAAXIIIIPEAUtagRECT@@PEBU2@H@Z 000000014002d090     MainFrm.obj
 0002:0000b0a8       $chain$0$?RepositionBars@CWnd@@QEAAXIIIIPEAUtagRECT@@PEBU2@H@Z 000000014002d0a8     MainFrm.obj
 0002:0000b0bc       $chain$3$?RepositionBars@CWnd@@QEAAXIIIIPEAUtagRECT@@PEBU2@H@Z 000000014002d0bc     MainFrm.obj
 0002:0000b0bc       $chain$1$?RepositionBars@CWnd@@QEAAXIIIIPEAUtagRECT@@PEBU2@H@Z 000000014002d0bc     MainFrm.obj
 0002:0000b0cc       $chain$2$?RepositionBars@CWnd@@QEAAXIIIIPEAUtagRECT@@PEBU2@H@Z 000000014002d0cc     MainFrm.obj
 0002:0000b0e0       $unwind$?_AtlGetStringResourceImage@CAfx@@SAPEBUATLSTRINGRESOURCEIMAGE@ATL@@PEAUHINSTANCE__@@PEAUHRSRC__@@I@Z 000000014002d0e0     MainFrm.obj
 0002:0000b0f4       $chain$0$?AssignCopy@CString@WTL@@IEAAXHPEBD@Z 000000014002d0f4     MainFrm.obj
 0002:0000b108       $chain$1$?AssignCopy@CString@WTL@@IEAAXHPEBD@Z 000000014002d108     MainFrm.obj
 0002:0000b118       $chain$2$?AssignCopy@CString@WTL@@IEAAXHPEBD@Z 000000014002d118     MainFrm.obj
 0002:0000b12c       $unwind$?OnToolTipText@CFrameWnd@@QEAAHIPEAUtagNMHDR@@PEA_J@Z 000000014002d12c     MainFrm.obj
 0002:0000b154       $stateUnwindMap$?OnToolTipText@CFrameWnd@@QEAAHIPEAUtagNMHDR@@PEA_J@Z 000000014002d154     MainFrm.obj
 0002:0000b160       $ip2state$?OnToolTipText@CFrameWnd@@QEAAHIPEAUtagNMHDR@@PEA_J@Z 000000014002d160     MainFrm.obj
 0002:0000b178       $unwind$?_ProcessWindowMessage@CFrameWnd@@UEAAHPEAUHWND__@@I_K_JAEA_J@Z 000000014002d178     MainFrm.obj
 0002:0000b198       $stateUnwindMap$?_ProcessWindowMessage@CFrameWnd@@UEAAHPEAUHWND__@@I_K_JAEA_J@Z 000000014002d198     MainFrm.obj
 0002:0000b1d0       $ip2state$?_ProcessWindowMessage@CFrameWnd@@UEAAHPEAUHWND__@@I_K_JAEA_J@Z 000000014002d1d0     MainFrm.obj
 0002:0000b220       $unwind$?SetCurrentHandles@CWinApp@@QEAAXXZ 000000014002d220     StdAfx.obj
 0002:0000b22c       $chain$4$?SetCurrentHandles@CWinApp@@QEAAXXZ 000000014002d22c     StdAfx.obj
 0002:0000b250       $chain$5$?SetCurrentHandles@CWinApp@@QEAAXXZ 000000014002d250     StdAfx.obj
 0002:0000b260       $unwind$??__F?wndTop@CWMHnd@@2V1@B@@YAXXZ 000000014002d260     StdAfx.obj
 0002:0000b270       $stateUnwindMap$??__F?wndTop@CWMHnd@@2V1@B@@YAXXZ 000000014002d270     StdAfx.obj
 0002:0000b278       $ip2state$??__F?wndTop@CWMHnd@@2V1@B@@YAXXZ 000000014002d278     StdAfx.obj
 0002:0000b290       $unwind$??__F?wndBottom@CWMHnd@@2V1@B@@YAXXZ 000000014002d290     StdAfx.obj
 0002:0000b2a0       $stateUnwindMap$??__F?wndBottom@CWMHnd@@2V1@B@@YAXXZ 000000014002d2a0     StdAfx.obj
 0002:0000b2a8       $ip2state$??__F?wndBottom@CWMHnd@@2V1@B@@YAXXZ 000000014002d2a8     StdAfx.obj
 0002:0000b2c0       $unwind$??__F?wndTopMost@CWMHnd@@2V1@B@@YAXXZ 000000014002d2c0     StdAfx.obj
 0002:0000b2d0       $stateUnwindMap$??__F?wndTopMost@CWMHnd@@2V1@B@@YAXXZ 000000014002d2d0     StdAfx.obj
 0002:0000b2d8       $ip2state$??__F?wndTopMost@CWMHnd@@2V1@B@@YAXXZ 000000014002d2d8     StdAfx.obj
 0002:0000b2f0       $unwind$??__F?wndNoTopMost@CWMHnd@@2V1@B@@YAXXZ 000000014002d2f0     StdAfx.obj
 0002:0000b300       $stateUnwindMap$??__F?wndNoTopMost@CWMHnd@@2V1@B@@YAXXZ 000000014002d300     StdAfx.obj
 0002:0000b308       $ip2state$??__F?wndNoTopMost@CWMHnd@@2V1@B@@YAXXZ 000000014002d308     StdAfx.obj
 0002:0000b320       $unwind$?CreateObject@CFrameWnd@@SAPEAVCObject@@XZ 000000014002d320     StdAfx.obj
 0002:0000b330       $stateUnwindMap$?CreateObject@CFrameWnd@@SAPEAVCObject@@XZ 000000014002d330     StdAfx.obj
 0002:0000b338       $ip2state$?CreateObject@CFrameWnd@@SAPEAVCObject@@XZ 000000014002d338     StdAfx.obj
 0002:0000b350       $unwind$_onexit            000000014002d350     LIBCMT:onexit.obj
 0002:0000b380       $xdatasym                  000000014002d380     LIBCMT:memcpy.obj
 0002:0000b384       $unwind$__tmainCRTStartup  000000014002d384     LIBCMT:wincrt0.obj
 0002:0000b3b0       $xdatasym                  000000014002d3b0     LIBCMT:memset.obj
 0002:0000b3b4       $unwind$_call_reportfault  000000014002d3b4     LIBCMT:invarg.obj
 0002:0000b3d8       $xdatasym                  000000014002d3d8     LIBCMT:strcmp.obj
 0002:0000b3dc       $unwind$?_Type_info_dtor@type_info@@CAXPEAV1@@Z 000000014002d3dc     LIBCMT:typname.obj
 0002:0000b3fc       $unwind$doexit             000000014002d3fc     LIBCMT:crt0dat.obj
 0002:0000b42c       $unwind$GetTableIndexFromLocaleName 000000014002d42c     LIBCMT:crtheap.obj
 0002:0000b42c       $unwind$__TypeMatch        000000014002d42c     LIBCMT:crtheap.obj
 0002:0000b42c       $unwind$_realloc_crt       000000014002d42c     LIBCMT:crtheap.obj
 0002:0000b42c       $unwind$_malloc_crt        000000014002d42c     LIBCMT:crtheap.obj
 0002:0000b42c       $unwind$_calloc_crt        000000014002d42c     LIBCMT:crtheap.obj
 0002:0000b444       $unwind$__C_specific_handler 000000014002d444     LIBCMT:chandler.obj
 0002:0000b460       $unwind$?_Copy_str@exception@std@@AEAAXPEBD@Z 000000014002d460     LIBCMT:stdexcpt.obj
 0002:0000b470       $unwind$_CxxThrowException 000000014002d470     LIBCMT:throw.obj
 0002:0000b480       $xdatasym                  000000014002d480     LIBCMT:strlen.obj
 0002:0000b484       $unwind$__updatetlocinfo   000000014002d484     LIBCMT:localref.obj
 0002:0000b4a4       $unwind$__updatetmbcinfo   000000014002d4a4     LIBCMT:mbctype.obj
 0002:0000b4c8       $unwind$_setmbcp           000000014002d4c8     LIBCMT:mbctype.obj
 0002:0000b4f8       $unwind$_setmbcp_nolock    000000014002d4f8     LIBCMT:mbctype.obj
 0002:0000b518       $unwind$?setSBUpLow@@YAXPEAUthreadmbcinfostruct@@@Z 000000014002d518     LIBCMT:mbctype.obj
 0002:0000b534       $unwind$_freefls           000000014002d534     LIBCMT:tidtable.obj
 0002:0000b568       $unwind$_write$fin$0       000000014002d568     LIBCMT:tidtable.obj
 0002:0000b568       $unwind$_ioinit$fin$0      000000014002d568     LIBCMT:tidtable.obj
 0002:0000b568       $unwind$__updatetmbcinfo$fin$0 000000014002d568     LIBCMT:tidtable.obj
 0002:0000b568       $unwind$__CxxCallCatchBlock$filt$0 000000014002d568     LIBCMT:tidtable.obj
 0002:0000b568       $unwind$_setmbcp$fin$0     000000014002d568     LIBCMT:tidtable.obj
 0002:0000b568       $unwind$flsall$fin$1       000000014002d568     LIBCMT:tidtable.obj
 0002:0000b568       $unwind$__FrameUnwindToState$filt$0 000000014002d568     LIBCMT:tidtable.obj
 0002:0000b568       $unwind$flsall$fin$0       000000014002d568     LIBCMT:tidtable.obj
 0002:0000b568       $unwind$__FrameUnwindToState$fin$1 000000014002d568     LIBCMT:tidtable.obj
 0002:0000b568       $unwind$__lock_fhandle$fin$0 000000014002d568     LIBCMT:tidtable.obj
 0002:0000b568       $unwind$__tmainCRTStartup$filt$0 000000014002d568     LIBCMT:tidtable.obj
 0002:0000b568       $unwind$?fin$0@?0??_Type_info_dtor@type_info@@CAXPEAV1@@Z@4HA 000000014002d568     LIBCMT:tidtable.obj
 0002:0000b568       $unwind$__DestructExceptionObject$filt$0 000000014002d568     LIBCMT:tidtable.obj
 0002:0000b568       $unwind$__updatetlocinfo$fin$0 000000014002d568     LIBCMT:tidtable.obj
 0002:0000b568       $unwind$_close$fin$0       000000014002d568     LIBCMT:tidtable.obj
 0002:0000b568       $unwind$_freefls$fin$1     000000014002d568     LIBCMT:tidtable.obj
 0002:0000b568       $unwind$_freefls$fin$0     000000014002d568     LIBCMT:tidtable.obj
 0002:0000b568       $unwind$_initptd$fin$1     000000014002d568     LIBCMT:tidtable.obj
 0002:0000b568       $unwind$_initptd$fin$0     000000014002d568     LIBCMT:tidtable.obj
 0002:0000b568       $unwind$_onexit$fin$0      000000014002d568     LIBCMT:tidtable.obj
 0002:0000b568       $unwind$_IsNonwritableInCurrentImage$filt$0 000000014002d568     LIBCMT:tidtable.obj
 0002:0000b568       $unwind$raise$fin$0        000000014002d568     LIBCMT:tidtable.obj
 0002:0000b568       $unwind$_mtinitlocknum$fin$0 000000014002d568     LIBCMT:tidtable.obj
 0002:0000b568       $unwind$_locterm$fin$0     000000014002d568     LIBCMT:tidtable.obj
 0002:0000b568       $unwind$fclose$fin$0       000000014002d568     LIBCMT:tidtable.obj
 0002:0000b568       $unwind$doexit$fin$0       000000014002d568     LIBCMT:tidtable.obj
 0002:0000b568       $unwind$_commit$fin$0      000000014002d568     LIBCMT:tidtable.obj
 0002:0000b568       $unwind$_fcloseall$fin$0   000000014002d568     LIBCMT:tidtable.obj
 0002:0000b570       $unwind$_initptd           000000014002d570     LIBCMT:tidtable.obj
 0002:0000b5a4       $unwind$__isa_available_init 000000014002d5a4     LIBCMT:cpu_disp.obj
 0002:0000b5b8       $unwind$_NMSG_WRITE        000000014002d5b8     LIBCMT:crt0msg.obj
 0002:0000b5dc       $unwind$?terminate@@YAXXZ  000000014002d5dc     LIBCMT:hooks.obj
 0002:0000b5fc       $unwind$?_inconsistency@@YAXXZ 000000014002d5fc     LIBCMT:hooks.obj
 0002:0000b61c       $unwind$_ioinit            000000014002d61c     LIBCMT:ioinit.obj
 0002:0000b664       $unwind$_setargv           000000014002d664     LIBCMT:stdargv.obj
 0002:0000b674       $unwind$?_GetRangeOfTrysToCheck@@YAPEBU_s_TryBlockMapEntry@@PEA_KPEBU_s_FuncInfo@@HHPEAI2PEAU_xDISPATCHER_CONTEXT@@@Z 000000014002d674     LIBCMT:stdargv.obj
 0002:0000b674       $unwind$parse_cmdline      000000014002d674     LIBCMT:stdargv.obj
 0002:0000b690       $unwind$__security_init_cookie 000000014002d690     LIBCMT:gs_support.obj
 0002:0000b69c       $unwind$__crtCaptureCurrentContext 000000014002d69c     LIBCMT:winapisupp.obj
 0002:0000b6a8       $unwind$__crtCapturePreviousContext 000000014002d6a8     LIBCMT:winapisupp.obj
 0002:0000b6b8       $xdatasym                  000000014002d6b8     LIBCMT:amdsecgs.obj
 0002:0000b6bc       $unwind$_mtinitlocknum     000000014002d6bc     LIBCMT:mlock.obj
 0002:0000b6e8       $xdatasym                  000000014002d6e8     LIBCMT:jmpuwind.obj
 0002:0000b6fc       $unwind$_IsNonwritableInCurrentImage 000000014002d6fc     LIBCMT:pesect.obj
 0002:0000b720       $unwind$raise              000000014002d720     LIBCMT:winsig.obj
 0002:0000b750       $unwind$__free_lc_time     000000014002d750     LIBCMT:initmon.obj
 0002:0000b750       $unwind$__free_lconv_mon   000000014002d750     LIBCMT:initmon.obj
 0002:0000b758       $unwind$?__crtLCMapStringA_stat@@YAHPEAUlocaleinfo_struct@@PEB_WKPEBDHPEADHHH@Z 000000014002d758     LIBCMT:a_map.obj
 0002:0000b780       $unwind$?__crtGetStringTypeA_stat@@YAHPEAUlocaleinfo_struct@@KPEBDHPEAGHH@Z 000000014002d780     LIBCMT:a_str.obj
 0002:0000b7a8       $unwind$__crtLCMapStringEx 000000014002d7a8     LIBCMT:winapinls.obj
 0002:0000b7b8       $unwind$__crtMessageBoxW   000000014002d7b8     LIBCMT:crtmboxw.obj
 0002:0000b7d4       $unwind$__report_gsfailure 000000014002d7d4     LIBCMT:gs_report.obj
 0002:0000b7d4       $unwind$_putwch_nolock     000000014002d7d4     LIBCMT:gs_report.obj
 0002:0000b7dc       $unwind$flsall             000000014002d7dc     LIBCMT:fflush.obj
 0002:0000b81c       $unwind$_locterm           000000014002d81c     LIBCMT:wsetloca.obj
 0002:0000b840       $xdatasym                  000000014002d840     LIBCMT:chkstk.obj
 0002:0000b848       $unwind$_fcloseall         000000014002d848     LIBCMT:closeall.obj
 0002:0000b870       $unwind$_commit            000000014002d870     LIBCMT:commit.obj
 0002:0000b898       $unwind$_write             000000014002d898     LIBCMT:write.obj
 0002:0000b8c4       $unwind$_write_nolock      000000014002d8c4     LIBCMT:write.obj
 0002:0000b8e8       $xdatasym                  000000014002d8e8     LIBCMT:memcmp.obj
 0002:0000b8ec       $unwind$fclose             000000014002d8ec     LIBCMT:fclose.obj
 0002:0000b910       $unwind$_isctype_l         000000014002d910     LIBCMT:isctype.obj
 0002:0000b920       $unwind$_atodbl_l          000000014002d920     LIBCMT:atodbl.obj
 0002:0000b934       $unwind$__crt_atoflt_l     000000014002d934     LIBCMT:atodbl.obj
 0002:0000b948       $unwind$_free_osfhnd       000000014002d948     LIBCMT:osfinfo.obj
 0002:0000b958       $unwind$__lock_fhandle     000000014002d958     LIBCMT:osfinfo.obj
 0002:0000b984       $unwind$_mbtowc_l          000000014002d984     LIBCMT:mbtowc.obj
 0002:0000b99c       $unwind$_close             000000014002d99c     LIBCMT:close.obj
 0002:0000b9c4       $unwind$_ld12tof           000000014002d9c4     LIBCMT:intrncvt.obj
 0002:0000b9c4       $unwind$_ld12tod           000000014002d9c4     LIBCMT:intrncvt.obj
 0002:0000b9e8       $unwind$__strgtold12_l     000000014002d9e8     LIBCMT:strgtold.obj
 0002:0000ba0c       $unwind$_cftoe2_l          000000014002da0c     LIBCMT:cvt.obj
 0002:0000ba28       $unwind$_cftoe_l           000000014002da28     LIBCMT:cvt.obj
 0002:0000ba40       $unwind$_cftoa_l           000000014002da40     LIBCMT:cvt.obj
 0002:0000ba5c       $unwind$_cftof2_l          000000014002da5c     LIBCMT:cvt.obj
 0002:0000ba5c       $unwind$__crtGetEnvironmentStringsA 000000014002da5c     LIBCMT:cvt.obj
 0002:0000ba74       $unwind$_cftof_l           000000014002da74     LIBCMT:cvt.obj
 0002:0000ba8c       $unwind$_cftog_l           000000014002da8c     LIBCMT:cvt.obj
 0002:0000baa4       $unwind$__mtold12          000000014002daa4     LIBCMT:mantold.obj
 0002:0000babc       $unwind$_tolower_l         000000014002dabc     LIBCMT:tolower.obj
 0002:0000bacc       $unwind$strrchr            000000014002dacc     LIBCMT:strrchr.obj
 0002:0000bacc       $unwind$strchr             000000014002dacc     LIBCMT:strrchr.obj
 0002:0000bad4       $unwind$_fltout2           000000014002dad4     LIBCMT:cfout.obj
 0002:0000baec       $unwind$__dtold            000000014002daec     LIBCMT:cfout.obj
 0002:0000baf4       $unwind$$I10_OUTPUT        000000014002daf4     LIBCMT:x10fout.obj
 0002:0000bb18       $unwind$?__FrameUnwindToEmptyState@@YAXPEA_KPEAU_xDISPATCHER_CONTEXT@@PEBU_s_FuncInfo@@@Z 000000014002db18     LIBCMT:trnsctrl.obj
 0002:0000bb2c       $unwind$_UnwindNestedFrames 000000014002db2c     LIBCMT:trnsctrl.obj
 0002:0000bb40       $unwind$_CallSETranslator  000000014002db40     LIBCMT:trnsctrl.obj
 0002:0000bb60       $unwind$_CallSETranslator$filt$0 000000014002db60     LIBCMT:trnsctrl.obj
 0002:0000bb68       $unwind$__CxxFrameHandler3 000000014002db68     LIBCMT:trnsctrl.obj
 0002:0000bb78       $unwind$__CxxCallCatchBlock 000000014002db78     LIBCMT:frame.obj
 0002:0000bbb8       $unwind$__CxxCallCatchBlock$fin$1 000000014002dbb8     LIBCMT:frame.obj
 0002:0000bbc4       $unwind$__FrameUnwindToState 000000014002dbc4     LIBCMT:frame.obj
 0002:0000bc00       $unwind$?FindHandler@@YAXPEAUEHExceptionRecord@@PEA_KPEAU_CONTEXT@@PEAU_xDISPATCHER_CONTEXT@@PEBU_s_FuncInfo@@EH1@Z 000000014002dc00     LIBCMT:frame.obj
 0002:0000bc1c       $unwind$?CatchIt@@YAXPEAUEHExceptionRecord@@PEA_KPEAU_CONTEXT@@PEAU_xDISPATCHER_CONTEXT@@PEBU_s_FuncInfo@@PEBU_s_HandlerType@@PEBU_s_CatchableType@@PEBU_s_TryBlockMapEntry@@H1EE@Z 000000014002dc1c     LIBCMT:frame.obj
 0002:0000bc34       $unwind$__BuildCatchObject 000000014002dc34     LIBCMT:frame.obj
 0002:0000bc60       $unwind$?FindHandlerForForeignException@@YAXPEAUEHExceptionRecord@@PEA_KPEAU_CONTEXT@@PEAU_xDISPATCHER_CONTEXT@@PEBU_s_FuncInfo@@HH1@Z 000000014002dc60     LIBCMT:frame.obj
 0002:0000bc78       $unwind$__DestructExceptionObject 000000014002dc78     LIBCMT:frame.obj
 0002:0000bc98       $unwind$?IsInExceptionSpec@@YAEPEAUEHExceptionRecord@@PEBU_s_ESTypeList@@@Z 000000014002dc98     LIBCMT:frame.obj
 0002:0000bcb4       $unwind$__InternalCxxFrameHandler 000000014002dcb4     LIBCMT:frame.obj
 0002:0000bccc       $unwind$__BuildCatchObjectHelper 000000014002dccc     LIBCMT:frame.obj
 0002:0000bd00       $xdatasym                  000000014002dd00     LIBCMT:handlers.obj
 0002:0000c85c       .idata$6                   000000014002e85c     kernel32:KERNEL32.dll
 0002:0000cf34       .idata$6                   000000014002ef34     user32:USER32.dll
 0002:0000cf60       .idata$6                   000000014002ef60     shell32:SHELL32.dll
 0002:0000cf96       .idata$6                   000000014002ef96     shlwapi:SHLWAPI.dll
 0002:0000d0ce       .idata$6                   000000014002f0ce     gdi32:GDI32.dll
 0002:0000d0f0       .idata$6                   000000014002f0f0     comctl32:COMCTL32.dll
 0003:00000000       errtable                   0000000140030000     LIBCMT:dosmap.obj
 0003:00000168       ErrnoNoMem                 0000000140030168     LIBCMT:dosmap.obj
 0003:0000016c       DoserrorNoMem              000000014003016c     LIBCMT:dosmap.obj
 0003:000005a8       __rgctypeflag              00000001400305a8     LIBCMT:mbctype.obj
 0003:000005b0       __rgcode_page_info         00000001400305b0     LIBCMT:mbctype.obj
 0003:00000b58       ?isPackaged@?1??__crtIsPackagedApp@@9@9 0000000140030b58     LIBCMT:winapisupp.obj
 0003:00000b70       _locktable                 0000000140030b70     LIBCMT:mlock.obj
 0003:00001280       _ctype_loc_style           0000000140031280     LIBCMT:wsetloca.obj
 0003:000012a8       DoubleFormat               00000001400312a8     LIBCMT:intrncvt.obj
 0003:000012c0       FloatFormat                00000001400312c0     LIBCMT:intrncvt.obj
 0003:00001df0       __type_info_root_node      0000000140031df0     LIBCMT:typname.obj
 0003:00001e90       fSystemSet                 0000000140031e90     LIBCMT:mbctype.obj
 0003:00001eb0       ?outmsg@?8??_NMSG_WRITE@@9@9 0000000140031eb0     LIBCMT:crt0msg.obj
 0003:000026f0       ?_pgmname@?1??_setargv@@9@9 00000001400326f0     LIBCMT:stdargv.obj
 0003:00002800       lclcritsects               0000000140032800     LIBCMT:mlock.obj
 0003:00002a78       heap                       0000000140032a78     LIBCMT:undname.obj
 0003:00002aa0       ctrlc_action               0000000140032aa0     LIBCMT:winsig.obj
 0003:00002aa8       ctrlbreak_action           0000000140032aa8     LIBCMT:winsig.obj
 0003:00002ab0       abort_action               0000000140032ab0     LIBCMT:winsig.obj
 0003:00002ab8       term_action                0000000140032ab8     LIBCMT:winsig.obj
 0003:00002ac0       ConsoleCtrlHandler_Installed 0000000140032ac0     LIBCMT:winsig.obj
 0003:00002ac8       g_pfnRtlGenRandom          0000000140032ac8     LIBCMT:rand_s.obj
 0003:00002ae8       __crtCallProc              0000000140032ae8     LIBCMT:winapinls.obj
 0003:00002af0       ?pfnMessageBox@?1??__crtMessageBoxW@@9@9 0000000140032af0     LIBCMT:crtmboxw.obj
 0003:00002af8       ?pfnGetActiveWindow@?1??__crtMessageBoxW@@9@9 0000000140032af8     LIBCMT:crtmboxw.obj
 0003:00002b00       ?pfnGetLastActivePopup@?1??__crtMessageBoxW@@9@9 0000000140032b00     LIBCMT:crtmboxw.obj
 0003:00002b08       ?pfnGetProcessWindowStation@?1??__crtMessageBoxW@@9@9 0000000140032b08     LIBCMT:crtmboxw.obj
 0003:00002b10       ?pfnGetUserObjectInformation@?1??__crtMessageBoxW@@9@9 0000000140032b10     LIBCMT:crtmboxw.obj
 0003:00002b20       GS_ExceptionRecord         0000000140032b20     LIBCMT:gs_report.obj
 0003:00002bc0       GS_ContextRecord           0000000140032bc0     LIBCMT:gs_report.obj
 0003:00003090       DebuggerWasPresent         0000000140033090     LIBCMT:gs_report.obj
 0003:00003198       atlTraceUI                 0000000140033198     StdAfx.obj
 0004:00000000       $pdata$??__E_AtlWinModule@ATL@@YAXXZ 0000000140035000     ChildView.obj
 0004:0000000c       $pdata$??__EtheApp@@YAXXZ  000000014003500c     FrmVC6.obj
 0004:00000018       $pdata$??__E_AtlBaseModule@ATL@@YAXXZ 0000000140035018     atls:atlbase.obj
 0004:00000024       $pdata$??_GCChildView@@UEAAPEAXI@Z 0000000140035024     ChildView.obj
 0004:00000030       $pdata$?_ProcessWindowMessage@CChildView@@UEAAHPEAUHWND__@@I_K_JAEA_J@Z 0000000140035030     ChildView.obj
 0004:0000003c       $pdata$?PreCreateWindow@CChildView@@MEAAHAEAUtagCREATESTRUCTA@@@Z 000000014003503c     ChildView.obj
 0004:00000048       $pdata$?OnPaint@CChildView@@IEAAXXZ 0000000140035048     ChildView.obj
 0004:00000054       $pdata$??1CPaintDCMTL@@UEAA@XZ 0000000140035054     ChildView.obj
 0004:00000060       $pdata$??_GCPaintDCMTL@@UEAAPEAXI@Z 0000000140035060     ChildView.obj
 0004:0000006c       $pdata$?AfxRegisterWndClass@CAfx@@SAPEBDIPEAUHICON__@@PEAUHBRUSH__@@0@Z 000000014003506c     ChildView.obj
 0004:00000078       $pdata$??_GCAboutDlg@@UEAAPEAXI@Z 0000000140035078     FrmVC6.obj
 0004:00000078       $pdata$??_GCDialog@@UEAAPEAXI@Z 0000000140035078     FrmVC6.obj
 0004:00000078       $pdata$??_GCWnd@@UEAAPEAXI@Z 0000000140035078     ChildView.obj
 0004:00000084       $pdata$?WindowProc@CWnd@@UEAA_JI_K_J@Z 0000000140035084     ChildView.obj
 0004:00000090       $pdata$?PreTranslateMessage@CWnd@@UEAAHPEAUtagMSG@@@Z 0000000140035090     ChildView.obj
 0004:0000009c       $pdata$?_AfxTopChildWindowFromPoint@CWnd@@SAPEAUHWND__@@PEAU2@UtagPOINT@@@Z 000000014003509c     ChildView.obj
 0004:000000a8       $pdata$?OnToolHitTest@CWnd@@UEBA_JVCPoint@WTL@@PEAUtagTOOLINFOA@@@Z 00000001400350a8     ChildView.obj
 0004:000000b4       $pdata$0$?OnToolHitTest@CWnd@@UEBA_JVCPoint@WTL@@PEAUtagTOOLINFOA@@@Z 00000001400350b4     ChildView.obj
 0004:000000c0       $pdata$1$?OnToolHitTest@CWnd@@UEBA_JVCPoint@WTL@@PEAUtagTOOLINFOA@@@Z 00000001400350c0     ChildView.obj
 0004:000000cc       $pdata$?GetParent@CWnd@@QEAAPEAV1@XZ 00000001400350cc     ChildView.obj
 0004:000000d8       $pdata$3$?GetParent@CWnd@@QEAAPEAV1@XZ 00000001400350d8     ChildView.obj
 0004:000000e4       $pdata$4$?GetParent@CWnd@@QEAAPEAV1@XZ 00000001400350e4     ChildView.obj
 0004:000000f0       $pdata$5$?GetParent@CWnd@@QEAAPEAV1@XZ 00000001400350f0     ChildView.obj
 0004:000000fc       $pdata$6$?GetParent@CWnd@@QEAAPEAV1@XZ 00000001400350fc     ChildView.obj
 0004:00000108       $pdata$7$?GetParent@CWnd@@QEAAPEAV1@XZ 0000000140035108     ChildView.obj
 0004:00000114       $pdata$8$?GetParent@CWnd@@QEAAPEAV1@XZ 0000000140035114     ChildView.obj
 0004:00000120       $pdata$?Enable@CCmdUI@@UEAAXH@Z 0000000140035120     ChildView.obj
 0004:0000012c       $pdata$0$?Enable@CCmdUI@@UEAAXH@Z 000000014003512c     ChildView.obj
 0004:00000138       $pdata$1$?Enable@CCmdUI@@UEAAXH@Z 0000000140035138     ChildView.obj
 0004:00000144       $pdata$?SetCheck@CCmdUI@@UEAAXH@Z 0000000140035144     ChildView.obj
 0004:00000150       $pdata$?SetRadio@CCmdUI@@UEAAXH@Z 0000000140035150     ChildView.obj
 0004:0000015c       $pdata$?AfxSetWindowText@CAfx@@SAXPEAUHWND__@@PEBD@Z 000000014003515c     ChildView.obj
 0004:00000168       $pdata$?SetText@CCmdUI@@UEAAXPEBD@Z 0000000140035168     ChildView.obj
 0004:00000174       $pdata$?OnCommand@CWnd@@UEAAH_K_J@Z 0000000140035174     ChildView.obj
 0004:00000180       $pdata$??_GCDCMTL@@UEAAPEAXI@Z 0000000140035180     ChildView.obj
 0004:0000018c       $pdata$?SaveDC@CDCMTL@@UEAAHXZ 000000014003518c     ChildView.obj
 0004:00000198       $pdata$?RestoreDC@CDCMTL@@UEAAHH@Z 0000000140035198     ChildView.obj
 0004:000001a4       $pdata$?RemoveHandle@?$CHandleList@PEAUHDC__@@VCDCMTL@@PEAUHWND__@@@@QEAAPEAUHDC__@@QEAU2@@Z 00000001400351a4     ChildView.obj
 0004:000001a4       $pdata$?RemoveHandle@?$CHandleList@PEAUHMENU__@@VCMenuMTL@@PEAUHWND__@@@@QEAAPEAUHMENU__@@QEAU2@@Z 00000001400351a4     ChildView.obj
 0004:000001b0       $pdata$??1CDCMTL@@UEAA@XZ  00000001400351b0     ChildView.obj
 0004:000001bc       $pdata$??1CWnd@@UEAA@XZ    00000001400351bc     ChildView.obj
 0004:000001c8       $pdata$?classHandleFuncCWnd@CWnd@@SAPEAXPEAX0@Z 00000001400351c8     ChildView.obj
 0004:000001d4       $pdata$?UnsubclassWindow@CWMHnd@@QEAAPEAUHWND__@@XZ 00000001400351d4     ChildView.obj
 0004:000001e0       $pdata$?OnNcDestroy@CWnd@@QEAAXXZ 00000001400351e0     ChildView.obj
 0004:000001ec       $pdata$?_ProcessWindowMessage@CWnd@@UEAAHPEAUHWND__@@I_K_JAEA_J@Z 00000001400351ec     ChildView.obj
 0004:000001f8       $pdata$?OnWndMsg@CWnd@@UEAAHI_K_JPEA_J@Z 00000001400351f8     ChildView.obj
 0004:00000204       $pdata$?ReflectChildNotify@CWnd@@QEAAHI_K_JPEA_J@Z 0000000140035204     ChildView.obj
 0004:00000210       $pdata$0$?ReflectChildNotify@CWnd@@QEAAHI_K_JPEA_J@Z 0000000140035210     ChildView.obj
 0004:0000021c       $pdata$1$?ReflectChildNotify@CWnd@@QEAAHI_K_JPEA_J@Z 000000014003521c     ChildView.obj
 0004:00000228       $pdata$?ReflectLastMsg@CWnd@@SAHPEAUHWND__@@PEA_J@Z 0000000140035228     ChildView.obj
 0004:00000234       $pdata$?OnNotify@CWnd@@UEAAH_K_JPEA_J@Z 0000000140035234     ChildView.obj
 0004:00000240       $pdata$?Create@CWnd@@UEAAHPEBD0KAEBUtagRECT@@PEAV1@IPEAUCCreateContext@@@Z 0000000140035240     ChildView.obj
 0004:0000024c       $pdata$?AtlWinModuleExtractCreateWndData@ATL@@YAPEAXPEAU_ATL_WIN_MODULE70@1@@Z 000000014003524c     ChildView.obj
 0004:00000258       $pdata$?AtlWinModuleTerm@ATL@@YAJPEAU_ATL_WIN_MODULE70@1@PEAUHINSTANCE__@@@Z 0000000140035258     ChildView.obj
 0004:00000264       $pdata$2$?AtlWinModuleTerm@ATL@@YAJPEAU_ATL_WIN_MODULE70@1@PEAUHINSTANCE__@@@Z 0000000140035264     ChildView.obj
 0004:00000270       $pdata$3$?AtlWinModuleTerm@ATL@@YAJPEAU_ATL_WIN_MODULE70@1@PEAUHINSTANCE__@@@Z 0000000140035270     ChildView.obj
 0004:0000027c       $pdata$4$?AtlWinModuleTerm@ATL@@YAJPEAU_ATL_WIN_MODULE70@1@PEAUHINSTANCE__@@@Z 000000014003527c     ChildView.obj
 0004:00000288       $pdata$??0CAtlWinModule@ATL@@QEAA@XZ 0000000140035288     ChildView.obj
 0004:00000294       $pdata$?Init@CDynamicStdCallThunk@ATL@@QEAAH_KPEAX@Z 0000000140035294     ChildView.obj
 0004:000002a0       $pdata$?AfxWindowProc@CWMHnd@@SA_JPEAUHWND__@@I_K_J@Z 00000001400352a0     ChildView.obj
 0004:000002ac       $pdata$?FromHandle@?$CHandleHashList@PEAUHWND__@@VCWMHnd@@PEAU1@$0BB@@@QEAAPEAVCWMHnd@@QEAUHWND__@@PEAV2@0Q6APEAXPEAX2@Z@Z 00000001400352ac     ChildView.obj
 0004:000002b8       $pdata$1$?FromHandle@?$CHandleHashList@PEAUHWND__@@VCWMHnd@@PEAU1@$0BB@@@QEAAPEAVCWMHnd@@QEAUHWND__@@PEAV2@0Q6APEAXPEAX2@Z@Z 00000001400352b8     ChildView.obj
 0004:000002c4       $pdata$2$?FromHandle@?$CHandleHashList@PEAUHWND__@@VCWMHnd@@PEAU1@$0BB@@@QEAAPEAVCWMHnd@@QEAUHWND__@@PEAV2@0Q6APEAXPEAX2@Z@Z 00000001400352c4     ChildView.obj
 0004:000002d0       $pdata$3$?FromHandle@?$CHandleHashList@PEAUHWND__@@VCWMHnd@@PEAU1@$0BB@@@QEAAPEAVCWMHnd@@QEAUHWND__@@PEAV2@0Q6APEAXPEAX2@Z@Z 00000001400352d0     ChildView.obj
 0004:000002dc       $pdata$4$?FromHandle@?$CHandleHashList@PEAUHWND__@@VCWMHnd@@PEAU1@$0BB@@@QEAAPEAVCWMHnd@@QEAUHWND__@@PEAV2@0Q6APEAXPEAX2@Z@Z 00000001400352dc     ChildView.obj
 0004:000002e8       $pdata$5$?FromHandle@?$CHandleHashList@PEAUHWND__@@VCWMHnd@@PEAU1@$0BB@@@QEAAPEAVCWMHnd@@QEAUHWND__@@PEAV2@0Q6APEAXPEAX2@Z@Z 00000001400352e8     ChildView.obj
 0004:000002f4       $pdata$?OnCmdMsg@CCmdTarget@@UEAAHIHPEAXPEAUAFX_CMDHANDLERINFO@@@Z 00000001400352f4     ChildView.obj
 0004:00000300       $pdata$0$?OnCmdMsg@CCmdTarget@@UEAAHIHPEAXPEAUAFX_CMDHANDLERINFO@@@Z 0000000140035300     ChildView.obj
 0004:0000030c       $pdata$1$?OnCmdMsg@CCmdTarget@@UEAAHIHPEAXPEAUAFX_CMDHANDLERINFO@@@Z 000000014003530c     ChildView.obj
 0004:00000318       $pdata$??_GCWMHnd@@UEAAPEAXI@Z 0000000140035318     ChildView.obj
 0004:00000324       $pdata$?CalcWindowRect@CWMHnd@@UEAAXPEAUtagRECT@@I@Z 0000000140035324     ChildView.obj
 0004:00000330       $pdata$?FromHandle@?$CHandleList@PEAUHMENU__@@VCMenuMTL@@PEAUHWND__@@@@QEAAPEAVCMenuMTL@@QEAUHMENU__@@PEAV2@QEAUHWND__@@Q6APEAXPEAX3@Z@Z 0000000140035330     ChildView.obj
 0004:0000033c       $pdata$1$?FromHandle@?$CHandleList@PEAUHMENU__@@VCMenuMTL@@PEAUHWND__@@@@QEAAPEAVCMenuMTL@@QEAUHMENU__@@PEAV2@QEAUHWND__@@Q6APEAXPEAX3@Z@Z 000000014003533c     ChildView.obj
 0004:00000348       $pdata$2$?FromHandle@?$CHandleList@PEAUHMENU__@@VCMenuMTL@@PEAUHWND__@@@@QEAAPEAVCMenuMTL@@QEAUHMENU__@@PEAV2@QEAUHWND__@@Q6APEAXPEAX3@Z@Z 0000000140035348     ChildView.obj
 0004:00000354       $pdata$3$?FromHandle@?$CHandleList@PEAUHMENU__@@VCMenuMTL@@PEAUHWND__@@@@QEAAPEAVCMenuMTL@@QEAUHMENU__@@PEAV2@QEAUHWND__@@Q6APEAXPEAX3@Z@Z 0000000140035354     ChildView.obj
 0004:00000360       $pdata$??_GCMenuMTL@@UEAAPEAXI@Z 0000000140035360     ChildView.obj
 0004:0000036c       $pdata$??1?$CMenuT@$00@WTL@@QEAA@XZ 000000014003536c     ChildView.obj
 0004:00000378       $pdata$??1CMenuMTL@@UEAA@XZ 0000000140035378     ChildView.obj
 0004:00000384       $pdata$?classHandleFuncCMenuMTL@CMenuMTL@@SAPEAXPEAX0@Z 0000000140035384     ChildView.obj
 0004:00000390       $pdata$?GetMenu@CWMHnd@@UEBAPEAVCMenuMTL@@XZ 0000000140035390     ChildView.obj
 0004:0000039c       $pdata$?DefWindowProcA@CWMHnd@@UEAA_JI_K_J@Z 000000014003539c     ChildView.obj
 0004:000003a8       $pdata$?OnInitDialog@CWMHnd@@UEAAHXZ 00000001400353a8     ChildView.obj
 0004:000003b4       $pdata$?RemoveHandle@?$CHandleHashList@PEAUHWND__@@VCWMHnd@@PEAU1@$0BB@@@QEAAPEAUHWND__@@QEAU2@@Z 00000001400353b4     ChildView.obj
 0004:000003c0       $pdata$?RemoveOwner@?$CHandleHashList@PEAUHWND__@@VCWMHnd@@PEAU1@$0BB@@@QEAAHQEAUHWND__@@@Z 00000001400353c0     ChildView.obj
 0004:000003cc       $pdata$?RemoveOwner@?$CHandleList@PEAUHDC__@@VCDCMTL@@PEAUHWND__@@@@QEAAHQEAUHWND__@@@Z 00000001400353cc     ChildView.obj
 0004:000003cc       $pdata$?RemoveOwner@?$CHandleList@PEAXVCGdiObject@@PEAUHWND__@@@@QEAAHQEAUHWND__@@@Z 00000001400353cc     ChildView.obj
 0004:000003cc       $pdata$?RemoveOwner@?$CHandleList@PEAXXPEAUHWND__@@@@QEAAHQEAUHWND__@@@Z 00000001400353cc     ChildView.obj
 0004:000003cc       $pdata$?RemoveOwner@?$CHandleList@PEAUHMENU__@@VCMenuMTL@@PEAUHWND__@@@@QEAAHQEAUHWND__@@@Z 00000001400353cc     ChildView.obj
 0004:000003d8       $pdata$1$?RemoveOwner@?$CHandleList@PEAUHMENU__@@VCMenuMTL@@PEAUHWND__@@@@QEAAHQEAUHWND__@@@Z 00000001400353d8     ChildView.obj
 0004:000003d8       $pdata$1$?RemoveOwner@?$CHandleList@PEAUHDC__@@VCDCMTL@@PEAUHWND__@@@@QEAAHQEAUHWND__@@@Z 00000001400353d8     ChildView.obj
 0004:000003d8       $pdata$1$?RemoveOwner@?$CHandleList@PEAXVCGdiObject@@PEAUHWND__@@@@QEAAHQEAUHWND__@@@Z 00000001400353d8     ChildView.obj
 0004:000003d8       $pdata$1$?RemoveOwner@?$CHandleList@PEAXXPEAUHWND__@@@@QEAAHQEAUHWND__@@@Z 00000001400353d8     ChildView.obj
 0004:000003e4       $pdata$2$?RemoveOwner@?$CHandleList@PEAXVCGdiObject@@PEAUHWND__@@@@QEAAHQEAUHWND__@@@Z 00000001400353e4     ChildView.obj
 0004:000003e4       $pdata$2$?RemoveOwner@?$CHandleList@PEAXXPEAUHWND__@@@@QEAAHQEAUHWND__@@@Z 00000001400353e4     ChildView.obj
 0004:000003e4       $pdata$2$?RemoveOwner@?$CHandleList@PEAUHDC__@@VCDCMTL@@PEAUHWND__@@@@QEAAHQEAUHWND__@@@Z 00000001400353e4     ChildView.obj
 0004:000003e4       $pdata$2$?RemoveOwner@?$CHandleList@PEAUHMENU__@@VCMenuMTL@@PEAUHWND__@@@@QEAAHQEAUHWND__@@@Z 00000001400353e4     ChildView.obj
 0004:000003f0       $pdata$?RemoveHandleWnd@CModuleThreadState@@QEAAPEAUHWND__@@PEAU2@@Z 00000001400353f0     ChildView.obj
 0004:000003fc       $pdata$?classHandleFuncCWMHnd@CWMHnd@@SAPEAXPEAX0@Z 00000001400353fc     ChildView.obj
 0004:00000408       $pdata$?SubclassWindow@CWMHnd@@QEAAHPEAUHWND__@@PEAUtagCREATESTRUCTA@@@Z 0000000140035408     ChildView.obj
 0004:00000414       $pdata$0$?SubclassWindow@CWMHnd@@QEAAHPEAUHWND__@@PEAUtagCREATESTRUCTA@@@Z 0000000140035414     ChildView.obj
 0004:00000420       $pdata$1$?SubclassWindow@CWMHnd@@QEAAHPEAUHWND__@@PEAUtagCREATESTRUCTA@@@Z 0000000140035420     ChildView.obj
 0004:0000042c       $pdata$?CbtFilterHook@CWnd@@SA_JH_K_J@Z 000000014003542c     ChildView.obj
 0004:00000438       $pdata$?HookWindowCreate@CWnd@@SAHPEAV1@G@Z 0000000140035438     ChildView.obj
 0004:00000444       $pdata$?CreateEx@CWnd@@UEAAHKPEBD0KHHHHPEAUHWND__@@PEAUHMENU__@@PEAX@Z 0000000140035444     ChildView.obj
 0004:00000450       $pdata$1$?CreateEx@CWnd@@UEAAHKPEBD0KHHHHPEAUHWND__@@PEAUHMENU__@@PEAX@Z 0000000140035450     ChildView.obj
 0004:0000045c       $pdata$2$?CreateEx@CWnd@@UEAAHKPEBD0KHHHHPEAUHWND__@@PEAUHMENU__@@PEAX@Z 000000014003545c     ChildView.obj
 0004:00000468       $pdata$??1?$CList@PEAVCFrameWnd@@AEBQEAV1@@@QEAA@XZ 0000000140035468     FrmVC6.obj
 0004:00000468       $pdata$??1?$CList@PEAXPEAX@@QEAA@XZ 0000000140035468     MainFrm.obj
 0004:00000468       $pdata$??1?$CList@PEAUHWND__@@PEAU1@@@QEAA@XZ 0000000140035468     MainFrm.obj
 0004:00000468       $pdata$??1?$CList@PEAUCRuntimeClass@@AEBQEAU1@@@QEAA@XZ 0000000140035468     ChildView.obj
 0004:00000474       $pdata$0$??1?$CList@PEAUCRuntimeClass@@AEBQEAU1@@@QEAA@XZ 0000000140035474     ChildView.obj
 0004:00000474       $pdata$0$??1?$CList@PEAXPEAX@@QEAA@XZ 0000000140035474     MainFrm.obj
 0004:00000474       $pdata$0$??1?$CList@PEAUHWND__@@PEAU1@@@QEAA@XZ 0000000140035474     MainFrm.obj
 0004:00000474       $pdata$0$??1?$CList@PEAVCFrameWnd@@AEBQEAV1@@@QEAA@XZ 0000000140035474     FrmVC6.obj
 0004:00000480       $pdata$1$??1?$CList@PEAUCRuntimeClass@@AEBQEAU1@@@QEAA@XZ 0000000140035480     ChildView.obj
 0004:00000480       $pdata$1$??1?$CList@PEAVCFrameWnd@@AEBQEAV1@@@QEAA@XZ 0000000140035480     FrmVC6.obj
 0004:00000480       $pdata$1$??1?$CList@PEAXPEAX@@QEAA@XZ 0000000140035480     MainFrm.obj
 0004:00000480       $pdata$1$??1?$CList@PEAUHWND__@@PEAU1@@@QEAA@XZ 0000000140035480     MainFrm.obj
 0004:0000048c       $pdata$??1CModuleState@@QEAA@XZ 000000014003548c     ChildView.obj
 0004:00000498       $pdata$?AfxGetModuleState@@YAPEAVCModuleState@@XZ 0000000140035498     ChildView.obj
 0004:000004a4       $pdata$?AllocBuffer@CString@WTL@@IEAAHH@Z 00000001400354a4     ChildView.obj
 0004:000004b0       $pdata$?ConcatCopy@CString@WTL@@IEAAHHPEBDH0@Z 00000001400354b0     ChildView.obj
 0004:000004bc       $pdata$0$?ConcatCopy@CString@WTL@@IEAAHHPEBDH0@Z 00000001400354bc     ChildView.obj
 0004:000004c8       $pdata$1$?ConcatCopy@CString@WTL@@IEAAHHPEBDH0@Z 00000001400354c8     ChildView.obj
 0004:000004d4       $pdata$2$?ConcatCopy@CString@WTL@@IEAAHHPEBDH0@Z 00000001400354d4     ChildView.obj
 0004:000004e0       $pdata$3$?ConcatCopy@CString@WTL@@IEAAHHPEBDH0@Z 00000001400354e0     ChildView.obj
 0004:000004ec       $pdata$?AtlThrowImpl@ATL@@YAXJ@Z 00000001400354ec     ChildView.obj
 0004:000004f8       $pdata$?memcpy_x@SecureHelper@WTL@@YAXPEAX_KPEBX1@Z 00000001400354f8     ChildView.obj
 0004:00000504       $pdata$?ConcatInPlace@CString@WTL@@IEAAXHPEBD@Z 0000000140035504     ChildView.obj
 0004:00000510       $pdata$?AfxEndDeferRegisterClass@CAfx@@SAHJ@Z 0000000140035510     ChildView.obj
 0004:0000051c       $pdata$2$?AfxEndDeferRegisterClass@CAfx@@SAHJ@Z 000000014003551c     ChildView.obj
 0004:00000528       $pdata$3$?AfxEndDeferRegisterClass@CAfx@@SAHJ@Z 0000000140035528     ChildView.obj
 0004:00000534       $pdata$4$?AfxEndDeferRegisterClass@CAfx@@SAHJ@Z 0000000140035534     ChildView.obj
 0004:00000540       $pdata$5$?AfxEndDeferRegisterClass@CAfx@@SAHJ@Z 0000000140035540     ChildView.obj
 0004:0000054c       $pdata$?PreCreateWindow@CWnd@@UEAAHAEAUtagCREATESTRUCTA@@@Z 000000014003554c     ChildView.obj
 0004:00000558       $pdata$?_ProcessWindowMessage@CFrmVC6App@@UEAAHPEAUHWND__@@I_K_JAEA_J@Z 0000000140035558     FrmVC6.obj
 0004:00000564       $pdata$?InitInstance@CFrmVC6App@@UEAAHXZ 0000000140035564     FrmVC6.obj
 0004:00000570       $pdata$?OnAppAbout@CFrmVC6App@@QEAAXXZ 0000000140035570     FrmVC6.obj
 0004:0000057c       $pdata$?_ProcessWindowMessage@CDialog@@UEAAHPEAUHWND__@@I_K_JAEA_J@Z 000000014003557c     FrmVC6.obj
 0004:00000588       $pdata$?OnCmdMsg@CDialog@@UEAAHIHPEAXPEAUAFX_CMDHANDLERINFO@@@Z 0000000140035588     FrmVC6.obj
 0004:00000594       $pdata$?PreTranslateMessage@CDialog@@UEAAHPEAUtagMSG@@@Z 0000000140035594     FrmVC6.obj
 0004:000005a0       $pdata$?OnOK@CDialog@@UEAAXXZ 00000001400355a0     FrmVC6.obj
 0004:000005ac       $pdata$?OnCancel@CDialog@@UEAAXXZ 00000001400355ac     FrmVC6.obj
 0004:000005b8       $pdata$?CreateIndirect@CDialog@@UEAAHPEAXPEAVCWnd@@PEAUHINSTANCE__@@@Z 00000001400355b8     FrmVC6.obj
 0004:000005c4       $pdata$?classHandleFuncCDialog@CDialog@@SAPEAXPEAX0@Z 00000001400355c4     FrmVC6.obj
 0004:000005d0       $pdata$?CenterWindow@CWindow@ATL@@QEAAHPEAUHWND__@@@Z 00000001400355d0     FrmVC6.obj
 0004:000005dc       $pdata$?ExecuteDlgInit@CWnd@@QEAAHPEAX@Z 00000001400355dc     FrmVC6.obj
 0004:000005e8       $pdata$?ExecuteDlgInit@CWnd@@QEAAHPEBD@Z 00000001400355e8     FrmVC6.obj
 0004:000005f4       $pdata$?OnInitDialog@CDialog@@UEAAHXZ 00000001400355f4     FrmVC6.obj
 0004:00000600       $pdata$?AfxDlgProc@CWnd@@SA_JPEAUHWND__@@I_K_J@Z 0000000140035600     FrmVC6.obj
 0004:0000060c       $pdata$0$?AfxDlgProc@CWnd@@SA_JPEAUHWND__@@I_K_J@Z 000000014003560c     FrmVC6.obj
 0004:00000618       $pdata$2$?AfxDlgProc@CWnd@@SA_JPEAUHWND__@@I_K_J@Z 0000000140035618     FrmVC6.obj
 0004:00000624       $pdata$3$?AfxDlgProc@CWnd@@SA_JPEAUHWND__@@I_K_J@Z 0000000140035624     FrmVC6.obj
 0004:00000630       $pdata$?CreateDlgIndirect@CWnd@@QEAAHPEBUDLGTEMPLATE@@PEAV1@PEAUHINSTANCE__@@@Z 0000000140035630     FrmVC6.obj
 0004:0000063c       $pdata$?CreateDlg@CWnd@@QEAAHPEBDPEAV1@@Z 000000014003563c     FrmVC6.obj
 0004:00000648       $pdata$?Create@CDialog@@UEAAHPEBDPEAVCWnd@@@Z 0000000140035648     FrmVC6.obj
 0004:00000654       $pdata$?RunModalLoop@CWnd@@QEAAHK@Z 0000000140035654     FrmVC6.obj
 0004:00000660       $pdata$?DoModal@CDialog@@UEAA_JXZ 0000000140035660     FrmVC6.obj
 0004:0000066c       $pdata$3$?DoModal@CDialog@@UEAA_JXZ 000000014003566c     FrmVC6.obj
 0004:00000678       $pdata$5$?DoModal@CDialog@@UEAA_JXZ 0000000140035678     FrmVC6.obj
 0004:00000684       $pdata$6$?DoModal@CDialog@@UEAA_JXZ 0000000140035684     FrmVC6.obj
 0004:00000690       $pdata$7$?DoModal@CDialog@@UEAA_JXZ 0000000140035690     FrmVC6.obj
 0004:0000069c       $pdata$8$?DoModal@CDialog@@UEAA_JXZ 000000014003569c     FrmVC6.obj
 0004:000006a8       $pdata$?GetActiveWindow@CWnd@@SAPEAV1@XZ 00000001400356a8     FrmVC6.obj
 0004:000006b4       $pdata$3$?GetActiveWindow@CWnd@@SAPEAV1@XZ 00000001400356b4     FrmVC6.obj
 0004:000006c0       $pdata$4$?GetActiveWindow@CWnd@@SAPEAV1@XZ 00000001400356c0     FrmVC6.obj
 0004:000006cc       $pdata$5$?GetActiveWindow@CWnd@@SAPEAV1@XZ 00000001400356cc     FrmVC6.obj
 0004:000006d8       $pdata$6$?GetActiveWindow@CWnd@@SAPEAV1@XZ 00000001400356d8     FrmVC6.obj
 0004:000006e4       $pdata$7$?GetActiveWindow@CWnd@@SAPEAV1@XZ 00000001400356e4     FrmVC6.obj
 0004:000006f0       $pdata$8$?GetActiveWindow@CWnd@@SAPEAV1@XZ 00000001400356f0     FrmVC6.obj
 0004:000006fc       $pdata$?GetSafeOwner_@CWnd@@SAPEAUHWND__@@PEAU2@PEAPEAU2@@Z 00000001400356fc     FrmVC6.obj
 0004:00000708       $pdata$??1CCommandLineInfo@@QEAA@XZ 0000000140035708     FrmVC6.obj
 0004:00000714       $pdata$??1CWinApp@@QEAA@XZ 0000000140035714     FrmVC6.obj
 0004:00000720       $pdata$??0CModuleThreadState@@QEAA@XZ 0000000140035720     FrmVC6.obj
 0004:0000072c       $pdata$??1CModuleThreadState@@QEAA@XZ 000000014003572c     FrmVC6.obj
 0004:00000738       $pdata$?SendMessageToDescendants@CWnd@@QEAAXPEAUHWND__@@I_K_JHH@Z 0000000140035738     FrmVC6.obj
 0004:00000744       $pdata$0$?SendMessageToDescendants@CWnd@@QEAAXPEAUHWND__@@I_K_JHH@Z 0000000140035744     FrmVC6.obj
 0004:00000750       $pdata$1$?SendMessageToDescendants@CWnd@@QEAAXPEAUHWND__@@I_K_JHH@Z 0000000140035750     FrmVC6.obj
 0004:0000075c       $pdata$?OnIdle@CWinApp@@UEAAHH@Z 000000014003575c     FrmVC6.obj
 0004:00000768       $pdata$?WalkPreTranslateTree@CWnd@@SAHPEAUHWND__@@PEAUtagMSG@@@Z 0000000140035768     FrmVC6.obj
 0004:00000774       $pdata$?PreTranslateMessage@CWinApp@@UEAAHPEAUtagMSG@@@Z 0000000140035774     FrmVC6.obj
 0004:00000780       $pdata$0$?PreTranslateMessage@CWinApp@@UEAAHPEAUtagMSG@@@Z 0000000140035780     FrmVC6.obj
 0004:0000078c       $pdata$1$?PreTranslateMessage@CWinApp@@UEAAHPEAUtagMSG@@@Z 000000014003578c     FrmVC6.obj
 0004:00000798       $pdata$?PumpMessage@CWinApp@@UEAAHXZ 0000000140035798     FrmVC6.obj
 0004:000007a4       $pdata$?Run@CWinApp@@UEAAHXZ 00000001400357a4     FrmVC6.obj
 0004:000007b0       $pdata$??0CWinApp@@QEAA@XZ 00000001400357b0     FrmVC6.obj
 0004:000007bc       $pdata$?_ProcessWindowMessage@CWinApp@@UEAAHPEAUHWND__@@I_K_JAEA_J@Z 00000001400357bc     FrmVC6.obj
 0004:000007c8       $pdata$?_ProcessWindowMessage@CMainFrame@@UEAAHPEAUHWND__@@I_K_JAEA_J@Z 00000001400357c8     MainFrm.obj
 0004:000007d4       $pdata$0$?_ProcessWindowMessage@CMainFrame@@UEAAHPEAUHWND__@@I_K_JAEA_J@Z 00000001400357d4     MainFrm.obj
 0004:000007e0       $pdata$2$?_ProcessWindowMessage@CMainFrame@@UEAAHPEAUHWND__@@I_K_JAEA_J@Z 00000001400357e0     MainFrm.obj
 0004:000007ec       $pdata$4$?_ProcessWindowMessage@CMainFrame@@UEAAHPEAUHWND__@@I_K_JAEA_J@Z 00000001400357ec     MainFrm.obj
 0004:000007f8       $pdata$5$?_ProcessWindowMessage@CMainFrame@@UEAAHPEAUHWND__@@I_K_JAEA_J@Z 00000001400357f8     MainFrm.obj
 0004:00000804       $pdata$6$?_ProcessWindowMessage@CMainFrame@@UEAAHPEAUHWND__@@I_K_JAEA_J@Z 0000000140035804     MainFrm.obj
 0004:00000810       $pdata$7$?_ProcessWindowMessage@CMainFrame@@UEAAHPEAUHWND__@@I_K_JAEA_J@Z 0000000140035810     MainFrm.obj
 0004:0000081c       $pdata$8$?_ProcessWindowMessage@CMainFrame@@UEAAHPEAUHWND__@@I_K_JAEA_J@Z 000000014003581c     MainFrm.obj
 0004:00000828       $pdata$9$?_ProcessWindowMessage@CMainFrame@@UEAAHPEAUHWND__@@I_K_JAEA_J@Z 0000000140035828     MainFrm.obj
 0004:00000834       $pdata$??0CMainFrame@@QEAA@XZ 0000000140035834     MainFrm.obj
 0004:00000840       $pdata$??_GCMainFrame@@UEAAPEAXI@Z 0000000140035840     MainFrm.obj
 0004:0000084c       $pdata$?OnCreate@CMainFrame@@IEAAHPEAUtagCREATESTRUCTA@@@Z 000000014003584c     MainFrm.obj
 0004:00000858       $pdata$0$?OnCreate@CMainFrame@@IEAAHPEAUtagCREATESTRUCTA@@@Z 0000000140035858     MainFrm.obj
 0004:00000864       $pdata$2$?OnCreate@CMainFrame@@IEAAHPEAUtagCREATESTRUCTA@@@Z 0000000140035864     MainFrm.obj
 0004:00000870       $pdata$?PreCreateWindow@CMainFrame@@UEAAHAEAUtagCREATESTRUCTA@@@Z 0000000140035870     MainFrm.obj
 0004:0000087c       $pdata$?OnCmdMsg@CMainFrame@@UEAAHIHPEAXPEAUAFX_CMDHANDLERINFO@@@Z 000000014003587c     MainFrm.obj
 0004:00000888       $pdata$?SetButtons@CToolBar@@QEAAHPEBIH@Z 0000000140035888     MainFrm.obj
 0004:00000894       $pdata$?AfxLoadSysColorBitmap@@YAPEAUHBITMAP__@@PEAUHINSTANCE__@@PEAUHRSRC__@@H@Z 0000000140035894     MainFrm.obj
 0004:000008a0       $pdata$2$?AfxLoadSysColorBitmap@@YAPEAUHBITMAP__@@PEAUHINSTANCE__@@PEAUHRSRC__@@H@Z 00000001400358a0     MainFrm.obj
 0004:000008ac       $pdata$9$?AfxLoadSysColorBitmap@@YAPEAUHBITMAP__@@PEAUHINSTANCE__@@PEAUHRSRC__@@H@Z 00000001400358ac     MainFrm.obj
 0004:000008b8       $pdata$10$?AfxLoadSysColorBitmap@@YAPEAUHBITMAP__@@PEAUHINSTANCE__@@PEAUHRSRC__@@H@Z 00000001400358b8     MainFrm.obj
 0004:000008c4       $pdata$?AddReplaceBitmap@CToolBar@@QEAAHPEAUHBITMAP__@@@Z 00000001400358c4     MainFrm.obj
 0004:000008d0       $pdata$?LoadBitmapA@CToolBar@@QEAAHPEBD@Z 00000001400358d0     MainFrm.obj
 0004:000008dc       $pdata$?LoadToolBar@CToolBar@@QEAAHPEBD@Z 00000001400358dc     MainFrm.obj
 0004:000008e8       $pdata$0$?LoadToolBar@CToolBar@@QEAAHPEBD@Z 00000001400358e8     MainFrm.obj
 0004:000008f4       $pdata$2$?LoadToolBar@CToolBar@@QEAAHPEBD@Z 00000001400358f4     MainFrm.obj
 0004:00000900       $pdata$4$?LoadToolBar@CToolBar@@QEAAHPEBD@Z 0000000140035900     MainFrm.obj
 0004:0000090c       $pdata$5$?LoadToolBar@CToolBar@@QEAAHPEBD@Z 000000014003590c     MainFrm.obj
 0004:00000918       $pdata$?OnPaint@CToolBar@@QEAAXXZ 0000000140035918     MainFrm.obj
 0004:00000924       $pdata$?OnSetSizeHelper@CToolBar@@QEAA_JAEAVCSize@WTL@@_J@Z 0000000140035924     MainFrm.obj
 0004:00000930       $pdata$?OnPreserveSizingPolicyHelper@CToolBar@@QEAA_J_K_J@Z 0000000140035930     MainFrm.obj
 0004:0000093c       $pdata$0$?OnPreserveSizingPolicyHelper@CToolBar@@QEAA_J_K_J@Z 000000014003593c     MainFrm.obj
 0004:00000948       $pdata$1$?OnPreserveSizingPolicyHelper@CToolBar@@QEAA_J_K_J@Z 0000000140035948     MainFrm.obj
 0004:00000954       $pdata$?OnPreserveZeroBorderHelper@CToolBar@@QEAA_J_K_J@Z 0000000140035954     MainFrm.obj
 0004:00000960       $pdata$?_ProcessWindowMessage@CToolBar@@UEAAHPEAUHWND__@@I_K_JAEA_J@Z 0000000140035960     MainFrm.obj
 0004:0000096c       $pdata$??_GCToolBar@@UEAAPEAXI@Z 000000014003596c     MainFrm.obj
 0004:0000096c       $pdata$??_GCControlBar@@UEAAPEAXI@Z 000000014003596c     MainFrm.obj
 0004:0000096c       $pdata$??_GCStatusBar@@UEAAPEAXI@Z 000000014003596c     MainFrm.obj
 0004:00000978       $pdata$?OnToolHitTest@CToolBar@@UEBA_JVCPoint@WTL@@PEAUtagTOOLINFOA@@@Z 0000000140035978     MainFrm.obj
 0004:00000984       $pdata$2$?OnToolHitTest@CToolBar@@UEBA_JVCPoint@WTL@@PEAUtagTOOLINFOA@@@Z 0000000140035984     MainFrm.obj
 0004:00000990       $pdata$3$?OnToolHitTest@CToolBar@@UEBA_JVCPoint@WTL@@PEAUtagTOOLINFOA@@@Z 0000000140035990     MainFrm.obj
 0004:0000099c       $pdata$4$?OnToolHitTest@CToolBar@@UEBA_JVCPoint@WTL@@PEAUtagTOOLINFOA@@@Z 000000014003599c     MainFrm.obj
 0004:000009a8       $pdata$?OnBarStyleChange@CToolBar@@UEAAXKK@Z 00000001400359a8     MainFrm.obj
 0004:000009b4       $pdata$?Enable@CToolCmdUI@@UEAAXH@Z 00000001400359b4     MainFrm.obj
 0004:000009c0       $pdata$?SetCheck@CToolCmdUI@@UEAAXH@Z 00000001400359c0     MainFrm.obj
 0004:000009cc       $pdata$?OnUpdateCmdUI@CToolBar@@UEAAXPEAVCFrameWnd@@H@Z 00000001400359cc     MainFrm.obj
 0004:000009d8       $pdata$0$?OnUpdateCmdUI@CToolBar@@UEAAXPEAVCFrameWnd@@H@Z 00000001400359d8     MainFrm.obj
 0004:000009e4       $pdata$1$?OnUpdateCmdUI@CToolBar@@UEAAXPEAVCFrameWnd@@H@Z 00000001400359e4     MainFrm.obj
 0004:000009f0       $pdata$?WrapToolBar@CToolBar@@QEAAHPEAU_TBBUTTON@@HH@Z 00000001400359f0     MainFrm.obj
 0004:000009fc       $pdata$?SizeToolBar@CToolBar@@QEAAXPEAU_TBBUTTON@@HHH@Z 00000001400359fc     MainFrm.obj
 0004:00000a08       $pdata$0$?SizeToolBar@CToolBar@@QEAAXPEAU_TBBUTTON@@HHH@Z 0000000140035a08     MainFrm.obj
 0004:00000a14       $pdata$1$?SizeToolBar@CToolBar@@QEAAXPEAU_TBBUTTON@@HHH@Z 0000000140035a14     MainFrm.obj
 0004:00000a20       $pdata$?CalcSize@CToolBar@@QEAA?AVCSize@WTL@@PEAU_TBBUTTON@@H@Z 0000000140035a20     MainFrm.obj
 0004:00000a2c       $pdata$1$?CalcSize@CToolBar@@QEAA?AVCSize@WTL@@PEAU_TBBUTTON@@H@Z 0000000140035a2c     MainFrm.obj
 0004:00000a38       $pdata$2$?CalcSize@CToolBar@@QEAA?AVCSize@WTL@@PEAU_TBBUTTON@@H@Z 0000000140035a38     MainFrm.obj
 0004:00000a44       $pdata$?_SetButton@CToolBar@@QEAAXHPEAU_TBBUTTON@@@Z 0000000140035a44     MainFrm.obj
 0004:00000a50       $pdata$1$?_SetButton@CToolBar@@QEAAXHPEAU_TBBUTTON@@@Z 0000000140035a50     MainFrm.obj
 0004:00000a5c       $pdata$2$?_SetButton@CToolBar@@QEAAXHPEAU_TBBUTTON@@@Z 0000000140035a5c     MainFrm.obj
 0004:00000a68       $pdata$?CalcDynamicLayout@CToolBar@@UEAA?AVCSize@WTL@@HK@Z 0000000140035a68     MainFrm.obj
 0004:00000a74       $pdata$?CalcLayout@CToolBar@@QEAA?AVCSize@WTL@@KH@Z 0000000140035a74     MainFrm.obj
 0004:00000a80       $pdata$?CalcFixedLayout@CToolBar@@UEAA?AVCSize@WTL@@HH@Z 0000000140035a80     MainFrm.obj
 0004:00000a8c       $pdata$?Create@CToolBar@@UEAAHPEAVCWnd@@KI@Z 0000000140035a8c     MainFrm.obj
 0004:00000a98       $pdata$?_AfxGetDropDownWidth@CToolBar@@SAHXZ 0000000140035a98     MainFrm.obj
 0004:00000aa4       $pdata$2$?_AfxGetDropDownWidth@CToolBar@@SAHXZ 0000000140035aa4     MainFrm.obj
 0004:00000ab0       $pdata$3$?_AfxGetDropDownWidth@CToolBar@@SAHXZ 0000000140035ab0     MainFrm.obj
 0004:00000abc       $pdata$?SetSizes@CToolBar@@QEAAXUtagSIZE@@0@Z 0000000140035abc     MainFrm.obj
 0004:00000ac8       $pdata$?CreateEx@CToolBar@@UEAAHPEAVCWnd@@KKVCRect@WTL@@I@Z 0000000140035ac8     MainFrm.obj
 0004:00000ad4       $pdata$??0CToolBar@@QEAA@XZ 0000000140035ad4     MainFrm.obj
 0004:00000ae0       $pdata$??0_AUX_DATA@@QEAA@XZ 0000000140035ae0     MainFrm.obj
 0004:00000aec       $pdata$??0CControlBar@@QEAA@XZ 0000000140035aec     MainFrm.obj
 0004:00000af8       $pdata$?OnGetText@CStatusBar@@QEAAHHPEAD@Z 0000000140035af8     MainFrm.obj
 0004:00000b04       $pdata$0$?OnGetText@CStatusBar@@QEAAHHPEAD@Z 0000000140035b04     MainFrm.obj
 0004:00000b10       $pdata$2$?OnGetText@CStatusBar@@QEAAHHPEAD@Z 0000000140035b10     MainFrm.obj
 0004:00000b1c       $pdata$?OnNcCalcSize@CStatusBar@@QEAAXHPEAUtagNCCALCSIZE_PARAMS@@@Z 0000000140035b1c     MainFrm.obj
 0004:00000b28       $pdata$??_GCWindowDCMTL@@UEAAPEAXI@Z 0000000140035b28     MainFrm.obj
 0004:00000b34       $pdata$??1CWindowDCMTL@@UEAA@XZ 0000000140035b34     MainFrm.obj
 0004:00000b40       $pdata$?DrawBorders@CControlBar@@QEAAXPEAVCDCMTL@@AEAVCRect@WTL@@@Z 0000000140035b40     MainFrm.obj
 0004:00000b4c       $pdata$4$?DrawBorders@CControlBar@@QEAAXPEAVCDCMTL@@AEAVCRect@WTL@@@Z 0000000140035b4c     MainFrm.obj
 0004:00000b58       $pdata$5$?DrawBorders@CControlBar@@QEAAXPEAVCDCMTL@@AEAVCRect@WTL@@@Z 0000000140035b58     MainFrm.obj
 0004:00000b64       $pdata$6$?DrawBorders@CControlBar@@QEAAXPEAVCDCMTL@@AEAVCRect@WTL@@@Z 0000000140035b64     MainFrm.obj
 0004:00000b70       $pdata$7$?DrawBorders@CControlBar@@QEAAXPEAVCDCMTL@@AEAVCRect@WTL@@@Z 0000000140035b70     MainFrm.obj
 0004:00000b7c       $pdata$?FillSolidRect@?$CDCT@$00@WTL@@QEAAXHHHHK@Z 0000000140035b7c     MainFrm.obj
 0004:00000b88       $pdata$?Draw3dRect@?$CDCT@$00@WTL@@QEAAXHHHHKK@Z 0000000140035b88     MainFrm.obj
 0004:00000b94       $pdata$?DrawNonThemedGripper@CControlBar@@QEAAHPEAVCDCMTL@@AEBVCRect@WTL@@@Z 0000000140035b94     MainFrm.obj
 0004:00000ba0       $pdata$?EraseNonClient@CControlBar@@QEAAXXZ 0000000140035ba0     MainFrm.obj
 0004:00000bac       $pdata$?OnSetMinHeight@CStatusBar@@QEAA_J_K_J@Z 0000000140035bac     MainFrm.obj
 0004:00000bb8       $pdata$?_ProcessWindowMessage@CStatusBar@@UEAAHPEAUHWND__@@I_K_JAEA_J@Z 0000000140035bb8     MainFrm.obj
 0004:00000bc4       $pdata$0$?_ProcessWindowMessage@CStatusBar@@UEAAHPEAUHWND__@@I_K_JAEA_J@Z 0000000140035bc4     MainFrm.obj
 0004:00000bd0       $pdata$1$?_ProcessWindowMessage@CStatusBar@@UEAAHPEAUHWND__@@I_K_JAEA_J@Z 0000000140035bd0     MainFrm.obj
 0004:00000bdc       $pdata$?OnCreate@CControlBar@@QEAAHPEAUtagCREATESTRUCTA@@@Z 0000000140035bdc     MainFrm.obj
 0004:00000be8       $pdata$1$?OnCreate@CControlBar@@QEAAHPEAUtagCREATESTRUCTA@@@Z 0000000140035be8     MainFrm.obj
 0004:00000bf4       $pdata$2$?OnCreate@CControlBar@@QEAAHPEAUtagCREATESTRUCTA@@@Z 0000000140035bf4     MainFrm.obj
 0004:00000c00       $pdata$?OnDestroy@CControlBar@@QEAAXXZ 0000000140035c00     MainFrm.obj
 0004:00000c0c       $pdata$?OnLButtonDown@CControlBar@@QEAAXIVCPoint@WTL@@@Z 0000000140035c0c     MainFrm.obj
 0004:00000c18       $pdata$?ReDockControlBar@CDockBar@@QEAAXPEAVCControlBar@@PEBUtagRECT@@@Z 0000000140035c18     MainFrm.obj
 0004:00000c24       $pdata$0$?ReDockControlBar@CDockBar@@QEAAXPEAVCControlBar@@PEBUtagRECT@@@Z 0000000140035c24     MainFrm.obj
 0004:00000c30       $pdata$1$?ReDockControlBar@CDockBar@@QEAAXPEAVCControlBar@@PEBUtagRECT@@@Z 0000000140035c30     MainFrm.obj
 0004:00000c3c       $pdata$2$?ReDockControlBar@CDockBar@@QEAAXPEAVCControlBar@@PEBUtagRECT@@@Z 0000000140035c3c     MainFrm.obj
 0004:00000c48       $pdata$3$?ReDockControlBar@CDockBar@@QEAAXPEAVCControlBar@@PEBUtagRECT@@@Z 0000000140035c48     MainFrm.obj
 0004:00000c54       $pdata$?ReDockControlBar@CFrameWnd@@QEAAXPEAVCControlBar@@PEAVCDockBar@@PEBUtagRECT@@@Z 0000000140035c54     MainFrm.obj
 0004:00000c60       $pdata$3$?ReDockControlBar@CFrameWnd@@QEAAXPEAVCControlBar@@PEAVCDockBar@@PEBUtagRECT@@@Z 0000000140035c60     MainFrm.obj
 0004:00000c6c       $pdata$4$?ReDockControlBar@CFrameWnd@@QEAAXPEAVCControlBar@@PEAVCDockBar@@PEBUtagRECT@@@Z 0000000140035c6c     MainFrm.obj
 0004:00000c78       $pdata$?ToggleDocking@CDockContext@@QEAAXXZ 0000000140035c78     MainFrm.obj
 0004:00000c84       $pdata$?OnTimer@CControlBar@@QEAAX_K@Z 0000000140035c84     MainFrm.obj
 0004:00000c90       $pdata$5$?OnTimer@CControlBar@@QEAAX_K@Z 0000000140035c90     MainFrm.obj
 0004:00000c9c       $pdata$6$?OnTimer@CControlBar@@QEAAX_K@Z 0000000140035c9c     MainFrm.obj
 0004:00000ca8       $pdata$7$?OnTimer@CControlBar@@QEAAX_K@Z 0000000140035ca8     MainFrm.obj
 0004:00000cb4       $pdata$?RecalcDelayShow@CControlBar@@QEAAKPEAUAFX_SIZEPARENTPARAMS@@@Z 0000000140035cb4     MainFrm.obj
 0004:00000cc0       $pdata$?OnSizeParent@CControlBar@@QEAA_J_K_J@Z 0000000140035cc0     MainFrm.obj
 0004:00000ccc       $pdata$2$?OnSizeParent@CControlBar@@QEAA_J_K_J@Z 0000000140035ccc     MainFrm.obj
 0004:00000cd8       $pdata$3$?OnSizeParent@CControlBar@@QEAA_J_K_J@Z 0000000140035cd8     MainFrm.obj
 0004:00000ce4       $pdata$?OnIdleUpdateCmdUI@CControlBar@@QEAA_J_K_J@Z 0000000140035ce4     MainFrm.obj
 0004:00000cf0       $pdata$0$?OnIdleUpdateCmdUI@CControlBar@@QEAA_J_K_J@Z 0000000140035cf0     MainFrm.obj
 0004:00000cfc       $pdata$1$?OnIdleUpdateCmdUI@CControlBar@@QEAA_J_K_J@Z 0000000140035cfc     MainFrm.obj
 0004:00000d08       $pdata$?_ProcessWindowMessage@CControlBar@@UEAAHPEAUHWND__@@I_K_JAEA_J@Z 0000000140035d08     MainFrm.obj
 0004:00000d14       $pdata$?WindowProc@CControlBar@@UEAA_JI_K_J@Z 0000000140035d14     MainFrm.obj
 0004:00000d20       $pdata$?RemoveControlBar@CFrameWnd@@QEAAXPEAVCControlBar@@@Z 0000000140035d20     MainFrm.obj
 0004:00000d2c       $pdata$?GetCapture@CWnd@@SAPEAV1@XZ 0000000140035d2c     MainFrm.obj
 0004:00000d38       $pdata$3$?GetCapture@CWnd@@SAPEAV1@XZ 0000000140035d38     MainFrm.obj
 0004:00000d44       $pdata$4$?GetCapture@CWnd@@SAPEAV1@XZ 0000000140035d44     MainFrm.obj
 0004:00000d50       $pdata$5$?GetCapture@CWnd@@SAPEAV1@XZ 0000000140035d50     MainFrm.obj
 0004:00000d5c       $pdata$6$?GetCapture@CWnd@@SAPEAV1@XZ 0000000140035d5c     MainFrm.obj
 0004:00000d68       $pdata$7$?GetCapture@CWnd@@SAPEAV1@XZ 0000000140035d68     MainFrm.obj
 0004:00000d74       $pdata$8$?GetCapture@CWnd@@SAPEAV1@XZ 0000000140035d74     MainFrm.obj
 0004:00000d80       $pdata$?Create@CDockBar@@QEAAHPEAVCWnd@@KI@Z 0000000140035d80     MainFrm.obj
 0004:00000d8c       $pdata$?Create@CMiniDockFrameWnd@@QEAAHPEAVCWnd@@K@Z 0000000140035d8c     MainFrm.obj
 0004:00000d98       $pdata$?GetDlgItem@CWnd@@QEAAPEAV1@H@Z 0000000140035d98     MainFrm.obj
 0004:00000da4       $pdata$3$?GetDlgItem@CWnd@@QEAAPEAV1@H@Z 0000000140035da4     MainFrm.obj
 0004:00000db0       $pdata$4$?GetDlgItem@CWnd@@QEAAPEAV1@H@Z 0000000140035db0     MainFrm.obj
 0004:00000dbc       $pdata$5$?GetDlgItem@CWnd@@QEAAPEAV1@H@Z 0000000140035dbc     MainFrm.obj
 0004:00000dc8       $pdata$6$?GetDlgItem@CWnd@@QEAAPEAV1@H@Z 0000000140035dc8     MainFrm.obj
 0004:00000dd4       $pdata$7$?GetDlgItem@CWnd@@QEAAPEAV1@H@Z 0000000140035dd4     MainFrm.obj
 0004:00000de0       $pdata$8$?GetDlgItem@CWnd@@QEAAPEAV1@H@Z 0000000140035de0     MainFrm.obj
 0004:00000dec       $pdata$?GetParentOwner@CWnd@@QEAAPEAV1@XZ 0000000140035dec     MainFrm.obj
 0004:00000df8       $pdata$0$?GetParentOwner@CWnd@@QEAAPEAV1@XZ 0000000140035df8     MainFrm.obj
 0004:00000e04       $pdata$4$?GetParentOwner@CWnd@@QEAAPEAV1@XZ 0000000140035e04     MainFrm.obj
 0004:00000e10       $pdata$6$?GetParentOwner@CWnd@@QEAAPEAV1@XZ 0000000140035e10     MainFrm.obj
 0004:00000e1c       $pdata$7$?GetParentOwner@CWnd@@QEAAPEAV1@XZ 0000000140035e1c     MainFrm.obj
 0004:00000e28       $pdata$8$?GetParentOwner@CWnd@@QEAAPEAV1@XZ 0000000140035e28     MainFrm.obj
 0004:00000e34       $pdata$9$?GetParentOwner@CWnd@@QEAAPEAV1@XZ 0000000140035e34     MainFrm.obj
 0004:00000e40       $pdata$10$?GetParentOwner@CWnd@@QEAAPEAV1@XZ 0000000140035e40     MainFrm.obj
 0004:00000e4c       $pdata$11$?GetParentOwner@CWnd@@QEAAPEAV1@XZ 0000000140035e4c     MainFrm.obj
 0004:00000e58       $pdata$12$?GetParentOwner@CWnd@@QEAAPEAV1@XZ 0000000140035e58     MainFrm.obj
 0004:00000e64       $pdata$?Create@CToolTipCtrlMTL@@QEAAHPEAVCWnd@@K@Z 0000000140035e64     MainFrm.obj
 0004:00000e70       $pdata$??_GCToolTipCtrlMTL@@UEAAPEAXI@Z 0000000140035e70     MainFrm.obj
 0004:00000e7c       $pdata$?GetForegroundWindow@CWnd@@SAPEAV1@XZ 0000000140035e7c     MainFrm.obj
 0004:00000e88       $pdata$3$?GetForegroundWindow@CWnd@@SAPEAV1@XZ 0000000140035e88     MainFrm.obj
 0004:00000e94       $pdata$4$?GetForegroundWindow@CWnd@@SAPEAV1@XZ 0000000140035e94     MainFrm.obj
 0004:00000ea0       $pdata$5$?GetForegroundWindow@CWnd@@SAPEAV1@XZ 0000000140035ea0     MainFrm.obj
 0004:00000eac       $pdata$6$?GetForegroundWindow@CWnd@@SAPEAV1@XZ 0000000140035eac     MainFrm.obj
 0004:00000eb8       $pdata$7$?GetForegroundWindow@CWnd@@SAPEAV1@XZ 0000000140035eb8     MainFrm.obj
 0004:00000ec4       $pdata$8$?GetForegroundWindow@CWnd@@SAPEAV1@XZ 0000000140035ec4     MainFrm.obj
 0004:00000ed0       $pdata$?GetLastActivePopup@CWnd@@QEAAPEAV1@XZ 0000000140035ed0     MainFrm.obj
 0004:00000edc       $pdata$3$?GetLastActivePopup@CWnd@@QEAAPEAV1@XZ 0000000140035edc     MainFrm.obj
 0004:00000ee8       $pdata$4$?GetLastActivePopup@CWnd@@QEAAPEAV1@XZ 0000000140035ee8     MainFrm.obj
 0004:00000ef4       $pdata$5$?GetLastActivePopup@CWnd@@QEAAPEAV1@XZ 0000000140035ef4     MainFrm.obj
 0004:00000f00       $pdata$6$?GetLastActivePopup@CWnd@@QEAAPEAV1@XZ 0000000140035f00     MainFrm.obj
 0004:00000f0c       $pdata$7$?GetLastActivePopup@CWnd@@QEAAPEAV1@XZ 0000000140035f0c     MainFrm.obj
 0004:00000f18       $pdata$8$?GetLastActivePopup@CWnd@@QEAAPEAV1@XZ 0000000140035f18     MainFrm.obj
 0004:00000f24       $pdata$?_AfxRelayToolTipMessage@CWnd@@SAXPEAVCToolTipCtrlMTL@@PEAUtagMSG@@@Z 0000000140035f24     MainFrm.obj
 0004:00000f30       $pdata$?CancelToolTips@CWnd@@QEAAXH@Z 0000000140035f30     MainFrm.obj
 0004:00000f3c       $pdata$?FilterToolTipMessage@CWnd@@QEAAXPEAUtagMSG@@@Z 0000000140035f3c     MainFrm.obj
 0004:00000f48       $pdata$?_EnableToolTips@CWnd@@QEAAHHI@Z 0000000140035f48     MainFrm.obj
 0004:00000f54       $pdata$0$?_EnableToolTips@CWnd@@QEAAHHI@Z 0000000140035f54     MainFrm.obj
 0004:00000f60       $pdata$1$?_EnableToolTips@CWnd@@QEAAHHI@Z 0000000140035f60     MainFrm.obj
 0004:00000f6c       $pdata$?Insert@CDockBar@@QEAAHPEAVCControlBar@@VCRect@WTL@@VCPoint@4@@Z 0000000140035f6c     MainFrm.obj
 0004:00000f78       $pdata$?SetSize@?$CArray@PEAXAEBQEAX@@QEAAX_J0@Z 0000000140035f78     MainFrm.obj
 0004:00000f84       $pdata$0$?SetSize@?$CArray@PEAXAEBQEAX@@QEAAX_J0@Z 0000000140035f84     MainFrm.obj
 0004:00000f90       $pdata$1$?SetSize@?$CArray@PEAXAEBQEAX@@QEAAX_J0@Z 0000000140035f90     MainFrm.obj
 0004:00000f9c       $pdata$?SetParent@CWnd@@QEAAPEAV1@PEAV1@@Z 0000000140035f9c     MainFrm.obj
 0004:00000fa8       $pdata$3$?SetParent@CWnd@@QEAAPEAV1@PEAV1@@Z 0000000140035fa8     MainFrm.obj
 0004:00000fb4       $pdata$4$?SetParent@CWnd@@QEAAPEAV1@PEAV1@@Z 0000000140035fb4     MainFrm.obj
 0004:00000fc0       $pdata$5$?SetParent@CWnd@@QEAAPEAV1@PEAV1@@Z 0000000140035fc0     MainFrm.obj
 0004:00000fcc       $pdata$6$?SetParent@CWnd@@QEAAPEAV1@PEAV1@@Z 0000000140035fcc     MainFrm.obj
 0004:00000fd8       $pdata$7$?SetParent@CWnd@@QEAAPEAV1@PEAV1@@Z 0000000140035fd8     MainFrm.obj
 0004:00000fe4       $pdata$8$?SetParent@CWnd@@QEAAPEAV1@PEAV1@@Z 0000000140035fe4     MainFrm.obj
 0004:00000ff0       $pdata$?DockControlBar@CDockBar@@QEAAXPEAVCControlBar@@PEBUtagRECT@@@Z 0000000140035ff0     MainFrm.obj
 0004:00000ffc       $pdata$0$?DockControlBar@CDockBar@@QEAAXPEAVCControlBar@@PEBUtagRECT@@@Z 0000000140035ffc     MainFrm.obj
 0004:00001008       $pdata$3$?DockControlBar@CDockBar@@QEAAXPEAVCControlBar@@PEBUtagRECT@@@Z 0000000140036008     MainFrm.obj
 0004:00001014       $pdata$4$?DockControlBar@CDockBar@@QEAAXPEAVCControlBar@@PEBUtagRECT@@@Z 0000000140036014     MainFrm.obj
 0004:00001020       $pdata$5$?DockControlBar@CDockBar@@QEAAXPEAVCControlBar@@PEBUtagRECT@@@Z 0000000140036020     MainFrm.obj
 0004:0000102c       $pdata$6$?DockControlBar@CDockBar@@QEAAXPEAVCControlBar@@PEBUtagRECT@@@Z 000000014003602c     MainFrm.obj
 0004:00001038       $pdata$?FloatControlBar@CFrameWnd@@QEAAXPEAVCControlBar@@VCPoint@WTL@@K@Z 0000000140036038     MainFrm.obj
 0004:00001044       $pdata$?RemoveAt@?$CArray@PEAXAEBQEAX@@QEAAX_J0@Z 0000000140036044     MainFrm.obj
 0004:00001050       $pdata$?RemovePlaceHolder@CDockBar@@QEAAXPEAVCControlBar@@@Z 0000000140036050     MainFrm.obj
 0004:0000105c       $pdata$0$?RemovePlaceHolder@CDockBar@@QEAAXPEAVCControlBar@@@Z 000000014003605c     MainFrm.obj
 0004:00001068       $pdata$1$?RemovePlaceHolder@CDockBar@@QEAAXPEAVCControlBar@@@Z 0000000140036068     MainFrm.obj
 0004:00001074       $pdata$?RemoveControlBar@CDockBar@@QEAAHPEAVCControlBar@@HH@Z 0000000140036074     MainFrm.obj
 0004:00001080       $pdata$3$?RemoveControlBar@CDockBar@@QEAAHPEAVCControlBar@@HH@Z 0000000140036080     MainFrm.obj
 0004:0000108c       $pdata$4$?RemoveControlBar@CDockBar@@QEAAHPEAVCControlBar@@HH@Z 000000014003608c     MainFrm.obj
 0004:00001098       $pdata$??1CControlBar@@UEAA@XZ 0000000140036098     MainFrm.obj
 0004:000010a4       $pdata$?PreTranslateMessage@CControlBar@@UEAAHPEAUtagMSG@@@Z 00000001400360a4     MainFrm.obj
 0004:000010b0       $pdata$0$?PreTranslateMessage@CControlBar@@UEAAHPEAUtagMSG@@@Z 00000001400360b0     MainFrm.obj
 0004:000010bc       $pdata$3$?PreTranslateMessage@CControlBar@@UEAAHPEAUtagMSG@@@Z 00000001400360bc     MainFrm.obj
 0004:000010c8       $pdata$4$?PreTranslateMessage@CControlBar@@UEAAHPEAUtagMSG@@@Z 00000001400360c8     MainFrm.obj
 0004:000010d4       $pdata$5$?PreTranslateMessage@CControlBar@@UEAAHPEAUtagMSG@@@Z 00000001400360d4     MainFrm.obj
 0004:000010e0       $pdata$?PreCreateWindow@CControlBar@@UEAAHAEAUtagCREATESTRUCTA@@@Z 00000001400360e0     MainFrm.obj
 0004:000010ec       $pdata$?OnBarStyleChange@CStatusBar@@UEAAXKK@Z 00000001400360ec     MainFrm.obj
 0004:000010f8       $pdata$?Enable@CStatusCmdUI@@UEAAXH@Z 00000001400360f8     MainFrm.obj
 0004:00001104       $pdata$??1?$CArray@HAEBH@@QEAA@XZ 0000000140036104     MainFrm.obj
 0004:00001110       $pdata$?SetSize@?$CArray@HAEBH@@QEAAX_J0@Z 0000000140036110     MainFrm.obj
 0004:0000111c       $pdata$0$?SetSize@?$CArray@HAEBH@@QEAAX_J0@Z 000000014003611c     MainFrm.obj
 0004:00001128       $pdata$1$?SetSize@?$CArray@HAEBH@@QEAAX_J0@Z 0000000140036128     MainFrm.obj
 0004:00001134       $pdata$?UpdateAllPanes@CStatusBar@@QEAAXHH@Z 0000000140036134     MainFrm.obj
 0004:00001140       $pdata$?SetCheck@CStatusCmdUI@@UEAAXH@Z 0000000140036140     MainFrm.obj
 0004:0000114c       $pdata$?SetPaneText@CStatusBar@@QEAAHHPEBDH@Z 000000014003614c     MainFrm.obj
 0004:00001158       $pdata$?UpdateDialogControls@CWnd@@QEAAXPEAVCCmdTarget@@H@Z 0000000140036158     MainFrm.obj
 0004:00001164       $pdata$?OnUpdateCmdUI@CStatusBar@@UEAAXPEAVCFrameWnd@@H@Z 0000000140036164     MainFrm.obj
 0004:00001170       $pdata$1$?OnUpdateCmdUI@CStatusBar@@UEAAXPEAVCFrameWnd@@H@Z 0000000140036170     MainFrm.obj
 0004:0000117c       $pdata$2$?OnUpdateCmdUI@CStatusBar@@UEAAXPEAVCFrameWnd@@H@Z 000000014003617c     MainFrm.obj
 0004:00001188       $pdata$?CalcDynamicLayout@CControlBar@@UEAA?AVCSize@WTL@@HK@Z 0000000140036188     MainFrm.obj
 0004:00001194       $pdata$??_GCClientDCMTL@@UEAAPEAXI@Z 0000000140036194     MainFrm.obj
 0004:000011a0       $pdata$??1CClientDCMTL@@UEAA@XZ 00000001400361a0     MainFrm.obj
 0004:000011ac       $pdata$?CalcFixedLayout@CStatusBar@@UEAA?AVCSize@WTL@@HH@Z 00000001400361ac     MainFrm.obj
 0004:000011b8       $pdata$?ResetTimer@CControlBar@@QEAAX_KI@Z 00000001400361b8     MainFrm.obj
 0004:000011c4       $pdata$?SetStatusText@CControlBar@@UEAAH_J@Z 00000001400361c4     MainFrm.obj
 0004:000011d0       $pdata$?Create@CStatusBar@@UEAAHPEAVCWnd@@KI@Z 00000001400361d0     MainFrm.obj
 0004:000011dc       $pdata$?CreateEx@CStatusBar@@UEAAHPEAVCWnd@@KKI@Z 00000001400361dc     MainFrm.obj
 0004:000011e8       $pdata$?OnCmdMsg@CFrameWnd@@UEAAHIHPEAXPEAUAFX_CMDHANDLERINFO@@@Z 00000001400361e8     MainFrm.obj
 0004:000011f4       $pdata$??_GCFrameWnd@@UEAAPEAXI@Z 00000001400361f4     MainFrm.obj
 0004:00001200       $pdata$?PreTranslateMessage@CFrameWnd@@UEAAHPEAUtagMSG@@@Z 0000000140036200     MainFrm.obj
 0004:0000120c       $pdata$?AfxIsDescendant@CFrameWnd@@SAHPEAUHWND__@@0@Z 000000014003620c     MainFrm.obj
 0004:00001218       $pdata$?ShowOwnedWindows@CFrameWnd@@QEAAXH@Z 0000000140036218     MainFrm.obj
 0004:00001224       $pdata$4$?ShowOwnedWindows@CFrameWnd@@QEAAXH@Z 0000000140036224     MainFrm.obj
 0004:00001230       $pdata$5$?ShowOwnedWindows@CFrameWnd@@QEAAXH@Z 0000000140036230     MainFrm.obj
 0004:0000123c       $pdata$?OnSetPreviewMode@CFrameWnd@@UEAAXHPEAUCPrintPreviewState@@@Z 000000014003623c     MainFrm.obj
 0004:00001248       $pdata$2$?OnSetPreviewMode@CFrameWnd@@UEAAXHPEAUCPrintPreviewState@@@Z 0000000140036248     MainFrm.obj
 0004:00001254       $pdata$3$?OnSetPreviewMode@CFrameWnd@@UEAAXHPEAUCPrintPreviewState@@@Z 0000000140036254     MainFrm.obj
 0004:00001260       $pdata$4$?OnSetPreviewMode@CFrameWnd@@UEAAXHPEAUCPrintPreviewState@@@Z 0000000140036260     MainFrm.obj
 0004:0000126c       $pdata$5$?OnSetPreviewMode@CFrameWnd@@UEAAXHPEAUCPrintPreviewState@@@Z 000000014003626c     MainFrm.obj
 0004:00001278       $pdata$?ActivateFrame@CFrameWnd@@UEAAXH@Z 0000000140036278     MainFrm.obj
 0004:00001284       $pdata$?PreCreateWindow@CFrameWnd@@UEAAHAEAUtagCREATESTRUCTA@@@Z 0000000140036284     MainFrm.obj
 0004:00001290       $pdata$?GetIconWndClass@CFrameWnd@@QEAAPEBDKI@Z 0000000140036290     MainFrm.obj
 0004:0000129c       $pdata$?RemoveFrameWnd@CFrameWnd@@QEAAXXZ 000000014003629c     MainFrm.obj
 0004:000012a8       $pdata$??1CFrameWnd@@UEAA@XZ 00000001400362a8     MainFrm.obj
 0004:000012b4       $pdata$?Create@CFrameWnd@@UEAAHPEBD0KAEBUtagRECT@@PEAVCWnd@@0KPEAUCCreateContext@@@Z 00000001400362b4     MainFrm.obj
 0004:000012c0       $pdata$0$?Create@CFrameWnd@@UEAAHPEBD0KAEBUtagRECT@@PEAVCWnd@@0KPEAUCCreateContext@@@Z 00000001400362c0     MainFrm.obj
 0004:000012cc       $pdata$1$?Create@CFrameWnd@@UEAAHPEBD0KAEBUtagRECT@@PEAVCWnd@@0KPEAUCCreateContext@@@Z 00000001400362cc     MainFrm.obj
 0004:000012d8       $pdata$?LoadFrame@CFrameWnd@@UEAAHIKPEAVCWnd@@PEAUCCreateContext@@@Z 00000001400362d8     MainFrm.obj
 0004:000012e4       $pdata$?AddFrameWnd@CFrameWnd@@QEAAXXZ 00000001400362e4     MainFrm.obj
 0004:000012f0       $pdata$??0CFrameWnd@@QEAA@XZ 00000001400362f0     MainFrm.obj
 0004:000012fc       $pdata$?LoadStringA@CString@WTL@@QEAAHI@Z 00000001400362fc     MainFrm.obj
 0004:00001308       $pdata$1$?LoadStringA@CString@WTL@@QEAAHI@Z 0000000140036308     MainFrm.obj
 0004:00001314       $pdata$2$?LoadStringA@CString@WTL@@QEAAHI@Z 0000000140036314     MainFrm.obj
 0004:00001320       $pdata$?OnClose@CFrameWnd@@QEAAXXZ 0000000140036320     MainFrm.obj
 0004:0000132c       $pdata$0$?OnClose@CFrameWnd@@QEAAXXZ 000000014003632c     MainFrm.obj
 0004:00001338       $pdata$2$?OnClose@CFrameWnd@@QEAAXXZ 0000000140036338     MainFrm.obj
 0004:00001344       $pdata$?CreateView@CFrameWnd@@QEAAPEAVCWnd@@PEAUCCreateContext@@I@Z 0000000140036344     MainFrm.obj
 0004:00001350       $pdata$0$?CreateView@CFrameWnd@@QEAAPEAVCWnd@@PEAUCCreateContext@@I@Z 0000000140036350     MainFrm.obj
 0004:0000135c       $pdata$2$?CreateView@CFrameWnd@@QEAAPEAVCWnd@@PEAUCCreateContext@@I@Z 000000014003635c     MainFrm.obj
 0004:00001368       $pdata$3$?CreateView@CFrameWnd@@QEAAPEAVCWnd@@PEAUCCreateContext@@I@Z 0000000140036368     MainFrm.obj
 0004:00001374       $pdata$?OnCreateClient@CFrameWnd@@UEAAHPEAUtagCREATESTRUCTA@@PEAUCCreateContext@@@Z 0000000140036374     MainFrm.obj
 0004:00001380       $pdata$?OnCreateHelper@CFrameWnd@@QEAAHPEAUtagCREATESTRUCTA@@PEAUCCreateContext@@@Z 0000000140036380     MainFrm.obj
 0004:0000138c       $pdata$?DestroyWindow@CControlBar@@UEAAHXZ 000000014003638c     MainFrm.obj
 0004:00001398       $pdata$?DestroyDockBars@CFrameWnd@@QEAAXXZ 0000000140036398     MainFrm.obj
 0004:000013a4       $pdata$?OnDestroy@CFrameWnd@@QEAAXXZ 00000001400363a4     MainFrm.obj
 0004:000013b0       $pdata$0$?OnDestroy@CFrameWnd@@QEAAXXZ 00000001400363b0     MainFrm.obj
 0004:000013bc       $pdata$1$?OnDestroy@CFrameWnd@@QEAAXXZ 00000001400363bc     MainFrm.obj
 0004:000013c8       $pdata$?SetActiveWindow@CWnd@@QEAAPEAV1@XZ 00000001400363c8     MainFrm.obj
 0004:000013d4       $pdata$3$?SetActiveWindow@CWnd@@QEAAPEAV1@XZ 00000001400363d4     MainFrm.obj
 0004:000013e0       $pdata$4$?SetActiveWindow@CWnd@@QEAAPEAV1@XZ 00000001400363e0     MainFrm.obj
 0004:000013ec       $pdata$5$?SetActiveWindow@CWnd@@QEAAPEAV1@XZ 00000001400363ec     MainFrm.obj
 0004:000013f8       $pdata$6$?SetActiveWindow@CWnd@@QEAAPEAV1@XZ 00000001400363f8     MainFrm.obj
 0004:00001404       $pdata$7$?SetActiveWindow@CWnd@@QEAAPEAV1@XZ 0000000140036404     MainFrm.obj
 0004:00001410       $pdata$8$?SetActiveWindow@CWnd@@QEAAPEAV1@XZ 0000000140036410     MainFrm.obj
 0004:0000141c       $pdata$?OnDropFiles@CFrameWnd@@QEAAXPEAUHDROP__@@@Z 000000014003641c     MainFrm.obj
 0004:00001428       $pdata$?GetOwner@CWnd@@QEAAPEAV1@XZ 0000000140036428     MainFrm.obj
 0004:00001434       $pdata$2$?GetOwner@CWnd@@QEAAPEAV1@XZ 0000000140036434     MainFrm.obj
 0004:00001440       $pdata$4$?GetOwner@CWnd@@QEAAPEAV1@XZ 0000000140036440     MainFrm.obj
 0004:0000144c       $pdata$5$?GetOwner@CWnd@@QEAAPEAV1@XZ 000000014003644c     MainFrm.obj
 0004:00001458       $pdata$6$?GetOwner@CWnd@@QEAAPEAV1@XZ 0000000140036458     MainFrm.obj
 0004:00001464       $pdata$7$?GetOwner@CWnd@@QEAAPEAV1@XZ 0000000140036464     MainFrm.obj
 0004:00001470       $pdata$8$?GetOwner@CWnd@@QEAAPEAV1@XZ 0000000140036470     MainFrm.obj
 0004:0000147c       $pdata$9$?GetOwner@CWnd@@QEAAPEAV1@XZ 000000014003647c     MainFrm.obj
 0004:00001488       $pdata$10$?GetOwner@CWnd@@QEAAPEAV1@XZ 0000000140036488     MainFrm.obj
 0004:00001494       $pdata$?AfxGetParentOwner@CWnd@@SAPEAUHWND__@@PEAU2@@Z 0000000140036494     MainFrm.obj
 0004:000014a0       $pdata$?GetTopLevelParent@CWnd@@QEAAPEAV1@XZ 00000001400364a0     MainFrm.obj
 0004:000014ac       $pdata$0$?GetTopLevelParent@CWnd@@QEAAPEAV1@XZ 00000001400364ac     MainFrm.obj
 0004:000014b8       $pdata$4$?GetTopLevelParent@CWnd@@QEAAPEAV1@XZ 00000001400364b8     MainFrm.obj
 0004:000014c4       $pdata$6$?GetTopLevelParent@CWnd@@QEAAPEAV1@XZ 00000001400364c4     MainFrm.obj
 0004:000014d0       $pdata$7$?GetTopLevelParent@CWnd@@QEAAPEAV1@XZ 00000001400364d0     MainFrm.obj
 0004:000014dc       $pdata$8$?GetTopLevelParent@CWnd@@QEAAPEAV1@XZ 00000001400364dc     MainFrm.obj
 0004:000014e8       $pdata$9$?GetTopLevelParent@CWnd@@QEAAPEAV1@XZ 00000001400364e8     MainFrm.obj
 0004:000014f4       $pdata$10$?GetTopLevelParent@CWnd@@QEAAPEAV1@XZ 00000001400364f4     MainFrm.obj
 0004:00001500       $pdata$11$?GetTopLevelParent@CWnd@@QEAAPEAV1@XZ 0000000140036500     MainFrm.obj
 0004:0000150c       $pdata$12$?GetTopLevelParent@CWnd@@QEAAPEAV1@XZ 000000014003650c     MainFrm.obj
 0004:00001518       $pdata$?OnIdle@CCmdUI@@QEAAHPEAVCCmdTarget@@H@Z 0000000140036518     MainFrm.obj
 0004:00001524       $pdata$?OnInitMenuPopup@CFrameWnd@@QEAAXPEAVCMenuMTL@@IH@Z 0000000140036524     MainFrm.obj
 0004:00001530       $pdata$2$?OnInitMenuPopup@CFrameWnd@@QEAAXPEAVCMenuMTL@@IH@Z 0000000140036530     MainFrm.obj
 0004:0000153c       $pdata$3$?OnInitMenuPopup@CFrameWnd@@QEAAXPEAVCMenuMTL@@IH@Z 000000014003653c     MainFrm.obj
 0004:00001548       $pdata$4$?OnInitMenuPopup@CFrameWnd@@QEAAXPEAVCMenuMTL@@IH@Z 0000000140036548     MainFrm.obj
 0004:00001554       $pdata$5$?OnInitMenuPopup@CFrameWnd@@QEAAXPEAVCMenuMTL@@IH@Z 0000000140036554     MainFrm.obj
 0004:00001560       $pdata$6$?OnInitMenuPopup@CFrameWnd@@QEAAXPEAVCMenuMTL@@IH@Z 0000000140036560     MainFrm.obj
 0004:0000156c       $pdata$?GetTopLevelFrame@CWnd@@QEAAPEAVCFrameWnd@@XZ 000000014003656c     MainFrm.obj
 0004:00001578       $pdata$0$?GetTopLevelFrame@CWnd@@QEAAPEAVCFrameWnd@@XZ 0000000140036578     MainFrm.obj
 0004:00001584       $pdata$1$?GetTopLevelFrame@CWnd@@QEAAPEAVCFrameWnd@@XZ 0000000140036584     MainFrm.obj
 0004:00001590       $pdata$2$?GetTopLevelFrame@CWnd@@QEAAPEAVCFrameWnd@@XZ 0000000140036590     MainFrm.obj
 0004:0000159c       $pdata$3$?GetTopLevelFrame@CWnd@@QEAAPEAVCFrameWnd@@XZ 000000014003659c     MainFrm.obj
 0004:000015a8       $pdata$?SetMenuBarState@CFrameWnd@@QEAAHK@Z 00000001400365a8     MainFrm.obj
 0004:000015b4       $pdata$?OnMenuSelect@CFrameWnd@@QEAAXIIPEAUHMENU__@@@Z 00000001400365b4     MainFrm.obj
 0004:000015c0       $pdata$?OnSize@CFrameWnd@@QEAAXIHH@Z 00000001400365c0     MainFrm.obj
 0004:000015cc       $pdata$?GetDescendantWindow@CWnd@@QEAAPEAV1@PEAUHWND__@@HH@Z 00000001400365cc     MainFrm.obj
 0004:000015d8       $pdata$?OnSetMessageString@CFrameWnd@@QEAA_J_K_J@Z 00000001400365d8     MainFrm.obj
 0004:000015e4       $pdata$?UpdateFrameTitleForDocument@CFrameWnd@@QEAAXPEBD@Z 00000001400365e4     MainFrm.obj
 0004:000015f0       $pdata$?OnUpdateFrameTitle@CFrameWnd@@UEAAXH@Z 00000001400365f0     MainFrm.obj
 0004:000015fc       $pdata$?OnIdleUpdateCmdUI@CFrameWnd@@QEAAXXZ 00000001400365fc     MainFrm.obj
 0004:00001608       $pdata$?OnUpdateControlBarMenu@CFrameWnd@@QEAAXPEAVCCmdUI@@@Z 0000000140036608     MainFrm.obj
 0004:00001614       $pdata$?GetControlBar@CFrameWnd@@QEAAPEAVCControlBar@@I@Z 0000000140036614     MainFrm.obj
 0004:00001620       $pdata$1$?GetControlBar@CFrameWnd@@QEAAPEAVCControlBar@@I@Z 0000000140036620     MainFrm.obj
 0004:0000162c       $pdata$3$?GetControlBar@CFrameWnd@@QEAAPEAVCControlBar@@I@Z 000000014003662c     MainFrm.obj
 0004:00001638       $pdata$?GetParentFrame@CWnd@@QEAAPEAVCFrameWnd@@XZ 0000000140036638     MainFrm.obj
 0004:00001644       $pdata$0$?GetParentFrame@CWnd@@QEAAPEAVCFrameWnd@@XZ 0000000140036644     MainFrm.obj
 0004:00001650       $pdata$2$?GetParentFrame@CWnd@@QEAAPEAVCFrameWnd@@XZ 0000000140036650     MainFrm.obj
 0004:0000165c       $pdata$3$?GetParentFrame@CWnd@@QEAAPEAVCFrameWnd@@XZ 000000014003665c     MainFrm.obj
 0004:00001668       $pdata$?GetDockingFrame@CControlBar@@QEAAPEAVCFrameWnd@@XZ 0000000140036668     MainFrm.obj
 0004:00001674       $pdata$?IsVisible@CControlBar@@UEBAHXZ 0000000140036674     MainFrm.obj
 0004:00001680       $pdata$?AfxRepositionWindow@CAfx@@SAXPEAUAFX_SIZEPARENTPARAMS@@PEAUHWND__@@PEBUtagRECT@@@Z 0000000140036680     MainFrm.obj
 0004:0000168c       $pdata$?RepositionBars@CWnd@@QEAAXIIIIPEAUtagRECT@@PEBU2@H@Z 000000014003668c     MainFrm.obj
 0004:00001698       $pdata$0$?RepositionBars@CWnd@@QEAAXIIIIPEAUtagRECT@@PEBU2@H@Z 0000000140036698     MainFrm.obj
 0004:000016a4       $pdata$1$?RepositionBars@CWnd@@QEAAXIIIIPEAUtagRECT@@PEBU2@H@Z 00000001400366a4     MainFrm.obj
 0004:000016b0       $pdata$2$?RepositionBars@CWnd@@QEAAXIIIIPEAUtagRECT@@PEBU2@H@Z 00000001400366b0     MainFrm.obj
 0004:000016bc       $pdata$3$?RepositionBars@CWnd@@QEAAXIIIIPEAUtagRECT@@PEBU2@H@Z 00000001400366bc     MainFrm.obj
 0004:000016c8       $pdata$?RecalcLayout@CFrameWnd@@UEAAXH@Z 00000001400366c8     MainFrm.obj
 0004:000016d4       $pdata$?ShowControlBar@CFrameWnd@@QEAAXPEAVCControlBar@@HH@Z 00000001400366d4     MainFrm.obj
 0004:000016e0       $pdata$?OnBarCheck@CFrameWnd@@QEAAHI@Z 00000001400366e0     MainFrm.obj
 0004:000016ec       $pdata$?_AtlGetStringResourceImage@CAfx@@SAPEBUATLSTRINGRESOURCEIMAGE@ATL@@PEAUHINSTANCE__@@PEAUHRSRC__@@I@Z 00000001400366ec     MainFrm.obj
 0004:000016f8       $pdata$?AfxLoadString@CAfx@@SAHIPEADI@Z 00000001400366f8     MainFrm.obj
 0004:00001704       $pdata$?AssignCopy@CString@WTL@@IEAAXHPEBD@Z 0000000140036704     MainFrm.obj
 0004:00001710       $pdata$0$?AssignCopy@CString@WTL@@IEAAXHPEBD@Z 0000000140036710     MainFrm.obj
 0004:0000171c       $pdata$1$?AssignCopy@CString@WTL@@IEAAXHPEBD@Z 000000014003671c     MainFrm.obj
 0004:00001728       $pdata$2$?AssignCopy@CString@WTL@@IEAAXHPEBD@Z 0000000140036728     MainFrm.obj
 0004:00001734       $pdata$?Empty@CString@WTL@@QEAAXXZ 0000000140036734     MainFrm.obj
 0004:00001740       $pdata$?GetBuffer@CString@WTL@@QEAAPEADH@Z 0000000140036740     MainFrm.obj
 0004:0000174c       $pdata$?CopyBeforeWrite@CString@WTL@@IEAAXXZ 000000014003674c     MainFrm.obj
 0004:00001758       $pdata$?AfxExtractSubString@CAfx@@SAHAEAVCString@WTL@@PEBDHD@Z 0000000140036758     MainFrm.obj
 0004:00001764       $pdata$?OnToolTipText@CFrameWnd@@QEAAHIPEAUtagNMHDR@@PEA_J@Z 0000000140036764     MainFrm.obj
 0004:00001770       $pdata$?_ProcessWindowMessage@CFrameWnd@@UEAAHPEAUHWND__@@I_K_JAEA_J@Z 0000000140036770     MainFrm.obj
 0004:0000177c       $pdata$?SetCurrentHandles@CWinApp@@QEAAXXZ 000000014003677c     StdAfx.obj
 0004:00001788       $pdata$4$?SetCurrentHandles@CWinApp@@QEAAXXZ 0000000140036788     StdAfx.obj
 0004:00001794       $pdata$5$?SetCurrentHandles@CWinApp@@QEAAXXZ 0000000140036794     StdAfx.obj
 0004:000017a0       $pdata$?CreateObject@CWnd@@SAPEAVCObject@@XZ 00000001400367a0     StdAfx.obj
 0004:000017ac       $pdata$?CreateObject@CFrameWnd@@SAPEAVCObject@@XZ 00000001400367ac     StdAfx.obj
 0004:000017b8       $pdata$WinMain             00000001400367b8     StdAfx.obj
 0004:000017c4       $pdata$?__AllocStdCallThunk@ATL@@YAPEAXXZ 00000001400367c4     atls:atlthunk.obj
 0004:000017d0       $pdata$?__InitializeThunkPool@@YAHXZ 00000001400367d0     atls:atlthunk.obj
 0004:000017dc       $pdata$??0CAtlBaseModule@ATL@@QEAA@XZ 00000001400367dc     atls:atlbase.obj
 0004:000017e8       $pdata$??1CAtlBaseModule@ATL@@QEAA@XZ 00000001400367e8     atls:atlbase.obj
 0004:000017f4       $pdata$memcpy_s            00000001400367f4     LIBCMT:memcpy_s.obj
 0004:00001800       $pdata$??8type_info@@QEBA_NAEBV0@@Z 0000000140036800     LIBCMT:typinfo.obj
 0004:0000180c       $pdata$??_Gtype_info@@UEAAPEAXI@Z 000000014003680c     LIBCMT:typinfo.obj
 0004:00001818       $pdata$__onexitinit        0000000140036818     LIBCMT:onexit.obj
 0004:00001824       $pdata$_onexit             0000000140036824     LIBCMT:onexit.obj
 0004:00001830       $pdata$atexit              0000000140036830     LIBCMT:onexit.obj
 0004:0000183c       $pdata$??0bad_alloc@std@@QEAA@AEBV01@@Z 000000014003683c     LIBCMT:new.obj
 0004:00001848       $pdata$??2@YAPEAX_K@Z      0000000140036848     LIBCMT:new.obj
 0004:00001854       $pdata$??_Gbad_alloc@std@@UEAAPEAXI@Z 0000000140036854     LIBCMT:new.obj
 0004:00001860       $pdata$free                0000000140036860     LIBCMT:free.obj
 0004:0000186c       $pdata$_strdup             000000014003686c     LIBCMT:strdup.obj
 0004:00001878       $pdata$??0_LocaleUpdate@@QEAA@PEAUlocaleinfo_struct@@@Z 0000000140036878     LIBCMT:mbschr.obj
 0004:00001884       $pdata$_mbschr_l           0000000140036884     LIBCMT:mbschr.obj
 0004:00001890       $pdata$_mbscmp_l           0000000140036890     LIBCMT:mbscmp.obj
 0004:000018a8       $pdata$_purecall           00000001400368a8     LIBCMT:purevirt.obj
 0004:000018b4       $pdata$malloc              00000001400368b4     LIBCMT:malloc.obj
 0004:000018c0       $pdata$WinMainCRTStartup   00000001400368c0     LIBCMT:wincrt0.obj
 0004:000018cc       $pdata$__tmainCRTStartup   00000001400368cc     LIBCMT:wincrt0.obj
 0004:000018d8       $pdata$fast_error_exit     00000001400368d8     LIBCMT:wincrt0.obj
 0004:000018f0       $pdata$_call_reportfault   00000001400368f0     LIBCMT:invarg.obj
 0004:000018fc       $pdata$_invalid_parameter  00000001400368fc     LIBCMT:invarg.obj
 0004:00001908       $pdata$_invalid_parameter_noinfo 0000000140036908     LIBCMT:invarg.obj
 0004:00001914       $pdata$_invoke_watson      0000000140036914     LIBCMT:invarg.obj
 0004:00001920       $pdata$__doserrno          0000000140036920     LIBCMT:dosmap.obj
 0004:0000192c       $pdata$_dosmaperr          000000014003692c     LIBCMT:dosmap.obj
 0004:00001938       $pdata$_errno              0000000140036938     LIBCMT:dosmap.obj
 0004:00001950       $pdata$?_Type_info_dtor@type_info@@CAXPEAV1@@Z 0000000140036950     LIBCMT:typname.obj
 0004:0000195c       $pdata$__crtCorExitProcess 000000014003695c     LIBCMT:crt0dat.obj
 0004:00001968       $pdata$__crtExitProcess    0000000140036968     LIBCMT:crt0dat.obj
 0004:00001974       $pdata$_amsg_exit          0000000140036974     LIBCMT:crt0dat.obj
 0004:00001980       $pdata$_cinit              0000000140036980     LIBCMT:crt0dat.obj
 0004:0000198c       $pdata$_init_pointers      000000014003698c     LIBCMT:crt0dat.obj
 0004:00001998       $pdata$_initterm           0000000140036998     LIBCMT:crt0dat.obj
 0004:000019a4       $pdata$_initterm_e         00000001400369a4     LIBCMT:crt0dat.obj
 0004:000019b0       $pdata$doexit              00000001400369b0     LIBCMT:crt0dat.obj
 0004:000019bc       $pdata$_msize              00000001400369bc     LIBCMT:msize.obj
 0004:000019c8       $pdata$_calloc_crt         00000001400369c8     LIBCMT:crtheap.obj
 0004:000019d4       $pdata$_malloc_crt         00000001400369d4     LIBCMT:crtheap.obj
 0004:000019e0       $pdata$_realloc_crt        00000001400369e0     LIBCMT:crtheap.obj
 0004:000019ec       $pdata$__C_specific_handler 00000001400369ec     LIBCMT:chandler.obj
 0004:000019f8       $pdata$??0exception@std@@QEAA@AEBQEBD@Z 00000001400369f8     LIBCMT:stdexcpt.obj
 0004:00001a04       $pdata$??0exception@std@@QEAA@AEBV01@@Z 0000000140036a04     LIBCMT:stdexcpt.obj
 0004:00001a10       $pdata$??4exception@std@@QEAAAEAV01@AEBV01@@Z 0000000140036a10     LIBCMT:stdexcpt.obj
 0004:00001a1c       $pdata$??_Gexception@std@@UEAAPEAXI@Z 0000000140036a1c     LIBCMT:stdexcpt.obj
 0004:00001a28       $pdata$?_Copy_str@exception@std@@AEAAXPEBD@Z 0000000140036a28     LIBCMT:stdexcpt.obj
 0004:00001a34       $pdata$?_Tidy@exception@std@@AEAAXXZ 0000000140036a34     LIBCMT:stdexcpt.obj
 0004:00001a40       $pdata$_callnewh           0000000140036a40     LIBCMT:handler.obj
 0004:00001a4c       $pdata$_CxxThrowException  0000000140036a4c     LIBCMT:throw.obj
 0004:00001a58       $pdata$_heap_init          0000000140036a58     LIBCMT:heapinit.obj
 0004:00001a64       $pdata$strcpy_s            0000000140036a64     LIBCMT:strcpy_s.obj
 0004:00001a7c       $pdata$__freetlocinfo      0000000140036a7c     LIBCMT:localref.obj
 0004:00001a88       $pdata$__updatetlocinfo    0000000140036a88     LIBCMT:localref.obj
 0004:00001a94       $pdata$_updatetlocinfoEx_nolock 0000000140036a94     LIBCMT:localref.obj
 0004:00001aa0       $pdata$__initmbctable      0000000140036aa0     LIBCMT:mbctype.obj
 0004:00001aac       $pdata$?getSystemCP@@YAHH@Z 0000000140036aac     LIBCMT:mbctype.obj
 0004:00001ab8       $pdata$?setSBCS@@YAXPEAUthreadmbcinfostruct@@@Z 0000000140036ab8     LIBCMT:mbctype.obj
 0004:00001ac4       $pdata$?setSBUpLow@@YAXPEAUthreadmbcinfostruct@@@Z 0000000140036ac4     LIBCMT:mbctype.obj
 0004:00001ad0       $pdata$__updatetmbcinfo    0000000140036ad0     LIBCMT:mbctype.obj
 0004:00001adc       $pdata$_setmbcp            0000000140036adc     LIBCMT:mbctype.obj
 0004:00001ae8       $pdata$_setmbcp_nolock     0000000140036ae8     LIBCMT:mbctype.obj
 0004:00001af4       $pdata$strchr              0000000140036af4     LIBCMT:strchr.obj
 0004:00001b00       $pdata$_freefls            0000000140036b00     LIBCMT:tidtable.obj
 0004:00001b0c       $pdata$_getptd             0000000140036b0c     LIBCMT:tidtable.obj
 0004:00001b18       $pdata$_getptd_noexit      0000000140036b18     LIBCMT:tidtable.obj
 0004:00001b24       $pdata$_initptd            0000000140036b24     LIBCMT:tidtable.obj
 0004:00001b30       $pdata$_mtinit             0000000140036b30     LIBCMT:tidtable.obj
 0004:00001b3c       $pdata$_mtterm             0000000140036b3c     LIBCMT:tidtable.obj
 0004:00001b48       $pdata$__isa_available_init 0000000140036b48     LIBCMT:cpu_disp.obj
 0004:00001b54       $pdata$abort               0000000140036b54     LIBCMT:abort.obj
 0004:00001b60       $pdata$_FF_MSGBANNER       0000000140036b60     LIBCMT:crt0msg.obj
 0004:00001b6c       $pdata$_NMSG_WRITE         0000000140036b6c     LIBCMT:crt0msg.obj
 0004:00001b78       $pdata$?_inconsistency@@YAXXZ 0000000140036b78     LIBCMT:hooks.obj
 0004:00001b84       $pdata$?terminate@@YAXXZ   0000000140036b84     LIBCMT:hooks.obj
 0004:00001b90       $pdata$_initp_eh_hooks     0000000140036b90     LIBCMT:hooks.obj
 0004:00001b9c       $pdata$?__CxxUnhandledExceptionFilter@@YAJPEAU_EXCEPTION_POINTERS@@@Z 0000000140036b9c     LIBCMT:unhandld.obj
 0004:00001ba8       $pdata$__CxxSetUnhandledExceptionFilter 0000000140036ba8     LIBCMT:unhandld.obj
 0004:00001bb4       $pdata$_XcptFilter         0000000140036bb4     LIBCMT:winxfltr.obj
 0004:00001bc0       $pdata$_ioinit             0000000140036bc0     LIBCMT:ioinit.obj
 0004:00001bcc       $pdata$_setargv            0000000140036bcc     LIBCMT:stdargv.obj
 0004:00001bd8       $pdata$parse_cmdline       0000000140036bd8     LIBCMT:stdargv.obj
 0004:00001be4       $pdata$_setenvp            0000000140036be4     LIBCMT:stdenvp.obj
 0004:00001bf0       $pdata$_set_error_mode     0000000140036bf0     LIBCMT:errmode.obj
 0004:00001bfc       $pdata$__security_init_cookie 0000000140036bfc     LIBCMT:gs_support.obj
 0004:00001c08       $pdata$_RTC_Initialize     0000000140036c08     LIBCMT:initsect.obj
 0004:00001c14       $pdata$_RTC_Terminate      0000000140036c14     LIBCMT:initsect.obj
 0004:00001c20       $pdata$__crtGetEnvironmentStringsA 0000000140036c20     LIBCMT:a_env.obj
 0004:00001c2c       $pdata$__crtCaptureCurrentContext 0000000140036c2c     LIBCMT:winapisupp.obj
 0004:00001c38       $pdata$__crtCapturePreviousContext 0000000140036c38     LIBCMT:winapisupp.obj
 0004:00001c44       $pdata$__crtGetShowWindowMode 0000000140036c44     LIBCMT:winapisupp.obj
 0004:00001c50       $pdata$__crtInitializeCriticalSectionEx 0000000140036c50     LIBCMT:winapisupp.obj
 0004:00001c5c       $pdata$__crtIsPackagedApp  0000000140036c5c     LIBCMT:winapisupp.obj
 0004:00001c68       $pdata$__crtLoadWinApiPointers 0000000140036c68     LIBCMT:winapisupp.obj
 0004:00001c74       $pdata$__crtTerminateProcess 0000000140036c74     LIBCMT:winapisupp.obj
 0004:00001c80       $pdata$__crtUnhandledException 0000000140036c80     LIBCMT:winapisupp.obj
 0004:00001c8c       $pdata$_wincmdln           0000000140036c8c     LIBCMT:wincmdln.obj
 0004:00001c98       $pdata$realloc             0000000140036c98     LIBCMT:realloc.obj
 0004:00001ca4       $pdata$__GSHandlerCheck    0000000140036ca4     LIBCMT:gshandler.obj
 0004:00001cb0       $pdata$__GSHandlerCheckCommon 0000000140036cb0     LIBCMT:gshandler.obj
 0004:00001cc8       $pdata$_lock               0000000140036cc8     LIBCMT:mlock.obj
 0004:00001cd4       $pdata$_mtdeletelocks      0000000140036cd4     LIBCMT:mlock.obj
 0004:00001ce0       $pdata$_mtinitlocknum      0000000140036ce0     LIBCMT:mlock.obj
 0004:00001cec       $pdata$_mtinitlocks        0000000140036cec     LIBCMT:mlock.obj
 0004:00001d28       $pdata$_IsNonwritableInCurrentImage 0000000140036d28     LIBCMT:pesect.obj
 0004:00001d34       $pdata$_initp_misc_cfltcvt_tab 0000000140036d34     LIBCMT:cmiscdat.obj
 0004:00001d40       $pdata$raise               0000000140036d40     LIBCMT:winsig.obj
 0004:00001d4c       $pdata$_calloc_impl        0000000140036d4c     LIBCMT:calloc_impl.obj
 0004:00001d58       $pdata$__free_lconv_mon    0000000140036d58     LIBCMT:initmon.obj
 0004:00001d64       $pdata$__free_lconv_num    0000000140036d64     LIBCMT:initnum.obj
 0004:00001d70       $pdata$__free_lc_time      0000000140036d70     LIBCMT:inittime.obj
 0004:00001d7c       $pdata$?__crtLCMapStringA_stat@@YAHPEAUlocaleinfo_struct@@PEB_WKPEBDHPEADHHH@Z 0000000140036d7c     LIBCMT:a_map.obj
 0004:00001d88       $pdata$__crtLCMapStringA   0000000140036d88     LIBCMT:a_map.obj
 0004:00001d94       $pdata$?__crtGetStringTypeA_stat@@YAHPEAUlocaleinfo_struct@@KPEBDHPEAGHH@Z 0000000140036d94     LIBCMT:a_str.obj
 0004:00001da0       $pdata$__crtGetStringTypeA 0000000140036da0     LIBCMT:a_str.obj
 0004:00001dac       $pdata$GetTableIndexFromLocaleName 0000000140036dac     LIBCMT:winapinls.obj
 0004:00001db8       $pdata$__crtDownlevelLocaleNameToLCID 0000000140036db8     LIBCMT:winapinls.obj
 0004:00001dc4       $pdata$__crtLCMapStringEx  0000000140036dc4     LIBCMT:winapinls.obj
 0004:00001dd0       $pdata$wcscat_s            0000000140036dd0     LIBCMT:wcscat_s.obj
 0004:00001ddc       $pdata$wcscpy_s            0000000140036ddc     LIBCMT:wcscpy_s.obj
 0004:00001de8       $pdata$wcsncpy_s           0000000140036de8     LIBCMT:wcsncpy_s.obj
 0004:00001df4       $pdata$__crtMessageBoxW    0000000140036df4     LIBCMT:crtmboxw.obj
 0004:00001e00       $pdata$__initstdio         0000000140036e00     LIBCMT:_file.obj
 0004:00001e0c       $pdata$__endstdio          0000000140036e0c     LIBCMT:_file.obj
 0004:00001e18       $pdata$_lock_file          0000000140036e18     LIBCMT:_file.obj
 0004:00001e24       $pdata$_lock_file2         0000000140036e24     LIBCMT:_file.obj
 0004:00001e30       $pdata$?x_ismbbtype_l@@YAHPEAUlocaleinfo_struct@@IHH@Z 0000000140036e30     LIBCMT:ismbbyte.obj
 0004:00001e3c       $pdata$__raise_securityfailure 0000000140036e3c     LIBCMT:gs_report.obj
 0004:00001e48       $pdata$__report_gsfailure  0000000140036e48     LIBCMT:gs_report.obj
 0004:00001e54       $pdata$_fileno             0000000140036e54     LIBCMT:fileno.obj
 0004:00001e60       $pdata$_isatty             0000000140036e60     LIBCMT:isatty.obj
 0004:00001e6c       $pdata$_fflush_nolock      0000000140036e6c     LIBCMT:fflush.obj
 0004:00001e78       $pdata$_flush              0000000140036e78     LIBCMT:fflush.obj
 0004:00001e84       $pdata$flsall              0000000140036e84     LIBCMT:fflush.obj
 0004:00001e90       $pdata$_locterm            0000000140036e90     LIBCMT:wsetloca.obj
 0004:00001ea8       $pdata$_fcloseall          0000000140036ea8     LIBCMT:closeall.obj
 0004:00001eb4       $pdata$_commit             0000000140036eb4     LIBCMT:commit.obj
 0004:00001ec0       $pdata$_write              0000000140036ec0     LIBCMT:write.obj
 0004:00001ecc       $pdata$_write_nolock       0000000140036ecc     LIBCMT:write.obj
 0004:00001ee4       $pdata$_fclose_nolock      0000000140036ee4     LIBCMT:fclose.obj
 0004:00001ef0       $pdata$fclose              0000000140036ef0     LIBCMT:fclose.obj
 0004:00001efc       $pdata$_isctype_l          0000000140036efc     LIBCMT:isctype.obj
 0004:00001f08       $pdata$__crt_atoflt_l      0000000140036f08     LIBCMT:atodbl.obj
 0004:00001f14       $pdata$_atodbl_l           0000000140036f14     LIBCMT:atodbl.obj
 0004:00001f20       $pdata$__lock_fhandle      0000000140036f20     LIBCMT:osfinfo.obj
 0004:00001f2c       $pdata$_free_osfhnd        0000000140036f2c     LIBCMT:osfinfo.obj
 0004:00001f38       $pdata$_get_osfhandle      0000000140036f38     LIBCMT:osfinfo.obj
 0004:00001f44       $pdata$_isleadbyte_l       0000000140036f44     LIBCMT:_wctype.obj
 0004:00001f50       $pdata$isleadbyte          0000000140036f50     LIBCMT:_wctype.obj
 0004:00001f5c       $pdata$_lseeki64_nolock    0000000140036f5c     LIBCMT:lseeki64.obj
 0004:00001f68       $pdata$_mbtowc_l           0000000140036f68     LIBCMT:mbtowc.obj
 0004:00001f74       $pdata$_putwch_nolock      0000000140036f74     LIBCMT:putwch.obj
 0004:00001f80       $pdata$_close              0000000140036f80     LIBCMT:close.obj
 0004:00001f8c       $pdata$_close_nolock       0000000140036f8c     LIBCMT:close.obj
 0004:00001f98       $pdata$_freebuf            0000000140036f98     LIBCMT:_freebuf.obj
 0004:00001fa4       $pdata$_ld12tod            0000000140036fa4     LIBCMT:intrncvt.obj
 0004:00001fb0       $pdata$_ld12tof            0000000140036fb0     LIBCMT:intrncvt.obj
 0004:00001fbc       $pdata$__strgtold12_l      0000000140036fbc     LIBCMT:strgtold.obj
 0004:00001fc8       $pdata$_cfltcvt            0000000140036fc8     LIBCMT:cvt.obj
 0004:00001fd4       $pdata$_cfltcvt_l          0000000140036fd4     LIBCMT:cvt.obj
 0004:00001fe0       $pdata$_cftoa_l            0000000140036fe0     LIBCMT:cvt.obj
 0004:00001fec       $pdata$_cftoe2_l           0000000140036fec     LIBCMT:cvt.obj
 0004:00001ff8       $pdata$_cftoe_l            0000000140036ff8     LIBCMT:cvt.obj
 0004:00002004       $pdata$_cftof2_l           0000000140037004     LIBCMT:cvt.obj
 0004:00002010       $pdata$_cftof_l            0000000140037010     LIBCMT:cvt.obj
 0004:0000201c       $pdata$_cftog_l            000000014003701c     LIBCMT:cvt.obj
 0004:00002028       $pdata$_cropzeros_l        0000000140037028     LIBCMT:cvt.obj
 0004:00002034       $pdata$_fassign_l          0000000140037034     LIBCMT:cvt.obj
 0004:00002040       $pdata$_forcdecpt_l        0000000140037040     LIBCMT:cvt.obj
 0004:0000204c       $pdata$__termconout        000000014003704c     LIBCMT:initcon.obj
 0004:00002058       $pdata$__initconout        0000000140037058     LIBCMT:initcon.obj
 0004:00002064       $pdata$__mtold12           0000000140037064     LIBCMT:mantold.obj
 0004:00002070       $pdata$isdigit             0000000140037070     LIBCMT:_ctype.obj
 0004:0000207c       $pdata$_tolower_l          000000014003707c     LIBCMT:tolower.obj
 0004:00002088       $pdata$strrchr             0000000140037088     LIBCMT:strrchr.obj
 0004:00002094       $pdata$_fptostr            0000000140037094     LIBCMT:_fptostr.obj
 0004:000020a0       $pdata$__dtold             00000001400370a0     LIBCMT:cfout.obj
 0004:000020ac       $pdata$_fltout2            00000001400370ac     LIBCMT:cfout.obj
 0004:000020b8       $pdata$$I10_OUTPUT         00000001400370b8     LIBCMT:x10fout.obj
 0004:000020c4       $pdata$?_GetEstablisherFrame@@YAPEA_KPEA_KPEAU_xDISPATCHER_CONTEXT@@PEBU_s_FuncInfo@@0@Z 00000001400370c4     LIBCMT:trnsctrl.obj
 0004:000020d0       $pdata$?_GetRangeOfTrysToCheck@@YAPEBU_s_TryBlockMapEntry@@PEA_KPEBU_s_FuncInfo@@HHPEAI2PEAU_xDISPATCHER_CONTEXT@@@Z 00000001400370d0     LIBCMT:trnsctrl.obj
 0004:000020dc       $pdata$?__FrameUnwindToEmptyState@@YAXPEA_KPEAU_xDISPATCHER_CONTEXT@@PEBU_s_FuncInfo@@@Z 00000001400370dc     LIBCMT:trnsctrl.obj
 0004:000020e8       $pdata$?__SehTransFilter@@YAHPEAU_EXCEPTION_POINTERS@@PEAUEHExceptionRecord@@PEA_KPEAU_CONTEXT@@PEAU_xDISPATCHER_CONTEXT@@PEBU_s_FuncInfo@@PEAH@Z 00000001400370e8     LIBCMT:trnsctrl.obj
 0004:000020f4       $pdata$_CallSETranslator   00000001400370f4     LIBCMT:trnsctrl.obj
 0004:00002100       $pdata$_CreateFrameInfo    0000000140037100     LIBCMT:trnsctrl.obj
 0004:0000210c       $pdata$_FindAndUnlinkFrame 000000014003710c     LIBCMT:trnsctrl.obj
 0004:00002118       $pdata$_GetImageBase       0000000140037118     LIBCMT:trnsctrl.obj
 0004:00002124       $pdata$_GetThrowImageBase  0000000140037124     LIBCMT:trnsctrl.obj
 0004:00002130       $pdata$_IsExceptionObjectToBeDestroyed 0000000140037130     LIBCMT:trnsctrl.obj
 0004:0000213c       $pdata$_SetImageBase       000000014003713c     LIBCMT:trnsctrl.obj
 0004:00002148       $pdata$_SetThrowImageBase  0000000140037148     LIBCMT:trnsctrl.obj
 0004:00002154       $pdata$_UnwindNestedFrames 0000000140037154     LIBCMT:trnsctrl.obj
 0004:00002160       $pdata$__CxxFrameHandler3  0000000140037160     LIBCMT:trnsctrl.obj
 0004:0000216c       $pdata$__DestructExceptionObject 000000014003716c     LIBCMT:frame.obj
 0004:00002178       $pdata$??0bad_exception@std@@QEAA@AEBV01@@Z 0000000140037178     LIBCMT:frame.obj
 0004:00002184       $pdata$??_Gbad_exception@std@@UEAAPEAXI@Z 0000000140037184     LIBCMT:frame.obj
 0004:00002190       $pdata$?CatchIt@@YAXPEAUEHExceptionRecord@@PEA_KPEAU_CONTEXT@@PEAU_xDISPATCHER_CONTEXT@@PEBU_s_FuncInfo@@PEBU_s_HandlerType@@PEBU_s_CatchableType@@PEBU_s_TryBlockMapEntry@@H1EE@Z 0000000140037190     LIBCMT:frame.obj
 0004:0000219c       $pdata$?FindHandler@@YAXPEAUEHExceptionRecord@@PEA_KPEAU_CONTEXT@@PEAU_xDISPATCHER_CONTEXT@@PEBU_s_FuncInfo@@EH1@Z 000000014003719c     LIBCMT:frame.obj
 0004:000021a8       $pdata$?FindHandlerForForeignException@@YAXPEAUEHExceptionRecord@@PEA_KPEAU_CONTEXT@@PEAU_xDISPATCHER_CONTEXT@@PEBU_s_FuncInfo@@HH1@Z 00000001400371a8     LIBCMT:frame.obj
 0004:000021b4       $pdata$?IsInExceptionSpec@@YAEPEAUEHExceptionRecord@@PEBU_s_ESTypeList@@@Z 00000001400371b4     LIBCMT:frame.obj
 0004:000021c0       $pdata$__BuildCatchObject  00000001400371c0     LIBCMT:frame.obj
 0004:000021cc       $pdata$__BuildCatchObjectHelper 00000001400371cc     LIBCMT:frame.obj
 0004:000021d8       $pdata$__CxxCallCatchBlock 00000001400371d8     LIBCMT:frame.obj
 0004:000021e4       $pdata$__FrameUnwindFilter 00000001400371e4     LIBCMT:frame.obj
 0004:000021f0       $pdata$__FrameUnwindToState 00000001400371f0     LIBCMT:frame.obj
 0004:000021fc       $pdata$__InternalCxxFrameHandler 00000001400371fc     LIBCMT:frame.obj
 0004:00002208       $pdata$__TypeMatch         0000000140037208     LIBCMT:frame.obj
 0004:00002214       $pdata$?__GetCurrentState@@YAHPEA_KPEAU_xDISPATCHER_CONTEXT@@PEBU_s_FuncInfo@@@Z 0000000140037214     LIBCMT:ehstate.obj
 0004:00002220       $pdata$?__GetUnwindTryBlock@@YAHPEA_KPEAU_xDISPATCHER_CONTEXT@@PEBU_s_FuncInfo@@@Z 0000000140037220     LIBCMT:ehstate.obj
 0004:0000222c       $pdata$?__SetUnwindTryBlock@@YAXPEA_KPEAU_xDISPATCHER_CONTEXT@@PEBU_s_FuncInfo@@H@Z 000000014003722c     LIBCMT:ehstate.obj
 0004:00002238       $pdata$?__StateFromIp@@YAHPEBU_s_FuncInfo@@PEAU_xDISPATCHER_CONTEXT@@_J@Z 0000000140037238     LIBCMT:ehstate.obj
 0004:00002250       $pdata$?catch$0@?0??AllocBuffer@CString@WTL@@IEAAHH@Z@4HA 0000000140037250     ChildView.obj
 0004:0000225c       $pdata$_onexit$fin$0       000000014003725c     LIBCMT:onexit.obj
 0004:00002268       $pdata$__tmainCRTStartup$filt$0 0000000140037268     LIBCMT:wincrt0.obj
 0004:00002274       $pdata$?fin$0@?0??_Type_info_dtor@type_info@@CAXPEAV1@@Z@4HA 0000000140037274     LIBCMT:typname.obj
 0004:00002280       $pdata$doexit$fin$0        0000000140037280     LIBCMT:crt0dat.obj
 0004:0000228c       $pdata$_setmbcp$fin$0      000000014003728c     LIBCMT:mbctype.obj
 0004:0000228c       $pdata$__updatetmbcinfo$fin$0 000000014003728c     LIBCMT:mbctype.obj
 0004:00002298       $pdata$_freefls$fin$1      0000000140037298     LIBCMT:tidtable.obj
 0004:00002298       $pdata$_initptd$fin$1      0000000140037298     LIBCMT:tidtable.obj
 0004:000022a4       $pdata$_initptd$fin$0      00000001400372a4     LIBCMT:tidtable.obj
 0004:000022a4       $pdata$_freefls$fin$0      00000001400372a4     LIBCMT:tidtable.obj
 0004:000022b0       $pdata$_ioinit$fin$0       00000001400372b0     LIBCMT:ioinit.obj
 0004:000022bc       $pdata$_mtinitlocknum$fin$0 00000001400372bc     LIBCMT:mlock.obj
 0004:000022c8       $pdata$_IsNonwritableInCurrentImage$filt$0 00000001400372c8     LIBCMT:pesect.obj
 0004:000022d4       $pdata$raise$fin$0         00000001400372d4     LIBCMT:winsig.obj
 0004:000022e0       $pdata$flsall$fin$0        00000001400372e0     LIBCMT:fflush.obj
 0004:000022ec       $pdata$flsall$fin$1        00000001400372ec     LIBCMT:fflush.obj
 0004:000022f8       $pdata$__updatetlocinfo$fin$0 00000001400372f8     LIBCMT:wsetloca.obj
 0004:000022f8       $pdata$_locterm$fin$0      00000001400372f8     LIBCMT:wsetloca.obj
 0004:00002304       $pdata$_fcloseall$fin$0    0000000140037304     LIBCMT:closeall.obj
 0004:00002310       $pdata$_write$fin$0        0000000140037310     LIBCMT:write.obj
 0004:0000231c       $pdata$fclose$fin$0        000000014003731c     LIBCMT:fclose.obj
 0004:00002328       $pdata$__lock_fhandle$fin$0 0000000140037328     LIBCMT:osfinfo.obj
 0004:00002334       $pdata$_close$fin$0        0000000140037334     LIBCMT:close.obj
 0004:00002334       $pdata$_commit$fin$0       0000000140037334     LIBCMT:close.obj
 0004:00002340       $pdata$_CallSETranslator$filt$0 0000000140037340     LIBCMT:trnsctrl.obj
 0004:0000234c       $pdata$__CxxCallCatchBlock$filt$0 000000014003734c     LIBCMT:frame.obj
 0004:00002358       $pdata$__CxxCallCatchBlock$fin$1 0000000140037358     LIBCMT:frame.obj
 0004:00002364       $pdata$__DestructExceptionObject$filt$0 0000000140037364     LIBCMT:frame.obj
 0004:00002370       $pdata$__FrameUnwindToState$filt$0 0000000140037370     LIBCMT:frame.obj
 0004:0000237c       $pdata$__FrameUnwindToState$fin$1 000000014003737c     LIBCMT:frame.obj
 0004:00002388       $pdata$??__F_AtlWinModule@ATL@@YAXXZ 0000000140037388     ChildView.obj
 0004:00002394       $pdata$??__F?wndTop@CWMHnd@@2V1@B@@YAXXZ 0000000140037394     StdAfx.obj
 0004:000023a0       $pdata$??__F?wndBottom@CWMHnd@@2V1@B@@YAXXZ 00000001400373a0     StdAfx.obj
 0004:000023ac       $pdata$??__F?wndTopMost@CWMHnd@@2V1@B@@YAXXZ 00000001400373ac     StdAfx.obj
 0004:000023b8       $pdata$??__F?wndNoTopMost@CWMHnd@@2V1@B@@YAXXZ 00000001400373b8     StdAfx.obj
 0005:00000df0       $R000000                   0000000140038df0     FrmVC6.res
 0005:000010d8       $R0002E8                   00000001400390d8     FrmVC6.res
 0005:00001200       $R000410                   0000000140039200     FrmVC6.res
 0005:00001228       $R000438                   0000000140039228     FrmVC6.res
 0005:000014e8       $R0006F8                   00000001400394e8     FrmVC6.res
 0005:00001500       $R000710                   0000000140039500     FrmVC6.res
 0005:00001680       $R000890                   0000000140039680     FrmVC6.res
 0005:000016d0       $R0008E0                   00000001400396d0     FrmVC6.res
 0005:000017d8       $R0009E8                   00000001400397d8     FrmVC6.res
 0005:00001ac8       $R000CD8                   0000000140039ac8     FrmVC6.res
 0005:00001c00       $R000E10                   0000000140039c00     FrmVC6.res
 0005:00001cb8       $R000EC8                   0000000140039cb8     FrmVC6.res
 0005:00001ce0       $R000EF0                   0000000140039ce0     FrmVC6.res
 0005:00001e18       $R001028                   0000000140039e18     FrmVC6.res
 0005:00001e30       $R001040                   0000000140039e30     FrmVC6.res
 0005:00001f68       $R001178                   0000000140039f68     FrmVC6.res
 0005:00001f80       $R001190                   0000000140039f80     FrmVC6.res
 0005:000020b8       $R0012C8                   000000014003a0b8     FrmVC6.res
 0005:000020d0       $R0012E0                   000000014003a0d0     FrmVC6.res
 0005:00002208       $R001418                   000000014003a208     FrmVC6.res
 0005:00002220       $R001430                   000000014003a220     FrmVC6.res
 0005:00002358       $R001568                   000000014003a358     FrmVC6.res
 0005:00002370       $R001580                   000000014003a370     FrmVC6.res
 0005:000024a8       $R0016B8                   000000014003a4a8     FrmVC6.res
 0005:000024c0       $R0016D0                   000000014003a4c0     FrmVC6.res
 0005:000025f8       $R001808                   000000014003a5f8     FrmVC6.res
 0005:00002610       $R001820                   000000014003a610     FrmVC6.res
 0005:00002748       $R001958                   000000014003a748     FrmVC6.res
 0005:00002760       $R001970                   000000014003a760     FrmVC6.res
 0005:00002898       $R001AA8                   000000014003a898     FrmVC6.res
 0005:000028b0       $R001AC0                   000000014003a8b0     FrmVC6.res
 0005:000029e8       $R001BF8                   000000014003a9e8     FrmVC6.res
 0005:00002a00       $R001C10                   000000014003aa00     FrmVC6.res
 0005:00002b38       $R001D48                   000000014003ab38     FrmVC6.res
 0005:00002b50       $R001D60                   000000014003ab50     FrmVC6.res
 0005:00002c88       $R001E98                   000000014003ac88     FrmVC6.res
 0005:00002ca0       $R001EB0                   000000014003aca0     FrmVC6.res
 0005:00002dd8       $R001FE8                   000000014003add8     FrmVC6.res
 0005:00002df0       $R002000                   000000014003adf0     FrmVC6.res
 0005:00002f28       $R002138                   000000014003af28     FrmVC6.res
 0005:00002f40       $R002150                   000000014003af40     FrmVC6.res
 0005:00003028       $R002238                   000000014003b028     FrmVC6.res
 0005:00003060       $R002270                   000000014003b060     FrmVC6.res
 0005:00003118       $R002328                   000000014003b118     FrmVC6.res
 0005:00003260       $R002470                   000000014003b260     FrmVC6.res
 0005:00003290       $R0024A0                   000000014003b290     FrmVC6.res
 0005:000032c8       $R0024D8                   000000014003b2c8     FrmVC6.res
 0005:00003310       $R002520                   000000014003b310     FrmVC6.res
 0005:000033b0       $R0025C0                   000000014003b3b0     FrmVC6.res
 0005:00003428       $R002638                   000000014003b428     FrmVC6.res
 0005:00003468       $R002678                   000000014003b468     FrmVC6.res
 0005:00003628       $R002838                   000000014003b628     FrmVC6.res
 0005:000036c8       $R0028D8                   000000014003b6c8     FrmVC6.res
 0005:000037c0       $R0029D0                   000000014003b7c0     FrmVC6.res
 0005:00003820       $R002A30                   000000014003b820     FrmVC6.res
 0005:00003888       $R002A98                   000000014003b888     FrmVC6.res
 0005:000038b8       $R002AC8                   000000014003b8b8     FrmVC6.res
 0005:000039a0       $R002BB0                   000000014003b9a0     FrmVC6.res
 0005:00003cf8       $R002F08                   000000014003bcf8     FrmVC6.res
 0005:00003d70       $R002F80                   000000014003bd70     FrmVC6.res
 0005:00003f00       $R003110                   000000014003bf00     FrmVC6.res
 0005:000040c0       $R0032D0                   000000014003c0c0     FrmVC6.res
 0005:000043a8       $R0035B8                   000000014003c3a8     FrmVC6.res
 0005:00004508       $R003718                   000000014003c508     FrmVC6.res
 0005:00004598       $R0037A8                   000000014003c598     FrmVC6.res
 0005:000045c0       $R0037D0                   000000014003c5c0     FrmVC6.res
 0005:00004628       $R003838                   000000014003c628     FrmVC6.res
 0005:000048e8       $R003AF8                   000000014003c8e8     FrmVC6.res
