 viewex

 Timestamp is 590acb80 (Thu May 04 15:34:40 2017)

 Preferred load address is 0000000140000000

 Start         Length     Name                   Class
 0001:00000000 000000f8H .text$di                CODE
 0001:00000100 0002cb48H .text$mn                CODE
 0001:0002cc50 00000e2fH .text$x                 CODE
 0001:0002da80 00000234H .text$yd                CODE
 0002:00000000 00000900H .idata$5                DATA
 0002:00000900 00000008H .CRT$XCA                DATA
 0002:00000908 00000008H .CRT$XCL                DATA
 0002:00000910 00000038H .CRT$XCU                DATA
 0002:00000948 00000008H .CRT$XCZ                DATA
 0002:00000950 00000008H .CRT$XIA                DATA
 0002:00000958 00000020H .CRT$XIC                DATA
 0002:00000978 00000008H .CRT$XIY                DATA
 0002:00000980 00000008H .CRT$XIZ                DATA
 0002:00000988 00000008H .CRT$XPA                DATA
 0002:00000990 00000010H .CRT$XPX                DATA
 0002:000009a0 00000008H .CRT$XPXA               DATA
 0002:000009a8 00000008H .CRT$XPZ                DATA
 0002:000009b0 00000008H .CRT$XTA                DATA
 0002:000009b8 00000008H .CRT$XTZ                DATA
 0002:000009c0 00009110H .rdata                  DATA
 0002:00009ad0 00001e3cH .rdata$r                DATA
 0002:0000b910 00000008H .rtc$IAA                DATA
 0002:0000b918 00000008H .rtc$IZZ                DATA
 0002:0000b920 00000008H .rtc$TAA                DATA
 0002:0000b928 00000008H .rtc$TZZ                DATA
 0002:0000b930 00004968H .xdata                  DATA
 0002:00010298 0000025cH .xdata$x                DATA
 0002:000104f8 00000000H ATL$__a                 DATA
 0002:000104f8 00000000H ATL$__z                 DATA
 0002:000104f8 00000000H .edata                  DATA
 0002:000104f8 000000b4H .idata$2                DATA
 0002:000105ac 00000014H .idata$3                DATA
 0002:000105c0 00000900H .idata$4                DATA
 0002:00010ec0 0000132cH .idata$6                DATA
 0003:00000000 00001850H .data                   DATA
 0003:00001850 000009a8H .data$r                 DATA
 0003:00002200 00002918H .bss                    DATA
 0004:00000000 0000303cH .pdata                  DATA
 0005:00000000 000011e0H .rsrc$01                DATA
 0005:000011e0 000056b8H .rsrc$02                DATA

  Address         Publics by Value              Rva+Base               Lib:Object

 0000:00000000       ___safe_se_handler_table   0000000000000000     <absolute>
 0000:00000000       __guard_fids_table         0000000000000000     <absolute>
 0000:00000000       __guard_fids_count         0000000000000000     <absolute>
 0000:00000000       __guard_flags              0000000000000000     <absolute>
 0000:00000000       ___safe_se_handler_count   0000000000000000     <absolute>
 0000:00000000       __ImageBase                0000000140000000     <linker-defined>
 0001:00000100       ?GetRuntimeClass@CEnterDlg@@UEBAPEAUCRuntimeClass@@XZ 0000000140001100 f   Enterdlg.obj
 0001:00000110       ??_GCEnterDlg@@UEAAPEAXI@Z 0000000140001110 f i Enterdlg.obj
 0001:00000110       ??_ECEnterDlg@@UEAAPEAXI@Z 0000000140001110 f i * CIL library *:* CIL module *
 0001:00000180       ??1CEnterDlg@@UEAA@XZ      0000000140001180 f i Enterdlg.obj
 0001:000001d0       ?DoDataExchange@CEnterDlg@@MEAAXPEAVCDataExchange@@@Z 00000001400011d0 f   Enterdlg.obj
 0001:000001e0       ?_ProcessWindowMessage@CEnterDlg@@UEAAHPEAUHWND__@@I_K_JAEA_J@Z 00000001400011e0 f i Enterdlg.obj
 0001:000001e0       ?_ProcessWindowMessage@CCommonDialog@@UEAAHPEAUHWND__@@I_K_JAEA_J@Z 00000001400011e0 f i Maindoc.obj
 0001:000001f0       ?GetBuffer@CString@WTL@@QEAAPEADH@Z 00000001400011f0 f i Enterdlg.obj
 0001:000002c0       ?CopyBeforeWrite@CString@WTL@@IEAAXXZ 00000001400012c0 f i Enterdlg.obj
 0001:00000370       ?DDX_Text@@YAXPEAVCDataExchange@@HAEAVCString@WTL@@@Z 0000000140001370 f i Enterdlg.obj
 0001:00000440       ?AssignCopy@CString@WTL@@IEAAXHPEBD@Z 0000000140001440 f i Enterdlg.obj
 0001:00000514       ??_9CDialog@@$BOI@AA       0000000140001514 f i Enterdlg.obj
 0001:00000520       ??_9CDialog@@$BPA@AA       0000000140001520 f i Enterdlg.obj
 0001:00000530       ?_ProcessWindowMessage@CDialog@@UEAAHPEAUHWND__@@I_K_JAEA_J@Z 0000000140001530 f i Enterdlg.obj
 0001:000005e0       ?OnCmdMsg@CDialog@@UEAAHIHPEAXPEAUAFX_CMDHANDLERINFO@@@Z 00000001400015e0 f i Enterdlg.obj
 0001:000006a0       ??_GCNewTypeDlg@@UEAAPEAXI@Z 00000001400016a0 f i Viewex.obj
 0001:000006a0       ??_GCDialog@@UEAAPEAXI@Z   00000001400016a0 f i Enterdlg.obj
 0001:000006a0       ??_GCWnd@@UEAAPEAXI@Z      00000001400016a0 f i Enterdlg.obj
 0001:000006a0       ??_ECWnd@@UEAAPEAXI@Z      00000001400016a0 f i * CIL library *:* CIL module *
 0001:000006a0       ??_ECNewTypeDlg@@UEAAPEAXI@Z 00000001400016a0 f i * CIL library *:* CIL module *
 0001:000006a0       ??_ECDialog@@UEAAPEAXI@Z   00000001400016a0 f i * CIL library *:* CIL module *
 0001:000006d0       ?PreTranslateMessage@CDialog@@UEAAHPEAUtagMSG@@@Z 00000001400016d0 f i Enterdlg.obj
 0001:000007e0       ?OnOK@CDialog@@UEAAXXZ     00000001400017e0 f i Enterdlg.obj
 0001:00000870       ?OnCancel@CDialog@@UEAAXXZ 0000000140001870 f i Enterdlg.obj
 0001:000008b0       ?Create@CDialog@@UEAAHIPEAVCWnd@@@Z 00000001400018b0 f i Enterdlg.obj
 0001:000008c0       ?CreateIndirect@CDialog@@UEAAHPEAXPEAVCWnd@@PEAUHINSTANCE__@@@Z 00000001400018c0 f i Enterdlg.obj
 0001:00000940       ??1CDialog@@UEAA@XZ        0000000140001940 f i Enterdlg.obj
 0001:00000940       ??1CNewTypeDlg@@UEAA@XZ    0000000140001940 f i Viewex.obj
 0001:00000940       ??1CCommonDialog@@UEAA@XZ  0000000140001940 f i Maindoc.obj
 0001:00000950       ?classHandleFuncCDialog@CDialog@@SAPEAXPEAX0@Z 0000000140001950 f i Enterdlg.obj
 0001:000009f0       ?WindowProc@CWnd@@UEAA_JI_K_J@Z 00000001400019f0 f i Enterdlg.obj
 0001:00000a60       ?_AfxTopChildWindowFromPoint@CWnd@@SAPEAUHWND__@@PEAU2@UtagPOINT@@@Z 0000000140001a60 f i Enterdlg.obj
 0001:00000b60       ?OnToolHitTest@CWnd@@UEBA_JVCPoint@WTL@@PEAUtagTOOLINFOA@@@Z 0000000140001b60 f i Enterdlg.obj
 0001:00000c10       ?GetParent@CWnd@@QEAAPEAV1@XZ 0000000140001c10 f i Enterdlg.obj
 0001:00000d90       ?Enable@CCmdUI@@UEAAXH@Z   0000000140001d90 f i Enterdlg.obj
 0001:00000e40       ?SetCheck@CCmdUI@@UEAAXH@Z 0000000140001e40 f i Enterdlg.obj
 0001:00000ed0       ?SetRadio@CCmdUI@@UEAAXH@Z 0000000140001ed0 f i Enterdlg.obj
 0001:00000f30       ?AfxSetWindowText@CAfx@@SAXPEAUHWND__@@PEBD@Z 0000000140001f30 f i Enterdlg.obj
 0001:00000ff0       ?SetText@CCmdUI@@UEAAXPEBD@Z 0000000140001ff0 f i Enterdlg.obj
 0001:00001070       ?Enable@CTestCmdUI@@UEAAXH@Z 0000000140002070 f i Enterdlg.obj
 0001:00001080       ?Serialize@CObject@@UEAAXAEAVCArchive@@@Z 0000000140002080 f i Enterdlg.obj
 0001:00001080       ?OnFileNameChange@CFileDialogMTL@@UEAAXXZ 0000000140002080 f i Maindoc.obj
 0001:00001080       ?SetRadio@CTestCmdUI@@UEAAXH@Z 0000000140002080 f i Enterdlg.obj
 0001:00001080       ?Serialize@CMainDoc@@UEAAXAEAVCArchive@@@Z 0000000140002080 f i Maindoc.obj
 0001:00001080       ?PreCloseFrame@CDocument@@UEAAXPEAVCFrameWnd@@@Z 0000000140002080 f i Maindoc.obj
 0001:00001080       ?OnActivateFrame@CView@@UEAAXIPEAVCFrameWnd@@@Z 0000000140002080 f i Inputvw.obj
 0001:00001080       ?OnTypeChange@CFileDialogMTL@@UEAAXXZ 0000000140002080 f i Maindoc.obj
 0001:00001080       ?SetCheck@CTestCmdUI@@UEAAXH@Z 0000000140002080 f i Enterdlg.obj
 0001:00001080       ?OnShowMenuBar@CFrameWnd@@UEAAXXZ 0000000140002080 f i Splitter.obj
 0001:00001080       ?DeleteContents@CDocument@@UEAAXXZ 0000000140002080 f i Maindoc.obj
 0001:00001080       ?DoDataExchange@CWMHnd@@UEAAXPEAVCDataExchange@@@Z 0000000140002080 f i Enterdlg.obj
 0001:00001080       ?OnBeginPrinting@CView@@UEAAXPEAVCDCMTL@@PEAUCPrintInfo@@@Z 0000000140002080 f i Inputvw.obj
 0001:00001080       ?RegisterShellFileTypes@CDocManager@@UEAAXH@Z 0000000140002080 f i Viewex.obj
 0001:00001080       ?SetText@CTestCmdUI@@UEAAXPEBD@Z 0000000140002080 f i Enterdlg.obj
 0001:00001080       ?PostNcDestroy@CWMHnd@@UEAAXXZ 0000000140002080 f i Enterdlg.obj
 0001:00001080       ?OnEndPrinting@CView@@UEAAXPEAVCDCMTL@@PEAUCPrintInfo@@@Z 0000000140002080 f i Inputvw.obj
 0001:00001080       ?OnDocumentEvent@CDocument@@UEAAXW4DocumentEvent@1@@Z 0000000140002080 f i Maindoc.obj
 0001:00001080       ?OnActivateView@CColorView@@UEAAXHPEAVCView@@0@Z 0000000140002080 f i Simpvw.obj
 0001:00001080       ?OnLBSelChangedNotify@CFileDialogMTL@@UEAAXIII@Z 0000000140002080 f i Maindoc.obj
 0001:00001080       ?OnDraw@CView@@UEAAXPEAVCDCMTL@@@Z 0000000140002080 f i Inputvw.obj
 0001:00001080       ?OnHideMenuBar@CFrameWnd@@UEAAXXZ 0000000140002080 f i Splitter.obj
 0001:00001080       ?OnFolderChange@CFileDialogMTL@@UEAAXXZ 0000000140002080 f i Maindoc.obj
 0001:00001090       ?OnCommand@CWnd@@UEAAH_K_J@Z 0000000140002090 f i Enterdlg.obj
 0001:000011c0       ??_GCDCMTL@@UEAAPEAXI@Z    00000001400021c0 f i Enterdlg.obj
 0001:000011c0       ??_ECDCMTL@@UEAAPEAXI@Z    00000001400021c0 f i * CIL library *:* CIL module *
 0001:00001240       ?SetAttribDC@CDCMTL@@UEAAXPEAUHDC__@@@Z 0000000140002240 f i Enterdlg.obj
 0001:00001250       ?ReleaseAttribDC@CDCMTL@@UEAAXXZ 0000000140002250 f i Enterdlg.obj
 0001:00001260       ?SaveDC@CDCMTL@@UEAAHXZ    0000000140002260 f i Enterdlg.obj
 0001:000012b0       ?RestoreDC@CDCMTL@@UEAAHH@Z 00000001400022b0 f i Enterdlg.obj
 0001:00001310       ?TextOutA@CDCMTL@@UEAAHHHPEBDH@Z 0000000140002310 f i Enterdlg.obj
 0001:00001320       ??1?$CDCT@$00@WTL@@QEAA@XZ 0000000140002320 f i Enterdlg.obj
 0001:00001340       ?RemoveHandle@?$CHandleList@PEAXVCGdiObject@@PEAUHWND__@@@@QEAAPEAXQEAX@Z 0000000140002340 f i Inputvw.obj
 0001:00001340       ?RemoveHandle@?$CHandleList@PEAUHMENU__@@VCMenuMTL@@PEAUHWND__@@@@QEAAPEAUHMENU__@@QEAU2@@Z 0000000140002340 f i Enterdlg.obj
 0001:00001340       ?RemoveHandle@?$CHandleList@PEAUHDC__@@VCDCMTL@@PEAUHWND__@@@@QEAAPEAUHDC__@@QEAU2@@Z 0000000140002340 f i Enterdlg.obj
 0001:000013c0       ??1CDCMTL@@UEAA@XZ         00000001400023c0 f i Enterdlg.obj
 0001:00001430       ?UnsubclassWindow@CWMHnd@@QEAAPEAUHWND__@@XZ 0000000140002430 f i Enterdlg.obj
 0001:000014b0       ?OnNcDestroy@CWnd@@QEAAXXZ 00000001400024b0 f i Enterdlg.obj
 0001:000015c0       ?_ProcessWindowMessage@CWnd@@UEAAHPEAUHWND__@@I_K_JAEA_J@Z 00000001400025c0 f i Enterdlg.obj
 0001:000018e0       ?OnWndMsg@CWnd@@UEAAHI_K_JPEA_J@Z 00000001400028e0 f i Enterdlg.obj
 0001:00001980       ?ReflectChildNotify@CWnd@@QEAAHI_K_JPEA_J@Z 0000000140002980 f i Enterdlg.obj
 0001:00001ac0       ?OnChildNotify@CWnd@@UEAAHI_K_JPEA_J@Z 0000000140002ac0 f i Enterdlg.obj
 0001:00001ad0       ?OnNotify@CWnd@@UEAAH_K_JPEA_J@Z 0000000140002ad0 f i Enterdlg.obj
 0001:00001bb0       ?Create@CWnd@@UEAAHPEBD0KAEBUtagRECT@@PEAV1@IPEAUCCreateContext@@@Z 0000000140002bb0 f i Enterdlg.obj
 0001:00001c70       ?CreateEx@CWnd@@UEAAHKPEBD0KHHHHPEAUHWND__@@PEAUHMENU__@@PEAX@Z 0000000140002c70 f i Enterdlg.obj
 0001:00001df0       ?PreCreateWindow@CWnd@@UEAAHAEAUtagCREATESTRUCTA@@@Z 0000000140002df0 f i Enterdlg.obj
 0001:00001e40       ??1CWnd@@UEAA@XZ           0000000140002e40 f i Enterdlg.obj
 0001:00001f10       ?classHandleFuncCWnd@CWnd@@SAPEAXPEAX0@Z 0000000140002f10 f i Enterdlg.obj
 0001:00001fa0       ?GetActiveWindow@CWnd@@SAPEAV1@XZ 0000000140002fa0 f i Enterdlg.obj
 0001:00002120       ?AllocBuffer@CString@WTL@@IEAAHH@Z 0000000140003120 f i Enterdlg.obj
 0001:000021b0       ?ConcatCopy@CString@WTL@@IEAAHHPEBDH0@Z 00000001400031b0 f i Enterdlg.obj
 0001:00002260       ?memcpy_x@SecureHelper@WTL@@YAXPEAX_KPEBX1@Z 0000000140003260 f i Enterdlg.obj
 0001:000022b0       ?ConcatInPlace@CString@WTL@@IEAAXHPEBD@Z 00000001400032b0 f i Enterdlg.obj
 0001:000023a0       ?AfxEndDeferRegisterClass@CAfx@@SAHJ@Z 00000001400033a0 f i Enterdlg.obj
 0001:00002930       ?AtlThrowImpl@ATL@@YAXJ@Z  0000000140003930 f i Enterdlg.obj
 0001:00002950       ?AtlWinModuleExtractCreateWndData@ATL@@YAPEAXPEAU_ATL_WIN_MODULE70@1@@Z 0000000140003950 f i Enterdlg.obj
 0001:000029d0       ?AtlWinModuleTerm@ATL@@YAJPEAU_ATL_WIN_MODULE70@1@PEAUHINSTANCE__@@@Z 00000001400039d0 f i Enterdlg.obj
 0001:00002ab0       ?_AtlInitializeCriticalSectionEx@ATL@@YAHPEAU_RTL_CRITICAL_SECTION@@KK@Z 0000000140003ab0 f i Enterdlg.obj
 0001:00002ac0       ??0CAtlWinModule@ATL@@QEAA@XZ 0000000140003ac0 f i Enterdlg.obj
 0001:00002b60       ?Init@CDynamicStdCallThunk@ATL@@QEAAH_KPEAX@Z 0000000140003b60 f i Enterdlg.obj
 0001:00002bf0       ?AfxWindowProc@CWMHnd@@SA_JPEAUHWND__@@I_K_J@Z 0000000140003bf0 f i Enterdlg.obj
 0001:00002c50       ?OnScroll@CView@@UEAAHIIH@Z 0000000140003c50 f i Inputvw.obj
 0001:00002c50       ?GetActivePane@CSplitterWnd@@UEAAPEAVCWnd@@AEAH0@Z 0000000140003c50 f i Splitter.obj
 0001:00002c50       ?OnFileNameOK@CFileDialogMTL@@UEAAHXZ 0000000140003c50 f i Maindoc.obj
 0001:00002c50       ?GetScrollBarCtrl@CWMHnd@@UEBAPEAVCScrollBarMTL@@H@Z 0000000140003c50 f i Enterdlg.obj
 0001:00002c50       ?IsFrameWnd@CWMHnd@@UEAAHXZ 0000000140003c50 f i Enterdlg.obj
 0001:00002c50       ?OnScrollBy@CView@@UEAAHVCSize@WTL@@H@Z 0000000140003c50 f i Inputvw.obj
 0001:00002c50       ?IsTabbedMDIChild@CMDIChildWnd@@UEAAHXZ 0000000140003c50 f i Splitter.obj
 0001:00002c50       ?PreTranslateMessage@CWMHnd@@UEAAHPEAUtagMSG@@@Z 0000000140003c50 f i Enterdlg.obj
 0001:00002c50       ?_ProcessWindowMessage@CCmdTarget@@UEAAHPEAUHWND__@@I_K_JAEA_J@Z 0000000140003c50 f i Enterdlg.obj
 0001:00002c50       ?GetDefaultAccelerator@CDocument@@UEAAPEAUHACCEL__@@XZ 0000000140003c50 f i Maindoc.obj
 0001:00002c50       ?ExitInstance@CWinApp@@UEAAHXZ 0000000140003c50 f i Viewex.obj
 0001:00002c50       ?OnShareViolation@CFileDialogMTL@@UEAAIPEBD@Z 0000000140003c50 f i Maindoc.obj
 0001:00002c60       ?OnCmdMsg@CCmdTarget@@UEAAHIHPEAXPEAUAFX_CMDHANDLERINFO@@@Z 0000000140003c60 f i Enterdlg.obj
 0001:00002db0       ??_ECWMHnd@@UEAAPEAXI@Z    0000000140003db0 f i * CIL library *:* CIL module *
 0001:00002db0       ??_GCWMHnd@@UEAAPEAXI@Z    0000000140003db0 f i Enterdlg.obj
 0001:00002e30       ?CalcWindowRect@CWMHnd@@UEAAXPEAUtagRECT@@I@Z 0000000140003e30 f i Enterdlg.obj
 0001:00002ea0       ?FromHandle@?$CHandleList@PEAUHMENU__@@VCMenuMTL@@PEAUHWND__@@@@QEAAPEAVCMenuMTL@@QEAUHMENU__@@PEAV2@QEAUHWND__@@Q6APEAXPEAX3@Z@Z 0000000140003ea0 f i Enterdlg.obj
 0001:00002f80       ??_ECMenuMTL@@UEAAPEAXI@Z  0000000140003f80 f i * CIL library *:* CIL module *
 0001:00002f80       ??_GCMenuMTL@@UEAAPEAXI@Z  0000000140003f80 f i Enterdlg.obj
 0001:00003010       ??1?$CMenuT@$00@WTL@@QEAA@XZ 0000000140004010 f i Enterdlg.obj
 0001:00003040       ??1CMenuMTL@@UEAA@XZ       0000000140004040 f i Enterdlg.obj
 0001:000030b0       ?classHandleFuncCMenuMTL@CMenuMTL@@SAPEAXPEAX0@Z 00000001400040b0 f i Enterdlg.obj
 0001:00003110       ?GetMenu@CWMHnd@@UEBAPEAVCMenuMTL@@XZ 0000000140004110 f i Enterdlg.obj
 0001:00003150       ?SetMenu@CWMHnd@@UEAAHPEAVCMenuMTL@@@Z 0000000140004150 f i Enterdlg.obj
 0001:00003170       ?GetCurrentMessage@CCmdTarget@@UEBAPEBU_ATL_MSG@ATL@@XZ 0000000140004170 f i Enterdlg.obj
 0001:00003180       ?OnInitDialog@CWMHnd@@UEAAHXZ 0000000140004180 f i Enterdlg.obj
 0001:00003180       ?OnCancel@CCommonDialog@@UEAAXXZ 0000000140004180 f i Maindoc.obj
 0001:000031b0       ??1CWndProcThunk@ATL@@QEAA@XZ 00000001400041b0 f i Enterdlg.obj
 0001:000031c0       ?RemoveHandle@?$CHandleHashList@PEAUHWND__@@VCWMHnd@@PEAU1@$0BB@@@QEAAPEAUHWND__@@QEAU2@@Z 00000001400041c0 f i Enterdlg.obj
 0001:00003280       ?RemoveOwner@?$CHandleHashList@PEAUHWND__@@VCWMHnd@@PEAU1@$0BB@@@QEAAHQEAUHWND__@@@Z 0000000140004280 f i Enterdlg.obj
 0001:00003340       ?RemoveOwner@?$CHandleList@PEAXXPEAUHWND__@@@@QEAAHQEAUHWND__@@@Z 0000000140004340 f i Enterdlg.obj
 0001:00003340       ?RemoveOwner@?$CHandleList@PEAUHMENU__@@VCMenuMTL@@PEAUHWND__@@@@QEAAHQEAUHWND__@@@Z 0000000140004340 f i Enterdlg.obj
 0001:00003340       ?RemoveOwner@?$CHandleList@PEAXVCGdiObject@@PEAUHWND__@@@@QEAAHQEAUHWND__@@@Z 0000000140004340 f i Enterdlg.obj
 0001:00003340       ?RemoveOwner@?$CHandleList@PEAUHDC__@@VCDCMTL@@PEAUHWND__@@@@QEAAHQEAUHWND__@@@Z 0000000140004340 f i Enterdlg.obj
 0001:000033d0       ?RemoveHandleWnd@CModuleThreadState@@QEAAPEAUHWND__@@PEAU2@@Z 00000001400043d0 f i Enterdlg.obj
 0001:00003470       ?classHandleFuncCWMHnd@CWMHnd@@SAPEAXPEAX0@Z 0000000140004470 f i Enterdlg.obj
 0001:000034f0       ?SubclassWindow@CWMHnd@@QEAAHPEAUHWND__@@PEAUtagCREATESTRUCTA@@@Z 00000001400044f0 f i Enterdlg.obj
 0001:000035a0       ?CbtFilterHook@CWnd@@SA_JH_K_J@Z 00000001400045a0 f i Enterdlg.obj
 0001:00003640       ?HookWindowCreate@CWnd@@SAHPEAV1@G@Z 0000000140004640 f i Enterdlg.obj
 0001:000036f0       ?CenterWindow@CWindow@ATL@@QEAAHPEAUHWND__@@@Z 00000001400046f0 f i Enterdlg.obj
 0001:000038d0       ?DefWindowProcA@CWMHnd@@UEAA_JI_K_J@Z 00000001400048d0 f i Enterdlg.obj
 0001:00003900       ?WindowProc@CWMHnd@@UEAA_JI_K_J@Z 0000000140004900 f i Enterdlg.obj
 0001:00003910       ?SendMessageToDescendants@CWnd@@QEAAXPEAUHWND__@@I_K_JHH@Z 0000000140004910 f i Enterdlg.obj
 0001:00003af0       ?ExecuteDlgInit@CWnd@@QEAAHPEAX@Z 0000000140004af0 f i Enterdlg.obj
 0001:00003c00       ?ExecuteDlgInit@CWnd@@QEAAHPEBD@Z 0000000140004c00 f i Enterdlg.obj
 0001:00003ca0       ?EndModalLoop@CWnd@@UEAAXH@Z 0000000140004ca0 f i Enterdlg.obj
 0001:00003cd0       ?OnInitDialog@CDialog@@UEAAHXZ 0000000140004cd0 f i Enterdlg.obj
 0001:00003d80       ?AfxDlgProc@CWnd@@SA_JPEAUHWND__@@I_K_J@Z 0000000140004d80 f i Enterdlg.obj
 0001:00003e00       ?CreateDlgIndirect@CWnd@@QEAAHPEBUDLGTEMPLATE@@PEAV1@PEAUHINSTANCE__@@@Z 0000000140004e00 f i Enterdlg.obj
 0001:00003eb0       ?CreateDlg@CWnd@@QEAAHPEBDPEAV1@@Z 0000000140004eb0 f i Enterdlg.obj
 0001:00003f50       ?Create@CDialog@@UEAAHPEBDPEAVCWnd@@@Z 0000000140004f50 f i Enterdlg.obj
 0001:00003fa0       ?FromHandle@?$CHandleHashList@PEAUHWND__@@VCWMHnd@@PEAU1@$0BB@@@QEAAPEAVCWMHnd@@QEAUHWND__@@PEAV2@0Q6APEAXPEAX2@Z@Z 0000000140004fa0 f i Enterdlg.obj
 0001:000040e0       ?FromHandlePermanent@CWnd@@SAPEAV1@PEAUHWND__@@@Z 00000001400050e0 f i Enterdlg.obj
 0001:00004150       ??1?$CList@PEAXPEAX@@QEAA@XZ 0000000140005150 f i Inputvw.obj
 0001:00004150       ??1?$CList@PEAUCRuntimeClass@@AEBQEAU1@@@QEAA@XZ 0000000140005150 f i Enterdlg.obj
 0001:00004150       ??1?$CList@PEAUHWND__@@PEAU1@@@QEAA@XZ 0000000140005150 f i Splitter.obj
 0001:00004150       ??1?$CList@PEAVCFrameWnd@@AEBQEAV1@@@QEAA@XZ 0000000140005150 f i Viewex.obj
 0001:00004180       ??1CString@WTL@@QEAA@XZ    0000000140005180 f i Enterdlg.obj
 0001:00004180       ??1CStringW@@QEAA@XZ       0000000140005180 f i Maindoc.obj
 0001:000041b0       ??1CModuleState@@QEAA@XZ   00000001400051b0 f i Enterdlg.obj
 0001:00004230       ?AfxGetModuleState@@YAPEAVCModuleState@@XZ 0000000140005230 f i Enterdlg.obj
 0001:000042a0       ?PreTranslateMessage@CWnd@@UEAAHPEAUtagMSG@@@Z 00000001400052a0 f i Enterdlg.obj
 0001:000042e0       ?ContinueModal@CWnd@@UEAAHXZ 00000001400052e0 f i Enterdlg.obj
 0001:000042f0       ?IsIdleMessage@CWinApp@@SAHPEAUtagMSG@@@Z 00000001400052f0 f i Enterdlg.obj
 0001:00004320       ?RunModalLoop@CWnd@@QEAAHK@Z 0000000140005320 f i Enterdlg.obj
 0001:000044e0       ?EnableWindow@CWMHnd@@UEAAXH@Z 00000001400054e0 f i Enterdlg.obj
 0001:00004500       ?DestroyWindow@CWnd@@UEAAHXZ 0000000140005500 f i Enterdlg.obj
 0001:00004500       ?DestroyWindow@CWMHnd@@UEAAHXZ 0000000140005500 f i Enterdlg.obj
 0001:00004520       ?DoModal@CDialog@@UEAA_JXZ 0000000140005520 f i Enterdlg.obj
 0001:000048a0       ?CreateObject@CInputView@@SAPEAVCObject@@XZ 00000001400058a0 f   Inputvw.obj
 0001:000048e0       ?GetRuntimeClass@CInputView@@UEBAPEAUCRuntimeClass@@XZ 00000001400058e0 f   Inputvw.obj
 0001:000048f0       ??0CInputView@@IEAA@XZ     00000001400058f0 f   Inputvw.obj
 0001:00004980       ??_GCInputView@@MEAAPEAXI@Z 0000000140005980 f i Inputvw.obj
 0001:00004980       ??_ECInputView@@MEAAPEAXI@Z 0000000140005980 f i * CIL library *:* CIL module *
 0001:00004a00       ?OnUpdate@CInputView@@MEAAXPEAVCView@@_JPEAVCObject@@@Z 0000000140005a00 f   Inputvw.obj
 0001:00004ac0       ?DoDataExchange@CInputView@@MEAAXPEAVCDataExchange@@@Z 0000000140005ac0 f   Inputvw.obj
 0001:00004b00       ?_ProcessWindowMessage@CInputView@@UEAAHPEAUHWND__@@I_K_JAEA_J@Z 0000000140005b00 f i Inputvw.obj
 0001:00004ba0       ?OnDataChange@CInputView@@IEAAXXZ 0000000140005ba0 f   Inputvw.obj
 0001:00004ca0       ?UpdateAllViews@CDocument@@QEAAXPEAVCView@@_JPEAVCObject@@@Z 0000000140005ca0 f i Inputvw.obj
 0001:00004d10       ?DDX_Radio@@YAXPEAVCDataExchange@@HAEAH@Z 0000000140005d10 f i Inputvw.obj
 0001:00004e00       ??4CString@WTL@@QEAAAEAV01@AEBV01@@Z 0000000140005e00 f i Inputvw.obj
 0001:00004e90       ??1CFormView@@UEAA@XZ      0000000140005e90 f i Inputvw.obj
 0001:00004ea0       ??0_AUX_DATA@@QEAA@XZ      0000000140005ea0 f i Inputvw.obj
 0001:00004fb0       ??0CScrollView@@QEAA@XZ    0000000140005fb0 f i Inputvw.obj
 0001:00005060       ??_GCScrollView@@UEAAPEAXI@Z 0000000140006060 f i Inputvw.obj
 0001:00005060       ??_ECScrollView@@UEAAPEAXI@Z 0000000140006060 f i * CIL library *:* CIL module *
 0001:00005090       ??1CScrollView@@UEAA@XZ    0000000140006090 f i Inputvw.obj
 0001:00005100       ?SetScaleToFitSize@CScrollView@@QEAAXUtagSIZE@@@Z 0000000140006100 f i Inputvw.obj
 0001:00005240       ?OnHScroll@CScrollView@@QEAAXIIPEAVCScrollBarMTL@@@Z 0000000140006240 f i Inputvw.obj
 0001:000052e0       ?DoMouseWheel@CScrollView@@QEAAHIFVCPoint@WTL@@@Z 00000001400062e0 f i Inputvw.obj
 0001:00005490       ?OnVScroll@CScrollView@@QEAAXIIPEAVCScrollBarMTL@@@Z 0000000140006490 f i Inputvw.obj
 0001:00005540       ?AfxRegisterWndClass@CAfx@@SAPEBDIPEAUHICON__@@PEAUHBRUSH__@@0@Z 0000000140006540 f i Inputvw.obj
 0001:000056d0       ??_GCBrushMTL@@UEAAPEAXI@Z 00000001400066d0 f i Simpvw.obj
 0001:000056d0       ??_ECRgnMTL@@UEAAPEAXI@Z   00000001400066d0 f i * CIL library *:* CIL module *
 0001:000056d0       ??_ECBrushMTL@@UEAAPEAXI@Z 00000001400066d0 f i * CIL library *:* CIL module *
 0001:000056d0       ??_GCRgnMTL@@UEAAPEAXI@Z   00000001400066d0 f i Inputvw.obj
 0001:00005760       ??1?$CBrushT@$00@WTL@@QEAA@XZ 0000000140006760 f i Simpvw.obj
 0001:00005760       ??1?$CRgnT@$00@WTL@@QEAA@XZ 0000000140006760 f i Inputvw.obj
 0001:00005790       ??1CRgnMTL@@UEAA@XZ        0000000140006790 f i Inputvw.obj
 0001:00005800       ?SetCapture@CWnd@@QEAAPEAV1@XZ 0000000140006800 f i Inputvw.obj
 0001:00005980       ?Create@_AFX_MOUSEANCHORWND@@QEAAHPEAVCScrollView@@@Z 0000000140006980 f i Inputvw.obj
 0001:00005b30       ?OnPaint@_AFX_MOUSEANCHORWND@@QEAAXXZ 0000000140006b30 f i Inputvw.obj
 0001:00005c90       ?OnTimer@_AFX_MOUSEANCHORWND@@QEAAX_K@Z 0000000140006c90 f i Inputvw.obj
 0001:00005f50       ?_ProcessWindowMessage@_AFX_MOUSEANCHORWND@@UEAAHPEAUHWND__@@I_K_JAEA_J@Z 0000000140006f50 f i Inputvw.obj
 0001:00005f90       ??_E_AFX_MOUSEANCHORWND@@UEAAPEAXI@Z 0000000140006f90 f i * CIL library *:* CIL module *
 0001:00005f90       ??_G_AFX_MOUSEANCHORWND@@UEAAPEAXI@Z 0000000140006f90 f i Inputvw.obj
 0001:00005fd0       ?WindowProc@_AFX_MOUSEANCHORWND@@UEAA_JI_K_J@Z 0000000140006fd0 f i Inputvw.obj
 0001:000060e0       ?PostNcDestroy@_AFX_MOUSEANCHORWND@@UEAAXXZ 00000001400070e0 f i Inputvw.obj
 0001:000060e0       ?PostNcDestroy@CFrameWnd@@UEAAXXZ 00000001400070e0 f i Splitter.obj
 0001:000060e0       ?PostNcDestroy@CView@@UEAAXXZ 00000001400070e0 f i Inputvw.obj
 0001:00006100       ?HandleMButtonDown@CScrollView@@QEAA_J_K_J@Z 0000000140007100 f i Inputvw.obj
 0001:00006320       ?_ProcessWindowMessage@CScrollView@@UEAAHPEAUHWND__@@I_K_JAEA_J@Z 0000000140007320 f i Inputvw.obj
 0001:00006560       ?_ProcessWindowMessage@CFormView@@UEAAHPEAUHWND__@@I_K_JAEA_J@Z 0000000140007560 f i Inputvw.obj
 0001:000068b0       ?AddView@CDocument@@QEAAXPEAVCView@@@Z 00000001400078b0 f i Inputvw.obj
 0001:00006950       ?OnDestroy@CView@@QEAAXXZ  0000000140007950 f i Inputvw.obj
 0001:00006a00       ?OnMouseActivate@CView@@QEAAHPEAVCWnd@@II@Z 0000000140007a00 f i Inputvw.obj
 0001:00006ad0       ??_GCPaintDCMTL@@UEAAPEAXI@Z 0000000140007ad0 f i Inputvw.obj
 0001:00006ad0       ??_ECPaintDCMTL@@UEAAPEAXI@Z 0000000140007ad0 f i * CIL library *:* CIL module *
 0001:00006b00       ??1CPaintDCMTL@@UEAA@XZ    0000000140007b00 f i Inputvw.obj
 0001:00006b80       ?OnPaint@CView@@QEAAXXZ    0000000140007b80 f i Inputvw.obj
 0001:00006cb0       ?OnPrintClient@CView@@QEAA_JPEAVCDCMTL@@I@Z 0000000140007cb0 f i Inputvw.obj
 0001:00006d14       ??_9CView@@$BBBI@AA        0000000140007d14 f i Inputvw.obj
 0001:00006d20       ?_ProcessWindowMessage@CView@@UEAAHPEAUHWND__@@I_K_JAEA_J@Z 0000000140007d20 f i Inputvw.obj
 0001:00006f20       ?OnCmdMsg@CView@@UEAAHIHPEAXPEAUAFX_CMDHANDLERINFO@@@Z 0000000140007f20 f i Inputvw.obj
 0001:00006fa0       ??_ECColorView@@UEAAPEAXI@Z 0000000140007fa0 f i * CIL library *:* CIL module *
 0001:00006fa0       ??_GCView@@UEAAPEAXI@Z     0000000140007fa0 f i Inputvw.obj
 0001:00006fa0       ??_ECView@@UEAAPEAXI@Z     0000000140007fa0 f i * CIL library *:* CIL module *
 0001:00006fa0       ??_GCColorView@@UEAAPEAXI@Z 0000000140007fa0 f i Simpvw.obj
 0001:00006fa0       ??_GCTextView@@UEAAPEAXI@Z 0000000140007fa0 f i Simpvw.obj
 0001:00006fa0       ??_ECTextView@@UEAAPEAXI@Z 0000000140007fa0 f i * CIL library *:* CIL module *
 0001:00007000       ?GetParentFrame@CWnd@@QEAAPEAVCFrameWnd@@XZ 0000000140008000 f i Inputvw.obj
 0001:00007000       ?EnsureParentFrame@CWnd@@QEAAPEAVCFrameWnd@@XZ 0000000140008000 f i Inputvw.obj
 0001:00007060       ??1CDocument@@QEAA@XZ      0000000140008060 f i Inputvw.obj
 0001:00007150       ?OnCloseDocument@CDocument@@QEAAXXZ 0000000140008150 f i Inputvw.obj
 0001:00007230       ?UpdateFrameCounts@CDocument@@QEAAXXZ 0000000140008230 f i Inputvw.obj
 0001:000073f0       ?RemoveView@CDocument@@QEAAXPEAVCView@@@Z 00000001400083f0 f i Inputvw.obj
 0001:000074a0       ??1CView@@UEAA@XZ          00000001400084a0 f i Inputvw.obj
 0001:000074e0       ?GetTopLevelFrame@CWnd@@QEAAPEAVCFrameWnd@@XZ 00000001400084e0 f i Inputvw.obj
 0001:000075b0       ?PreTranslateMessage@CFormView@@UEAAHPEAUtagMSG@@@Z 00000001400085b0 f i Inputvw.obj
 0001:000076e0       ??_GCWindowDCMTL@@UEAAPEAXI@Z 00000001400086e0 f i Inputvw.obj
 0001:000076e0       ??_ECWindowDCMTL@@UEAAPEAXI@Z 00000001400086e0 f i * CIL library *:* CIL module *
 0001:00007710       ??1CWindowDCMTL@@UEAA@XZ   0000000140008710 f i Inputvw.obj
 0001:00007790       ?GetScrollBarState@CScrollView@@QEAAXVCSize@WTL@@AEAV23@1AEAVCPoint@3@H@Z 0000000140008790 f i Inputvw.obj
 0001:00007930       ?ScrollToDevicePosition@CScrollView@@QEAAXUtagPOINT@@@Z 0000000140008930 f i Inputvw.obj
 0001:00007a40       ?EnableScrollBarCtrl@CWMHnd@@QEAAXHH@Z 0000000140008a40 f i Inputvw.obj
 0001:00007ac0       ?UpdateBars@CScrollView@@QEAAXXZ 0000000140008ac0 f i Inputvw.obj
 0001:00007e90       ?SetScrollSizes@CScrollView@@QEAAXHUtagSIZE@@AEBU2@1@Z 0000000140008e90 f i Inputvw.obj
 0001:000080b0       ?Create@CFormView@@UEAAHPEBD0KAEBUtagRECT@@PEAVCWnd@@IPEAUCCreateContext@@@Z 00000001400090b0 f i Inputvw.obj
 0001:000082f0       ?PreCreateWindow@CView@@UEAAHAEAUtagCREATESTRUCTA@@@Z 00000001400092f0 f i Inputvw.obj
 0001:00008340       ?OnActivateFrame@CFormView@@UEAAXIPEAVCFrameWnd@@@Z 0000000140009340 f i Inputvw.obj
 0001:00008390       ?OnActivateView@CFormView@@UEAAXHPEAVCView@@0@Z 0000000140009390 f i Inputvw.obj
 0001:00008420       ?SetActiveView@CFrameWnd@@QEAAXPEAVCView@@H@Z 0000000140009420 f i Inputvw.obj
 0001:000084c0       ?GetOwner@CWnd@@QEAAPEAV1@XZ 00000001400094c0 f i Inputvw.obj
 0001:00008650       ?GetTopLevelParent@CWnd@@QEAAPEAV1@XZ 0000000140009650 f i Inputvw.obj
 0001:00008890       ?GetForegroundWindow@CWnd@@SAPEAV1@XZ 0000000140009890 f i Inputvw.obj
 0001:00008a10       ?GetLastActivePopup@CWnd@@QEAAPEAV1@XZ 0000000140009a10 f i Inputvw.obj
 0001:00008b90       ?OnActivateView@CView@@UEAAXHPEAV1@0@Z 0000000140009b90 f i Inputvw.obj
 0001:00008bd0       ?OnEndPrintPreview@CView@@UEAAXPEAVCDCMTL@@PEAUCPrintInfo@@UtagPOINT@@PEAVCPreviewView@@@Z 0000000140009bd0 f i Inputvw.obj
 0001:00008db0       ?OnInitialUpdate@CView@@UEAAXXZ 0000000140009db0 f i Inputvw.obj
 0001:00008dd0       ?OnInitialUpdate@CFormView@@UEAAXXZ 0000000140009dd0 f i Inputvw.obj
 0001:00008e40       ?OnPrint@CView@@UEAAXPEAVCDCMTL@@PEAUCPrintInfo@@@Z 0000000140009e40 f i Inputvw.obj
 0001:00008e50       ?OnPrepareDC@CView@@UEAAXPEAVCDCMTL@@PEAUCPrintInfo@@@Z 0000000140009e50 f i Inputvw.obj
 0001:00008e80       ?OnPrepareDC@CScrollView@@UEAAXPEAVCDCMTL@@PEAUCPrintInfo@@@Z 0000000140009e80 f i Inputvw.obj
 0001:00009100       ?IsFrameWnd@CFrameWnd@@UEAAHXZ 000000014000a100 f i Splitter.obj
 0001:00009100       ?InitInstance@CWinApp@@UEAAHXZ 000000014000a100 f i Viewex.obj
 0001:00009100       ?OnPreparePrinting@CView@@UEAAHPEAUCPrintInfo@@@Z 000000014000a100 f i Inputvw.obj
 0001:00009110       ?OnScroll@CScrollView@@UEAAHIIH@Z 000000014000a110 f i Inputvw.obj
 0001:000092b0       ?GetScrollLimit@CWMHnd@@QEAAHH@Z 000000014000a2b0 f i Inputvw.obj
 0001:00009390       ?ScrollWindow@CWMHnd@@QEAAXHHPEBUtagRECT@@0@Z 000000014000a390 f i Inputvw.obj
 0001:000094c0       ?OnScrollBy@CScrollView@@UEAAHVCSize@WTL@@H@Z 000000014000a4c0 f i Inputvw.obj
 0001:000096b0       ?OnUpdate@CView@@UEAAXPEAV1@_JPEAVCObject@@@Z 000000014000a6b0 f i Inputvw.obj
 0001:000096d0       ?CCalcWindowRect@CScrollView@@UEAAXPEAUtagRECT@@I@Z 000000014000a6d0 f i Inputvw.obj
 0001:00009810       ?GetWheelScrollDistance@CScrollView@@UEAA?AVCSize@WTL@@V23@HH@Z 000000014000a810 f i Inputvw.obj
 0001:00009870       ?CreateObject@CMainDoc@@SAPEAVCObject@@XZ 000000014000a870 f   Maindoc.obj
 0001:000098f0       ?GetRuntimeClass@CMainDoc@@UEBAPEAUCRuntimeClass@@XZ 000000014000a8f0 f   Maindoc.obj
 0001:00009900       ?_ProcessWindowMessage@CMainDoc@@UEAAHPEAUHWND__@@I_K_JAEA_J@Z 000000014000a900 f i Maindoc.obj
 0001:00009960       ??_ECMainDoc@@UEAAPEAXI@Z  000000014000a960 f i * CIL library *:* CIL module *
 0001:00009960       ??_GCMainDoc@@UEAAPEAXI@Z  000000014000a960 f i Maindoc.obj
 0001:000099e0       ?OnNewDocument@CMainDoc@@MEAAHXZ 000000014000a9e0 f   Maindoc.obj
 0001:00009a50       ?OnChangeData@CMainDoc@@IEAAXXZ 000000014000aa50 f   Maindoc.obj
 0001:00009cf0       ?OnOpenDocument@CDocument@@UEAAHPEBD@Z 000000014000acf0 f i Maindoc.obj
 0001:00009f90       ?OnCmdMsg@CDocument@@UEAAHIHPEAXPEAUAFX_CMDHANDLERINFO@@@Z 000000014000af90 f i Maindoc.obj
 0001:0000a010       ?AfxFormatStrings@CAfx@@SAXAEAVCString@WTL@@PEBDPEBQEBDH@Z 000000014000b010 f i Maindoc.obj
 0001:0000a1a0       ?ShowAppMessageBox@CWinApp@@SAHPEAV1@PEBDII@Z 000000014000b1a0 f i Maindoc.obj
 0001:0000a310       ?SaveModified@CDocument@@UEAAHXZ 000000014000b310 f i Maindoc.obj
 0001:0000a6f0       ?DoFileSave@CDocument@@QEAAHXZ 000000014000b6f0 f i Maindoc.obj
 0001:0000a740       ?OnFileSave@CDocument@@QEAAXXZ 000000014000b740 f i Maindoc.obj
 0001:0000a780       ?_AfxCommDlgProc@CCommonDialog@@SA_KPEAUHWND__@@I_K_J@Z 000000014000b780 f i Maindoc.obj
 0001:0000aad0       ??0CFileDialogMTL@@QEAA@HPEBD0K0PEAVCWnd@@KH@Z 000000014000bad0 f i Maindoc.obj
 0001:0000acf0       ??_GCFileDialogMTL@@UEAAPEAXI@Z 000000014000bcf0 f i Maindoc.obj
 0001:0000acf0       ??_ECFileDialogMTL@@UEAAPEAXI@Z 000000014000bcf0 f i * CIL library *:* CIL module *
 0001:0000ad20       ?OnNotify@CFileDialogMTL@@UEAAH_K_JPEA_J@Z 000000014000bd20 f i Maindoc.obj
 0001:0000aec0       ?OnOK@CCommonDialog@@UEAAXXZ 000000014000bec0 f i Maindoc.obj
 0001:0000af40       ?OnInitDone@CFileDialogMTL@@UEAAXXZ 000000014000bf40 f i Maindoc.obj
 0001:0000af60       ??1CFileDialogMTL@@UEAA@XZ 000000014000bf60 f i Maindoc.obj
 0001:0000aff0       ?Tokenize@CAfx@@SA?AVCString@WTL@@AEAV23@PEADAEAH@Z 000000014000bff0 f i Maindoc.obj
 0001:0000b0c0       ?Tokenize@@YA?AVCString@WTL@@AEAV12@PEADAEAH@Z 000000014000c0c0 f i Maindoc.obj
 0001:0000b0e0       ?AllocCopy@CString@WTL@@IEBAHAEAV12@HHH@Z 000000014000c0e0 f i Maindoc.obj
 0001:0000b1a0       ?Mid@CString@WTL@@QEBA?AV12@HH@Z 000000014000c1a0 f i Maindoc.obj
 0001:0000b220       ?Mid@CString@WTL@@QEBA?AV12@H@Z 000000014000c220 f i Maindoc.obj
 0001:0000b250       ?_AfxAppendFilterSuffix@@YAXAEAVCString@WTL@@AEAUtagOFNA@@PEAVCDocTemplate@@PEAV12@@Z 000000014000c250 f i Maindoc.obj
 0001:0000b480       ??0CStringW@@QEAA@PEBD@Z   000000014000c480 f i Maindoc.obj
 0001:0000b570       ??4CStringW@@QEAAAEAVCString@WTL@@PEBD@Z 000000014000c570 f i Maindoc.obj
 0001:0000b680       ?ApplyOFNToShellDialog@CFileDialogMTL@@QEAAXXZ 000000014000c680 f i Maindoc.obj
 0001:0000bd30       ??0CString@WTL@@QEAA@PEB_W@Z 000000014000cd30 f i Maindoc.obj
 0001:0000be10       ??4CString@WTL@@QEAAAEAV01@PEB_W@Z 000000014000ce10 f i Maindoc.obj
 0001:0000bf10       ?GetPathName@CFileDialogMTL@@QEAA?AVCString@WTL@@XZ 000000014000cf10 f i Maindoc.obj
 0001:0000c1e0       ?UpdateOFNFromShellDialog@CFileDialogMTL@@UEAAXXZ 000000014000d1e0 f i Maindoc.obj
 0001:0000c8c0       ?DoModal@CFileDialogMTL@@UEAA_JXZ 000000014000d8c0 f i Maindoc.obj
 0001:0000caa0       ?DoPromptFileName@CDocManager@@QEAAHAEAVCString@WTL@@IKHPEAVCDocTemplate@@@Z 000000014000daa0 f i Maindoc.obj
 0001:0000d0c0       ?GetFile@CDocument@@QEAAPEAVCFile@@PEBDIPEAVCFileException@@@Z 000000014000e0c0 f i Maindoc.obj
 0001:0000d160       ??0CArchive@@QEAA@PEAVCFile@@IHPEAX@Z 000000014000e160 f i Maindoc.obj
 0001:0000d240       ??1CArchive@@QEAA@XZ       000000014000e240 f i Maindoc.obj
 0001:0000d270       ??1CWaitCursor@@QEAA@XZ    000000014000e270 f i Maindoc.obj
 0001:0000d2d0       ?Abort@CFile@@UEAAXXZ      000000014000e2d0 f i Maindoc.obj
 0001:0000d300       ?AfxThrowInvalidArgException@@YAXXZ 000000014000e300 f i Maindoc.obj
 0001:0000d3a0       ??0CTime@@QEAA@AEBU_FILETIME@@H@Z 000000014000e3a0 f i Maindoc.obj
 0001:0000d490       ?GetStatus@CFile@@QEBAHAEAUCFileStatus@@@Z 000000014000e490 f i Maindoc.obj
 0001:0000d650       ?LoadStringA@CString@WTL@@QEAAHI@Z 000000014000e650 f i Maindoc.obj
 0001:0000d7a0       ??0CString@WTL@@QEAA@PEBD@Z 000000014000e7a0 f i Maindoc.obj
 0001:0000d860       ?GetFilePath@CFile@@UEBA?AVCString@WTL@@XZ 000000014000e860 f i Maindoc.obj
 0001:0000d8d0       ?GetLength@CFile@@UEBA_KXZ 000000014000e8d0 f i Maindoc.obj
 0001:0000d920       ?Open@CFile@@UEAAHPEBDIPEAVCFileException@@@Z 000000014000e920 f i Maindoc.obj
 0001:0000dae0       ?Write@CFile@@UEAAXPEBXI@Z 000000014000eae0 f i Maindoc.obj
 0001:0000dbd0       ?Seek@CFile@@UEAA_K_JI@Z   000000014000ebd0 f i Maindoc.obj
 0001:0000dc30       ?Empty@CString@WTL@@QEAAXXZ 000000014000ec30 f i Maindoc.obj
 0001:0000dcb0       ?Close@CFile@@UEAAXXZ      000000014000ecb0 f i Maindoc.obj
 0001:0000dd60       ??_GCFile@@QEAAPEAXI@Z     000000014000ed60 f i Maindoc.obj
 0001:0000ddd0       ?ReleaseFile@CDocument@@UEAAXPEAVCFile@@H@Z 000000014000edd0 f i Maindoc.obj
 0001:0000de10       ?SetModifiedFlag@CDocument@@UEAAXH@Z 000000014000ee10 f i Maindoc.obj
 0001:0000de20       ?OnSaveDocument@CDocument@@UEAAHPEBD@Z 000000014000ee20 f i Maindoc.obj
 0001:0000e020       ?_AfxFullPath2@CAfx@@SAHPEADPEBDPEAVCFileException@@@Z 000000014000f020 f i Maindoc.obj
 0001:0000e200       ?AfxGetFileTitle@CAfx@@SAIPEBDPEADI@Z 000000014000f200 f i Maindoc.obj
 0001:0000e2b0       ?GetFirstViewPosition@CDocument@@UEBAPEAU__POSITION@@XZ 000000014000f2b0 f i Maindoc.obj
 0001:0000e2c0       ?GetNextView@CDocument@@UEBAPEAVCView@@AEAPEAU__POSITION@@@Z 000000014000f2c0 f i Maindoc.obj
 0001:0000e2e0       ?SetTitle@CDocument@@UEAAXPEBD@Z 000000014000f2e0 f i Maindoc.obj
 0001:0000e330       ?SetPathName@CDocument@@UEAAXPEBDH@Z 000000014000f330 f i Maindoc.obj
 0001:0000e3f0       ?DoSave@CDocument@@UEAAHPEBDH@Z 000000014000f3f0 f i Maindoc.obj
 0001:0000e970       ?_ProcessWindowMessage@CDocument@@UEAAHPEAUHWND__@@I_K_JAEA_J@Z 000000014000f970 f i Maindoc.obj
 0001:0000ea80       ??0CFileException@@QEAA@HJPEBD@Z 000000014000fa80 f i Maindoc.obj
 0001:0000eb00       ?OsErrorToException@CFileException@@SAHJ@Z 000000014000fb00 f i Maindoc.obj
 0001:0000ecb0       ?ThrowOsError@CFileException@@SAXJPEBD@Z 000000014000fcb0 f i Maindoc.obj
 0001:0000ed20       ?Read@CFile@@UEAAIPEAXI@Z  000000014000fd20 f i Maindoc.obj
 0001:0000ed70       ?AfxThrowMemoryException@@YAXXZ 000000014000fd70 f i Maindoc.obj
 0001:0000ee10       ?AfxClassInit@@YAXPEAUCRuntimeClass@@@Z 000000014000fe10 f i Maindoc.obj
 0001:0000ee90       ?CreateObject@CTextView@@SAPEAVCObject@@XZ 000000014000fe90 f   Simpvw.obj
 0001:0000eee0       ?GetRuntimeClass@CTextView@@UEBAPEAUCRuntimeClass@@XZ 000000014000fee0 f   Simpvw.obj
 0001:0000eef0       ?_ProcessWindowMessage@CTextView@@UEAAHPEAUHWND__@@I_K_JAEA_J@Z 000000014000fef0 f i Simpvw.obj
 0001:0000eef0       ?_ProcessWindowMessage@CColorView@@UEAAHPEAUHWND__@@I_K_JAEA_J@Z 000000014000fef0 f i Simpvw.obj
 0001:0000ef70       ?OnDraw@CTextView@@UEAAXPEAVCDCMTL@@@Z 000000014000ff70 f   Simpvw.obj
 0001:0000f080       ?CreateObject@CColorView@@SAPEAVCObject@@XZ 0000000140010080 f   Simpvw.obj
 0001:0000f0d0       ?GetRuntimeClass@CColorView@@UEBAPEAUCRuntimeClass@@XZ 00000001400100d0 f   Simpvw.obj
 0001:0000f0e0       ?OnDraw@CColorView@@UEAAXPEAVCDCMTL@@@Z 00000001400100e0 f   Simpvw.obj
 0001:0000f1b0       ?CreateObject@CSplitterFrame@@SAPEAVCObject@@XZ 00000001400101b0 f   Splitter.obj
 0001:0000f220       ?GetRuntimeClass@CSplitterFrame@@UEBAPEAUCRuntimeClass@@XZ 0000000140010220 f   Splitter.obj
 0001:0000f230       ??_GCSplitterFrame@@UEAAPEAXI@Z 0000000140010230 f i Splitter.obj
 0001:0000f230       ??_ECSplitterFrame@@UEAAPEAXI@Z 0000000140010230 f i * CIL library *:* CIL module *
 0001:0000f260       ??1CSplitterFrame@@UEAA@XZ 0000000140010260 f   Splitter.obj
 0001:0000f2d0       ?OnCreateClient@CSplitterFrame@@UEAAHPEAUtagCREATESTRUCTA@@PEAUCCreateContext@@@Z 00000001400102d0 f   Splitter.obj
 0001:0000f3d0       ?_ProcessWindowMessage@C3WaySplitterFrame@@UEAAHPEAUHWND__@@I_K_JAEA_J@Z 00000001400103d0 f i Splitter.obj
 0001:0000f3d0       ?_ProcessWindowMessage@CSplitterFrame@@UEAAHPEAUHWND__@@I_K_JAEA_J@Z 00000001400103d0 f i Splitter.obj
 0001:0000f3e0       ?CreateObject@C3WaySplitterFrame@@SAPEAVCObject@@XZ 00000001400103e0 f   Splitter.obj
 0001:0000f420       ?GetRuntimeClass@C3WaySplitterFrame@@UEBAPEAUCRuntimeClass@@XZ 0000000140010420 f   Splitter.obj
 0001:0000f430       ??0C3WaySplitterFrame@@IEAA@XZ 0000000140010430 f   Splitter.obj
 0001:0000f4a0       ??_EC3WaySplitterFrame@@UEAAPEAXI@Z 00000001400104a0 f i * CIL library *:* CIL module *
 0001:0000f4a0       ??_GC3WaySplitterFrame@@UEAAPEAXI@Z 00000001400104a0 f i Splitter.obj
 0001:0000f4d0       ??1C3WaySplitterFrame@@UEAA@XZ 00000001400104d0 f   Splitter.obj
 0001:0000f580       ?OnCreateClient@C3WaySplitterFrame@@UEAAHPEAUtagCREATESTRUCTA@@PEAUCCreateContext@@@Z 0000000140010580 f   Splitter.obj
 0001:0000f6e0       ?GetRuntimeClass@CViewExSplitWnd@@UEBAPEAUCRuntimeClass@@XZ 00000001400106e0 f   Splitter.obj
 0001:0000f6f0       ??_ECViewExSplitWnd@@UEAAPEAXI@Z 00000001400106f0 f i * CIL library *:* CIL module *
 0001:0000f6f0       ??_GCSplitterWnd@@UEAAPEAXI@Z 00000001400106f0 f i Splitter.obj
 0001:0000f6f0       ??_GCViewExSplitWnd@@UEAAPEAXI@Z 00000001400106f0 f i Splitter.obj
 0001:0000f6f0       ??_ECSplitterWnd@@UEAAPEAXI@Z 00000001400106f0 f i * CIL library *:* CIL module *
 0001:0000f760       ??1CViewExSplitWnd@@UEAA@XZ 0000000140010760 f   Splitter.obj
 0001:0000f7b0       ?GetActivePane@CViewExSplitWnd@@UEAAPEAVCWnd@@PEAH0@Z 00000001400107b0 f   Splitter.obj
 0001:0000f810       ?OnHScroll@CSplitterWnd@@QEAAXIIPEAVCScrollBarMTL@@@Z 0000000140010810 f i Splitter.obj
 0001:0000f8f0       ?OnKeyDown@CSplitterWnd@@QEAAXIII@Z 00000001400108f0 f i Splitter.obj
 0001:0000fac0       ?OnLButtonDblClk@CSplitterWnd@@QEAAXIVCPoint@WTL@@@Z 0000000140010ac0 f i Splitter.obj
 0001:0000fc80       ?GetCapture@CWnd@@SAPEAV1@XZ 0000000140010c80 f i Splitter.obj
 0001:0000fe00       ?OnMouseMove@CSplitterWnd@@QEAAXIVCPoint@WTL@@@Z 0000000140010e00 f i Splitter.obj
 0001:00010010       ?OnMouseWheel@CSplitterWnd@@QEAAHIFVCPoint@WTL@@@Z 0000000140011010 f i Splitter.obj
 0001:00010220       ?OnNcCreate@CSplitterWnd@@QEAAHPEAUtagCREATESTRUCTA@@@Z 0000000140011220 f i Splitter.obj
 0001:000102c0       ?OnPaint@CSplitterWnd@@QEAAXXZ 00000001400112c0 f i Splitter.obj
 0001:000103e0       ?OnSysCommand@CSplitterWnd@@QEAAXI_J@Z 00000001400113e0 f i Splitter.obj
 0001:00010470       ?OnVScroll@CSplitterWnd@@QEAAXIIPEAVCScrollBarMTL@@@Z 0000000140011470 f i Splitter.obj
 0001:00010550       ?_ProcessWindowMessage@CSplitterWnd@@UEAAHPEAUHWND__@@I_K_JAEA_J@Z 0000000140011550 f i Splitter.obj
 0001:00010980       ?OnCommand@CSplitterWnd@@UEAAH_K_J@Z 0000000140011980 f i Splitter.obj
 0001:00010a40       ?OnNotify@CSplitterWnd@@UEAAH_K_JPEA_J@Z 0000000140011a40 f i Splitter.obj
 0001:00010ae0       ?OnDraw@CSplitterWnd@@UEAAXPEAVCDCMTL@@@Z 0000000140011ae0 f i Splitter.obj
 0001:00010c20       ?CanActivateNext@CSplitterWnd@@UEAAHH@Z 0000000140011c20 f i Splitter.obj
 0001:00010c70       ?Create@CSplitterWnd@@UEAAHPEAVCWnd@@HHUtagSIZE@@PEAUCCreateContext@@KI@Z 0000000140011c70 f i Splitter.obj
 0001:00010d20       ?AfxThrowResourceException@@YAXXZ 0000000140011d20 f i Splitter.obj
 0001:00010dc0       ?SetScrollStyle@CSplitterWnd@@QEAAXK@Z 0000000140011dc0 f i Splitter.obj
 0001:00010f90       ?CreateCommon@CSplitterWnd@@QEAAHPEAVCWnd@@UtagSIZE@@KI@Z 0000000140011f90 f i Splitter.obj
 0001:00011140       ?CreateStatic@CSplitterWnd@@UEAAHPEAVCWnd@@HHKI@Z 0000000140012140 f i Splitter.obj
 0001:00011190       ?DoKeyboardSplit@CSplitterWnd@@UEAAHXZ 0000000140012190 f i Splitter.obj
 0001:00011340       ?DoScroll@CSplitterWnd@@UEAAHPEAVCView@@IH@Z 0000000140012340 f i Splitter.obj
 0001:00011590       ?DoScrollBy@CSplitterWnd@@UEAAHPEAVCView@@VCSize@WTL@@H@Z 0000000140012590 f i Splitter.obj
 0001:000117b0       ?HitTest@CSplitterWnd@@UEBAHVCPoint@WTL@@@Z 00000001400127b0 f i Splitter.obj
 0001:000119f0       ?GetHitRect@CSplitterWnd@@UEAAXHAEAVCRect@WTL@@@Z 00000001400129f0 f i Splitter.obj
 0001:00011ee0       ?SetSplitCursor@CSplitterWnd@@UEAAXH@Z 0000000140012ee0 f i Splitter.obj
 0001:00011fe0       ?StartTracking@CSplitterWnd@@UEAAXH@Z 0000000140012fe0 f i Splitter.obj
 0001:00012200       ?FromHandle@?$CHandleList@PEAUHDC__@@VCDCMTL@@PEAUHWND__@@@@QEAAPEAVCDCMTL@@QEAUHDC__@@PEAV2@QEAUHWND__@@Q6APEAXPEAX3@Z@Z 0000000140013200 f i Splitter.obj
 0001:000122e0       ?classHandleFuncCDCMTL@CDCMTL@@SAPEAXPEAX0@Z 00000001400132e0 f i Splitter.obj
 0001:00012360       ?HalftoneBrush@CAfx@@SAPEAUHBRUSH__@@H@Z 0000000140013360 f i Splitter.obj
 0001:00012440       ?FromHandle@?$CHandleList@PEAXVCGdiObject@@PEAUHWND__@@@@QEAAPEAVCGdiObject@@QEAXPEAV2@QEAUHWND__@@Q6APEAXPEAX3@Z@Z 0000000140013440 f i Splitter.obj
 0001:00012510       ?classHandleFuncCBrushMTL@CBrushMTL@@SAPEAXPEAX0@Z 0000000140013510 f i Splitter.obj
 0001:00012570       ?OnInvertTracker@CSplitterWnd@@UEAAXAEBVCRect@WTL@@@Z 0000000140013570 f i Splitter.obj
 0001:000126a0       ?SplitRow@CSplitterWnd@@UEAAHH@Z 00000001400136a0 f i Splitter.obj
 0001:00012840       ?CreateScrollBarCtrl@CSplitterWnd@@UEAAHKI@Z 0000000140013840 f i Splitter.obj
 0001:000128c0       ?CreateView@CSplitterWnd@@UEAAHHHPEAUCRuntimeClass@@UtagSIZE@@PEAUCCreateContext@@@Z 00000001400138c0 f i Splitter.obj
 0001:00012aa0       ?SplitColumn@CSplitterWnd@@UEAAHH@Z 0000000140013aa0 f i Splitter.obj
 0001:00012c40       ?StopTracking@CSplitterWnd@@UEAAXH@Z 0000000140013c40 f i Splitter.obj
 0001:00012e50       ?DeleteColumn@CSplitterWnd@@UEAAXH@Z 0000000140013e50 f i Splitter.obj
 0001:00013000       ?TrackColumnSize@CSplitterWnd@@UEAAXHH@Z 0000000140014000 f i Splitter.obj
 0001:000130e0       ?GetFocus@CWnd@@SAPEAV1@XZ 00000001400140e0 f i Splitter.obj
 0001:00013260       ?IsChildPane@CSplitterWnd@@QEAAHPEAVCWnd@@PEAH1@Z 0000000140014260 f i Splitter.obj
 0001:00013310       ?GetActivePane@CSplitterWnd@@UEAAPEAVCWnd@@PEAH0@Z 0000000140014310 f i Splitter.obj
 0001:000133c0       ?SetActivePane@CSplitterWnd@@UEAAXHHPEAVCWnd@@@Z 00000001400143c0 f i Splitter.obj
 0001:000134d0       ?ActivateNext@CSplitterWnd@@UEAAXH@Z 00000001400144d0 f i Splitter.obj
 0001:00013580       ?DeleteView@CSplitterWnd@@UEAAXHH@Z 0000000140014580 f i Splitter.obj
 0001:000135e0       ?GetInsideRect@CSplitterWnd@@UEBAXAEAVCRect@WTL@@@Z 00000001400145e0 f i Splitter.obj
 0001:00013650       ?_AfxLayoutRowCol@CSplitterWnd@@QEAAXPEAUCRowColInfo@1@HHH@Z 0000000140014650 f i Splitter.obj
 0001:00013760       ?GetSizingParent@CSplitterWnd@@QEAAPEAVCWnd@@XZ 0000000140014760 f i Splitter.obj
 0001:000138b0       ?GetDlgItem@CWnd@@QEAAPEAV1@H@Z 00000001400148b0 f i Splitter.obj
 0001:00013a30       ?_AfxDeferClientPos@CSplitterWnd@@QEAAXPEAUAFX_SIZEPARENTPARAMS@@PEAVCWnd@@HHHHH@Z 0000000140014a30 f i Splitter.obj
 0001:00013c20       ?FillSolidRect@?$CDCT@$00@WTL@@QEAAXHHHHK@Z 0000000140014c20 f i Splitter.obj
 0001:00013cc0       ?Draw3dRect@?$CDCT@$00@WTL@@QEAAXHHHHKK@Z 0000000140014cc0 f i Splitter.obj
 0001:00013d80       ?OnDrawSplitter@CSplitterWnd@@UEAAXPEAVCDCMTL@@W4ESplitType@1@AEBVCRect@WTL@@@Z 0000000140014d80 f i Splitter.obj
 0001:00013f80       ?DrawAllSplitBars@CSplitterWnd@@UEAAXPEAVCDCMTL@@HH@Z 0000000140014f80 f i Splitter.obj
 0001:00014250       ?RecalcLayout@CSplitterWnd@@UEAAXXZ 0000000140015250 f i Splitter.obj
 0001:000146a0       ?DeleteRow@CSplitterWnd@@UEAAXH@Z 00000001400156a0 f i Splitter.obj
 0001:00014840       ?TrackRowSize@CSplitterWnd@@UEAAXHH@Z 0000000140015840 f i Splitter.obj
 0001:00014920       ??0CSplitterWnd@@QEAA@XZ   0000000140015920 f i Splitter.obj
 0001:00014a20       ??1CMDIChildWnd@@UEAA@XZ   0000000140015a20 f i Splitter.obj
 0001:00014a30       ?AddFrameWnd@CFrameWnd@@QEAAXXZ 0000000140015a30 f i Splitter.obj
 0001:00014ac0       ??0CFrameWnd@@QEAA@XZ      0000000140015ac0 f i Splitter.obj
 0001:00014bb0       ?OnUpdateFrameMenu@CMDIChildWnd@@QEAAXHPEAVCWnd@@PEAUHMENU__@@@Z 0000000140015bb0 f i Splitter.obj
 0001:00014c50       ?OnMDIActivate@CMDIChildWnd@@QEAAXHPEAVCWnd@@0@Z 0000000140015c50 f i Splitter.obj
 0001:00014d30       ?UpdateClientEdge@CMDIChildWnd@@QEAAHPEAUtagRECT@@@Z 0000000140015d30 f i Splitter.obj
 0001:00014e80       ?OnWindowPosChanging@CMDIChildWnd@@QEAAXPEAUtagWINDOWPOS@@@Z 0000000140015e80 f i Splitter.obj
 0001:00014f70       ?_ProcessWindowMessage@CMDIChildWnd@@UEAAHPEAUHWND__@@I_K_JAEA_J@Z 0000000140015f70 f i Splitter.obj
 0001:00015510       ??_ECMDIChildWnd@@UEAAPEAXI@Z 0000000140016510 f i * CIL library *:* CIL module *
 0001:00015510       ??_GCMDIFrameWnd@@UEAAPEAXI@Z 0000000140016510 f i Stdafx.obj
 0001:00015510       ??_GCMDIChildWnd@@UEAAPEAXI@Z 0000000140016510 f i Splitter.obj
 0001:00015510       ??_ECMDIFrameWnd@@UEAAPEAXI@Z 0000000140016510 f i * CIL library *:* CIL module *
 0001:00015510       ??_ECFrameWnd@@UEAAPEAXI@Z 0000000140016510 f i * CIL library *:* CIL module *
 0001:00015510       ??_GCFrameWnd@@UEAAPEAXI@Z 0000000140016510 f i Splitter.obj
 0001:00015540       ?DefWindowProcA@CMDIChildWnd@@UEAA_JI_K_J@Z 0000000140016540 f i Splitter.obj
 0001:00015550       ?DestroyWindow@CMDIChildWnd@@UEAAHXZ 0000000140016550 f i Splitter.obj
 0001:00015610       ?PreTranslateMessage@CMDIChildWnd@@UEAAHPEAUtagMSG@@@Z 0000000140016610 f i Splitter.obj
 0001:000156b0       ?OnUpdateFrameTitle@CMDIChildWnd@@UEAAXH@Z 00000001400166b0 f i Splitter.obj
 0001:00015830       ?MDIGetActive@CMDIFrameWnd@@QEBAPEAVCMDIChildWnd@@PEAH@Z 0000000140016830 f i Splitter.obj
 0001:00015a10       ?GetMDIFrame@CMDIChildWnd@@QEAAPEAVCMDIFrameWnd@@XZ 0000000140016a10 f i Splitter.obj
 0001:00015b90       ?ActivateFrame@CMDIChildWnd@@UEAAXH@Z 0000000140016b90 f i Splitter.obj
 0001:00015d10       ?LoadFrame@CMDIChildWnd@@UEAAHIKPEAVCWnd@@PEAUCCreateContext@@@Z 0000000140016d10 f i Splitter.obj
 0001:00015ed0       ?PreCreateWindow@CFrameWnd@@UEAAHAEAUtagCREATESTRUCTA@@@Z 0000000140016ed0 f i Splitter.obj
 0001:00015ed0       ?PreCreateWindow@CMDIChildWnd@@UEAAHAEAUtagCREATESTRUCTA@@@Z 0000000140016ed0 f i Splitter.obj
 0001:00015f20       ?CanCloseFrame@CDocument@@QEAAHPEAVCFrameWnd@@@Z 0000000140016f20 f i Splitter.obj
 0001:00015fd0       ?SaveAllModified@CDocManager@@QEAAHXZ 0000000140016fd0 f i Splitter.obj
 0001:00016060       ?CloseAllDocuments@CDocTemplate@@QEAAXH@Z 0000000140017060 f i Splitter.obj
 0001:00016170       ?OnClose@CFrameWnd@@QEAAXXZ 0000000140017170 f i Splitter.obj
 0001:00016340       ?OnCreateHelper@CFrameWnd@@QEAAHPEAUtagCREATESTRUCTA@@PEAUCCreateContext@@@Z 0000000140017340 f i Splitter.obj
 0001:000163e0       ?DestroyDockBars@CFrameWnd@@QEAAXXZ 00000001400173e0 f i Splitter.obj
 0001:00016720       ?OnDestroy@CFrameWnd@@QEAAXXZ 0000000140017720 f i Splitter.obj
 0001:000167b0       ?SetActiveWindow@CWnd@@QEAAPEAV1@XZ 00000001400177b0 f i Splitter.obj
 0001:00016930       ?OnDropFiles@CFrameWnd@@QEAAXPEAUHDROP__@@@Z 0000000140017930 f i Splitter.obj
 0001:000169e0       ?OnIdle@CCmdUI@@QEAAHPEAVCCmdTarget@@H@Z 00000001400179e0 f i Splitter.obj
 0001:00016aa0       ?OnInitMenuPopup@CFrameWnd@@QEAAXPEAVCMenuMTL@@IH@Z 0000000140017aa0 f i Splitter.obj
 0001:00016d30       ?SetMenuBarState@CFrameWnd@@QEAAHK@Z 0000000140017d30 f i Splitter.obj
 0001:00016d90       ?OnMenuSelect@CFrameWnd@@QEAAXIIPEAUHMENU__@@@Z 0000000140017d90 f i Splitter.obj
 0001:00016f40       ?OnSize@CFrameWnd@@QEAAXIHH@Z 0000000140017f40 f i Splitter.obj
 0001:00016f90       ?OnPopMessageString@CFrameWnd@@QEAA_J_K_J@Z 0000000140017f90 f i Splitter.obj
 0001:00016fb0       ?GetDescendantWindow@CWnd@@QEAAPEAV1@PEAUHWND__@@HH@Z 0000000140017fb0 f i Splitter.obj
 0001:000171e0       ?_AtlGetStringResourceImage@CAfx@@SAPEBUATLSTRINGRESOURCEIMAGE@ATL@@PEAUHINSTANCE__@@PEAUHRSRC__@@I@Z 00000001400181e0 f i Splitter.obj
 0001:00017280       ?AfxLoadString@CAfx@@SAHIPEADI@Z 0000000140018280 f i Splitter.obj
 0001:00017330       ?OnSetMessageString@CFrameWnd@@QEAA_J_K_J@Z 0000000140018330 f i Splitter.obj
 0001:000174b0       ?OnIdleUpdateCmdUI@CFrameWnd@@QEAAXXZ 00000001400184b0 f i Splitter.obj
 0001:00017550       ?_ProcessWindowMessage@CFrameWnd@@UEAAHPEAUHWND__@@I_K_JAEA_J@Z 0000000140018550 f i Splitter.obj
 0001:00017ae0       ?OnCmdMsg@CFrameWnd@@UEAAHIHPEAXPEAUAFX_CMDHANDLERINFO@@@Z 0000000140018ae0 f i Splitter.obj
 0001:00017b90       ?PreTranslateMessage@CFrameWnd@@UEAAHPEAUtagMSG@@@Z 0000000140018b90 f i Splitter.obj
 0001:00017c10       ?CreateView@CFrameWnd@@QEAAPEAVCWnd@@PEAUCCreateContext@@I@Z 0000000140018c10 f i Splitter.obj
 0001:00017d30       ?OnCreateClient@CFrameWnd@@UEAAHPEAUtagCREATESTRUCTA@@PEAUCCreateContext@@@Z 0000000140018d30 f i Splitter.obj
 0001:00017d60       ?ShowControlBar@CFrameWnd@@QEAAXPEAVCControlBar@@HH@Z 0000000140018d60 f i Splitter.obj
 0001:00017ea0       ?AfxIsDescendant@CFrameWnd@@SAHPEAUHWND__@@0@Z 0000000140018ea0 f i Splitter.obj
 0001:00017fa0       ?ShowOwnedWindows@CFrameWnd@@QEAAXH@Z 0000000140018fa0 f i Splitter.obj
 0001:000181e0       ?OnSetPreviewMode@CFrameWnd@@UEAAXHPEAUCPrintPreviewState@@@Z 00000001400191e0 f i Splitter.obj
 0001:000184a0       ?OnUpdateFrameMenu@CFrameWnd@@UEAAXPEAUHMENU__@@@Z 00000001400194a0 f i Splitter.obj
 0001:000184d0       ?UpdateFrameTitleForDocument@CFrameWnd@@QEAAXPEBD@Z 00000001400194d0 f i Splitter.obj
 0001:00018b20       ?OnUpdateFrameTitle@CFrameWnd@@UEAAXH@Z 0000000140019b20 f i Splitter.obj
 0001:00018b90       ?ActivateFrame@CFrameWnd@@UEAAXH@Z 0000000140019b90 f i Splitter.obj
 0001:00018c40       ?GetActiveFrame@CFrameWnd@@UEAAPEAV1@XZ 0000000140019c40 f i Splitter.obj
 0001:00018c50       ?GetDefaultAccelerator@CFrameWnd@@UEAAPEAUHACCEL__@@XZ 0000000140019c50 f i Splitter.obj
 0001:00018c90       ?AfxExtractSubString@CAfx@@SAHAEAVCString@WTL@@PEBDHD@Z 0000000140019c90 f i Splitter.obj
 0001:00018d90       ?GetIconWndClass@CFrameWnd@@QEAAPEBDKI@Z 0000000140019d90 f i Splitter.obj
 0001:00018e50       ?Create@CFrameWnd@@UEAAHPEBD0KAEBUtagRECT@@PEAVCWnd@@0KPEAUCCreateContext@@@Z 0000000140019e50 f i Splitter.obj
 0001:00018f90       ?LoadFrame@CFrameWnd@@UEAAHIKPEAVCWnd@@PEAUCCreateContext@@@Z 0000000140019f90 f i Splitter.obj
 0001:00019170       ?AfxRepositionWindow@CAfx@@SAXPEAUAFX_SIZEPARENTPARAMS@@PEAUHWND__@@PEBUtagRECT@@@Z 000000014001a170 f i Splitter.obj
 0001:00019280       ?RepositionBars@CWnd@@QEAAXIIIIPEAUtagRECT@@PEBU2@H@Z 000000014001a280 f i Splitter.obj
 0001:000195c0       ?RecalcLayout@CFrameWnd@@UEAAXH@Z 000000014001a5c0 f i Splitter.obj
 0001:00019700       ?RemoveFrameWnd@CFrameWnd@@QEAAXXZ 000000014001a700 f i Splitter.obj
 0001:00019780       ??1CFrameWnd@@UEAA@XZ      000000014001a780 f i Splitter.obj
 0001:00019810       ?Create@CMDIChildWnd@@UEAAHPEBD0KAEBUtagRECT@@PEAVCMDIFrameWnd@@PEAUCCreateContext@@@Z 000000014001a810 f i Splitter.obj
 0001:00019a10       ?DefWindowProcA@CMDIFrameWnd@@UEAA_JI_K_J@Z 000000014001aa10 f i Stdafx.obj
 0001:00019a40       ?OnCreateClient@CMDIFrameWnd@@UEAAHPEAUtagCREATESTRUCTA@@PEAUCCreateContext@@@Z 000000014001aa40 f i Stdafx.obj
 0001:00019ad0       ?OnIdleUpdateCmdUI@CMDIFrameWnd@@QEAAXXZ 000000014001aad0 f i Stdafx.obj
 0001:00019b00       ?OnMDIWindowCmd@CMDIFrameWnd@@QEAAHI@Z 000000014001ab00 f i Stdafx.obj
 0001:00019b60       ?OnUpdateMDIWindowCmd@CMDIFrameWnd@@QEAAXPEAVCCmdUI@@@Z 000000014001ab60 f i Stdafx.obj
 0001:00019ba0       ?CreateClient@CMDIFrameWnd@@UEAAHPEAUtagCREATESTRUCTA@@PEAVCMenuMTL@@@Z 000000014001aba0 f i Stdafx.obj
 0001:00019ce0       ?DelayUpdateFrameMenu@CMDIFrameWnd@@UEAAXPEAUHMENU__@@@Z 000000014001ace0 f i Stdafx.obj
 0001:00019d00       ?GetActiveFrame@CMDIFrameWnd@@UEAAPEAVCFrameWnd@@XZ 000000014001ad00 f i Stdafx.obj
 0001:00019d20       ?GetWindowMenuPopup@CMDIFrameWnd@@UEAAPEAUHMENU__@@PEAU2@@Z 000000014001ad20 f i Stdafx.obj
 0001:00019de0       ?LoadFrame@CMDIFrameWnd@@UEAAHIKPEAVCWnd@@PEAUCCreateContext@@@Z 000000014001ade0 f i Stdafx.obj
 0001:00019e20       ?PreCreateWindow@CMDIFrameWnd@@UEAAHAEAUtagCREATESTRUCTA@@@Z 000000014001ae20 f i Stdafx.obj
 0001:00019e50       ?_ProcessWindowMessage@CMDIFrameWnd@@UEAAHPEAUHWND__@@I_K_JAEA_J@Z 000000014001ae50 f i Stdafx.obj
 0001:0001a1a0       ?OnCommand@CMDIFrameWnd@@UEAAH_K_J@Z 000000014001b1a0 f i Stdafx.obj
 0001:0001a240       ?OnCmdMsg@CMDIFrameWnd@@UEAAHIHPEAXPEAUAFX_CMDHANDLERINFO@@@Z 000000014001b240 f i Stdafx.obj
 0001:0001a2d0       ?OnWindowNew@CMDIFrameWnd@@QEAAXXZ 000000014001b2d0 f i Stdafx.obj
 0001:0001a390       ?PreTranslateMessage@CMDIFrameWnd@@UEAAHPEAUtagMSG@@@Z 000000014001b390 f i Stdafx.obj
 0001:0001a450       ?SetCurrentHandles@CWinApp@@QEAAXXZ 000000014001b450 f i Stdafx.obj
 0001:0001a790       ?AfxMessageBox@@YAHIII@Z   000000014001b790 f i Stdafx.obj
 0001:0001a800       ?GetRuntimeClass@CCmdTarget@@UEBAPEAUCRuntimeClass@@XZ 000000014001b800 f   Stdafx.obj
 0001:0001a810       ?CreateObject@CWnd@@SAPEAVCObject@@XZ 000000014001b810 f   Stdafx.obj
 0001:0001a860       ?GetRuntimeClass@CWnd@@UEBAPEAUCRuntimeClass@@XZ 000000014001b860 f   Stdafx.obj
 0001:0001a870       ?GetRuntimeClass@CDialog@@UEBAPEAUCRuntimeClass@@XZ 000000014001b870 f   Stdafx.obj
 0001:0001a880       ?CreateObject@CFrameWnd@@SAPEAVCObject@@XZ 000000014001b880 f   Stdafx.obj
 0001:0001a8c0       ?GetRuntimeClass@CFrameWnd@@UEBAPEAUCRuntimeClass@@XZ 000000014001b8c0 f   Stdafx.obj
 0001:0001a8d0       ?GetRuntimeClass@CView@@UEBAPEAUCRuntimeClass@@XZ 000000014001b8d0 f   Stdafx.obj
 0001:0001a8e0       ?GetRuntimeClass@CSplitterWnd@@UEBAPEAUCRuntimeClass@@XZ 000000014001b8e0 f   Stdafx.obj
 0001:0001a8f0       ?GetRuntimeClass@CMultiDocTemplate@@UEBAPEAUCRuntimeClass@@XZ 000000014001b8f0 f   Stdafx.obj
 0001:0001a900       ?CreateObject@CMDIFrameWnd@@SAPEAVCObject@@XZ 000000014001b900 f   Stdafx.obj
 0001:0001a950       ?GetRuntimeClass@CMDIFrameWnd@@UEBAPEAUCRuntimeClass@@XZ 000000014001b950 f   Stdafx.obj
 0001:0001a960       ?CreateObject@CMDIChildWnd@@SAPEAVCObject@@XZ 000000014001b960 f   Stdafx.obj
 0001:0001a9c0       ?GetRuntimeClass@CMDIChildWnd@@UEBAPEAUCRuntimeClass@@XZ 000000014001b9c0 f   Stdafx.obj
 0001:0001a9d0       ?GetRuntimeClass@CScrollView@@UEBAPEAUCRuntimeClass@@XZ 000000014001b9d0 f   Stdafx.obj
 0001:0001a9e0       ?GetRuntimeClass@CFileDialogMTL@@UEBAPEAUCRuntimeClass@@XZ 000000014001b9e0 f   Stdafx.obj
 0001:0001a9f0       WinMain                    000000014001b9f0 f   Stdafx.obj
 0001:0001aa60       ?_ProcessWindowMessage@CViewExApp@@UEAAHPEAUHWND__@@I_K_JAEA_J@Z 000000014001ba60 f i Viewex.obj
 0001:0001ab70       ?InitInstance@CViewExApp@@UEAAHXZ 000000014001bb70 f   Viewex.obj
 0001:0001af80       ?OnAppAbout@CViewExApp@@QEAAXXZ 000000014001bf80 f   Viewex.obj
 0001:0001b000       ??1CDocTemplate@@QEAA@XZ   000000014001c000 f i Viewex.obj
 0001:0001b030       ?AddDocument@CMultiDocTemplate@@UEAAXPEAVCDocument@@@Z 000000014001c030 f i Viewex.obj
 0001:0001b0a0       ?GetFirstDocPosition@CMultiDocTemplate@@UEBAPEAU__POSITION@@XZ 000000014001c0a0 f i Viewex.obj
 0001:0001b0b0       ?GetNextDocTemplate@CDocManager@@UEBAPEAVCDocTemplate@@AEAPEAU__POSITION@@@Z 000000014001c0b0 f i Viewex.obj
 0001:0001b0b0       ?GetNextDoc@CMultiDocTemplate@@UEBAPEAVCDocument@@AEAPEAU__POSITION@@@Z 000000014001c0b0 f i Viewex.obj
 0001:0001b0c0       ?CreateNewDocument@CDocTemplate@@UEAAPEAVCDocument@@XZ 000000014001c0c0 f i Viewex.obj
 0001:0001b120       ?OnCmdMsg@CDocTemplate@@UEAAHIHPEAXPEAUAFX_CMDHANDLERINFO@@@Z 000000014001c120 f i Viewex.obj
 0001:0001b130       ?CreateNewFrame@CDocTemplate@@UEAAPEAVCFrameWnd@@PEAVCDocument@@PEAV2@@Z 000000014001c130 f i Viewex.obj
 0001:0001b1e0       ?InitialUpdateFrame@CFrameWnd@@QEAAXPEAVCDocument@@H@Z 000000014001c1e0 f i Viewex.obj
 0001:0001b370       ?InitialUpdateFrame@CDocTemplate@@UEAAXPEAVCFrameWnd@@PEAVCDocument@@H@Z 000000014001c370 f i Viewex.obj
 0001:0001b390       ?OpenDocumentFile@CMultiDocTemplate@@UEAAPEAVCDocument@@PEBDHH@Z 000000014001c390 f i Viewex.obj
 0001:0001b5a0       ?OpenDocumentFile@CMultiDocTemplate@@UEAAPEAVCDocument@@PEBDH@Z 000000014001c5a0 f i Viewex.obj
 0001:0001b5b0       ?RemoveDocument@CMultiDocTemplate@@UEAAXPEAVCDocument@@@Z 000000014001c5b0 f i Viewex.obj
 0001:0001b630       ??_GCMultiDocTemplate@@UEAAPEAXI@Z 000000014001c630 f i Viewex.obj
 0001:0001b630       ??_ECMultiDocTemplate@@UEAAPEAXI@Z 000000014001c630 f i * CIL library *:* CIL module *
 0001:0001b660       ??1CMultiDocTemplate@@UEAA@XZ 000000014001c660 f i Viewex.obj
 0001:0001b6f0       ?SetDefaultTitle@CMultiDocTemplate@@UEAAXPEAVCDocument@@@Z 000000014001c6f0 f i Viewex.obj
 0001:0001b960       ?LoadTemplate@CMultiDocTemplate@@UEAAXXZ 000000014001c960 f i Viewex.obj
 0001:0001b9d0       ?GetFirstDocTemplatePosition@CDocManager@@UEBAPEAU__POSITION@@XZ 000000014001c9d0 f i Viewex.obj
 0001:0001b9e0       ?AddDocTemplate@CWinApp@@QEAAXPEAVCDocTemplate@@@Z 000000014001c9e0 f i Viewex.obj
 0001:0001baa0       ??1CCommandLineInfo@@QEAA@XZ 000000014001caa0 f i Viewex.obj
 0001:0001bb60       ??1CWinApp@@QEAA@XZ        000000014001cb60 f i Viewex.obj
 0001:0001bcc0       ??1CWinThread@@QEAA@XZ     000000014001ccc0 f i Viewex.obj
 0001:0001bce0       ??0CModuleThreadState@@QEAA@XZ 000000014001cce0 f i Viewex.obj
 0001:0001bdd0       ??1CModuleThreadState@@QEAA@XZ 000000014001cdd0 f i Viewex.obj
 0001:0001be20       ?OnIdle@CWinApp@@UEAAHH@Z  000000014001ce20 f i Viewex.obj
 0001:0001bff0       ?Run@CWinApp@@UEAAHXZ      000000014001cff0 f i Viewex.obj
 0001:0001c0d0       ??0CWinApp@@QEAA@XZ        000000014001d0d0 f i Viewex.obj
 0001:0001c190       ?OnAppExit@CWinApp@@QEAAXXZ 000000014001d190 f i Viewex.obj
 0001:0001c1b0       ?_ProcessWindowMessage@CWinApp@@UEAAHPEAUHWND__@@I_K_JAEA_J@Z 000000014001d1b0 f i Viewex.obj
 0001:0001c210       ?AfxStringFromCLSID@CAfx@@SA?AVCString@WTL@@AEBU_GUID@@@Z 000000014001d210 f i Viewex.obj
 0001:0001c310       ?AfxStringFromCLSID@@YA?AVCString@WTL@@AEBU_GUID@@@Z 000000014001d310 f i Viewex.obj
 0001:0001c330       ?AfxGetInProcServer@CAfx@@SAHPEBDAEAVCString@WTL@@@Z 000000014001d330 f i Viewex.obj
 0001:0001c470       ?GetClassObject@AFX_COM@@QEAAJAEBU_GUID@@0PEAPEAX@Z 000000014001d470 f i Viewex.obj
 0001:0001c580       ?AfxResolveShortcut@@YAHPEAVCWMHnd@@PEBDPEADH@Z 000000014001d580 f i Viewex.obj
 0001:0001c770       ?AfxComparePath@CAfx@@SAHPEBD0@Z 000000014001d770 f i Viewex.obj
 0001:0001c8b0       ?MatchDocType@CDocTemplate@@UEAA?AW4Confidence@1@PEBDAEAPEAVCDocument@@@Z 000000014001d8b0 f i Viewex.obj
 0001:0001c9c0       ?OpenDocumentFile@CDocManager@@QEAAPEAVCDocument@@PEBDH@Z 000000014001d9c0 f i Viewex.obj
 0001:0001cbe0       ?OpenDocumentFile@CWinApp@@UEAAPEAVCDocument@@PEBD@Z 000000014001dbe0 f i Viewex.obj
 0001:0001cbf0       ?OnFileOpen@CDocManager@@UEAAXXZ 000000014001dbf0 f i Viewex.obj
 0001:0001cc70       ?OnFileOpen@CWinApp@@UEAAXXZ 000000014001dc70 f i Viewex.obj
 0001:0001cc80       ?_ProcessWindowMessage@CNewTypeDlg@@UEAAHPEAUHWND__@@I_K_JAEA_J@Z 000000014001dc80 f i Viewex.obj
 0001:0001ccd0       ?GetDocString@CDocTemplate@@UEBAHAEAVCString@WTL@@W4DocStringIndex@1@@Z 000000014001dcd0 f i Viewex.obj
 0001:0001cce0       ?OnInitDialog@CNewTypeDlg@@UEAAHXZ 000000014001dce0 f i Viewex.obj
 0001:0001cf00       ?OnOK@CNewTypeDlg@@UEAAXXZ 000000014001df00 f i Viewex.obj
 0001:0001cf80       ?WalkPreTranslateTree@CWnd@@SAHPEAUHWND__@@PEAUtagMSG@@@Z 000000014001df80 f i Viewex.obj
 0001:0001d060       ?PreTranslateMessage@CWinApp@@UEAAHPEAUtagMSG@@@Z 000000014001e060 f i Viewex.obj
 0001:0001d120       ?PumpMessage@CWinApp@@UEAAHXZ 000000014001e120 f i Viewex.obj
 0001:0001d1a0       ?OnFileNew@CDocManager@@UEAAXXZ 000000014001e1a0 f i Viewex.obj
 0001:0001d270       ?OnFileNew@CWinApp@@UEAAXXZ 000000014001e270 f i Viewex.obj
 0001:0001d284       ?__AllocStdCallThunk@ATL@@YAPEAXXZ 000000014001e284 f   atls:atlthunk.obj
 0001:0001d348       ?__FreeStdCallThunk@ATL@@YAXPEAX@Z 000000014001e348 f   atls:atlthunk.obj
 0001:0001d3d8       ??0CAtlBaseModule@ATL@@QEAA@XZ 000000014001e3d8 f   atls:atlbase.obj
 0001:0001d480       ??1CAtlBaseModule@ATL@@QEAA@XZ 000000014001e480 f   atls:atlbase.obj
 0001:0001d4b4       ??3@YAXPEAX@Z              000000014001e4b4 f   LIBCMT:delete.obj
 0001:0001d4d0       __security_check_cookie    000000014001e4d0 f   LIBCMT:amdsecgs.obj
 0001:0001d4f0       ??_V@YAXPEAX@Z             000000014001e4f0 f   LIBCMT:delete2.obj
 0001:0001d4f8       __onexitinit               000000014001e4f8 f   LIBCMT:onexit.obj
 0001:0001d53c       _onexit                    000000014001e53c f   LIBCMT:onexit.obj
 0001:0001d648       atexit                     000000014001e648 f   LIBCMT:onexit.obj
 0001:0001d660       ??0bad_alloc@std@@QEAA@AEBV01@@Z 000000014001e660 f i LIBCMT:new.obj
 0001:0001d684       ??1bad_alloc@std@@UEAA@XZ  000000014001e684 f i LIBCMT:new.obj
 0001:0001d694       ??2@YAPEAX_K@Z             000000014001e694 f   LIBCMT:new.obj
 0001:0001d700       ??_Gbad_alloc@std@@UEAAPEAXI@Z 000000014001e700 f i LIBCMT:new.obj
 0001:0001d700       ??_Ebad_alloc@std@@UEAAPEAXI@Z 000000014001e700 f i LIBCMT:new.obj
 0001:0001d73c       ??8type_info@@QEBA_NAEBV0@@Z 000000014001e73c f   LIBCMT:typinfo.obj
 0001:0001d75c       ??_Gtype_info@@UEAAPEAXI@Z 000000014001e75c f i LIBCMT:typinfo.obj
 0001:0001d75c       ??_Etype_info@@UEAAPEAXI@Z 000000014001e75c f i LIBCMT:typinfo.obj
 0001:0001d798       free                       000000014001e798 f   LIBCMT:free.obj
 0001:0001d7d8       memcpy_s                   000000014001e7d8 f   LIBCMT:memcpy_s.obj
 0001:0001d860       ??_U@YAPEAX_K@Z            000000014001e860 f   LIBCMT:new2.obj
 0001:0001d868       ??0_LocaleUpdate@@QEAA@PEAUlocaleinfo_struct@@@Z 000000014001e868 f i LIBCMT:mbscmp.obj
 0001:0001d910       _mbscmp                    000000014001e910 f   LIBCMT:mbscmp.obj
 0001:0001d918       _mbscmp_l                  000000014001e918 f   LIBCMT:mbscmp.obj
 0001:0001da10       memcpy                     000000014001ea10 f   LIBCMT:memcpy.obj
 0001:0001da10       memmove                    000000014001ea10 f   LIBCMT:memcpy.obj
 0001:0001df78       __raise_securityfailure    000000014001ef78 f   LIBCMT:gs_report.obj
 0001:0001dfc4       __report_gsfailure         000000014001efc4 f   LIBCMT:gs_report.obj
 0001:0001e098       __report_rangecheckfailure 000000014001f098 f   LIBCMT:gs_report.obj
 0001:0001e0ac       __report_securityfailure   000000014001f0ac f   LIBCMT:gs_report.obj
 0001:0001e3fc       _mktime64                  000000014001f3fc f   LIBCMT:mktime64.obj
 0001:0001e408       _mbscspn                   000000014001f408 f   LIBCMT:mbscspn.obj
 0001:0001e410       _mbscspn_l                 000000014001f410 f   LIBCMT:mbscspn.obj
 0001:0001e4ec       _mbsspn                    000000014001f4ec f   LIBCMT:mbsspn.obj
 0001:0001e4f4       _mbsspn_l                  000000014001f4f4 f   LIBCMT:mbsspn.obj
 0001:0001e5d0       _mbschr                    000000014001f5d0 f   LIBCMT:mbschr.obj
 0001:0001e5d8       _mbschr_l                  000000014001f5d8 f   LIBCMT:mbschr.obj
 0001:0001e698       _mbspbrk                   000000014001f698 f   LIBCMT:mbspbrk.obj
 0001:0001e6a0       _mbspbrk_l                 000000014001f6a0 f   LIBCMT:mbspbrk.obj
 0001:0001e7ec       _ismbblead                 000000014001f7ec f   LIBCMT:ismbbyte.obj
 0001:0001e800       _strdup                    000000014001f800 f   LIBCMT:strdup.obj
 0001:0001e870       _mbsinc                    000000014001f870 f   LIBCMT:mbsinc.obj
 0001:0001e8b4       _mbsrchr                   000000014001f8b4 f   LIBCMT:mbsrchr.obj
 0001:0001e8bc       _mbsrchr_l                 000000014001f8bc f   LIBCMT:mbsrchr.obj
 0001:0001e978       WinMainCRTStartup          000000014001f978 f   LIBCMT:wincrt0.obj
 0001:0001eb44       _recalloc                  000000014001fb44 f   LIBCMT:recalloc.obj
 0001:0001ebe0       memset                     000000014001fbe0 f   LIBCMT:memset.obj
 0001:0001ee0c       __crtCorExitProcess        000000014001fe0c f   LIBCMT:crt0dat.obj
 0001:0001ee50       __crtExitProcess           000000014001fe50 f   LIBCMT:crt0dat.obj
 0001:0001ee68       _amsg_exit                 000000014001fe68 f   LIBCMT:crt0dat.obj
 0001:0001ee90       _c_exit                    000000014001fe90 f   LIBCMT:crt0dat.obj
 0001:0001eea0       _cexit                     000000014001fea0 f   LIBCMT:crt0dat.obj
 0001:0001eeb0       _cinit                     000000014001feb0 f   LIBCMT:crt0dat.obj
 0001:0001ef48       _exit                      000000014001ff48 f   LIBCMT:crt0dat.obj
 0001:0001ef54       _init_pointers             000000014001ff54 f   LIBCMT:crt0dat.obj
 0001:0001f000       _initterm_e                0000000140020000 f   LIBCMT:crt0dat.obj
 0001:0001f03c       _lockexit                  000000014002003c f   LIBCMT:crt0dat.obj
 0001:0001f048       _unlockexit                0000000140020048 f   LIBCMT:crt0dat.obj
 0001:0001f1ec       exit                       00000001400201ec f   LIBCMT:crt0dat.obj
 0001:0001f1f8       _msize                     00000001400201f8 f   LIBCMT:msize.obj
 0001:0001f234       _calloc_crt                0000000140020234 f   LIBCMT:crtheap.obj
 0001:0001f2b4       _malloc_crt                00000001400202b4 f   LIBCMT:crtheap.obj
 0001:0001f330       _realloc_crt               0000000140020330 f   LIBCMT:crtheap.obj
 0001:0001f3b4       _recalloc_crt              00000001400203b4 f   LIBCMT:crtheap.obj
 0001:0001f438       __C_specific_handler       0000000140020438 f   LIBCMT:chandler.obj
 0001:0001f61c       malloc                     000000014002061c f   LIBCMT:malloc.obj
 0001:0001f6d4       ??0exception@std@@QEAA@AEBQEBD@Z 00000001400206d4 f   LIBCMT:stdexcpt.obj
 0001:0001f704       ??0exception@std@@QEAA@AEBQEBDH@Z 0000000140020704 f   LIBCMT:stdexcpt.obj
 0001:0001f720       ??0exception@std@@QEAA@AEBV01@@Z 0000000140020720 f   LIBCMT:stdexcpt.obj
 0001:0001f74c       ??1exception@std@@UEAA@XZ  000000014002074c f   LIBCMT:stdexcpt.obj
 0001:0001f75c       ??4exception@std@@QEAAAEAV01@AEBV01@@Z 000000014002075c f   LIBCMT:stdexcpt.obj
 0001:0001f7a0       ??_Eexception@std@@UEAAPEAXI@Z 00000001400207a0 f i LIBCMT:stdexcpt.obj
 0001:0001f7a0       ??_Gexception@std@@UEAAPEAXI@Z 00000001400207a0 f i LIBCMT:stdexcpt.obj
 0001:0001f7dc       ?_Copy_str@exception@std@@AEAAXPEBD@Z 00000001400207dc f   LIBCMT:stdexcpt.obj
 0001:0001f838       ?_Tidy@exception@std@@AEAAXXZ 0000000140020838 f   LIBCMT:stdexcpt.obj
 0001:0001f860       ?what@exception@std@@UEBAPEBDXZ 0000000140020860 f   LIBCMT:stdexcpt.obj
 0001:0001f874       _callnewh                  0000000140020874 f   LIBCMT:handler.obj
 0001:0001f8a8       _initp_heap_handler        00000001400208a8 f   LIBCMT:handler.obj
 0001:0001f8b0       _CxxThrowException         00000001400208b0 f   LIBCMT:throw.obj
 0001:0001f990       strcmp                     0000000140020990 f   LIBCMT:strcmp.obj
 0001:0001f9f8       ?_Type_info_dtor@type_info@@CAXPEAV1@@Z 00000001400209f8 f   LIBCMT:typname.obj
 0001:0001fa64       __doserrno                 0000000140020a64 f   LIBCMT:dosmap.obj
 0001:0001fa84       _dosmaperr                 0000000140020a84 f   LIBCMT:dosmap.obj
 0001:0001fad4       _errno                     0000000140020ad4 f   LIBCMT:dosmap.obj
 0001:0001faf4       _get_errno_from_oserr      0000000140020af4 f   LIBCMT:dosmap.obj
 0001:0001fb44       _heap_init                 0000000140020b44 f   LIBCMT:heapinit.obj
 0001:0001fb64       _call_reportfault          0000000140020b64 f   LIBCMT:invarg.obj
 0001:0001fc58       _initp_misc_invarg         0000000140020c58 f   LIBCMT:invarg.obj
 0001:0001fc60       _invalid_parameter         0000000140020c60 f   LIBCMT:invarg.obj
 0001:0001fcc8       _invalid_parameter_noinfo  0000000140020cc8 f   LIBCMT:invarg.obj
 0001:0001fce8       _invoke_watson             0000000140020ce8 f   LIBCMT:invarg.obj
 0001:0001fd24       __addlocaleref             0000000140020d24 f   LIBCMT:localref.obj
 0001:0001fdb0       __freetlocinfo             0000000140020db0 f   LIBCMT:localref.obj
 0001:0001ff48       __removelocaleref          0000000140020f48 f   LIBCMT:localref.obj
 0001:0001ffec       __updatetlocinfo           0000000140020fec f   LIBCMT:localref.obj
 0001:00020064       _updatetlocinfoEx_nolock   0000000140021064 f   LIBCMT:localref.obj
 0001:000200c8       __initmbctable             00000001400210c8 f   LIBCMT:mbctype.obj
 0001:000203e4       __updatetmbcinfo           00000001400213e4 f   LIBCMT:mbctype.obj
 0001:000204a0       _setmbcp                   00000001400214a0 f   LIBCMT:mbctype.obj
 0001:000206e4       _setmbcp_nolock            00000001400216e4 f   LIBCMT:mbctype.obj
 0001:00020994       _freefls                   0000000140021994 f   LIBCMT:tidtable.obj
 0001:00020ac8       _getptd                    0000000140021ac8 f   LIBCMT:tidtable.obj
 0001:00020aec       _getptd_noexit             0000000140021aec f   LIBCMT:tidtable.obj
 0001:00020b70       _initptd                   0000000140021b70 f   LIBCMT:tidtable.obj
 0001:00020c34       _mtinit                    0000000140021c34 f   LIBCMT:tidtable.obj
 0001:00020cb4       _mtterm                    0000000140021cb4 f   LIBCMT:tidtable.obj
 0001:00020cd8       __isa_available_init       0000000140021cd8 f   LIBCMT:cpu_disp.obj
 0001:00020e7c       __crt_debugger_hook        0000000140021e7c f   LIBCMT:dbghook.obj
 0001:00020e84       __crtCaptureCurrentContext 0000000140021e84 f   LIBCMT:winapisupp.obj
 0001:00020ef4       __crtCapturePreviousContext 0000000140021ef4 f   LIBCMT:winapisupp.obj
 0001:00020f68       __crtFlsAlloc              0000000140021f68 f   LIBCMT:winapisupp.obj
 0001:00020f84       __crtFlsFree               0000000140021f84 f   LIBCMT:winapisupp.obj
 0001:00020fa0       __crtFlsGetValue           0000000140021fa0 f   LIBCMT:winapisupp.obj
 0001:00020fbc       __crtFlsSetValue           0000000140021fbc f   LIBCMT:winapisupp.obj
 0001:00020fd8       __crtGetShowWindowMode     0000000140021fd8 f   LIBCMT:winapisupp.obj
 0001:00021004       __crtInitializeCriticalSectionEx 0000000140022004 f   LIBCMT:winapisupp.obj
 0001:00021030       __crtIsPackagedApp         0000000140022030 f   LIBCMT:winapisupp.obj
 0001:0002107c       __crtLoadWinApiPointers    000000014002207c f   LIBCMT:winapisupp.obj
 0001:00021478       __crtSetUnhandledExceptionFilter 0000000140022478 f   LIBCMT:winapisupp.obj
 0001:00021480       __crtSleep                 0000000140022480 f   LIBCMT:winapisupp.obj
 0001:00021488       __crtTerminateProcess      0000000140022488 f   LIBCMT:winapisupp.obj
 0001:000214a8       __crtUnhandledException    00000001400224a8 f   LIBCMT:winapisupp.obj
 0001:000214c8       __daylight                 00000001400224c8 f   LIBCMT:timeset.obj
 0001:000214d0       __dstbias                  00000001400224d0 f   LIBCMT:timeset.obj
 0001:000214d8       __timezone                 00000001400224d8 f   LIBCMT:timeset.obj
 0001:000214e0       __tzname                   00000001400224e0 f   LIBCMT:timeset.obj
 0001:000214e8       _get_daylight              00000001400224e8 f   LIBCMT:timeset.obj
 0001:00021518       _get_dstbias               0000000140022518 f   LIBCMT:timeset.obj
 0001:00021548       _get_timezone              0000000140022548 f   LIBCMT:timeset.obj
 0001:00021578       _gmtime64_s                0000000140022578 f   LIBCMT:gmtime64.obj
 0001:00021848       _localtime64_s             0000000140022848 f   LIBCMT:loctim64.obj
 0001:00021b54       __tzset                    0000000140022b54 f   LIBCMT:tzset.obj
 0001:00021b90       _isindst                   0000000140022b90 f   LIBCMT:tzset.obj
 0001:000225a0       __GSHandlerCheck           00000001400235a0 f   LIBCMT:gshandler.obj
 0001:000225c0       __GSHandlerCheckCommon     00000001400235c0 f   LIBCMT:gshandler.obj
 0001:00022624       strcspn                    0000000140023624 f   LIBCMT:strcspn.obj
 0001:000226c4       strspn                     00000001400236c4 f   LIBCMT:strspn.obj
 0001:00022788       strchr                     0000000140023788 f   LIBCMT:strchr.obj
 0001:00022814       strpbrk                    0000000140023814 f   LIBCMT:strpbrk.obj
 0001:000228b8       ?_inconsistency@@YAXXZ     00000001400238b8 f   LIBCMT:hooks.obj
 0001:000228d8       ?terminate@@YAXXZ          00000001400238d8 f   LIBCMT:hooks.obj
 0001:000228f8       _initp_eh_hooks            00000001400238f8 f   LIBCMT:hooks.obj
 0001:00022918       abort                      0000000140023918 f   LIBCMT:abort.obj
 0001:00022970       _initp_misc_purevirt       0000000140023970 f   LIBCMT:inithelp.obj
 0001:00022978       strcpy_s                   0000000140023978 f   LIBCMT:strcpy_s.obj
 0001:000229f0       strlen                     00000001400239f0 f   LIBCMT:strlen.obj
 0001:00022a98       strrchr                    0000000140023a98 f   LIBCMT:strrchr.obj
 0001:00022bdc       ?__CxxUnhandledExceptionFilter@@YAJPEAU_EXCEPTION_POINTERS@@@Z 0000000140023bdc f   LIBCMT:unhandld.obj
 0001:00022c14       __CxxSetUnhandledExceptionFilter 0000000140023c14 f   LIBCMT:unhandld.obj
 0001:00022c2c       _XcptFilter                0000000140023c2c f   LIBCMT:winxfltr.obj
 0001:00022df8       _ioinit                    0000000140023df8 f   LIBCMT:ioinit.obj
 0001:00023128       _setargv                   0000000140024128 f   LIBCMT:stdargv.obj
 0001:000233e4       _setenvp                   00000001400243e4 f   LIBCMT:stdenvp.obj
 0001:00023518       _FF_MSGBANNER              0000000140024518 f   LIBCMT:crt0msg.obj
 0001:0002355c       _GET_RTERRMSG              000000014002455c f   LIBCMT:crt0msg.obj
 0001:0002358c       _NMSG_WRITE                000000014002458c f   LIBCMT:crt0msg.obj
 0001:000237fc       __set_app_type             00000001400247fc f   LIBCMT:errmode.obj
 0001:00023804       _set_error_mode            0000000140024804 f   LIBCMT:errmode.obj
 0001:00023844       __security_init_cookie     0000000140024844 f   LIBCMT:gs_support.obj
 0001:000238f0       _RTC_Initialize            00000001400248f0 f   LIBCMT:initsect.obj
 0001:00023928       _RTC_Terminate             0000000140024928 f   LIBCMT:initsect.obj
 0001:00023960       __crtGetEnvironmentStringsA 0000000140024960 f   LIBCMT:a_env.obj
 0001:00023a54       _wincmdln                  0000000140024a54 f   LIBCMT:wincmdln.obj
 0001:00023ad0       realloc                    0000000140024ad0 f   LIBCMT:realloc.obj
 0001:00023ba4       _lock                      0000000140024ba4 f   LIBCMT:mlock.obj
 0001:00023be8       _mtdeletelocks             0000000140024be8 f   LIBCMT:mlock.obj
 0001:00023c70       _mtinitlocknum             0000000140024c70 f   LIBCMT:mlock.obj
 0001:00023d30       _mtinitlocks               0000000140024d30 f   LIBCMT:mlock.obj
 0001:00023d94       _unlock                    0000000140024d94 f   LIBCMT:mlock.obj
 0001:00023db0       _FindPESection             0000000140024db0 f   LIBCMT:pesect.obj
 0001:00023e00       _IsNonwritableInCurrentImage 0000000140024e00 f   LIBCMT:pesect.obj
 0001:00023e50       _ValidateImageBase         0000000140024e50 f   LIBCMT:pesect.obj
 0001:00023e80       _initp_misc_cfltcvt_tab    0000000140024e80 f   LIBCMT:cmiscdat.obj
 0001:00023ebc       __get_sigabrt              0000000140024ebc f   LIBCMT:winsig.obj
 0001:00023ecc       _initp_misc_winsig         0000000140024ecc f   LIBCMT:winsig.obj
 0001:00023eec       raise                      0000000140024eec f   LIBCMT:winsig.obj
 0001:00024120       _initp_misc_rand_s         0000000140025120 f   LIBCMT:rand_s.obj
 0001:00024128       _calloc_impl               0000000140025128 f   LIBCMT:calloc_impl.obj
 0001:000241e0       _local_unwind              00000001400251e0 f   LIBCMT:jmpuwind.obj
 0001:00024210       _NLG_Notify                0000000140025210 f   LIBCMT:jmpuwind.obj
 0001:00024230       __NLG_Dispatch2            0000000140025230 f   LIBCMT:jmpuwind.obj
 0001:00024240       __NLG_Return2              0000000140025240 f   LIBCMT:jmpuwind.obj
 0001:00024244       __free_lconv_mon           0000000140025244 f   LIBCMT:initmon.obj
 0001:00024350       __free_lconv_num           0000000140025350 f   LIBCMT:initnum.obj
 0001:000243bc       __free_lc_time             00000001400253bc f   LIBCMT:inittime.obj
 0001:00024aa4       __crtLCMapStringA          0000000140025aa4 f   LIBCMT:a_map.obj
 0001:00024cb4       __crtGetStringTypeA        0000000140025cb4 f   LIBCMT:a_str.obj
 0001:00024d30       atol                       0000000140025d30 f   LIBCMT:atox.obj
 0001:00024d3c       strncpy_s                  0000000140025d3c f   LIBCMT:strncpy_s.obj
 0001:00024df8       _getenv_helper_nolock      0000000140025df8 f   LIBCMT:getenv.obj
 0001:00024e9c       ___lc_codepage_func        0000000140025e9c f   LIBCMT:initctyp.obj
 0001:00024ed4       GetTableIndexFromLocaleName 0000000140025ed4 f   LIBCMT:winapinls.obj
 0001:00024f60       __crtCompareStringEx       0000000140025f60 f   LIBCMT:winapinls.obj
 0001:00024ff0       __crtDownlevelLocaleNameToLCID 0000000140025ff0 f   LIBCMT:winapinls.obj
 0001:00025024       __crtLCMapStringEx         0000000140026024 f   LIBCMT:winapinls.obj
 0001:000250b4       __wcsnicmp_ascii           00000001400260b4 f   LIBCMT:winapinls.obj
 0001:0002510c       __initstdio                000000014002610c f   LIBCMT:_file.obj
 0001:000251a4       __endstdio                 00000001400261a4 f   LIBCMT:_file.obj
 0001:000251d4       _lock_file                 00000001400261d4 f   LIBCMT:_file.obj
 0001:0002523c       _lock_file2                000000014002623c f   LIBCMT:_file.obj
 0001:00025270       _unlock_file               0000000140026270 f   LIBCMT:_file.obj
 0001:000252c0       _unlock_file2              00000001400262c0 f   LIBCMT:_file.obj
 0001:000252e0       wcscat_s                   00000001400262e0 f   LIBCMT:wcscat_s.obj
 0001:00025368       wcscpy_s                   0000000140026368 f   LIBCMT:wcscpy_s.obj
 0001:000253d4       wcslen                     00000001400263d4 f   LIBCMT:wcslen.obj
 0001:000253f0       wcsncpy_s                  00000001400263f0 f   LIBCMT:wcsncpy_s.obj
 0001:000254bc       __crtMessageBoxW           00000001400264bc f   LIBCMT:crtmboxw.obj
 0001:00025730       _fptrap                    0000000140026730 f   LIBCMT:crt0fp.obj
 0001:0002573c       _fileno                    000000014002673c f   LIBCMT:fileno.obj
 0001:00025764       _isatty                    0000000140026764 f   LIBCMT:isatty.obj
 0001:000257c4       _fflush_nolock             00000001400267c4 f   LIBCMT:fflush.obj
 0001:00025810       _flush                     0000000140026810 f   LIBCMT:fflush.obj
 0001:0002588c       _flushall                  000000014002688c f   LIBCMT:fflush.obj
 0001:00025980       _locterm                   0000000140026980 f   LIBCMT:wsetloca.obj
 0001:000259e0       _alloca_probe              00000001400269e0 f   LIBCMT:chkstk.obj
 0001:000259e0       __chkstk                   00000001400269e0 f   LIBCMT:chkstk.obj
 0001:00025c6c       strtol                     0000000140026c6c f   LIBCMT:strtol.obj
 0001:00025c9c       __wtomb_environ            0000000140026c9c f   LIBCMT:wtombenv.obj
 0001:00025d90       _mbsnbicoll                0000000140026d90 f   LIBCMT:mbsnbico.obj
 0001:00025d98       _mbsnbicoll_l              0000000140026d98 f   LIBCMT:mbsnbico.obj
 0001:00025e98       _fcloseall                 0000000140026e98 f   LIBCMT:closeall.obj
 0001:00025f40       _commit                    0000000140026f40 f   LIBCMT:commit.obj
 0001:00026018       _write                     0000000140027018 f   LIBCMT:write.obj
 0001:000260fc       _write_nolock              00000001400270fc f   LIBCMT:write.obj
 0001:00026900       memcmp                     0000000140027900 f   LIBCMT:memcmp.obj
 0001:000269c8       _isctype_l                 00000001400279c8 f   LIBCMT:isctype.obj
 0001:00026aa4       __crt_atoflt_l             0000000140027aa4 f   LIBCMT:atodbl.obj
 0001:00026b74       _atodbl_l                  0000000140027b74 f   LIBCMT:atodbl.obj
 0001:00026c3c       _atoflt_l                  0000000140027c3c f   LIBCMT:atodbl.obj
 0001:00026c44       _fpmath                    0000000140027c44 f   LIBCMT:fpinit.obj
 0001:00026c4c       _cfltcvt_init              0000000140027c4c f   LIBCMT:fpinit.obj
 0001:00026cd4       __crtsetenv                0000000140027cd4 f   LIBCMT:setenv.obj
 0001:00027088       _strnicoll_l               0000000140028088 f   LIBCMT:strnicol.obj
 0001:000274f0       __crtCompareStringA        00000001400284f0 f   LIBCMT:a_cmp.obj
 0001:0002757c       _fclose_nolock             000000014002857c f   LIBCMT:fclose.obj
 0001:000275f8       fclose                     00000001400285f8 f   LIBCMT:fclose.obj
 0001:00027660       __lock_fhandle             0000000140028660 f   LIBCMT:osfinfo.obj
 0001:000276f8       _free_osfhnd               00000001400286f8 f   LIBCMT:osfinfo.obj
 0001:000277a4       _get_osfhandle             00000001400287a4 f   LIBCMT:osfinfo.obj
 0001:00027818       _unlock_fhandle            0000000140028818 f   LIBCMT:osfinfo.obj
 0001:00027844       _isleadbyte_l              0000000140028844 f i LIBCMT:_wctype.obj
 0001:00027888       isleadbyte                 0000000140028888 f i LIBCMT:_wctype.obj
 0001:000278d0       _lseeki64_nolock           00000001400288d0 f   LIBCMT:lseeki64.obj
 0001:00027964       _mbtowc_l                  0000000140028964 f   LIBCMT:mbtowc.obj
 0001:00027ab8       mbtowc                     0000000140028ab8 f   LIBCMT:mbtowc.obj
 0001:00027ac0       _putwch_nolock             0000000140028ac0 f   LIBCMT:putwch.obj
 0001:00027b20       _ld12tod                   0000000140028b20 f   LIBCMT:intrncvt.obj
 0001:000280d8       _ld12tof                   00000001400290d8 f   LIBCMT:intrncvt.obj
 0001:00028690       __strgtold12_l             0000000140029690 f   LIBCMT:strgtold.obj
 0001:00028ef4       _cfltcvt                   0000000140029ef4 f   LIBCMT:cvt.obj
 0001:00028f18       _cfltcvt_l                 0000000140029f18 f   LIBCMT:cvt.obj
 0001:00028f98       _cftoa_l                   0000000140029f98 f   LIBCMT:cvt.obj
 0001:00029544       _cftoe_l                   000000014002a544 f   LIBCMT:cvt.obj
 0001:000297a0       _cftof_l                   000000014002a7a0 f   LIBCMT:cvt.obj
 0001:00029874       _cftog_l                   000000014002a874 f   LIBCMT:cvt.obj
 0001:000299a8       _cropzeros                 000000014002a9a8 f   LIBCMT:cvt.obj
 0001:000299b0       _cropzeros_l               000000014002a9b0 f   LIBCMT:cvt.obj
 0001:00029a48       _fassign                   000000014002aa48 f   LIBCMT:cvt.obj
 0001:00029a50       _fassign_l                 000000014002aa50 f   LIBCMT:cvt.obj
 0001:00029a90       _forcdecpt                 000000014002aa90 f   LIBCMT:cvt.obj
 0001:00029a98       _forcdecpt_l               000000014002aa98 f   LIBCMT:cvt.obj
 0001:00029b18       _positive                  000000014002ab18 f   LIBCMT:cvt.obj
 0001:00029b2c       __ascii_strnicmp           000000014002ab2c f   LIBCMT:strnicmp.obj
 0001:00029b74       _strnicmp_l                000000014002ab74 f   LIBCMT:strnicmp.obj
 0001:00029c50       _close                     000000014002ac50 f   LIBCMT:close.obj
 0001:00029d14       _close_nolock              000000014002ad14 f   LIBCMT:close.obj
 0001:00029dd0       _freebuf                   000000014002add0 f   LIBCMT:_freebuf.obj
 0001:00029e08       __termconout               000000014002ae08 f   LIBCMT:initcon.obj
 0001:00029e28       __initconout               000000014002ae28 f   LIBCMT:initcon.obj
 0001:00029e64       __mtold12                  000000014002ae64 f   LIBCMT:mantold.obj
 0001:0002a088       isdigit                    000000014002b088 f i LIBCMT:_ctype.obj
 0001:0002a104       _tolower_l                 000000014002b104 f   LIBCMT:tolower.obj
 0001:0002a258       tolower                    000000014002b258 f   LIBCMT:tolower.obj
 0001:0002a278       _fptostr                   000000014002b278 f   LIBCMT:_fptostr.obj
 0001:0002a344       __dtold                    000000014002b344 f   LIBCMT:cfout.obj
 0001:0002a414       _fltout2                   000000014002b414 f   LIBCMT:cfout.obj
 0001:0002a4cc       $I10_OUTPUT                000000014002b4cc f   LIBCMT:x10fout.obj
 0001:0002afa4       IsProcessorFeaturePresent  000000014002bfa4 f   kernel32:KERNEL32.dll
 0001:0002afaa       RtlUnwindEx                000000014002bfaa f   kernel32:KERNEL32.dll
 0001:0002afb0       ?_GetEstablisherFrame@@YAPEA_KPEA_KPEAU_xDISPATCHER_CONTEXT@@PEBU_s_FuncInfo@@0@Z 000000014002bfb0 f   LIBCMT:trnsctrl.obj
 0001:0002b07c       ?_GetRangeOfTrysToCheck@@YAPEBU_s_TryBlockMapEntry@@PEA_KPEBU_s_FuncInfo@@HHPEAI2PEAU_xDISPATCHER_CONTEXT@@@Z 000000014002c07c f   LIBCMT:trnsctrl.obj
 0001:0002b1a8       ?__FrameUnwindToEmptyState@@YAXPEA_KPEAU_xDISPATCHER_CONTEXT@@PEBU_s_FuncInfo@@@Z 000000014002c1a8 f   LIBCMT:trnsctrl.obj
 0001:0002b23c       ?__SehTransFilter@@YAHPEAU_EXCEPTION_POINTERS@@PEAUEHExceptionRecord@@PEA_KPEAU_CONTEXT@@PEAU_xDISPATCHER_CONTEXT@@PEBU_s_FuncInfo@@PEAH@Z 000000014002c23c f   LIBCMT:trnsctrl.obj
 0001:0002b2e0       _CallSETranslator          000000014002c2e0 f   LIBCMT:trnsctrl.obj
 0001:0002b334       _CreateFrameInfo           000000014002c334 f   LIBCMT:trnsctrl.obj
 0001:0002b378       _FindAndUnlinkFrame        000000014002c378 f   LIBCMT:trnsctrl.obj
 0001:0002b3d8       _GetImageBase              000000014002c3d8 f   LIBCMT:trnsctrl.obj
 0001:0002b3f0       _GetThrowImageBase         000000014002c3f0 f   LIBCMT:trnsctrl.obj
 0001:0002b408       _IsExceptionObjectToBeDestroyed 000000014002c408 f   LIBCMT:trnsctrl.obj
 0001:0002b43c       _SetImageBase              000000014002c43c f   LIBCMT:trnsctrl.obj
 0001:0002b458       _SetThrowImageBase         000000014002c458 f   LIBCMT:trnsctrl.obj
 0001:0002b474       _UnwindNestedFrames        000000014002c474 f   LIBCMT:trnsctrl.obj
 0001:0002b598       __CxxFrameHandler3         000000014002c598 f   LIBCMT:trnsctrl.obj
 0001:0002b620       __GSHandlerCheck_EH        000000014002c620 f   LIBCMT:gshandlereh.obj
 0001:0002b6b0       __DestructExceptionObject  000000014002c6b0 f   LIBCMT:frame.obj
 0001:0002b720       ??0bad_exception@std@@QEAA@AEBV01@@Z 000000014002c720 f i LIBCMT:frame.obj
 0001:0002b744       ??1bad_exception@std@@UEAA@XZ 000000014002c744 f i LIBCMT:frame.obj
 0001:0002b754       ??_Gbad_exception@std@@UEAAPEAXI@Z 000000014002c754 f i LIBCMT:frame.obj
 0001:0002b754       ??_Ebad_exception@std@@UEAAPEAXI@Z 000000014002c754 f i LIBCMT:frame.obj
 0001:0002c048       __AdjustPointer            000000014002d048 f   LIBCMT:frame.obj
 0001:0002c06c       __BuildCatchObject         000000014002d06c f   LIBCMT:frame.obj
 0001:0002c124       __BuildCatchObjectHelper   000000014002d124 f   LIBCMT:frame.obj
 0001:0002c374       __CxxCallCatchBlock        000000014002d374 f   LIBCMT:frame.obj
 0001:0002c578       __FrameUnwindFilter        000000014002d578 f   LIBCMT:frame.obj
 0001:0002c5cc       __FrameUnwindToState       000000014002d5cc f   LIBCMT:frame.obj
 0001:0002c760       __InternalCxxFrameHandler  000000014002d760 f   LIBCMT:frame.obj
 0001:0002c984       __TypeMatch                000000014002d984 f   LIBCMT:frame.obj
 0001:0002cab4       ?__GetCurrentState@@YAHPEA_KPEAU_xDISPATCHER_CONTEXT@@PEBU_s_FuncInfo@@@Z 000000014002dab4 f   LIBCMT:ehstate.obj
 0001:0002cadc       ?__GetUnwindTryBlock@@YAHPEA_KPEAU_xDISPATCHER_CONTEXT@@PEBU_s_FuncInfo@@@Z 000000014002dadc f   LIBCMT:ehstate.obj
 0001:0002cb08       ?__SetState@@YAXPEA_KPEAU_xDISPATCHER_CONTEXT@@PEBU_s_FuncInfo@@H@Z 000000014002db08 f   LIBCMT:ehstate.obj
 0001:0002cb14       ?__SetUnwindTryBlock@@YAXPEA_KPEAU_xDISPATCHER_CONTEXT@@PEBU_s_FuncInfo@@H@Z 000000014002db14 f   LIBCMT:ehstate.obj
 0001:0002cb50       ?__StateFromControlPc@@YAHPEBU_s_FuncInfo@@PEAU_xDISPATCHER_CONTEXT@@@Z 000000014002db50 f   LIBCMT:ehstate.obj
 0001:0002cb58       ?__StateFromIp@@YAHPEBU_s_FuncInfo@@PEAU_xDISPATCHER_CONTEXT@@_J@Z 000000014002db58 f   LIBCMT:ehstate.obj
 0001:0002cbe4       ?_ValidateRead@@YAHPEBXI@Z 000000014002dbe4 f   LIBCMT:validate.obj
 0001:0002cbe4       ?_ValidateExecute@@YAHP6A_JXZ@Z 000000014002dbe4 f   LIBCMT:validate.obj
 0001:0002cbe4       ?_ValidateWrite@@YAHPEAXI@Z 000000014002dbe4 f   LIBCMT:validate.obj
 0001:0002cc00       _CallSettingFrame          000000014002dc00 f   LIBCMT:handlers.obj
 0001:0002cc40       _GetNextInstrOffset        000000014002dc40 f   LIBCMT:handlers.obj
 0001:0002dad0       ??__FcModuleState@?1??GetCModuleState@CWinApp@@SAPEAVCModuleState@@XZ@YAXXZ 000000014002ead0 f i Enterdlg.obj
 0002:00000000       __imp_RegCloseKey          000000014002f000     advapi32:ADVAPI32.dll
 0002:00000008       __imp_RegOpenKeyExW        000000014002f008     advapi32:ADVAPI32.dll
 0002:00000010       __imp_RegOpenKeyExA        000000014002f010     advapi32:ADVAPI32.dll
 0002:00000018       __imp_RegQueryValueExA     000000014002f018     advapi32:ADVAPI32.dll
 0002:00000020       \177ADVAPI32_NULL_THUNK_DATA 000000014002f020     advapi32:ADVAPI32.dll
 0002:00000028       __imp_InitCommonControlsEx 000000014002f028     comctl32:COMCTL32.dll
 0002:00000030       \177COMCTL32_NULL_THUNK_DATA 000000014002f030     comctl32:COMCTL32.dll
 0002:00000038       __imp_GetFileTitleA        000000014002f038     comdlg32:COMDLG32.dll
 0002:00000040       __imp_GetSaveFileNameA     000000014002f040     comdlg32:COMDLG32.dll
 0002:00000048       __imp_GetOpenFileNameA     000000014002f048     comdlg32:COMDLG32.dll
 0002:00000050       \177COMDLG32_NULL_THUNK_DATA 000000014002f050     comdlg32:COMDLG32.dll
 0002:00000058       __imp_SetWindowExtEx       000000014002f058     gdi32:GDI32.dll
 0002:00000060       __imp_LPtoDP               000000014002f060     gdi32:GDI32.dll
 0002:00000068       __imp_Ellipse              000000014002f068     gdi32:GDI32.dll
 0002:00000070       __imp_CreateEllipticRgn    000000014002f070     gdi32:GDI32.dll
 0002:00000078       __imp_DeleteObject         000000014002f078     gdi32:GDI32.dll
 0002:00000080       __imp_GetDeviceCaps        000000014002f080     gdi32:GDI32.dll
 0002:00000088       __imp_SetTextAlign         000000014002f088     gdi32:GDI32.dll
 0002:00000090       __imp_SetTextColor         000000014002f090     gdi32:GDI32.dll
 0002:00000098       __imp_SetBkMode            000000014002f098     gdi32:GDI32.dll
 0002:000000a0       __imp_CreateSolidBrush     000000014002f0a0     gdi32:GDI32.dll
 0002:000000a8       __imp_SetBkColor           000000014002f0a8     gdi32:GDI32.dll
 0002:000000b0       __imp_ExtTextOutA          000000014002f0b0     gdi32:GDI32.dll
 0002:000000b8       __imp_SelectObject         000000014002f0b8     gdi32:GDI32.dll
 0002:000000c0       __imp_PatBlt               000000014002f0c0     gdi32:GDI32.dll
 0002:000000c8       __imp_CreatePatternBrush   000000014002f0c8     gdi32:GDI32.dll
 0002:000000d0       __imp_CreateBitmap         000000014002f0d0     gdi32:GDI32.dll
 0002:000000d8       __imp_SetViewportExtEx     000000014002f0d8     gdi32:GDI32.dll
 0002:000000e0       __imp_SetMapMode           000000014002f0e0     gdi32:GDI32.dll
 0002:000000e8       __imp_SetViewportOrgEx     000000014002f0e8     gdi32:GDI32.dll
 0002:000000f0       __imp_SaveDC               000000014002f0f0     gdi32:GDI32.dll
 0002:000000f8       __imp_RestoreDC            000000014002f0f8     gdi32:GDI32.dll
 0002:00000100       __imp_DeleteDC             000000014002f100     gdi32:GDI32.dll
 0002:00000108       __imp_TextOutA             000000014002f108     gdi32:GDI32.dll
 0002:00000110       \177GDI32_NULL_THUNK_DATA  000000014002f110     gdi32:GDI32.dll
 0002:00000118       __imp_InterlockedPushEntrySList 000000014002f118     kernel32:KERNEL32.dll
 0002:00000120       __imp_VirtualAlloc         000000014002f120     kernel32:KERNEL32.dll
 0002:00000128       __imp_VirtualFree          000000014002f128     kernel32:KERNEL32.dll
 0002:00000130       __imp_IsDebuggerPresent    000000014002f130     kernel32:KERNEL32.dll
 0002:00000138       __imp_OutputDebugStringW   000000014002f138     kernel32:KERNEL32.dll
 0002:00000140       __imp_WriteConsoleW        000000014002f140     kernel32:KERNEL32.dll
 0002:00000148       __imp_SetFilePointerEx     000000014002f148     kernel32:KERNEL32.dll
 0002:00000150       __imp_SetStdHandle         000000014002f150     kernel32:KERNEL32.dll
 0002:00000158       __imp_SetEnvironmentVariableA 000000014002f158     kernel32:KERNEL32.dll
 0002:00000160       __imp_GetConsoleMode       000000014002f160     kernel32:KERNEL32.dll
 0002:00000168       __imp_GetConsoleCP         000000014002f168     kernel32:KERNEL32.dll
 0002:00000170       __imp_FlushFileBuffers     000000014002f170     kernel32:KERNEL32.dll
 0002:00000178       __imp_LCMapStringW         000000014002f178     kernel32:KERNEL32.dll
 0002:00000180       __imp_CompareStringW       000000014002f180     kernel32:KERNEL32.dll
 0002:00000188       __imp_GetStringTypeW       000000014002f188     kernel32:KERNEL32.dll
 0002:00000190       __imp_LoadLibraryExW       000000014002f190     kernel32:KERNEL32.dll
 0002:00000198       __imp_HeapReAlloc          000000014002f198     kernel32:KERNEL32.dll
 0002:000001a0       __imp_FreeEnvironmentStringsW 000000014002f1a0     kernel32:KERNEL32.dll
 0002:000001a8       __imp_GetEnvironmentStringsW 000000014002f1a8     kernel32:KERNEL32.dll
 0002:000001b0       __imp_GetSystemTimeAsFileTime 000000014002f1b0     kernel32:KERNEL32.dll
 0002:000001b8       __imp_GetCurrentProcessId  000000014002f1b8     kernel32:KERNEL32.dll
 0002:000001c0       __imp_QueryPerformanceCounter 000000014002f1c0     kernel32:KERNEL32.dll
 0002:000001c8       __imp_GetModuleFileNameW   000000014002f1c8     kernel32:KERNEL32.dll
 0002:000001d0       __imp_InterlockedPopEntrySList 000000014002f1d0     kernel32:KERNEL32.dll
 0002:000001d8       __imp_GetStdHandle         000000014002f1d8     kernel32:KERNEL32.dll
 0002:000001e0       __imp_GetTimeZoneInformation 000000014002f1e0     kernel32:KERNEL32.dll
 0002:000001e8       __imp_GetStartupInfoW      000000014002f1e8     kernel32:KERNEL32.dll
 0002:000001f0       __imp_TlsFree              000000014002f1f0     kernel32:KERNEL32.dll
 0002:000001f8       __imp_TlsSetValue          000000014002f1f8     kernel32:KERNEL32.dll
 0002:00000200       __imp_TlsGetValue          000000014002f200     kernel32:KERNEL32.dll
 0002:00000208       __imp_TlsAlloc             000000014002f208     kernel32:KERNEL32.dll
 0002:00000210       __imp_TerminateProcess     000000014002f210     kernel32:KERNEL32.dll
 0002:00000218       __imp_Sleep                000000014002f218     kernel32:KERNEL32.dll
 0002:00000220       __imp_InitializeCriticalSectionAndSpinCount 000000014002f220     kernel32:KERNEL32.dll
 0002:00000228       __imp_SetUnhandledExceptionFilter 000000014002f228     kernel32:KERNEL32.dll
 0002:00000230       __imp_UnhandledExceptionFilter 000000014002f230     kernel32:KERNEL32.dll
 0002:00000238       __imp_RtlVirtualUnwind     000000014002f238     kernel32:KERNEL32.dll
 0002:00000240       __imp_RtlLookupFunctionEntry 000000014002f240     kernel32:KERNEL32.dll
 0002:00000248       __imp_RtlCaptureContext    000000014002f248     kernel32:KERNEL32.dll
 0002:00000250       __imp_SetLastError         000000014002f250     kernel32:KERNEL32.dll
 0002:00000258       __imp_GetCPInfo            000000014002f258     kernel32:KERNEL32.dll
 0002:00000260       __imp_GetOEMCP             000000014002f260     kernel32:KERNEL32.dll
 0002:00000268       __imp_GetACP               000000014002f268     kernel32:KERNEL32.dll
 0002:00000270       __imp_IsValidCodePage      000000014002f270     kernel32:KERNEL32.dll
 0002:00000278       __imp_RtlPcToFileHeader    000000014002f278     kernel32:KERNEL32.dll
 0002:00000280       __imp_RtlUnwindEx          000000014002f280     kernel32:KERNEL32.dll
 0002:00000288       __imp_HeapSize             000000014002f288     kernel32:KERNEL32.dll
 0002:00000290       __imp_GetModuleHandleExW   000000014002f290     kernel32:KERNEL32.dll
 0002:00000298       __imp_ExitProcess          000000014002f298     kernel32:KERNEL32.dll
 0002:000002a0       __imp_GetCommandLineA      000000014002f2a0     kernel32:KERNEL32.dll
 0002:000002a8       __imp_IsProcessorFeaturePresent 000000014002f2a8     kernel32:KERNEL32.dll
 0002:000002b0       __imp_InitializeSListHead  000000014002f2b0     kernel32:KERNEL32.dll
 0002:000002b8       __imp_GetProcessHeap       000000014002f2b8     kernel32:KERNEL32.dll
 0002:000002c0       __imp_HeapFree             000000014002f2c0     kernel32:KERNEL32.dll
 0002:000002c8       __imp_HeapAlloc            000000014002f2c8     kernel32:KERNEL32.dll
 0002:000002d0       __imp_GlobalDeleteAtom     000000014002f2d0     kernel32:KERNEL32.dll
 0002:000002d8       __imp_LoadLibraryExA       000000014002f2d8     kernel32:KERNEL32.dll
 0002:000002e0       __imp_GetThreadLocale      000000014002f2e0     kernel32:KERNEL32.dll
 0002:000002e8       __imp_GetStringTypeExA     000000014002f2e8     kernel32:KERNEL32.dll
 0002:000002f0       __imp_FindResourceW        000000014002f2f0     kernel32:KERNEL32.dll
 0002:000002f8       __imp_SizeofResource       000000014002f2f8     kernel32:KERNEL32.dll
 0002:00000300       __imp_lstrcpyA             000000014002f300     kernel32:KERNEL32.dll
 0002:00000308       __imp_GetModuleFileNameA   000000014002f308     kernel32:KERNEL32.dll
 0002:00000310       __imp_GetVersionExA        000000014002f310     kernel32:KERNEL32.dll
 0002:00000318       __imp_MultiByteToWideChar  000000014002f318     kernel32:KERNEL32.dll
 0002:00000320       __imp_GetModuleHandleW     000000014002f320     kernel32:KERNEL32.dll
 0002:00000328       __imp_GetProcAddress       000000014002f328     kernel32:KERNEL32.dll
 0002:00000330       __imp_EncodePointer        000000014002f330     kernel32:KERNEL32.dll
 0002:00000338       __imp_DecodePointer        000000014002f338     kernel32:KERNEL32.dll
 0002:00000340       __imp_lstrlenW             000000014002f340     kernel32:KERNEL32.dll
 0002:00000348       __imp_WideCharToMultiByte  000000014002f348     kernel32:KERNEL32.dll
 0002:00000350       __imp_GetFileTime          000000014002f350     kernel32:KERNEL32.dll
 0002:00000358       __imp_GetFileSizeEx        000000014002f358     kernel32:KERNEL32.dll
 0002:00000360       __imp_GetFileAttributesA   000000014002f360     kernel32:KERNEL32.dll
 0002:00000368       __imp_FileTimeToLocalFileTime 000000014002f368     kernel32:KERNEL32.dll
 0002:00000370       __imp_FileTimeToSystemTime 000000014002f370     kernel32:KERNEL32.dll
 0002:00000378       __imp_GetFileSize          000000014002f378     kernel32:KERNEL32.dll
 0002:00000380       __imp_CreateFileA          000000014002f380     kernel32:KERNEL32.dll
 0002:00000388       __imp_WriteFile            000000014002f388     kernel32:KERNEL32.dll
 0002:00000390       __imp_SetFilePointer       000000014002f390     kernel32:KERNEL32.dll
 0002:00000398       __imp_CloseHandle          000000014002f398     kernel32:KERNEL32.dll
 0002:000003a0       __imp_DeleteFileA          000000014002f3a0     kernel32:KERNEL32.dll
 0002:000003a8       __imp_GetFullPathNameA     000000014002f3a8     kernel32:KERNEL32.dll
 0002:000003b0       __imp_GetVolumeInformationA 000000014002f3b0     kernel32:KERNEL32.dll
 0002:000003b8       __imp_FindFirstFileA       000000014002f3b8     kernel32:KERNEL32.dll
 0002:000003c0       __imp_FindClose            000000014002f3c0     kernel32:KERNEL32.dll
 0002:000003c8       __imp_lstrcpynA            000000014002f3c8     kernel32:KERNEL32.dll
 0002:000003d0       __imp_ReadFile             000000014002f3d0     kernel32:KERNEL32.dll
 0002:000003d8       __imp_MulDiv               000000014002f3d8     kernel32:KERNEL32.dll
 0002:000003e0       __imp_lstrcmpiA            000000014002f3e0     kernel32:KERNEL32.dll
 0002:000003e8       __imp_lstrcmpA             000000014002f3e8     kernel32:KERNEL32.dll
 0002:000003f0       __imp_lstrlenA             000000014002f3f0     kernel32:KERNEL32.dll
 0002:000003f8       __imp_LeaveCriticalSection 000000014002f3f8     kernel32:KERNEL32.dll
 0002:00000400       __imp_EnterCriticalSection 000000014002f400     kernel32:KERNEL32.dll
 0002:00000408       __imp_GetCurrentThreadId   000000014002f408     kernel32:KERNEL32.dll
 0002:00000410       __imp_RaiseException       000000014002f410     kernel32:KERNEL32.dll
 0002:00000418       __imp_DeleteCriticalSection 000000014002f418     kernel32:KERNEL32.dll
 0002:00000420       __imp_CreateFileW          000000014002f420     kernel32:KERNEL32.dll
 0002:00000428       __imp_InitializeCriticalSectionEx 000000014002f428     kernel32:KERNEL32.dll
 0002:00000430       __imp_GetLastError         000000014002f430     kernel32:KERNEL32.dll
 0002:00000438       __imp_GetCurrentProcess    000000014002f438     kernel32:KERNEL32.dll
 0002:00000440       __imp_FlushInstructionCache 000000014002f440     kernel32:KERNEL32.dll
 0002:00000448       __imp_FindResourceA        000000014002f448     kernel32:KERNEL32.dll
 0002:00000450       __imp_LoadResource         000000014002f450     kernel32:KERNEL32.dll
 0002:00000458       __imp_LockResource         000000014002f458     kernel32:KERNEL32.dll
 0002:00000460       __imp_GetFileType          000000014002f460     kernel32:KERNEL32.dll
 0002:00000468       __imp_FreeResource         000000014002f468     kernel32:KERNEL32.dll
 0002:00000470       \177KERNEL32_NULL_THUNK_DATA 000000014002f470     kernel32:KERNEL32.dll
 0002:00000478       __imp_SHGetFileInfoA       000000014002f478     shell32:SHELL32.dll
 0002:00000480       __imp_DragQueryFileA       000000014002f480     shell32:SHELL32.dll
 0002:00000488       __imp_DragFinish           000000014002f488     shell32:SHELL32.dll
 0002:00000490       \177SHELL32_NULL_THUNK_DATA 000000014002f490     shell32:SHELL32.dll
 0002:00000498       __imp_PathIsUNCA           000000014002f498     shlwapi:SHLWAPI.dll
 0002:000004a0       __imp_PathStripToRootA     000000014002f4a0     shlwapi:SHLWAPI.dll
 0002:000004a8       __imp_PathFindExtensionA   000000014002f4a8     shlwapi:SHLWAPI.dll
 0002:000004b0       __imp_PathFindFileNameA    000000014002f4b0     shlwapi:SHLWAPI.dll
 0002:000004b8       __imp_PathRemoveFileSpecW  000000014002f4b8     shlwapi:SHLWAPI.dll
 0002:000004c0       \177SHLWAPI_NULL_THUNK_DATA 000000014002f4c0     shlwapi:SHLWAPI.dll
 0002:000004c8       __imp_DefFrameProcA        000000014002f4c8     user32:USER32.dll
 0002:000004d0       __imp_DispatchMessageA     000000014002f4d0     user32:USER32.dll
 0002:000004d8       __imp_TranslateMessage     000000014002f4d8     user32:USER32.dll
 0002:000004e0       __imp_GetMessageA          000000014002f4e0     user32:USER32.dll
 0002:000004e8       __imp_LoadAcceleratorsW    000000014002f4e8     user32:USER32.dll
 0002:000004f0       __imp_DefMDIChildProcA     000000014002f4f0     user32:USER32.dll
 0002:000004f8       __imp_ShowOwnedPopups      000000014002f4f8     user32:USER32.dll
 0002:00000500       __imp_WinHelpA             000000014002f500     user32:USER32.dll
 0002:00000508       __imp_GetSubMenu           000000014002f508     user32:USER32.dll
 0002:00000510       __imp_GetMenuItemCount     000000014002f510     user32:USER32.dll
 0002:00000518       __imp_DestroyWindow        000000014002f518     user32:USER32.dll
 0002:00000520       __imp_SetActiveWindow      000000014002f520     user32:USER32.dll
 0002:00000528       __imp_GetActiveWindow      000000014002f528     user32:USER32.dll
 0002:00000530       __imp_EnableWindow         000000014002f530     user32:USER32.dll
 0002:00000538       __imp_SetWindowPos         000000014002f538     user32:USER32.dll
 0002:00000540       __imp_TranslateMDISysAccel 000000014002f540     user32:USER32.dll
 0002:00000548       __imp_GetCapture           000000014002f548     user32:USER32.dll
 0002:00000550       __imp_SetCursorPos         000000014002f550     user32:USER32.dll
 0002:00000558       __imp_DestroyCursor        000000014002f558     user32:USER32.dll
 0002:00000560       __imp_OffsetRect           000000014002f560     user32:USER32.dll
 0002:00000568       __imp_InflateRect          000000014002f568     user32:USER32.dll
 0002:00000570       __imp_DrawMenuBar          000000014002f570     user32:USER32.dll
 0002:00000578       __imp_LoadMenuW            000000014002f578     user32:USER32.dll
 0002:00000580       __imp_RedrawWindow         000000014002f580     user32:USER32.dll
 0002:00000588       __imp_GetMenuItemID        000000014002f588     user32:USER32.dll
 0002:00000590       __imp_GetKeyState          000000014002f590     user32:USER32.dll
 0002:00000598       __imp_TranslateAcceleratorA 000000014002f598     user32:USER32.dll
 0002:000005a0       __imp_LoadMenuA            000000014002f5a0     user32:USER32.dll
 0002:000005a8       __imp_BeginDeferWindowPos  000000014002f5a8     user32:USER32.dll
 0002:000005b0       __imp_CopyRect             000000014002f5b0     user32:USER32.dll
 0002:000005b8       __imp_EqualRect            000000014002f5b8     user32:USER32.dll
 0002:000005c0       __imp_DeferWindowPos       000000014002f5c0     user32:USER32.dll
 0002:000005c8       __imp_EndDeferWindowPos    000000014002f5c8     user32:USER32.dll
 0002:000005d0       __imp_BringWindowToTop     000000014002f5d0     user32:USER32.dll
 0002:000005d8       __imp_FillRect             000000014002f5d8     user32:USER32.dll
 0002:000005e0       __imp_MessageBoxA          000000014002f5e0     user32:USER32.dll
 0002:000005e8       __imp_RegisterWindowMessageA 000000014002f5e8     user32:USER32.dll
 0002:000005f0       __imp_LoadStringA          000000014002f5f0     user32:USER32.dll
 0002:000005f8       __imp_CharUpperA           000000014002f5f8     user32:USER32.dll
 0002:00000600       __imp_GetDC                000000014002f600     user32:USER32.dll
 0002:00000608       __imp_GetSysColor          000000014002f608     user32:USER32.dll
 0002:00000610       __imp_IsWindow             000000014002f610     user32:USER32.dll
 0002:00000618       __imp_IsIconic             000000014002f618     user32:USER32.dll
 0002:00000620       __imp_SystemParametersInfoA 000000014002f620     user32:USER32.dll
 0002:00000628       __imp_GetSystemMetrics     000000014002f628     user32:USER32.dll
 0002:00000630       __imp_SetWindowRgn         000000014002f630     user32:USER32.dll
 0002:00000638       __imp_SetCapture           000000014002f638     user32:USER32.dll
 0002:00000640       __imp_SetTimer             000000014002f640     user32:USER32.dll
 0002:00000648       __imp_DrawIcon             000000014002f648     user32:USER32.dll
 0002:00000650       __imp_GetCursorPos         000000014002f650     user32:USER32.dll
 0002:00000658       __imp_KillTimer            000000014002f658     user32:USER32.dll
 0002:00000660       __imp_ReleaseCapture       000000014002f660     user32:USER32.dll
 0002:00000668       __imp_LoadCursorW          000000014002f668     user32:USER32.dll
 0002:00000670       __imp_SetCursor            000000014002f670     user32:USER32.dll
 0002:00000678       __imp_BeginPaint           000000014002f678     user32:USER32.dll
 0002:00000680       __imp_EndPaint             000000014002f680     user32:USER32.dll
 0002:00000688       __imp_wsprintfA            000000014002f688     user32:USER32.dll
 0002:00000690       __imp_GetWindowDC          000000014002f690     user32:USER32.dll
 0002:00000698       __imp_ReleaseDC            000000014002f698     user32:USER32.dll
 0002:000006a0       __imp_ShowScrollBar        000000014002f6a0     user32:USER32.dll
 0002:000006a8       __imp_SetScrollInfo        000000014002f6a8     user32:USER32.dll
 0002:000006b0       __imp_IsChild              000000014002f6b0     user32:USER32.dll
 0002:000006b8       __imp_SetWindowLongA       000000014002f6b8     user32:USER32.dll
 0002:000006c0       __imp_GetForegroundWindow  000000014002f6c0     user32:USER32.dll
 0002:000006c8       __imp_SetFocus             000000014002f6c8     user32:USER32.dll
 0002:000006d0       __imp_GetScrollPos         000000014002f6d0     user32:USER32.dll
 0002:000006d8       __imp_GetScrollRange       000000014002f6d8     user32:USER32.dll
 0002:000006e0       __imp_GetScrollInfo        000000014002f6e0     user32:USER32.dll
 0002:000006e8       __imp_IsWindowVisible      000000014002f6e8     user32:USER32.dll
 0002:000006f0       __imp_ScrollWindow         000000014002f6f0     user32:USER32.dll
 0002:000006f8       __imp_ScreenToClient       000000014002f6f8     user32:USER32.dll
 0002:00000700       __imp_SetScrollPos         000000014002f700     user32:USER32.dll
 0002:00000708       __imp_InvalidateRect       000000014002f708     user32:USER32.dll
 0002:00000710       __imp_GetWindowTextLengthA 000000014002f710     user32:USER32.dll
 0002:00000718       __imp_GetClassNameA        000000014002f718     user32:USER32.dll
 0002:00000720       __imp_GetDlgItem           000000014002f720     user32:USER32.dll
 0002:00000728       __imp_IsDialogMessageA     000000014002f728     user32:USER32.dll
 0002:00000730       __imp_GetLastActivePopup   000000014002f730     user32:USER32.dll
 0002:00000738       __imp_GetDesktopWindow     000000014002f738     user32:USER32.dll
 0002:00000740       __imp_IsWindowEnabled      000000014002f740     user32:USER32.dll
 0002:00000748       __imp_ChildWindowFromPointEx 000000014002f748     user32:USER32.dll
 0002:00000750       __imp_ClientToScreen       000000014002f750     user32:USER32.dll
 0002:00000758       __imp_PtInRect             000000014002f758     user32:USER32.dll
 0002:00000760       __imp_GetDlgCtrlID         000000014002f760     user32:USER32.dll
 0002:00000768       __imp_EnableMenuItem       000000014002f768     user32:USER32.dll
 0002:00000770       __imp_GetFocus             000000014002f770     user32:USER32.dll
 0002:00000778       __imp_CheckMenuItem        000000014002f778     user32:USER32.dll
 0002:00000780       __imp_GetMenuState         000000014002f780     user32:USER32.dll
 0002:00000788       __imp_ModifyMenuA          000000014002f788     user32:USER32.dll
 0002:00000790       __imp_GetWindowTextA       000000014002f790     user32:USER32.dll
 0002:00000798       __imp_SetWindowTextA       000000014002f798     user32:USER32.dll
 0002:000007a0       __imp_GetClassInfoExA      000000014002f7a0     user32:USER32.dll
 0002:000007a8       __imp_CreateWindowExA      000000014002f7a8     user32:USER32.dll
 0002:000007b0       __imp_LoadCursorA          000000014002f7b0     user32:USER32.dll
 0002:000007b8       __imp_LoadIconW            000000014002f7b8     user32:USER32.dll
 0002:000007c0       __imp_LoadIconA            000000014002f7c0     user32:USER32.dll
 0002:000007c8       __imp_GetClassInfoA        000000014002f7c8     user32:USER32.dll
 0002:000007d0       __imp_RegisterClassA       000000014002f7d0     user32:USER32.dll
 0002:000007d8       __imp_SetWindowsHookExA    000000014002f7d8     user32:USER32.dll
 0002:000007e0       __imp_GetClassLongA        000000014002f7e0     user32:USER32.dll
 0002:000007e8       __imp_UnregisterClassA     000000014002f7e8     user32:USER32.dll
 0002:000007f0       __imp_SetWindowLongPtrA    000000014002f7f0     user32:USER32.dll
 0002:000007f8       __imp_DefWindowProcA       000000014002f7f8     user32:USER32.dll
 0002:00000800       __imp_AdjustWindowRectEx   000000014002f800     user32:USER32.dll
 0002:00000808       __imp_DestroyMenu          000000014002f808     user32:USER32.dll
 0002:00000810       __imp_GetMenu              000000014002f810     user32:USER32.dll
 0002:00000818       __imp_SetMenu              000000014002f818     user32:USER32.dll
 0002:00000820       __imp_CallNextHookEx       000000014002f820     user32:USER32.dll
 0002:00000828       __imp_CreateDialogIndirectParamA 000000014002f828     user32:USER32.dll
 0002:00000830       __imp_MonitorFromWindow    000000014002f830     user32:USER32.dll
 0002:00000838       __imp_GetMonitorInfoA      000000014002f838     user32:USER32.dll
 0002:00000840       __imp_GetWindowRect        000000014002f840     user32:USER32.dll
 0002:00000848       __imp_GetClientRect        000000014002f848     user32:USER32.dll
 0002:00000850       __imp_MapWindowPoints      000000014002f850     user32:USER32.dll
 0002:00000858       __imp_SendDlgItemMessageA  000000014002f858     user32:USER32.dll
 0002:00000860       __imp_GetWindow            000000014002f860     user32:USER32.dll
 0002:00000868       __imp_CallWindowProcA      000000014002f868     user32:USER32.dll
 0002:00000870       __imp_GetTopWindow         000000014002f870     user32:USER32.dll
 0002:00000878       __imp_PostMessageA         000000014002f878     user32:USER32.dll
 0002:00000880       __imp_EndDialog            000000014002f880     user32:USER32.dll
 0002:00000888       __imp_UnhookWindowsHookEx  000000014002f888     user32:USER32.dll
 0002:00000890       __imp_GetWindowLongA       000000014002f890     user32:USER32.dll
 0002:00000898       __imp_SendMessageA         000000014002f898     user32:USER32.dll
 0002:000008a0       __imp_GetParent            000000014002f8a0     user32:USER32.dll
 0002:000008a8       __imp_PostQuitMessage      000000014002f8a8     user32:USER32.dll
 0002:000008b0       __imp_ShowWindow           000000014002f8b0     user32:USER32.dll
 0002:000008b8       __imp_UpdateWindow         000000014002f8b8     user32:USER32.dll
 0002:000008c0       __imp_PeekMessageA         000000014002f8c0     user32:USER32.dll
 0002:000008c8       __imp_LoadAcceleratorsA    000000014002f8c8     user32:USER32.dll
 0002:000008d0       \177USER32_NULL_THUNK_DATA 000000014002f8d0     user32:USER32.dll
 0002:000008d8       __imp_CoCreateInstance     000000014002f8d8     ole32:ole32.dll
 0002:000008e0       __imp_CoUninitialize       000000014002f8e0     ole32:ole32.dll
 0002:000008e8       __imp_CoTaskMemFree        000000014002f8e8     ole32:ole32.dll
 0002:000008f0       __imp_CoInitializeEx       000000014002f8f0     ole32:ole32.dll
 0002:000008f8       \177ole32_NULL_THUNK_DATA  000000014002f8f8     ole32:ole32.dll
 0002:00000900       __xc_a                     000000014002f900     LIBCMT:crt0init.obj
 0002:00000948       __xc_z                     000000014002f948     LIBCMT:crt0init.obj
 0002:00000950       __xi_a                     000000014002f950     LIBCMT:crt0init.obj
 0002:00000980       __xi_z                     000000014002f980     LIBCMT:crt0init.obj
 0002:00000988       __xp_a                     000000014002f988     LIBCMT:crt0init.obj
 0002:000009a8       __xp_z                     000000014002f9a8     LIBCMT:crt0init.obj
 0002:000009b0       __xt_a                     000000014002f9b0     LIBCMT:crt0init.obj
 0002:000009b8       __xt_z                     000000014002f9b8     LIBCMT:crt0init.obj
 0002:000009c0       IID_IShellLinkA            000000014002f9c0     uuid:shguids2.obj
 0002:000009d0       CLSID_ShellLink            000000014002f9d0     uuid:shguids2.obj
 0002:000009e0       CLSID_FileOpenDialog       000000014002f9e0     uuid:shguids2.obj
 0002:000009f0       CLSID_FileSaveDialog       000000014002f9f0     uuid:shguids2.obj
 0002:00000a00       IID_IPersistFile           000000014002fa00     uuid:objidl_i.obj
 0002:00000a10       IID_IClassFactory          000000014002fa10     uuid:unknwn_i.obj
 0002:00000a20       GUID_ATLVer110             000000014002fa20     atls:atlbase.obj
 0002:00000a30       ??_C@_1IC@ONKHOIDK@?$AAE?$AAR?$AAR?$AAO?$AAR?$AA?5?$AA?3?$AA?5?$AAU?$AAn?$AAa?$AAb?$AAl?$AAe?$AA?5?$AAt?$AAo?$AA?5?$AAi?$AAn?$AAi?$AAt?$AAi?$AAa?$AAl?$AAi?$AAz?$AAe?$AA?5?$AAc?$AAr?$AAi@ 000000014002fa30     atls:atlbase.obj
 0002:00000ac0       ??_7bad_alloc@std@@6B@     000000014002fac0     LIBCMT:new.obj
 0002:00000ad0       ??_C@_0P@GHFPNOJB@bad?5allocation?$AA@ 000000014002fad0     LIBCMT:new.obj
 0002:00000ae8       ??_7type_info@@6B@         000000014002fae8     LIBCMT:typinfo.obj
 0002:00000b00       ??_C@_1BI@BGOHAHKC@?$AAm?$AAs?$AAc?$AAo?$AAr?$AAe?$AAe?$AA?4?$AAd?$AAl?$AAl?$AA?$AA@ 000000014002fb00     LIBCMT:crt0dat.obj
 0002:00000b18       ??_C@_0P@MIGLKIOC@CorExitProcess?$AA@ 000000014002fb18     LIBCMT:crt0dat.obj
 0002:00000b30       ??_7exception@std@@6B@     000000014002fb30     LIBCMT:stdexcpt.obj
 0002:00000b40       ??_C@_0BC@EOODALEL@Unknown?5exception?$AA@ 000000014002fb40     LIBCMT:stdexcpt.obj
 0002:00000bc0       ??_C@_1M@HPNHIDJI@?$AAj?$AAa?$AA?9?$AAJ?$AAP?$AA?$AA@ 000000014002fbc0     LIBCMT:mbctype.obj
 0002:00000bd0       ??_C@_1M@BIBDDEMK@?$AAz?$AAh?$AA?9?$AAC?$AAN?$AA?$AA@ 000000014002fbd0     LIBCMT:mbctype.obj
 0002:00000be0       ??_C@_1M@JLOOOEGK@?$AAk?$AAo?$AA?9?$AAK?$AAR?$AA?$AA@ 000000014002fbe0     LIBCMT:mbctype.obj
 0002:00000bf0       ??_C@_1M@CLNBBOPM@?$AAz?$AAh?$AA?9?$AAT?$AAW?$AA?$AA@ 000000014002fbf0     LIBCMT:mbctype.obj
 0002:00000bfc       ??_C@_03KOEHGMDN@Sun?$AA@  000000014002fbfc     LIBCMT:nlsdata.obj
 0002:00000c00       ??_C@_03PDAGKDH@Mon?$AA@   000000014002fc00     LIBCMT:nlsdata.obj
 0002:00000c04       ??_C@_03NAGEINEP@Tue?$AA@  000000014002fc04     LIBCMT:nlsdata.obj
 0002:00000c08       ??_C@_03MHOMLAJA@Wed?$AA@  000000014002fc08     LIBCMT:nlsdata.obj
 0002:00000c0c       ??_C@_03IOFIKPDN@Thu?$AA@  000000014002fc0c     LIBCMT:nlsdata.obj
 0002:00000c10       ??_C@_03IDIOELNC@Fri?$AA@  000000014002fc10     LIBCMT:nlsdata.obj
 0002:00000c14       ??_C@_03FEFJNEK@Sat?$AA@   000000014002fc14     LIBCMT:nlsdata.obj
 0002:00000c18       ??_C@_06OOPIFAJ@Sunday?$AA@ 000000014002fc18     LIBCMT:nlsdata.obj
 0002:00000c20       ??_C@_06JLEDEDGH@Monday?$AA@ 000000014002fc20     LIBCMT:nlsdata.obj
 0002:00000c28       ??_C@_07BAAGCFCM@Tuesday?$AA@ 000000014002fc28     LIBCMT:nlsdata.obj
 0002:00000c30       ??_C@_09DLIGFAKA@Wednesday?$AA@ 000000014002fc30     LIBCMT:nlsdata.obj
 0002:00000c40       ??_C@_08HACCIKIA@Thursday?$AA@ 000000014002fc40     LIBCMT:nlsdata.obj
 0002:00000c4c       ??_C@_06JECMNKMI@Friday?$AA@ 000000014002fc4c     LIBCMT:nlsdata.obj
 0002:00000c58       ??_C@_08INBOOONO@Saturday?$AA@ 000000014002fc58     LIBCMT:nlsdata.obj
 0002:00000c64       ??_C@_03JIHJHPIE@Jan?$AA@  000000014002fc64     LIBCMT:nlsdata.obj
 0002:00000c68       ??_C@_03HJBDCHOM@Feb?$AA@  000000014002fc68     LIBCMT:nlsdata.obj
 0002:00000c6c       ??_C@_03ODNJBKGA@Mar?$AA@  000000014002fc6c     LIBCMT:nlsdata.obj
 0002:00000c70       ??_C@_03LEOLGMJP@Apr?$AA@  000000014002fc70     LIBCMT:nlsdata.obj
 0002:00000c74       ??_C@_03CNMDKL@May?$AA@    000000014002fc74     LIBCMT:nlsdata.obj
 0002:00000c78       ??_C@_03IDFGHECI@Jun?$AA@  000000014002fc78     LIBCMT:nlsdata.obj
 0002:00000c7c       ??_C@_03LBGABGKK@Jul?$AA@  000000014002fc7c     LIBCMT:nlsdata.obj
 0002:00000c80       ??_C@_03IFJFEIGA@Aug?$AA@  000000014002fc80     LIBCMT:nlsdata.obj
 0002:00000c84       ??_C@_03GGCAPAJC@Sep?$AA@  000000014002fc84     LIBCMT:nlsdata.obj
 0002:00000c88       ??_C@_03BMAOKBAD@Oct?$AA@  000000014002fc88     LIBCMT:nlsdata.obj
 0002:00000c8c       ??_C@_03JPJOFNIA@Nov?$AA@  000000014002fc8c     LIBCMT:nlsdata.obj
 0002:00000c90       ??_C@_03MKABNOCG@Dec?$AA@  000000014002fc90     LIBCMT:nlsdata.obj
 0002:00000c98       ??_C@_07CGJPFGJA@January?$AA@ 000000014002fc98     LIBCMT:nlsdata.obj
 0002:00000ca0       ??_C@_08GNJGEPFN@February?$AA@ 000000014002fca0     LIBCMT:nlsdata.obj
 0002:00000cac       ??_C@_05HPCKOFNC@March?$AA@ 000000014002fcac     LIBCMT:nlsdata.obj
 0002:00000cb4       ??_C@_05DMJDNLEJ@April?$AA@ 000000014002fcb4     LIBCMT:nlsdata.obj
 0002:00000cbc       ??_C@_04CNLMGBGM@June?$AA@ 000000014002fcbc     LIBCMT:nlsdata.obj
 0002:00000cc4       ??_C@_04MIEPOIFP@July?$AA@ 000000014002fcc4     LIBCMT:nlsdata.obj
 0002:00000ccc       ??_C@_06LBBHFDDG@August?$AA@ 000000014002fccc     LIBCMT:nlsdata.obj
 0002:00000cd8       ??_C@_09BHHEALKD@September?$AA@ 000000014002fcd8     LIBCMT:nlsdata.obj
 0002:00000ce8       ??_C@_07JJNFCEND@October?$AA@ 000000014002fce8     LIBCMT:nlsdata.obj
 0002:00000cf0       ??_C@_08HCHEGEOA@November?$AA@ 000000014002fcf0     LIBCMT:nlsdata.obj
 0002:00000d00       ??_C@_08EDHMEBNP@December?$AA@ 000000014002fd00     LIBCMT:nlsdata.obj
 0002:00000d0c       ??_C@_02DEDBPAFC@AM?$AA@   000000014002fd0c     LIBCMT:nlsdata.obj
 0002:00000d10       ??_C@_02CJNFDJBF@PM?$AA@   000000014002fd10     LIBCMT:nlsdata.obj
 0002:00000d18       ??_C@_08BPBNCDIB@MM?1dd?1yy?$AA@ 000000014002fd18     LIBCMT:nlsdata.obj
 0002:00000d28       ??_C@_0BE@CKGJFCPC@dddd?0?5MMMM?5dd?0?5yyyy?$AA@ 000000014002fd28     LIBCMT:nlsdata.obj
 0002:00000d40       ??_C@_08JCCMCCIL@HH?3mm?3ss?$AA@ 000000014002fd40     LIBCMT:nlsdata.obj
 0002:00000d50       ??_C@_17MBGCMIPB@?$AAS?$AAu?$AAn?$AA?$AA@ 000000014002fd50     LIBCMT:nlsdata.obj
 0002:00000d58       ??_C@_17KBOMKBF@?$AAM?$AAo?$AAn?$AA?$AA@ 000000014002fd58     LIBCMT:nlsdata.obj
 0002:00000d60       ??_C@_17BMKGEGOJ@?$AAT?$AAu?$AAe?$AA?$AA@ 000000014002fd60     LIBCMT:nlsdata.obj
 0002:00000d68       ??_C@_17CJEDCEPE@?$AAW?$AAe?$AAd?$AA?$AA@ 000000014002fd68     LIBCMT:nlsdata.obj
 0002:00000d70       ??_C@_17PDPHAADD@?$AAT?$AAh?$AAu?$AA?$AA@ 000000014002fd70     LIBCMT:nlsdata.obj
 0002:00000d78       ??_C@_17HFOLPPLP@?$AAF?$AAr?$AAi?$AA?$AA@ 000000014002fd78     LIBCMT:nlsdata.obj
 0002:00000d80       ??_C@_17GGIBDPIH@?$AAS?$AAa?$AAt?$AA?$AA@ 000000014002fd80     LIBCMT:nlsdata.obj
 0002:00000d88       ??_C@_1O@IHNHDHPB@?$AAS?$AAu?$AAn?$AAd?$AAa?$AAy?$AA?$AA@ 000000014002fd88     LIBCMT:nlsdata.obj
 0002:00000d98       ??_C@_1O@MMNBFLIA@?$AAM?$AAo?$AAn?$AAd?$AAa?$AAy?$AA?$AA@ 000000014002fd98     LIBCMT:nlsdata.obj
 0002:00000da8       ??_C@_1BA@ENFBFFEK@?$AAT?$AAu?$AAe?$AAs?$AAd?$AAa?$AAy?$AA?$AA@ 000000014002fda8     LIBCMT:nlsdata.obj
 0002:00000db8       ??_C@_1BE@EBOGMDOH@?$AAW?$AAe?$AAd?$AAn?$AAe?$AAs?$AAd?$AAa?$AAy?$AA?$AA@ 000000014002fdb8     LIBCMT:nlsdata.obj
 0002:00000dd0       ??_C@_1BC@HHMNLIHE@?$AAT?$AAh?$AAu?$AAr?$AAs?$AAd?$AAa?$AAy?$AA?$AA@ 000000014002fdd0     LIBCMT:nlsdata.obj
 0002:00000de8       ??_C@_1O@PDICJHAG@?$AAF?$AAr?$AAi?$AAd?$AAa?$AAy?$AA?$AA@ 000000014002fde8     LIBCMT:nlsdata.obj
 0002:00000df8       ??_C@_1BC@ENMNNPAJ@?$AAS?$AAa?$AAt?$AAu?$AAr?$AAd?$AAa?$AAy?$AA?$AA@ 000000014002fdf8     LIBCMT:nlsdata.obj
 0002:00000e10       ??_C@_17DKNBKCHM@?$AAJ?$AAa?$AAn?$AA?$AA@ 000000014002fe10     LIBCMT:nlsdata.obj
 0002:00000e18       ??_C@_17LMDJEKJN@?$AAF?$AAe?$AAb?$AA?$AA@ 000000014002fe18     LIBCMT:nlsdata.obj
 0002:00000e20       ??_C@_17CKNLEDEC@?$AAM?$AAa?$AAr?$AA?$AA@ 000000014002fe20     LIBCMT:nlsdata.obj
 0002:00000e28       ??_C@_17LFPOIHDD@?$AAA?$AAp?$AAr?$AA?$AA@ 000000014002fe28     LIBCMT:nlsdata.obj
 0002:00000e30       ??_C@_17PNNKMEED@?$AAM?$AAa?$AAy?$AA?$AA@ 000000014002fe30     LIBCMT:nlsdata.obj
 0002:00000e38       ??_C@_17KCJGOCPB@?$AAJ?$AAu?$AAn?$AA?$AA@ 000000014002fe38     LIBCMT:nlsdata.obj
 0002:00000e40       ??_C@_17IJPCKHK@?$AAJ?$AAu?$AAl?$AA?$AA@ 000000014002fe40     LIBCMT:nlsdata.obj
 0002:00000e48       ??_C@_17ICPELBCN@?$AAA?$AAu?$AAg?$AA?$AA@ 000000014002fe48     LIBCMT:nlsdata.obj
 0002:00000e50       ??_C@_17HCHCOKMG@?$AAS?$AAe?$AAp?$AA?$AA@ 000000014002fe50     LIBCMT:nlsdata.obj
 0002:00000e58       ??_C@_17FNLKOI@?$AAO?$AAc?$AAt?$AA?$AA@ 000000014002fe58     LIBCMT:nlsdata.obj
 0002:00000e60       ??_C@_17BBDMLCIG@?$AAN?$AAo?$AAv?$AA?$AA@ 000000014002fe60     LIBCMT:nlsdata.obj
 0002:00000e68       ??_C@_17EGKACKIF@?$AAD?$AAe?$AAc?$AA?$AA@ 000000014002fe68     LIBCMT:nlsdata.obj
 0002:00000e70       ??_C@_1BA@EFMEIEBA@?$AAJ?$AAa?$AAn?$AAu?$AAa?$AAr?$AAy?$AA?$AA@ 000000014002fe70     LIBCMT:nlsdata.obj
 0002:00000e80       ??_C@_1BC@JGDDFFAM@?$AAF?$AAe?$AAb?$AAr?$AAu?$AAa?$AAr?$AAy?$AA?$AA@ 000000014002fe80     LIBCMT:nlsdata.obj
 0002:00000e98       ??_C@_1M@IKEENEDF@?$AAM?$AAa?$AAr?$AAc?$AAh?$AA?$AA@ 000000014002fe98     LIBCMT:nlsdata.obj
 0002:00000ea8       ??_C@_1M@GJNLMHFD@?$AAA?$AAp?$AAr?$AAi?$AAl?$AA?$AA@ 000000014002fea8     LIBCMT:nlsdata.obj
 0002:00000eb8       ??_C@_19EPFLPGAP@?$AAJ?$AAu?$AAn?$AAe?$AA?$AA@ 000000014002feb8     LIBCMT:nlsdata.obj
 0002:00000ec8       ??_C@_19BIFMLPCD@?$AAJ?$AAu?$AAl?$AAy?$AA?$AA@ 000000014002fec8     LIBCMT:nlsdata.obj
 0002:00000ed8       ??_C@_1O@PAHLKOAC@?$AAA?$AAu?$AAg?$AAu?$AAs?$AAt?$AA?$AA@ 000000014002fed8     LIBCMT:nlsdata.obj
 0002:00000ee8       ??_C@_1BE@DKAAMBJL@?$AAS?$AAe?$AAp?$AAt?$AAe?$AAm?$AAb?$AAe?$AAr?$AA?$AA@ 000000014002fee8     LIBCMT:nlsdata.obj
 0002:00000f00       ??_C@_1BA@EPANDLNG@?$AAO?$AAc?$AAt?$AAo?$AAb?$AAe?$AAr?$AA?$AA@ 000000014002ff00     LIBCMT:nlsdata.obj
 0002:00000f10       ??_C@_1BC@BGLIFPF@?$AAN?$AAo?$AAv?$AAe?$AAm?$AAb?$AAe?$AAr?$AA?$AA@ 000000014002ff10     LIBCMT:nlsdata.obj
 0002:00000f28       ??_C@_1BC@FEMKIFH@?$AAD?$AAe?$AAc?$AAe?$AAm?$AAb?$AAe?$AAr?$AA?$AA@ 000000014002ff28     LIBCMT:nlsdata.obj
 0002:00000f3c       ??_C@_15ODEHAHHF@?$AAA?$AAM?$AA?$AA@ 000000014002ff3c     LIBCMT:nlsdata.obj
 0002:00000f44       ??_C@_15CLMNNGEL@?$AAP?$AAM?$AA?$AA@ 000000014002ff44     LIBCMT:nlsdata.obj
 0002:00000f50       ??_C@_1BC@IEBCMHCM@?$AAM?$AAM?$AA?1?$AAd?$AAd?$AA?1?$AAy?$AAy?$AA?$AA@ 000000014002ff50     LIBCMT:nlsdata.obj
 0002:00000f68       ??_C@_1CI@KNAKOEBC@?$AAd?$AAd?$AAd?$AAd?$AA?0?$AA?5?$AAM?$AAM?$AAM?$AAM?$AA?5?$AAd?$AAd?$AA?0?$AA?5?$AAy?$AAy?$AAy?$AAy?$AA?$AA@ 000000014002ff68     LIBCMT:nlsdata.obj
 0002:00000f90       ??_C@_1BC@GDGBMEMK@?$AAH?$AAH?$AA?3?$AAm?$AAm?$AA?3?$AAs?$AAs?$AA?$AA@ 000000014002ff90     LIBCMT:nlsdata.obj
 0002:00000fa8       ??_C@_1M@BMHNFIME@?$AAe?$AAn?$AA?9?$AAU?$AAS?$AA?$AA@ 000000014002ffa8     LIBCMT:nlsdata.obj
 0002:00000fb8       ??_C@_1BK@MGMFAEKH@?$AAk?$AAe?$AAr?$AAn?$AAe?$AAl?$AA3?$AA2?$AA?4?$AAd?$AAl?$AAl?$AA?$AA@ 000000014002ffb8     LIBCMT:winapisupp.obj
 0002:00000fd8       ??_C@_08KNHFBNJ@FlsAlloc?$AA@ 000000014002ffd8     LIBCMT:winapisupp.obj
 0002:00000fe8       ??_C@_07PEJMOBNF@FlsFree?$AA@ 000000014002ffe8     LIBCMT:winapisupp.obj
 0002:00000ff0       ??_C@_0M@GDNOONDI@FlsGetValue?$AA@ 000000014002fff0     LIBCMT:winapisupp.obj
 0002:00001000       ??_C@_0M@JCPCPOEF@FlsSetValue?$AA@ 0000000140030000     LIBCMT:winapisupp.obj
 0002:00001010       ??_C@_0BM@HCFOFFN@InitializeCriticalSectionEx?$AA@ 0000000140030010     LIBCMT:winapisupp.obj
 0002:00001030       ??_C@_0P@DLHPPCNH@CreateEventExW?$AA@ 0000000140030030     LIBCMT:winapisupp.obj
 0002:00001040       ??_C@_0BD@KIEEOEEH@CreateSemaphoreExW?$AA@ 0000000140030040     LIBCMT:winapisupp.obj
 0002:00001058       ??_C@_0BI@BKLFFAPO@SetThreadStackGuarantee?$AA@ 0000000140030058     LIBCMT:winapisupp.obj
 0002:00001070       ??_C@_0BG@OGFAJCKC@CreateThreadpoolTimer?$AA@ 0000000140030070     LIBCMT:winapisupp.obj
 0002:00001088       ??_C@_0BD@LPLEMMDI@SetThreadpoolTimer?$AA@ 0000000140030088     LIBCMT:winapisupp.obj
 0002:000010a0       ??_C@_0CA@FMNJENH@WaitForThreadpoolTimerCallbacks?$AA@ 00000001400300a0     LIBCMT:winapisupp.obj
 0002:000010c0       ??_C@_0BF@DCFCCNOC@CloseThreadpoolTimer?$AA@ 00000001400300c0     LIBCMT:winapisupp.obj
 0002:000010d8       ??_C@_0BF@FLABGKKM@CreateThreadpoolWait?$AA@ 00000001400300d8     LIBCMT:winapisupp.obj
 0002:000010f0       ??_C@_0BC@MGCOHNA@SetThreadpoolWait?$AA@ 00000001400300f0     LIBCMT:winapisupp.obj
 0002:00001108       ??_C@_0BE@OCIOMIMP@CloseThreadpoolWait?$AA@ 0000000140030108     LIBCMT:winapisupp.obj
 0002:00001120       ??_C@_0BJ@LKGHFHBO@FlushProcessWriteBuffers?$AA@ 0000000140030120     LIBCMT:winapisupp.obj
 0002:00001140       ??_C@_0BP@KALKKPMO@FreeLibraryWhenCallbackReturns?$AA@ 0000000140030140     LIBCMT:winapisupp.obj
 0002:00001160       ??_C@_0BK@DFNBACLA@GetCurrentProcessorNumber?$AA@ 0000000140030160     LIBCMT:winapisupp.obj
 0002:00001180       ??_C@_0BP@KHGALBC@GetLogicalProcessorInformation?$AA@ 0000000140030180     LIBCMT:winapisupp.obj
 0002:000011a0       ??_C@_0BE@FKKLLFLM@CreateSymbolicLinkW?$AA@ 00000001400301a0     LIBCMT:winapisupp.obj
 0002:000011b8       ??_C@_0BJ@OHNKDLIJ@SetDefaultDllDirectories?$AA@ 00000001400301b8     LIBCMT:winapisupp.obj
 0002:000011d8       ??_C@_0BE@LJANKFHF@EnumSystemLocalesEx?$AA@ 00000001400301d8     LIBCMT:winapisupp.obj
 0002:000011f0       ??_C@_0BA@IHGNDAEB@CompareStringEx?$AA@ 00000001400301f0     LIBCMT:winapisupp.obj
 0002:00001200       ??_C@_0BA@EPCJIIPD@GetDateFormatEx?$AA@ 0000000140030200     LIBCMT:winapisupp.obj
 0002:00001210       ??_C@_0BA@ONOKGCMP@GetLocaleInfoEx?$AA@ 0000000140030210     LIBCMT:winapisupp.obj
 0002:00001220       ??_C@_0BA@CIJJKCJJ@GetTimeFormatEx?$AA@ 0000000140030220     LIBCMT:winapisupp.obj
 0002:00001230       ??_C@_0BJ@PBCCBIPI@GetUserDefaultLocaleName?$AA@ 0000000140030230     LIBCMT:winapisupp.obj
 0002:00001250       ??_C@_0BC@CELBKLLA@IsValidLocaleName?$AA@ 0000000140030250     LIBCMT:winapisupp.obj
 0002:00001268       ??_C@_0O@KKBNKAPF@LCMapStringEx?$AA@ 0000000140030268     LIBCMT:winapisupp.obj
 0002:00001278       ??_C@_0BE@JOGNEJCI@GetCurrentPackageId?$AA@ 0000000140030278     LIBCMT:winapisupp.obj
 0002:00001290       ??_C@_0P@CDHHOHKP@GetTickCount64?$AA@ 0000000140030290     LIBCMT:winapisupp.obj
 0002:000012a0       ??_C@_0BO@KPCLFDJJ@GetFileInformationByHandleExW?$AA@ 00000001400302a0     LIBCMT:winapisupp.obj
 0002:000012c0       ??_C@_0BM@MHIDLABK@SetFileInformationByHandleW?$AA@ 00000001400302c0     LIBCMT:winapisupp.obj
 0002:000012e0       __dnames                   00000001400302e0     LIBCMT:timeset.obj
 0002:000012f8       __mnames                   00000001400302f8     LIBCMT:timeset.obj
 0002:00001320       ??_C@_02CLFPBFFP@TZ?$AA@   0000000140030320     LIBCMT:tzset.obj
 0002:00001330       _XcptActTab                0000000140030330     LIBCMT:winxfltr.obj
 0002:000013f0       _XcptActTabCount           00000001400303f0     LIBCMT:winxfltr.obj
 0002:000013f4       _XcptActTabSize            00000001400303f4     LIBCMT:winxfltr.obj
 0002:000013f8       _First_FPE_Indx            00000001400303f8     LIBCMT:winxfltr.obj
 0002:000013fc       _Num_FPE                   00000001400303fc     LIBCMT:winxfltr.obj
 0002:00001570       ??_C@_1FK@PGACCAFB@?$AAR?$AA6?$AA0?$AA0?$AA2?$AA?$AN?$AA?6?$AA?9?$AA?5?$AAf?$AAl?$AAo?$AAa?$AAt?$AAi?$AAn?$AAg?$AA?5?$AAp?$AAo?$AAi?$AAn?$AAt?$AA?5?$AAs?$AAu?$AAp?$AAp?$AAo?$AAr?$AAt?$AA?5@ 0000000140030570     LIBCMT:crt0msg.obj
 0002:000015d0       ??_C@_1FE@LLNEDJMD@?$AAR?$AA6?$AA0?$AA0?$AA8?$AA?$AN?$AA?6?$AA?9?$AA?5?$AAn?$AAo?$AAt?$AA?5?$AAe?$AAn?$AAo?$AAu?$AAg?$AAh?$AA?5?$AAs?$AAp?$AAa?$AAc?$AAe?$AA?5?$AAf?$AAo?$AAr?$AA?5?$AAa?$AAr@ 00000001400305d0     LIBCMT:crt0msg.obj
 0002:00001630       ??_C@_1FI@HONFMGBI@?$AAR?$AA6?$AA0?$AA0?$AA9?$AA?$AN?$AA?6?$AA?9?$AA?5?$AAn?$AAo?$AAt?$AA?5?$AAe?$AAn?$AAo?$AAu?$AAg?$AAh?$AA?5?$AAs?$AAp?$AAa?$AAc?$AAe?$AA?5?$AAf?$AAo?$AAr?$AA?5?$AAe?$AAn@ 0000000140030630     LIBCMT:crt0msg.obj
 0002:00001690       ??_C@_1EG@BEHAGFJD@?$AAR?$AA6?$AA0?$AA1?$AA0?$AA?$AN?$AA?6?$AA?9?$AA?5?$AAa?$AAb?$AAo?$AAr?$AAt?$AA?$CI?$AA?$CJ?$AA?5?$AAh?$AAa?$AAs?$AA?5?$AAb?$AAe?$AAe?$AAn?$AA?5?$AAc?$AAa?$AAl?$AAl?$AAe?$AAd@ 0000000140030690     LIBCMT:crt0msg.obj
 0002:000016e0       ??_C@_1FI@LOGNIKDM@?$AAR?$AA6?$AA0?$AA1?$AA6?$AA?$AN?$AA?6?$AA?9?$AA?5?$AAn?$AAo?$AAt?$AA?5?$AAe?$AAn?$AAo?$AAu?$AAg?$AAh?$AA?5?$AAs?$AAp?$AAa?$AAc?$AAe?$AA?5?$AAf?$AAo?$AAr?$AA?5?$AAt?$AAh@ 00000001400306e0     LIBCMT:crt0msg.obj
 0002:00001740       ??_C@_1FK@BEOGODMC@?$AAR?$AA6?$AA0?$AA1?$AA7?$AA?$AN?$AA?6?$AA?9?$AA?5?$AAu?$AAn?$AAe?$AAx?$AAp?$AAe?$AAc?$AAt?$AAe?$AAd?$AA?5?$AAm?$AAu?$AAl?$AAt?$AAi?$AAt?$AAh?$AAr?$AAe?$AAa?$AAd?$AA?5@ 0000000140030740     LIBCMT:crt0msg.obj
 0002:000017a0       ??_C@_1EC@JIBHAOPH@?$AAR?$AA6?$AA0?$AA1?$AA8?$AA?$AN?$AA?6?$AA?9?$AA?5?$AAu?$AAn?$AAe?$AAx?$AAp?$AAe?$AAc?$AAt?$AAe?$AAd?$AA?5?$AAh?$AAe?$AAa?$AAp?$AA?5?$AAe?$AAr?$AAr?$AAo?$AAr?$AA?$AN?$AA?6@ 00000001400307a0     LIBCMT:crt0msg.obj
 0002:000017f0       ??_C@_1FC@ECHBIFBC@?$AAR?$AA6?$AA0?$AA1?$AA9?$AA?$AN?$AA?6?$AA?9?$AA?5?$AAu?$AAn?$AAa?$AAb?$AAl?$AAe?$AA?5?$AAt?$AAo?$AA?5?$AAo?$AAp?$AAe?$AAn?$AA?5?$AAc?$AAo?$AAn?$AAs?$AAo?$AAl?$AAe?$AA?5@ 00000001400307f0     LIBCMT:crt0msg.obj
 0002:00001850       ??_C@_1GK@FHCKBEFA@?$AAR?$AA6?$AA0?$AA2?$AA4?$AA?$AN?$AA?6?$AA?9?$AA?5?$AAn?$AAo?$AAt?$AA?5?$AAe?$AAn?$AAo?$AAu?$AAg?$AAh?$AA?5?$AAs?$AAp?$AAa?$AAc?$AAe?$AA?5?$AAf?$AAo?$AAr?$AA?5?$AA_?$AAo@ 0000000140030850     LIBCMT:crt0msg.obj
 0002:000018c0       ??_C@_1EM@MAADIHMB@?$AAR?$AA6?$AA0?$AA2?$AA5?$AA?$AN?$AA?6?$AA?9?$AA?5?$AAp?$AAu?$AAr?$AAe?$AA?5?$AAv?$AAi?$AAr?$AAt?$AAu?$AAa?$AAl?$AA?5?$AAf?$AAu?$AAn?$AAc?$AAt?$AAi?$AAo?$AAn?$AA?5?$AAc@ 00000001400308c0     LIBCMT:crt0msg.obj
 0002:00001910       ??_C@_1GK@MCAAGJMO@?$AAR?$AA6?$AA0?$AA2?$AA6?$AA?$AN?$AA?6?$AA?9?$AA?5?$AAn?$AAo?$AAt?$AA?5?$AAe?$AAn?$AAo?$AAu?$AAg?$AAh?$AA?5?$AAs?$AAp?$AAa?$AAc?$AAe?$AA?5?$AAf?$AAo?$AAr?$AA?5?$AAs?$AAt@ 0000000140030910     LIBCMT:crt0msg.obj
 0002:00001980       ??_C@_1GK@MFGOKLAG@?$AAR?$AA6?$AA0?$AA2?$AA7?$AA?$AN?$AA?6?$AA?9?$AA?5?$AAn?$AAo?$AAt?$AA?5?$AAe?$AAn?$AAo?$AAu?$AAg?$AAh?$AA?5?$AAs?$AAp?$AAa?$AAc?$AAe?$AA?5?$AAf?$AAo?$AAr?$AA?5?$AAl?$AAo@ 0000000140030980     LIBCMT:crt0msg.obj
 0002:000019f0       ??_C@_1EK@HHFLMAOL@?$AAR?$AA6?$AA0?$AA2?$AA8?$AA?$AN?$AA?6?$AA?9?$AA?5?$AAu?$AAn?$AAa?$AAb?$AAl?$AAe?$AA?5?$AAt?$AAo?$AA?5?$AAi?$AAn?$AAi?$AAt?$AAi?$AAa?$AAl?$AAi?$AAz?$AAe?$AA?5?$AAh?$AAe@ 00000001400309f0     LIBCMT:crt0msg.obj
 0002:00001a40       ??_C@_1DO@BMFCDCD@?$AAR?$AA6?$AA0?$AA3?$AA0?$AA?$AN?$AA?6?$AA?9?$AA?5?$AAC?$AAR?$AAT?$AA?5?$AAn?$AAo?$AAt?$AA?5?$AAi?$AAn?$AAi?$AAt?$AAi?$AAa?$AAl?$AAi?$AAz?$AAe?$AAd?$AA?$AN?$AA?6?$AA?$AA@ 0000000140030a40     LIBCMT:crt0msg.obj
 0002:00001a80       ??_C@_1MG@ENCOOIDF@?$AAR?$AA6?$AA0?$AA3?$AA1?$AA?$AN?$AA?6?$AA?9?$AA?5?$AAA?$AAt?$AAt?$AAe?$AAm?$AAp?$AAt?$AA?5?$AAt?$AAo?$AA?5?$AAi?$AAn?$AAi?$AAt?$AAi?$AAa?$AAl?$AAi?$AAz?$AAe?$AA?5?$AAt@ 0000000140030a80     LIBCMT:crt0msg.obj
 0002:00001b50       ??_C@_1GG@GOPILAJP@?$AAR?$AA6?$AA0?$AA3?$AA2?$AA?$AN?$AA?6?$AA?9?$AA?5?$AAn?$AAo?$AAt?$AA?5?$AAe?$AAn?$AAo?$AAu?$AAg?$AAh?$AA?5?$AAs?$AAp?$AAa?$AAc?$AAe?$AA?5?$AAf?$AAo?$AAr?$AA?5?$AAl?$AAo@ 0000000140030b50     LIBCMT:crt0msg.obj
 0002:00001bc0       ??_C@_1BOO@KGEDBGAJ@?$AAR?$AA6?$AA0?$AA3?$AA3?$AA?$AN?$AA?6?$AA?9?$AA?5?$AAA?$AAt?$AAt?$AAe?$AAm?$AAp?$AAt?$AA?5?$AAt?$AAo?$AA?5?$AAu?$AAs?$AAe?$AA?5?$AAM?$AAS?$AAI?$AAL?$AA?5?$AAc?$AAo?$AAd@ 0000000140030bc0     LIBCMT:crt0msg.obj
 0002:00001db0       ??_C@_1GG@MKFPEKFO@?$AAR?$AA6?$AA0?$AA3?$AA4?$AA?$AN?$AA?6?$AA?9?$AA?5?$AAi?$AAn?$AAc?$AAo?$AAn?$AAs?$AAi?$AAs?$AAt?$AAe?$AAn?$AAt?$AA?5?$AAo?$AAn?$AAe?$AAx?$AAi?$AAt?$AA?5?$AAb?$AAe?$AAg@ 0000000140030db0     LIBCMT:crt0msg.obj
 0002:00001e18       ??_C@_1BO@BFCDCGC@?$AAD?$AAO?$AAM?$AAA?$AAI?$AAN?$AA?5?$AAe?$AAr?$AAr?$AAo?$AAr?$AA?$AN?$AA?6?$AA?$AA@ 0000000140030e18     LIBCMT:crt0msg.obj
 0002:00001e38       ??_C@_1BK@KMOMNAAI@?$AAS?$AAI?$AAN?$AAG?$AA?5?$AAe?$AAr?$AAr?$AAo?$AAr?$AA?$AN?$AA?6?$AA?$AA@ 0000000140030e38     LIBCMT:crt0msg.obj
 0002:00001e58       ??_C@_1BM@JBBEPPHI@?$AAT?$AAL?$AAO?$AAS?$AAS?$AA?5?$AAe?$AAr?$AAr?$AAo?$AAr?$AA?$AN?$AA?6?$AA?$AA@ 0000000140030e58     LIBCMT:crt0msg.obj
 0002:00001e74       ??_C@_15JNBOKNOG@?$AA?$AN?$AA?6?$AA?$AA@ 0000000140030e74     LIBCMT:crt0msg.obj
 0002:00001e80       ??_C@_1BO@BKOMIGKJ@?$AAr?$AAu?$AAn?$AAt?$AAi?$AAm?$AAe?$AA?5?$AAe?$AAr?$AAr?$AAo?$AAr?$AA?5?$AA?$AA@ 0000000140030e80     LIBCMT:crt0msg.obj
 0002:00001ea0       ??_C@_1DE@JNGNBFGO@?$AAR?$AAu?$AAn?$AAt?$AAi?$AAm?$AAe?$AA?5?$AAE?$AAr?$AAr?$AAo?$AAr?$AA?$CB?$AA?6?$AA?6?$AAP?$AAr?$AAo?$AAg?$AAr?$AAa?$AAm?$AA?3?$AA?5?$AA?$AA@ 0000000140030ea0     LIBCMT:crt0msg.obj
 0002:00001ed8       ??_C@_1CO@EAEJAADC@?$AA?$DM?$AAp?$AAr?$AAo?$AAg?$AAr?$AAa?$AAm?$AA?5?$AAn?$AAa?$AAm?$AAe?$AA?5?$AAu?$AAn?$AAk?$AAn?$AAo?$AAw?$AAn?$AA?$DO?$AA?$AA@ 0000000140030ed8     LIBCMT:crt0msg.obj
 0002:00001f08       ??_C@_17LGKOMLJ@?$AA?4?$AA?4?$AA?4?$AA?$AA@ 0000000140030f08     LIBCMT:crt0msg.obj
 0002:00001f10       ??_C@_15IABLJNFO@?$AA?6?$AA?6?$AA?$AA@ 0000000140030f10     LIBCMT:crt0msg.obj
 0002:00001f20       ??_C@_1EK@MBDPDCGA@?$AAM?$AAi?$AAc?$AAr?$AAo?$AAs?$AAo?$AAf?$AAt?$AA?5?$AAV?$AAi?$AAs?$AAu?$AAa?$AAl?$AA?5?$AAC?$AA?$CL?$AA?$CL?$AA?5?$AAR?$AAu?$AAn?$AAt?$AAi?$AAm?$AAe?$AA?5?$AAL?$AAi?$AAb@ 0000000140030f20     LIBCMT:crt0msg.obj
 0002:00002288       ??_C@_08EHJDFFNH@__based?$CI?$AA@ 0000000140031288     LIBCMT:undname.obj
 0002:00002298       ??_C@_07KOLFKCDI@__cdecl?$AA@ 0000000140031298     LIBCMT:undname.obj
 0002:000022a0       ??_C@_08GHMPAG@__pascal?$AA@ 00000001400312a0     LIBCMT:undname.obj
 0002:000022b0       ??_C@_09IFJBGAPI@__stdcall?$AA@ 00000001400312b0     LIBCMT:undname.obj
 0002:000022c0       ??_C@_0L@NPHFGOKO@__thiscall?$AA@ 00000001400312c0     LIBCMT:undname.obj
 0002:000022d0       ??_C@_0L@JMKHOMEK@__fastcall?$AA@ 00000001400312d0     LIBCMT:undname.obj
 0002:000022e0       ??_C@_0N@BCKKPABJ@__vectorcall?$AA@ 00000001400312e0     LIBCMT:undname.obj
 0002:000022f0       ??_C@_09HIJEGCPM@__clrcall?$AA@ 00000001400312f0     LIBCMT:undname.obj
 0002:000022fc       ??_C@_06GHPCKEAG@__eabi?$AA@ 00000001400312fc     LIBCMT:undname.obj
 0002:00002308       ??_C@_07JOMMBBKO@__ptr64?$AA@ 0000000140031308     LIBCMT:undname.obj
 0002:00002310       ??_C@_0L@PILCLIHE@__restrict?$AA@ 0000000140031310     LIBCMT:undname.obj
 0002:00002320       ??_C@_0M@GFIIJFMG@__unaligned?$AA@ 0000000140031320     LIBCMT:undname.obj
 0002:00002330       ??_C@_09DHDLOLLB@restrict?$CI?$AA@ 0000000140031330     LIBCMT:undname.obj
 0002:0000233c       ??_C@_04NIHEBCM@?5new?$AA@ 000000014003133c     LIBCMT:undname.obj
 0002:00002348       ??_C@_07FPCDHGMM@?5delete?$AA@ 0000000140031348     LIBCMT:undname.obj
 0002:00002350       ??_C@_01NEMOKFLO@?$DN?$AA@ 0000000140031350     LIBCMT:undname.obj
 0002:00002354       ??_C@_02GPIOPFAK@?$DO?$DO?$AA@ 0000000140031354     LIBCMT:undname.obj
 0002:00002358       ??_C@_02FODMEDOG@?$DM?$DM?$AA@ 0000000140031358     LIBCMT:undname.obj
 0002:0000235c       ??_C@_01DCLJPIOD@?$CB?$AA@ 000000014003135c     LIBCMT:undname.obj
 0002:00002360       ??_C@_02EGOFBIJA@?$DN?$DN?$AA@ 0000000140031360     LIBCMT:undname.obj
 0002:00002364       ??_C@_02FDNJECIE@?$CB?$DN?$AA@ 0000000140031364     LIBCMT:undname.obj
 0002:00002368       ??_C@_02GPECMEKF@?$FL?$FN?$AA@ 0000000140031368     LIBCMT:undname.obj
 0002:00002370       ??_C@_08LHJFAFGD@operator?$AA@ 0000000140031370     LIBCMT:undname.obj
 0002:0000237c       ??_C@_02HBOOOICD@?9?$DO?$AA@ 000000014003137c     LIBCMT:undname.obj
 0002:00002380       ??_C@_01NBENCBCI@?$CK?$AA@ 0000000140031380     LIBCMT:undname.obj
 0002:00002384       ??_C@_02ECNGHCIF@?$CL?$CL?$AA@ 0000000140031384     LIBCMT:undname.obj
 0002:00002388       ??_C@_02BAABKJLB@?9?9?$AA@ 0000000140031388     LIBCMT:undname.obj
 0002:0000238c       ??_C@_01JOAMLHOP@?9?$AA@   000000014003138c     LIBCMT:undname.obj
 0002:00002390       ??_C@_01MIFGBAGJ@?$CL?$AA@ 0000000140031390     LIBCMT:undname.obj
 0002:00002394       ??_C@_01HNPIGOCE@?$CG?$AA@ 0000000140031394     LIBCMT:undname.obj
 0002:00002398       ??_C@_03MNHNFDLC@?9?$DO?$CK?$AA@ 0000000140031398     LIBCMT:undname.obj
 0002:0000239c       ??_C@_01KMDKNFGN@?1?$AA@   000000014003139c     LIBCMT:undname.obj
 0002:000023a0       ??_C@_01FGNFDNOH@?$CF?$AA@ 00000001400313a0     LIBCMT:undname.obj
 0002:000023a4       ??_C@_01MNNFJEPP@?$DM?$AA@ 00000001400313a4     LIBCMT:undname.obj
 0002:000023a8       ??_C@_02EHCHHCKH@?$DM?$DN?$AA@ 00000001400313a8     LIBCMT:undname.obj
 0002:000023ac       ??_C@_01PPODPGHN@?$DO?$AA@ 00000001400313ac     LIBCMT:undname.obj
 0002:000023b0       ??_C@_02EEKDKGMJ@?$DO?$DN?$AA@ 00000001400313b0     LIBCMT:undname.obj
 0002:000023b4       ??_C@_01IHBHIGKO@?0?$AA@   00000001400313b4     LIBCMT:undname.obj
 0002:000023b8       ??_C@_02HCKGKOFO@?$CI?$CJ?$AA@ 00000001400313b8     LIBCMT:undname.obj
 0002:000023bc       ??_C@_01PJKLJHI@?$HO?$AA@  00000001400313bc     LIBCMT:undname.obj
 0002:000023c0       ??_C@_01JKBOJNNK@?$FO?$AA@ 00000001400313c0     LIBCMT:undname.obj
 0002:000023c4       ??_C@_01DNKMNLPK@?$HM?$AA@ 00000001400313c4     LIBCMT:undname.obj
 0002:000023c8       ??_C@_02PPKAJPJL@?$CG?$CG?$AA@ 00000001400313c8     LIBCMT:undname.obj
 0002:000023cc       ??_C@_02NONPIBCD@?$HM?$HM?$AA@ 00000001400313cc     LIBCMT:undname.obj
 0002:000023d0       ??_C@_02FPIMKNGF@?$CK?$DN?$AA@ 00000001400313d0     LIBCMT:undname.obj
 0002:000023d4       ??_C@_02FOEOMHFC@?$CL?$DN?$AA@ 00000001400313d4     LIBCMT:undname.obj
 0002:000023d8       ??_C@_02FKMDLLOA@?9?$DN?$AA@ 00000001400313d8     LIBCMT:undname.obj
 0002:000023dc       ??_C@_02FJEHGPIO@?1?$DN?$AA@ 00000001400313dc     LIBCMT:undname.obj
 0002:000023e0       ??_C@_02FENAOKFI@?$CF?$DN?$AA@ 00000001400313e0     LIBCMT:undname.obj
 0002:000023e4       ??_C@_03IKFCCPFF@?$DO?$DO?$DN?$AA@ 00000001400313e4     LIBCMT:undname.obj
 0002:000023e8       ??_C@_03CDNPDDLA@?$DM?$DM?$DN?$AA@ 00000001400313e8     LIBCMT:undname.obj
 0002:000023ec       ??_C@_02FGJGFEAB@?$CG?$DN?$AA@ 00000001400313ec     LIBCMT:undname.obj
 0002:000023f0       ??_C@_02DHLNPPGH@?$HM?$DN?$AA@ 00000001400313f0     LIBCMT:undname.obj
 0002:000023f4       ??_C@_02MHEGNOJ@?$FO?$DN?$AA@ 00000001400313f4     LIBCMT:undname.obj
 0002:000023f8       ??_C@_09IFPLHPGF@?$GAvftable?8?$AA@ 00000001400313f8     LIBCMT:undname.obj
 0002:00002408       ??_C@_09BLBHBJP@?$GAvbtable?8?$AA@ 0000000140031408     LIBCMT:undname.obj
 0002:00002418       ??_C@_07FEEIOKP@?$GAvcall?8?$AA@ 0000000140031418     LIBCMT:undname.obj
 0002:00002420       ??_C@_08LLFFHHDJ@?$GAtypeof?8?$AA@ 0000000140031420     LIBCMT:undname.obj
 0002:00002430       ??_C@_0BF@KDPPACIK@?$GAlocal?5static?5guard?8?$AA@ 0000000140031430     LIBCMT:undname.obj
 0002:00002448       ??_C@_08OBABFOLI@?$GAstring?8?$AA@ 0000000140031448     LIBCMT:undname.obj
 0002:00002458       ??_C@_0BD@JDLKDPAB@?$GAvbase?5destructor?8?$AA@ 0000000140031458     LIBCMT:undname.obj
 0002:00002470       ??_C@_0BN@DEGPLNFK@?$GAvector?5deleting?5destructor?8?$AA@ 0000000140031470     LIBCMT:undname.obj
 0002:00002490       ??_C@_0BO@OBMKPJIG@?$GAdefault?5constructor?5closure?8?$AA@ 0000000140031490     LIBCMT:undname.obj
 0002:000024b0       ??_C@_0BN@IMDCHIKM@?$GAscalar?5deleting?5destructor?8?$AA@ 00000001400314b0     LIBCMT:undname.obj
 0002:000024d0       ??_C@_0BO@PFGOCPJJ@?$GAvector?5constructor?5iterator?8?$AA@ 00000001400314d0     LIBCMT:undname.obj
 0002:000024f0       ??_C@_0BN@LFPFMEDL@?$GAvector?5destructor?5iterator?8?$AA@ 00000001400314f0     LIBCMT:undname.obj
 0002:00002510       ??_C@_0CE@IKBNEHA@?$GAvector?5vbase?5constructor?5iterat@ 0000000140031510     LIBCMT:undname.obj
 0002:00002538       ??_C@_0BL@NILFHHPC@?$GAvirtual?5displacement?5map?8?$AA@ 0000000140031538     LIBCMT:undname.obj
 0002:00002558       ??_C@_0CB@JONCMFFK@?$GAeh?5vector?5constructor?5iterator?8@ 0000000140031558     LIBCMT:undname.obj
 0002:00002580       ??_C@_0CA@GCEOPDGL@?$GAeh?5vector?5destructor?5iterator?8?$AA@ 0000000140031580     LIBCMT:undname.obj
 0002:000025a0       ??_C@_0CH@OOJPLCPH@?$GAeh?5vector?5vbase?5constructor?5ite@ 00000001400315a0     LIBCMT:undname.obj
 0002:000025c8       ??_C@_0BL@LLKPOHJI@?$GAcopy?5constructor?5closure?8?$AA@ 00000001400315c8     LIBCMT:undname.obj
 0002:000025e8       ??_C@_0BA@KBCDOMBN@?$GAudt?5returning?8?$AA@ 00000001400315e8     LIBCMT:undname.obj
 0002:000025f8       ??_C@_03KLGMFNMG@?$GAEH?$AA@ 00000001400315f8     LIBCMT:undname.obj
 0002:000025fc       ??_C@_05KHLCHHI@?$GARTTI?$AA@ 00000001400315fc     LIBCMT:undname.obj
 0002:00002608       ??_C@_0BA@KKLDJDLB@?$GAlocal?5vftable?8?$AA@ 0000000140031608     LIBCMT:undname.obj
 0002:00002618       ??_C@_0CE@IIHCMGGL@?$GAlocal?5vftable?5constructor?5closu@ 0000000140031618     LIBCMT:undname.obj
 0002:0000263c       ??_C@_06FHBGPFGH@?5new?$FL?$FN?$AA@ 000000014003163c     LIBCMT:undname.obj
 0002:00002648       ??_C@_09LBNFPBCA@?5delete?$FL?$FN?$AA@ 0000000140031648     LIBCMT:undname.obj
 0002:00002658       ??_C@_0P@HJKNJFNN@?$GAomni?5callsig?8?$AA@ 0000000140031658     LIBCMT:undname.obj
 0002:00002668       ??_C@_0BL@CNOONJFP@?$GAplacement?5delete?5closure?8?$AA@ 0000000140031668     LIBCMT:undname.obj
 0002:00002688       ??_C@_0BN@CKNJLHMB@?$GAplacement?5delete?$FL?$FN?5closure?8?$AA@ 0000000140031688     LIBCMT:undname.obj
 0002:000026a8       ??_C@_0CG@CFDHKGGD@?$GAmanaged?5vector?5constructor?5iter@ 00000001400316a8     LIBCMT:undname.obj
 0002:000026d0       ??_C@_0CF@IMGKMJNO@?$GAmanaged?5vector?5destructor?5itera@ 00000001400316d0     LIBCMT:undname.obj
 0002:000026f8       ??_C@_0CG@HLDDJMAG@?$GAeh?5vector?5copy?5constructor?5iter@ 00000001400316f8     LIBCMT:undname.obj
 0002:00002720       ??_C@_0CM@FCBBDIGB@?$GAeh?5vector?5vbase?5copy?5constructo@ 0000000140031720     LIBCMT:undname.obj
 0002:00002750       ??_C@_0BL@CLIPGLGB@?$GAdynamic?5initializer?5for?5?8?$AA@ 0000000140031750     LIBCMT:undname.obj
 0002:00002770       ??_C@_0CB@PDBIFEP@?$GAdynamic?5atexit?5destructor?5for?5?8@ 0000000140031770     LIBCMT:undname.obj
 0002:00002798       ??_C@_0CD@CGAJBKEJ@?$GAvector?5copy?5constructor?5iterato@ 0000000140031798     LIBCMT:undname.obj
 0002:000027c0       ??_C@_0CJ@GJELGAMM@?$GAvector?5vbase?5copy?5constructor?5i@ 00000001400317c0     LIBCMT:undname.obj
 0002:000027f0       ??_C@_0CL@FGIJHLCE@?$GAmanaged?5vector?5copy?5constructor@ 00000001400317f0     LIBCMT:undname.obj
 0002:00002820       ??_C@_0BM@PMGGMLDN@?$GAlocal?5static?5thread?5guard?8?$AA@ 0000000140031820     LIBCMT:undname.obj
 0002:00002840       ??_C@_0BC@DAFEJGAK@?5Type?5Descriptor?8?$AA@ 0000000140031840     LIBCMT:undname.obj
 0002:00002858       ??_C@_0BM@LDKODKLH@?5Base?5Class?5Descriptor?5at?5?$CI?$AA@ 0000000140031858     LIBCMT:undname.obj
 0002:00002878       ??_C@_0BD@LGICGFMM@?5Base?5Class?5Array?8?$AA@ 0000000140031878     LIBCMT:undname.obj
 0002:00002890       ??_C@_0BN@MECKDCOJ@?5Class?5Hierarchy?5Descriptor?8?$AA@ 0000000140031890     LIBCMT:undname.obj
 0002:000028b0       ??_C@_0BK@CFCOFLF@?5Complete?5Object?5Locator?8?$AA@ 00000001400318b0     LIBCMT:undname.obj
 0002:000028d0       __newctype                 00000001400318d0     LIBCMT:ctype.obj
 0002:00002bd0       _wctype                    0000000140031bd0     LIBCMT:ctype.obj
 0002:00002de0       __newclmap                 0000000140031de0     LIBCMT:ctype.obj
 0002:00002f60       __newcumap                 0000000140031f60     LIBCMT:ctype.obj
 0002:000030e0       LcidToLocaleNameTable      00000001400320e0     LIBCMT:winapinls.obj
 0002:00003f20       LocaleNameToIndexTable     0000000140032f20     LIBCMT:winapinls.obj
 0002:00004d60       ??_C@_15EMKDOKLE@?$AAa?$AAr?$AA?$AA@ 0000000140033d60     LIBCMT:winapinls.obj
 0002:00004d68       ??_C@_15KNPADPLH@?$AAb?$AAg?$AA?$AA@ 0000000140033d68     LIBCMT:winapinls.obj
 0002:00004d70       ??_C@_15EDMHLDMO@?$AAc?$AAa?$AA?$AA@ 0000000140033d70     LIBCMT:winapinls.obj
 0002:00004d78       ??_C@_1O@BPEAJADD@?$AAz?$AAh?$AA?9?$AAC?$AAH?$AAS?$AA?$AA@ 0000000140033d78     LIBCMT:winapinls.obj
 0002:00004d88       ??_C@_15LJNHCMNK@?$AAc?$AAs?$AA?$AA@ 0000000140033d88     LIBCMT:winapinls.obj
 0002:00004d90       ??_C@_15FOMCIDHG@?$AAd?$AAa?$AA?$AA@ 0000000140033d90     LIBCMT:winapinls.obj
 0002:00004d98       ??_C@_15NBKABECB@?$AAd?$AAe?$AA?$AA@ 0000000140033d98     LIBCMT:winapinls.obj
 0002:00004da0       ??_C@_15GHPEIIAO@?$AAe?$AAl?$AA?$AA@ 0000000140033da0     LIBCMT:winapinls.obj
 0002:00004da8       ??_C@_15MNPNEAIF@?$AAe?$AAn?$AA?$AA@ 0000000140033da8     LIBCMT:winapinls.obj
 0002:00004db0       ??_C@_15GPIOMPMH@?$AAe?$AAs?$AA?$AA@ 0000000140033db0     LIBCMT:winapinls.obj
 0002:00004db8       ??_C@_15NGLOAKJC@?$AAf?$AAi?$AA?$AA@ 0000000140033db8     LIBCMT:winapinls.obj
 0002:00004dc0       ??_C@_15FBKGNKAM@?$AAf?$AAr?$AA?$AA@ 0000000140033dc0     LIBCMT:winapinls.obj
 0002:00004dc8       ??_C@_15KGGCNEFK@?$AAh?$AAe?$AA?$AA@ 0000000140033dc8     LIBCMT:winapinls.obj
 0002:00004dd0       ??_C@_15PGHLIDMF@?$AAh?$AAu?$AA?$AA@ 0000000140033dd0     LIBCMT:winapinls.obj
 0002:00004dd8       ??_C@_15BIEMAPLM@?$AAi?$AAs?$AA?$AA@ 0000000140033dd8     LIBCMT:winapinls.obj
 0002:00004de0       ??_C@_15IFJLDHAF@?$AAi?$AAt?$AA?$AA@ 0000000140033de0     LIBCMT:winapinls.obj
 0002:00004de8       ??_C@_15GEMIOCAG@?$AAj?$AAa?$AA?$AA@ 0000000140033de8     LIBCMT:winapinls.obj
 0002:00004df0       ??_C@_15EPELEGJA@?$AAk?$AAo?$AA?$AA@ 0000000140033df0     LIBCMT:winapinls.obj
 0002:00004df8       ??_C@_15NDDHIMN@?$AAn?$AAl?$AA?$AA@ 0000000140033df8     LIBCMT:winapinls.obj
 0002:00004e00       ??_C@_15BPIGNHCD@?$AAn?$AAo?$AA?$AA@ 0000000140033e00     LIBCMT:winapinls.obj
 0002:00004e08       ??_C@_15DEOPBLCG@?$AAp?$AAl?$AA?$AA@ 0000000140033e08     LIBCMT:winapinls.obj
 0002:00004e10       ??_C@_15KBECGEFG@?$AAp?$AAt?$AA?$AA@ 0000000140033e10     LIBCMT:winapinls.obj
 0002:00004e18       ??_C@_15GLJCBFMD@?$AAr?$AAo?$AA?$AA@ 0000000140033e18     LIBCMT:winapinls.obj
 0002:00004e20       ??_C@_15FEDGKCDI@?$AAr?$AAu?$AA?$AA@ 0000000140033e20     LIBCMT:winapinls.obj
 0002:00004e28       ??_C@_15GLKMLLHM@?$AAh?$AAr?$AA?$AA@ 0000000140033e28     LIBCMT:winapinls.obj
 0002:00004e30       ??_C@_15CPKMFBDB@?$AAs?$AAk?$AA?$AA@ 0000000140033e30     LIBCMT:winapinls.obj
 0002:00004e38       ??_C@_15BAAIOGMK@?$AAs?$AAq?$AA?$AA@ 0000000140033e38     LIBCMT:winapinls.obj
 0002:00004e40       ??_C@_15INNPNOHD@?$AAs?$AAv?$AA?$AA@ 0000000140033e40     LIBCMT:winapinls.obj
 0002:00004e48       ??_C@_15CABMMOGH@?$AAt?$AAh?$AA?$AA@ 0000000140033e48     LIBCMT:winapinls.obj
 0002:00004e50       ??_C@_15BPLIHJJM@?$AAt?$AAr?$AA?$AA@ 0000000140033e50     LIBCMT:winapinls.obj
 0002:00004e58       ??_C@_15NEOEKKDJ@?$AAu?$AAr?$AA?$AA@ 0000000140033e58     LIBCMT:winapinls.obj
 0002:00004e60       ??_C@_15NFICGAJK@?$AAi?$AAd?$AA?$AA@ 0000000140033e60     LIBCMT:winapinls.obj
 0002:00004e68       ??_C@_15PJPFLCCM@?$AAu?$AAk?$AA?$AA@ 0000000140033e68     LIBCMT:winapinls.obj
 0002:00004e70       ??_C@_15HPJPHDM@?$AAb?$AAe?$AA?$AA@ 0000000140033e70     LIBCMT:winapinls.obj
 0002:00004e78       ??_C@_15LCHLGJII@?$AAs?$AAl?$AA?$AA@ 0000000140033e78     LIBCMT:winapinls.obj
 0002:00004e80       ??_C@_15PCFJPHHO@?$AAe?$AAt?$AA?$AA@ 0000000140033e80     LIBCMT:winapinls.obj
 0002:00004e88       ??_C@_15HPFPGODN@?$AAl?$AAv?$AA?$AA@ 0000000140033e88     LIBCMT:winapinls.obj
 0002:00004e90       ??_C@_15NFFGKGLG@?$AAl?$AAt?$AA?$AA@ 0000000140033e90     LIBCMT:winapinls.obj
 0002:00004e98       ??_C@_15BDAKCCHN@?$AAf?$AAa?$AA?$AA@ 0000000140033e98     LIBCMT:winapinls.obj
 0002:00004ea0       ??_C@_15NFGIAIAJ@?$AAv?$AAi?$AA?$AA@ 0000000140033ea0     LIBCMT:winapinls.obj
 0002:00004ea8       ??_C@_15LMKNDMHN@?$AAh?$AAy?$AA?$AA@ 0000000140033ea8     LIBCMT:winapinls.obj
 0002:00004eb0       ??_C@_15IJBHMCFL@?$AAa?$AAz?$AA?$AA@ 0000000140033eb0     LIBCMT:winapinls.obj
 0002:00004eb8       ??_C@_15EKOFJABL@?$AAe?$AAu?$AA?$AA@ 0000000140033eb8     LIBCMT:winapinls.obj
 0002:00004ec0       ??_C@_15BGHADCNK@?$AAm?$AAk?$AA?$AA@ 0000000140033ec0     LIBCMT:winapinls.obj
 0002:00004ec8       ??_C@_15JDNICKHM@?$AAa?$AAf?$AA?$AA@ 0000000140033ec8     LIBCMT:winapinls.obj
 0002:00004ed0       ??_C@_15KPJEDBKD@?$AAk?$AAa?$AA?$AA@ 0000000140033ed0     LIBCMT:winapinls.obj
 0002:00004ed8       ??_C@_15PDNFFFEO@?$AAf?$AAo?$AA?$AA@ 0000000140033ed8     LIBCMT:winapinls.obj
 0002:00004ee0       ??_C@_15OMLEGLOC@?$AAh?$AAi?$AA?$AA@ 0000000140033ee0     LIBCMT:winapinls.obj
 0002:00004ee8       ??_C@_15IDNNENKK@?$AAm?$AAs?$AA?$AA@ 0000000140033ee8     LIBCMT:winapinls.obj
 0002:00004ef0       ??_C@_15MACJNBMH@?$AAk?$AAk?$AA?$AA@ 0000000140033ef0     LIBCMT:winapinls.obj
 0002:00004ef8       ??_C@_15DKDJEOND@?$AAk?$AAy?$AA?$AA@ 0000000140033ef8     LIBCMT:winapinls.obj
 0002:00004f00       ??_C@_15DFGDLJBG@?$AAs?$AAw?$AA?$AA@ 0000000140033f00     LIBCMT:winapinls.obj
 0002:00004f08       ??_C@_15BBFAICNG@?$AAu?$AAz?$AA?$AA@ 0000000140033f08     LIBCMT:winapinls.obj
 0002:00004f10       ??_C@_15DKNDCGEA@?$AAt?$AAt?$AA?$AA@ 0000000140033f10     LIBCMT:winapinls.obj
 0002:00004f18       ??_C@_15MGIFMDPL@?$AAp?$AAa?$AA?$AA@ 0000000140033f18     LIBCMT:winapinls.obj
 0002:00004f20       ??_C@_15HCNDBBA@?$AAg?$AAu?$AA?$AA@ 0000000140033f20     LIBCMT:winapinls.obj
 0002:00004f28       ??_C@_15FNBEIBON@?$AAt?$AAa?$AA?$AA@ 0000000140033f28     LIBCMT:winapinls.obj
 0002:00004f30       ??_C@_15NCHGBGLK@?$AAt?$AAe?$AA?$AA@ 0000000140033f30     LIBCMT:winapinls.obj
 0002:00004f38       ??_C@_15PHPHCBPF@?$AAk?$AAn?$AA?$AA@ 0000000140033f38     LIBCMT:winapinls.obj
 0002:00004f40       ??_C@_15DLGBCKMP@?$AAm?$AAr?$AA?$AA@ 0000000140033f40     LIBCMT:winapinls.obj
 0002:00004f48       ??_C@_15EABBLBFF@?$AAs?$AAa?$AA?$AA@ 0000000140033f48     LIBCMT:winapinls.obj
 0002:00004f50       ??_C@_15CBKOMCOI@?$AAm?$AAn?$AA?$AA@ 0000000140033f50     LIBCMT:winapinls.obj
 0002:00004f58       ??_C@_15CKDMCJAF@?$AAg?$AAl?$AA?$AA@ 0000000140033f58     LIBCMT:winapinls.obj
 0002:00004f60       ??_C@_17CNJFBPG@?$AAk?$AAo?$AAk?$AA?$AA@ 0000000140033f60     LIBCMT:winapinls.obj
 0002:00004f68       ??_C@_17FFBJICPL@?$AAs?$AAy?$AAr?$AA?$AA@ 0000000140033f68     LIBCMT:winapinls.obj
 0002:00004f70       ??_C@_17KPNDCPAF@?$AAd?$AAi?$AAv?$AA?$AA@ 0000000140033f70     LIBCMT:winapinls.obj
 0002:00004f78       ??_C@_11LOCGONAA@?$AA?$AA@ 0000000140033f78     LIBCMT:winapinls.obj
 0002:00004f80       ??_C@_1M@OKAHONE@?$AAa?$AAr?$AA?9?$AAS?$AAA?$AA?$AA@ 0000000140033f80     LIBCMT:winapinls.obj
 0002:00004f90       ??_C@_1M@FFFIGIGK@?$AAb?$AAg?$AA?9?$AAB?$AAG?$AA?$AA@ 0000000140033f90     LIBCMT:winapinls.obj
 0002:00004fa0       ??_C@_1M@BJNKEDC@?$AAc?$AAa?$AA?9?$AAE?$AAS?$AA?$AA@ 0000000140033fa0     LIBCMT:winapinls.obj
 0002:00004fb0       ??_C@_1M@IJJHFJHA@?$AAc?$AAs?$AA?9?$AAC?$AAZ?$AA?$AA@ 0000000140033fb0     LIBCMT:winapinls.obj
 0002:00004fc0       ??_C@_1M@CLPEOBGI@?$AAd?$AAa?$AA?9?$AAD?$AAK?$AA?$AA@ 0000000140033fc0     LIBCMT:winapinls.obj
 0002:00004fd0       ??_C@_1M@MCMADGCB@?$AAd?$AAe?$AA?9?$AAD?$AAE?$AA?$AA@ 0000000140033fd0     LIBCMT:winapinls.obj
 0002:00004fe0       ??_C@_1M@OOCKEMAM@?$AAe?$AAl?$AA?9?$AAG?$AAR?$AA?$AA@ 0000000140033fe0     LIBCMT:winapinls.obj
 0002:00004ff0       ??_C@_1M@DDNJFGID@?$AAf?$AAi?$AA?9?$AAF?$AAI?$AA?$AA@ 0000000140033ff0     LIBCMT:winapinls.obj
 0002:00005000       ??_C@_1M@GLIPPMAC@?$AAf?$AAr?$AA?9?$AAF?$AAR?$AA?$AA@ 0000000140034000     LIBCMT:winapinls.obj
 0002:00005010       ??_C@_1M@GFMCHPE@?$AAh?$AAe?$AA?9?$AAI?$AAL?$AA?$AA@ 0000000140034010     LIBCMT:winapinls.obj
 0002:00005020       ??_C@_1M@MHLPGNKM@?$AAh?$AAu?$AA?9?$AAH?$AAU?$AA?$AA@ 0000000140034020     LIBCMT:winapinls.obj
 0002:00005030       ??_C@_1M@LPDDNNPN@?$AAi?$AAs?$AA?9?$AAI?$AAS?$AA?$AA@ 0000000140034030     LIBCMT:winapinls.obj
 0002:00005040       ??_C@_1M@MADIPODN@?$AAi?$AAt?$AA?9?$AAI?$AAT?$AA?$AA@ 0000000140034040     LIBCMT:winapinls.obj
 0002:00005050       ??_C@_1M@IHBJJGG@?$AAn?$AAl?$AA?9?$AAN?$AAL?$AA?$AA@ 0000000140034050     LIBCMT:winapinls.obj
 0002:00005060       ??_C@_1M@EANAGDL@?$AAn?$AAb?$AA?9?$AAN?$AAO?$AA?$AA@ 0000000140034060     LIBCMT:winapinls.obj
 0002:00005070       ??_C@_1M@NEIEMEGP@?$AAp?$AAl?$AA?9?$AAP?$AAL?$AA?$AA@ 0000000140034070     LIBCMT:winapinls.obj
 0002:00005080       ??_C@_1M@BOCFIGEP@?$AAp?$AAt?$AA?9?$AAB?$AAR?$AA?$AA@ 0000000140034080     LIBCMT:winapinls.obj
 0002:00005090       ??_C@_1M@IMPFOPBG@?$AAr?$AAo?$AA?9?$AAR?$AAO?$AA?$AA@ 0000000140034090     LIBCMT:winapinls.obj
 0002:000050a0       ??_C@_1M@IDNNEJMM@?$AAr?$AAu?$AA?9?$AAR?$AAU?$AA?$AA@ 00000001400340a0     LIBCMT:winapinls.obj
 0002:000050b0       ??_C@_1M@LILEEOGM@?$AAh?$AAr?$AA?9?$AAH?$AAR?$AA?$AA@ 00000001400340b0     LIBCMT:winapinls.obj
 0002:000050c0       ??_C@_1M@FKIFEHPB@?$AAs?$AAk?$AA?9?$AAS?$AAK?$AA?$AA@ 00000001400340c0     LIBCMT:winapinls.obj
 0002:000050d0       ??_C@_1M@LJMAMNPJ@?$AAs?$AAq?$AA?9?$AAA?$AAL?$AA?$AA@ 00000001400340d0     LIBCMT:winapinls.obj
 0002:000050e0       ??_C@_1M@GIAKDKJK@?$AAs?$AAv?$AA?9?$AAS?$AAE?$AA?$AA@ 00000001400340e0     LIBCMT:winapinls.obj
 0002:000050f0       ??_C@_1M@MKJKIKCL@?$AAt?$AAh?$AA?9?$AAT?$AAH?$AA?$AA@ 00000001400340f0     LIBCMT:winapinls.obj
 0002:00005100       ??_C@_1M@MFLCCMPB@?$AAt?$AAr?$AA?9?$AAT?$AAR?$AA?$AA@ 0000000140034100     LIBCMT:winapinls.obj
 0002:00005110       ??_C@_1M@OIJHDKJN@?$AAu?$AAr?$AA?9?$AAP?$AAK?$AA?$AA@ 0000000140034110     LIBCMT:winapinls.obj
 0002:00005120       ??_C@_1M@LHIPCIEK@?$AAi?$AAd?$AA?9?$AAI?$AAD?$AA?$AA@ 0000000140034120     LIBCMT:winapinls.obj
 0002:00005130       ??_C@_1M@MFMOBGI@?$AAu?$AAk?$AA?9?$AAU?$AAA?$AA?$AA@ 0000000140034130     LIBCMT:winapinls.obj
 0002:00005140       ??_C@_1M@OBGLJIPL@?$AAb?$AAe?$AA?9?$AAB?$AAY?$AA?$AA@ 0000000140034140     LIBCMT:winapinls.obj
 0002:00005150       ??_C@_1M@BCFAJEAD@?$AAs?$AAl?$AA?9?$AAS?$AAI?$AA?$AA@ 0000000140034150     LIBCMT:winapinls.obj
 0002:00005160       ??_C@_1M@FKFFEDDN@?$AAe?$AAt?$AA?9?$AAE?$AAE?$AA?$AA@ 0000000140034160     LIBCMT:winapinls.obj
 0002:00005170       ??_C@_1M@KGKKAACI@?$AAl?$AAv?$AA?9?$AAL?$AAV?$AA?$AA@ 0000000140034170     LIBCMT:winapinls.obj
 0002:00005180       ??_C@_1M@IFGBIJO@?$AAl?$AAt?$AA?9?$AAL?$AAT?$AA?$AA@ 0000000140034180     LIBCMT:winapinls.obj
 0002:00005190       ??_C@_1M@FGEAHEDM@?$AAf?$AAa?$AA?9?$AAI?$AAR?$AA?$AA@ 0000000140034190     LIBCMT:winapinls.obj
 0002:000051a0       ??_C@_1M@KBMAIBFN@?$AAv?$AAi?$AA?9?$AAV?$AAN?$AA?$AA@ 00000001400341a0     LIBCMT:winapinls.obj
 0002:000051b0       ??_C@_1M@GPCBKDJK@?$AAh?$AAy?$AA?9?$AAA?$AAM?$AA?$AA@ 00000001400341b0     LIBCMT:winapinls.obj
 0002:000051c0       ??_C@_1BG@BECMDDJB@?$AAa?$AAz?$AA?9?$AAA?$AAZ?$AA?9?$AAL?$AAa?$AAt?$AAn?$AA?$AA@ 00000001400341c0     LIBCMT:winapinls.obj
 0002:000051d8       ??_C@_1M@MAOFCAEA@?$AAe?$AAu?$AA?9?$AAE?$AAS?$AA?$AA@ 00000001400341d8     LIBCMT:winapinls.obj
 0002:000051e8       ??_C@_1M@IGHABKPI@?$AAm?$AAk?$AA?9?$AAM?$AAK?$AA?$AA@ 00000001400341e8     LIBCMT:winapinls.obj
 0002:000051f8       ??_C@_1M@IAIGNEJG@?$AAt?$AAn?$AA?9?$AAZ?$AAA?$AA?$AA@ 00000001400341f8     LIBCMT:winapinls.obj
 0002:00005208       ??_C@_1M@IIJCOJFA@?$AAx?$AAh?$AA?9?$AAZ?$AAA?$AA?$AA@ 0000000140034208     LIBCMT:winapinls.obj
 0002:00005218       ??_C@_1M@LGPJHNJH@?$AAz?$AAu?$AA?9?$AAZ?$AAA?$AA?$AA@ 0000000140034218     LIBCMT:winapinls.obj
 0002:00005228       ??_C@_1M@HOKAOIO@?$AAa?$AAf?$AA?9?$AAZ?$AAA?$AA?$AA@ 0000000140034228     LIBCMT:winapinls.obj
 0002:00005238       ??_C@_1M@DPCLHLIE@?$AAk?$AAa?$AA?9?$AAG?$AAE?$AA?$AA@ 0000000140034238     LIBCMT:winapinls.obj
 0002:00005248       ??_C@_1M@BLKMHJBI@?$AAf?$AAo?$AA?9?$AAF?$AAO?$AA?$AA@ 0000000140034248     LIBCMT:winapinls.obj
 0002:00005258       ??_C@_1M@LGGJAPPB@?$AAh?$AAi?$AA?9?$AAI?$AAN?$AA?$AA@ 0000000140034258     LIBCMT:winapinls.obj
 0002:00005268       ??_C@_1M@FIKPIHFE@?$AAm?$AAt?$AA?9?$AAM?$AAT?$AA?$AA@ 0000000140034268     LIBCMT:winapinls.obj
 0002:00005278       ??_C@_1M@HEGGPBFA@?$AAs?$AAe?$AA?9?$AAN?$AAO?$AA?$AA@ 0000000140034278     LIBCMT:winapinls.obj
 0002:00005288       ??_C@_1M@EIBJEEPA@?$AAm?$AAs?$AA?9?$AAM?$AAY?$AA?$AA@ 0000000140034288     LIBCMT:winapinls.obj
 0002:00005298       ??_C@_1M@FHLBGMPP@?$AAk?$AAk?$AA?9?$AAK?$AAZ?$AA?$AA@ 0000000140034298     LIBCMT:winapinls.obj
 0002:000052a8       ??_C@_1M@NGJJLCGI@?$AAk?$AAy?$AA?9?$AAK?$AAG?$AA?$AA@ 00000001400342a8     LIBCMT:winapinls.obj
 0002:000052b8       ??_C@_1M@GIENNBFC@?$AAs?$AAw?$AA?9?$AAK?$AAE?$AA?$AA@ 00000001400342b8     LIBCMT:winapinls.obj
 0002:000052c8       ??_C@_1BG@NDGMJIMJ@?$AAu?$AAz?$AA?9?$AAU?$AAZ?$AA?9?$AAL?$AAa?$AAt?$AAn?$AA?$AA@ 00000001400342c8     LIBCMT:winapinls.obj
 0002:000052e0       ??_C@_1M@IDCCIHBC@?$AAt?$AAt?$AA?9?$AAR?$AAU?$AA?$AA@ 00000001400342e0     LIBCMT:winapinls.obj
 0002:000052f0       ??_C@_1M@LOICPMOJ@?$AAb?$AAn?$AA?9?$AAI?$AAN?$AA?$AA@ 00000001400342f0     LIBCMT:winapinls.obj
 0002:00005300       ??_C@_1M@KPKKNEAH@?$AAp?$AAa?$AA?9?$AAI?$AAN?$AA?$AA@ 0000000140034300     LIBCMT:winapinls.obj
 0002:00005310       ??_C@_1M@PJGPPBOG@?$AAg?$AAu?$AA?9?$AAI?$AAN?$AA?$AA@ 0000000140034310     LIBCMT:winapinls.obj
 0002:00005320       ??_C@_1M@KMKMOPHI@?$AAt?$AAa?$AA?9?$AAI?$AAN?$AA?$AA@ 0000000140034320     LIBCMT:winapinls.obj
 0002:00005330       ??_C@_1M@KFEHEPAC@?$AAt?$AAe?$AA?9?$AAI?$AAN?$AA?$AA@ 0000000140034330     LIBCMT:winapinls.obj
 0002:00005340       ??_C@_1M@CDCLMGHI@?$AAk?$AAn?$AA?9?$AAI?$AAN?$AA?$AA@ 0000000140034340     LIBCMT:winapinls.obj
 0002:00005350       ??_C@_1M@MIODLDKF@?$AAm?$AAl?$AA?9?$AAI?$AAN?$AA?$AA@ 0000000140034350     LIBCMT:winapinls.obj
 0002:00005360       ??_C@_1M@PBIEACPO@?$AAm?$AAr?$AA?9?$AAI?$AAN?$AA?$AA@ 0000000140034360     LIBCMT:winapinls.obj
 0002:00005370       ??_C@_1M@NIDEAGPH@?$AAs?$AAa?$AA?9?$AAI?$AAN?$AA?$AA@ 0000000140034370     LIBCMT:winapinls.obj
 0002:00005380       ??_C@_1M@FHIHCBIO@?$AAm?$AAn?$AA?9?$AAM?$AAN?$AA?$AA@ 0000000140034380     LIBCMT:winapinls.obj
 0002:00005390       ??_C@_1M@JAIJPENP@?$AAc?$AAy?$AA?9?$AAG?$AAB?$AA?$AA@ 0000000140034390     LIBCMT:winapinls.obj
 0002:000053a0       ??_C@_1M@PHGFBEPN@?$AAg?$AAl?$AA?9?$AAE?$AAS?$AA?$AA@ 00000001400343a0     LIBCMT:winapinls.obj
 0002:000053b0       ??_C@_1O@KPIPDNCP@?$AAk?$AAo?$AAk?$AA?9?$AAI?$AAN?$AA?$AA@ 00000001400343b0     LIBCMT:winapinls.obj
 0002:000053c0       ??_C@_1O@KNHJLDJA@?$AAs?$AAy?$AAr?$AA?9?$AAS?$AAY?$AA?$AA@ 00000001400343c0     LIBCMT:winapinls.obj
 0002:000053d0       ??_C@_1O@MKEKBLAH@?$AAd?$AAi?$AAv?$AA?9?$AAM?$AAV?$AA?$AA@ 00000001400343d0     LIBCMT:winapinls.obj
 0002:000053e0       ??_C@_1O@OHDCKDDF@?$AAq?$AAu?$AAz?$AA?9?$AAB?$AAO?$AA?$AA@ 00000001400343e0     LIBCMT:winapinls.obj
 0002:000053f0       ??_C@_1M@LEPJNLFD@?$AAn?$AAs?$AA?9?$AAZ?$AAA?$AA?$AA@ 00000001400343f0     LIBCMT:winapinls.obj
 0002:00005400       ??_C@_1M@OMLEIIJB@?$AAm?$AAi?$AA?9?$AAN?$AAZ?$AA?$AA@ 0000000140034400     LIBCMT:winapinls.obj
 0002:00005410       ??_C@_1M@PMPEAILG@?$AAa?$AAr?$AA?9?$AAI?$AAQ?$AA?$AA@ 0000000140034410     LIBCMT:winapinls.obj
 0002:00005420       ??_C@_1M@CNKPNOEE@?$AAd?$AAe?$AA?9?$AAC?$AAH?$AA?$AA@ 0000000140034420     LIBCMT:winapinls.obj
 0002:00005430       ??_C@_1M@LKMGMLKO@?$AAe?$AAn?$AA?9?$AAG?$AAB?$AA?$AA@ 0000000140034430     LIBCMT:winapinls.obj
 0002:00005440       ??_C@_1M@PGKJFFGL@?$AAe?$AAs?$AA?9?$AAM?$AAX?$AA?$AA@ 0000000140034440     LIBCMT:winapinls.obj
 0002:00005450       ??_C@_1M@DNNANBDC@?$AAf?$AAr?$AA?9?$AAB?$AAE?$AA?$AA@ 0000000140034450     LIBCMT:winapinls.obj
 0002:00005460       ??_C@_1M@HLGMDFHM@?$AAi?$AAt?$AA?9?$AAC?$AAH?$AA?$AA@ 0000000140034460     LIBCMT:winapinls.obj
 0002:00005470       ??_C@_1M@CLLBGJH@?$AAn?$AAl?$AA?9?$AAB?$AAE?$AA?$AA@ 0000000140034470     LIBCMT:winapinls.obj
 0002:00005480       ??_C@_1M@BODBOGLF@?$AAn?$AAn?$AA?9?$AAN?$AAO?$AA?$AA@ 0000000140034480     LIBCMT:winapinls.obj
 0002:00005490       ??_C@_1M@HFFAHKAD@?$AAp?$AAt?$AA?9?$AAP?$AAT?$AA?$AA@ 0000000140034490     LIBCMT:winapinls.obj
 0002:000054a0       ??_C@_1BG@LNOAKHIE@?$AAs?$AAr?$AA?9?$AAS?$AAP?$AA?9?$AAL?$AAa?$AAt?$AAn?$AA?$AA@ 00000001400344a0     LIBCMT:winapinls.obj
 0002:000054b8       ??_C@_1M@HBMHBGAK@?$AAs?$AAv?$AA?9?$AAF?$AAI?$AA?$AA@ 00000001400344b8     LIBCMT:winapinls.obj
 0002:000054c8       ??_C@_1BG@DGCJGJBE@?$AAa?$AAz?$AA?9?$AAA?$AAZ?$AA?9?$AAC?$AAy?$AAr?$AAl?$AA?$AA@ 00000001400344c8     LIBCMT:winapinls.obj
 0002:000054e0       ??_C@_1M@KEJDAAHB@?$AAs?$AAe?$AA?9?$AAS?$AAE?$AA?$AA@ 00000001400344e0     LIBCMT:winapinls.obj
 0002:000054f0       ??_C@_1M@HEIBJJAD@?$AAm?$AAs?$AA?9?$AAB?$AAN?$AA?$AA@ 00000001400344f0     LIBCMT:winapinls.obj
 0002:00005500       ??_C@_1BG@PBGJMCEM@?$AAu?$AAz?$AA?9?$AAU?$AAZ?$AA?9?$AAC?$AAy?$AAr?$AAl?$AA?$AA@ 0000000140034500     LIBCMT:winapinls.obj
 0002:00005518       ??_C@_1O@LAOBCMDF@?$AAq?$AAu?$AAz?$AA?9?$AAE?$AAC?$AA?$AA@ 0000000140034518     LIBCMT:winapinls.obj
 0002:00005528       ??_C@_1M@POEEMAIO@?$AAa?$AAr?$AA?9?$AAE?$AAG?$AA?$AA@ 0000000140034528     LIBCMT:winapinls.obj
 0002:00005538       ??_C@_1M@EFAKDEDL@?$AAz?$AAh?$AA?9?$AAH?$AAK?$AA?$AA@ 0000000140034538     LIBCMT:winapinls.obj
 0002:00005548       ??_C@_1M@HKKIJHGI@?$AAd?$AAe?$AA?9?$AAA?$AAT?$AA?$AA@ 0000000140034548     LIBCMT:winapinls.obj
 0002:00005558       ??_C@_1M@KBFBEHJF@?$AAe?$AAn?$AA?9?$AAA?$AAU?$AA?$AA@ 0000000140034558     LIBCMT:winapinls.obj
 0002:00005568       ??_C@_1M@MNPLFAAH@?$AAe?$AAs?$AA?9?$AAE?$AAS?$AA?$AA@ 0000000140034568     LIBCMT:winapinls.obj
 0002:00005578       ??_C@_1M@HJOOJFMA@?$AAf?$AAr?$AA?9?$AAC?$AAA?$AA?$AA@ 0000000140034578     LIBCMT:winapinls.obj
 0002:00005588       ??_C@_1BG@JPOFPNAB@?$AAs?$AAr?$AA?9?$AAS?$AAP?$AA?9?$AAC?$AAy?$AAr?$AAl?$AA?$AA@ 0000000140034588     LIBCMT:winapinls.obj
 0002:000055a0       ??_C@_1M@LNFOCMOB@?$AAs?$AAe?$AA?9?$AAF?$AAI?$AA?$AA@ 00000001400345a0     LIBCMT:winapinls.obj
 0002:000055b0       ??_C@_1O@MGJBOAMB@?$AAq?$AAu?$AAz?$AA?9?$AAP?$AAE?$AA?$AA@ 00000001400345b0     LIBCMT:winapinls.obj
 0002:000055c0       ??_C@_1M@GJINLBOK@?$AAa?$AAr?$AA?9?$AAL?$AAY?$AA?$AA@ 00000001400345c0     LIBCMT:winapinls.obj
 0002:000055d0       ??_C@_1M@GGMNHJNL@?$AAz?$AAh?$AA?9?$AAS?$AAG?$AA?$AA@ 00000001400345d0     LIBCMT:winapinls.obj
 0002:000055e0       ??_C@_1M@HOIKODND@?$AAd?$AAe?$AA?9?$AAL?$AAU?$AA?$AA@ 00000001400345e0     LIBCMT:winapinls.obj
 0002:000055f0       ??_C@_1M@DDOCCGFG@?$AAe?$AAn?$AA?9?$AAC?$AAA?$AA?$AA@ 00000001400345f0     LIBCMT:winapinls.obj
 0002:00005600       ??_C@_1M@BNOEMJLF@?$AAe?$AAs?$AA?9?$AAG?$AAT?$AA?$AA@ 0000000140034600     LIBCMT:winapinls.obj
 0002:00005610       ??_C@_1M@EOGNKEK@?$AAf?$AAr?$AA?9?$AAC?$AAH?$AA?$AA@ 0000000140034610     LIBCMT:winapinls.obj
 0002:00005620       ??_C@_1M@FLIDJFHL@?$AAh?$AAr?$AA?9?$AAB?$AAA?$AA?$AA@ 0000000140034620     LIBCMT:winapinls.obj
 0002:00005630       ??_C@_1O@FMCELNAJ@?$AAs?$AAm?$AAj?$AA?9?$AAN?$AAO?$AA?$AA@ 0000000140034630     LIBCMT:winapinls.obj
 0002:00005640       ??_C@_1M@JHGLJMGJ@?$AAa?$AAr?$AA?9?$AAD?$AAZ?$AA?$AA@ 0000000140034640     LIBCMT:winapinls.obj
 0002:00005650       ??_C@_1M@JKKFDCNP@?$AAz?$AAh?$AA?9?$AAM?$AAO?$AA?$AA@ 0000000140034650     LIBCMT:winapinls.obj
 0002:00005660       ??_C@_1M@GEEFALPE@?$AAd?$AAe?$AA?9?$AAL?$AAI?$AA?$AA@ 0000000140034660     LIBCMT:winapinls.obj
 0002:00005670       ??_C@_1M@IGEOFBG@?$AAe?$AAn?$AA?9?$AAN?$AAZ?$AA?$AA@ 0000000140034670     LIBCMT:winapinls.obj
 0002:00005680       ??_C@_1M@KDBONEHP@?$AAe?$AAs?$AA?9?$AAC?$AAR?$AA?$AA@ 0000000140034680     LIBCMT:winapinls.obj
 0002:00005690       ??_C@_1M@FHMDOHNN@?$AAf?$AAr?$AA?9?$AAL?$AAU?$AA?$AA@ 0000000140034690     LIBCMT:winapinls.obj
 0002:000056a0       ??_C@_1BG@NFKKMAFG@?$AAb?$AAs?$AA?9?$AAB?$AAA?$AA?9?$AAL?$AAa?$AAt?$AAn?$AA?$AA@ 00000001400346a0     LIBCMT:winapinls.obj
 0002:000056b8       ??_C@_1O@IMNBEMCI@?$AAs?$AAm?$AAj?$AA?9?$AAS?$AAE?$AA?$AA@ 00000001400346b8     LIBCMT:winapinls.obj
 0002:000056c8       ??_C@_1M@DHHMBNDP@?$AAa?$AAr?$AA?9?$AAM?$AAA?$AA?$AA@ 00000001400346c8     LIBCMT:winapinls.obj
 0002:000056d8       ??_C@_1M@BNBLJCGH@?$AAe?$AAn?$AA?9?$AAI?$AAE?$AA?$AA@ 00000001400346d8     LIBCMT:winapinls.obj
 0002:000056e8       ??_C@_1M@GEPAFMDL@?$AAe?$AAs?$AA?9?$AAP?$AAA?$AA?$AA@ 00000001400346e8     LIBCMT:winapinls.obj
 0002:000056f8       ??_C@_1M@OJONDMDL@?$AAf?$AAr?$AA?9?$AAM?$AAC?$AA?$AA@ 00000001400346f8     LIBCMT:winapinls.obj
 0002:00005708       ??_C@_1BG@OBCNFJB@?$AAs?$AAr?$AA?9?$AAB?$AAA?$AA?9?$AAL?$AAa?$AAt?$AAn?$AA?$AA@ 0000000140034708     LIBCMT:winapinls.obj
 0002:00005720       ??_C@_1O@KEMEEGPO@?$AAs?$AAm?$AAa?$AA?9?$AAN?$AAO?$AA?$AA@ 0000000140034720     LIBCMT:winapinls.obj
 0002:00005730       ??_C@_1M@ELMGFODK@?$AAa?$AAr?$AA?9?$AAT?$AAN?$AA?$AA@ 0000000140034730     LIBCMT:winapinls.obj
 0002:00005740       ??_C@_1M@BHDLHFAF@?$AAe?$AAn?$AA?9?$AAZ?$AAA?$AA?$AA@ 0000000140034740     LIBCMT:winapinls.obj
 0002:00005750       ??_C@_1M@BMGIGLIF@?$AAe?$AAs?$AA?9?$AAD?$AAO?$AA?$AA@ 0000000140034750     LIBCMT:winapinls.obj
 0002:00005760       ??_C@_1BG@CMBHIPBE@?$AAs?$AAr?$AA?9?$AAB?$AAA?$AA?9?$AAC?$AAy?$AAr?$AAl?$AA?$AA@ 0000000140034760     LIBCMT:winapinls.obj
 0002:00005778       ??_C@_1O@HEDBLHNP@?$AAs?$AAm?$AAa?$AA?9?$AAS?$AAE?$AA?$AA@ 0000000140034778     LIBCMT:winapinls.obj
 0002:00005788       ??_C@_1M@DAGCADIM@?$AAa?$AAr?$AA?9?$AAO?$AAM?$AA?$AA@ 0000000140034788     LIBCMT:winapinls.obj
 0002:00005798       ??_C@_1M@FODLMICG@?$AAe?$AAn?$AA?9?$AAJ?$AAM?$AA?$AA@ 0000000140034798     LIBCMT:winapinls.obj
 0002:000057a8       ??_C@_1M@DNMLCIHB@?$AAe?$AAs?$AA?9?$AAV?$AAE?$AA?$AA@ 00000001400347a8     LIBCMT:winapinls.obj
 0002:000057b8       ??_C@_1O@EOKHMKJK@?$AAs?$AAm?$AAs?$AA?9?$AAF?$AAI?$AA?$AA@ 00000001400347b8     LIBCMT:winapinls.obj
 0002:000057c8       ??_C@_1M@CAFJMKOF@?$AAa?$AAr?$AA?9?$AAY?$AAE?$AA?$AA@ 00000001400347c8     LIBCMT:winapinls.obj
 0002:000057d8       ??_C@_1M@CBFHIJLI@?$AAe?$AAn?$AA?9?$AAC?$AAB?$AA?$AA@ 00000001400347d8     LIBCMT:winapinls.obj
 0002:000057e8       ??_C@_1M@BGNFLDN@?$AAe?$AAs?$AA?9?$AAC?$AAO?$AA?$AA@ 00000001400347e8     LIBCMT:winapinls.obj
 0002:000057f8       ??_C@_1O@JMPHMAMC@?$AAs?$AAm?$AAn?$AA?9?$AAF?$AAI?$AA?$AA@ 00000001400347f8     LIBCMT:winapinls.obj
 0002:00005808       ??_C@_1M@JLANABKE@?$AAa?$AAr?$AA?9?$AAS?$AAY?$AA?$AA@ 0000000140034808     LIBCMT:winapinls.obj
 0002:00005818       ??_C@_1M@HPKGCFGN@?$AAe?$AAn?$AA?9?$AAB?$AAZ?$AA?$AA@ 0000000140034818     LIBCMT:winapinls.obj
 0002:00005828       ??_C@_1M@OLJCMLGM@?$AAe?$AAs?$AA?9?$AAP?$AAE?$AA?$AA@ 0000000140034828     LIBCMT:winapinls.obj
 0002:00005838       ??_C@_1M@MKKGFKLE@?$AAa?$AAr?$AA?9?$AAJ?$AAO?$AA?$AA@ 0000000140034838     LIBCMT:winapinls.obj
 0002:00005848       ??_C@_1M@EKPGLDNI@?$AAe?$AAn?$AA?9?$AAT?$AAT?$AA?$AA@ 0000000140034848     LIBCMT:winapinls.obj
 0002:00005858       ??_C@_1M@OONGHFHE@?$AAe?$AAs?$AA?9?$AAA?$AAR?$AA?$AA@ 0000000140034858     LIBCMT:winapinls.obj
 0002:00005868       ??_C@_1M@OOJFGBHE@?$AAa?$AAr?$AA?9?$AAL?$AAB?$AA?$AA@ 0000000140034868     LIBCMT:winapinls.obj
 0002:00005878       ??_C@_1M@GCEJHNEG@?$AAe?$AAn?$AA?9?$AAZ?$AAW?$AA?$AA@ 0000000140034878     LIBCMT:winapinls.obj
 0002:00005888       ??_C@_1M@JNOCAHJI@?$AAe?$AAs?$AA?9?$AAE?$AAC?$AA?$AA@ 0000000140034888     LIBCMT:winapinls.obj
 0002:00005898       ??_C@_1M@JEFHPGGB@?$AAa?$AAr?$AA?9?$AAK?$AAW?$AA?$AA@ 0000000140034898     LIBCMT:winapinls.obj
 0002:000058a8       ??_C@_1M@MLKIBJOJ@?$AAe?$AAn?$AA?9?$AAP?$AAH?$AA?$AA@ 00000001400348a8     LIBCMT:winapinls.obj
 0002:000058b8       ??_C@_1M@BDNIPEND@?$AAe?$AAs?$AA?9?$AAC?$AAL?$AA?$AA@ 00000001400348b8     LIBCMT:winapinls.obj
 0002:000058c8       ??_C@_1M@MPNMEKBD@?$AAa?$AAr?$AA?9?$AAA?$AAE?$AA?$AA@ 00000001400348c8     LIBCMT:winapinls.obj
 0002:000058d8       ??_C@_1M@KBJALCPI@?$AAe?$AAs?$AA?9?$AAU?$AAY?$AA?$AA@ 00000001400348d8     LIBCMT:winapinls.obj
 0002:000058e8       ??_C@_1M@LLCCOAGA@?$AAa?$AAr?$AA?9?$AAB?$AAH?$AA?$AA@ 00000001400348e8     LIBCMT:winapinls.obj
 0002:000058f8       ??_C@_1M@PBFNCDEL@?$AAe?$AAs?$AA?9?$AAP?$AAY?$AA?$AA@ 00000001400348f8     LIBCMT:winapinls.obj
 0002:00005908       ??_C@_1M@EDGINPNP@?$AAa?$AAr?$AA?9?$AAQ?$AAA?$AA?$AA@ 0000000140034908     LIBCMT:winapinls.obj
 0002:00005918       ??_C@_1M@MKDBIIJI@?$AAe?$AAs?$AA?9?$AAB?$AAO?$AA?$AA@ 0000000140034918     LIBCMT:winapinls.obj
 0002:00005928       ??_C@_1M@CPKKEBLD@?$AAe?$AAs?$AA?9?$AAS?$AAV?$AA?$AA@ 0000000140034928     LIBCMT:winapinls.obj
 0002:00005938       ??_C@_1M@NDBGMMJL@?$AAe?$AAs?$AA?9?$AAH?$AAN?$AA?$AA@ 0000000140034938     LIBCMT:winapinls.obj
 0002:00005948       ??_C@_1M@JIJIBHDP@?$AAe?$AAs?$AA?9?$AAN?$AAI?$AA?$AA@ 0000000140034948     LIBCMT:winapinls.obj
 0002:00005958       ??_C@_1M@CGFMKEEK@?$AAe?$AAs?$AA?9?$AAP?$AAR?$AA?$AA@ 0000000140034958     LIBCMT:winapinls.obj
 0002:00005968       ??_C@_1O@ICJHKIIK@?$AAz?$AAh?$AA?9?$AAC?$AAH?$AAT?$AA?$AA@ 0000000140034968     LIBCMT:winapinls.obj
 0002:00005978       ??_C@_15CLNEJCE@?$AAs?$AAr?$AA?$AA@ 0000000140034978     LIBCMT:winapinls.obj
 0002:00005980       ??_C@_1M@KAHEKEIG@?$AAa?$AAf?$AA?9?$AAz?$AAa?$AA?$AA@ 0000000140034980     LIBCMT:winapinls.obj
 0002:00005990       ??_C@_1M@GIECOABL@?$AAa?$AAr?$AA?9?$AAa?$AAe?$AA?$AA@ 0000000140034990     LIBCMT:winapinls.obj
 0002:000059a0       ??_C@_1M@BMLMEKGI@?$AAa?$AAr?$AA?9?$AAb?$AAh?$AA?$AA@ 00000001400349a0     LIBCMT:winapinls.obj
 0002:000059b0       ??_C@_1M@DAPFDGGB@?$AAa?$AAr?$AA?9?$AAd?$AAz?$AA?$AA@ 00000001400349b0     LIBCMT:winapinls.obj
 0002:000059c0       ??_C@_1M@FJNKGKIG@?$AAa?$AAr?$AA?9?$AAe?$AAg?$AA?$AA@ 00000001400349c0     LIBCMT:winapinls.obj
 0002:000059d0       ??_C@_1M@FLGKKCLO@?$AAa?$AAr?$AA?9?$AAi?$AAq?$AA?$AA@ 00000001400349d0     LIBCMT:winapinls.obj
 0002:000059e0       ??_C@_1M@GNDIPALM@?$AAa?$AAr?$AA?9?$AAj?$AAo?$AA?$AA@ 00000001400349e0     LIBCMT:winapinls.obj
 0002:000059f0       ??_C@_1M@DDMJFMGJ@?$AAa?$AAr?$AA?9?$AAk?$AAw?$AA?$AA@ 00000001400349f0     LIBCMT:winapinls.obj
 0002:00005a00       ??_C@_1M@EJALMLHM@?$AAa?$AAr?$AA?9?$AAl?$AAb?$AA?$AA@ 0000000140034a00     LIBCMT:winapinls.obj
 0002:00005a10       ??_C@_1M@MOBDBLOC@?$AAa?$AAr?$AA?9?$AAl?$AAy?$AA?$AA@ 0000000140034a10     LIBCMT:winapinls.obj
 0002:00005a20       ??_C@_1M@JAOCLHDH@?$AAa?$AAr?$AA?9?$AAm?$AAa?$AA?$AA@ 0000000140034a20     LIBCMT:winapinls.obj
 0002:00005a30       ??_C@_1M@JHPMKJIE@?$AAa?$AAr?$AA?9?$AAo?$AAm?$AA?$AA@ 0000000140034a30     LIBCMT:winapinls.obj
 0002:00005a40       ??_C@_1M@OEPGHFNH@?$AAa?$AAr?$AA?9?$AAq?$AAa?$AA?$AA@ 0000000140034a40     LIBCMT:winapinls.obj
 0002:00005a50       ??_C@_1M@KJDONENM@?$AAa?$AAr?$AA?9?$AAs?$AAa?$AA?$AA@ 0000000140034a50     LIBCMT:winapinls.obj
 0002:00005a60       ??_C@_1M@DMJDKLKM@?$AAa?$AAr?$AA?9?$AAs?$AAy?$AA?$AA@ 0000000140034a60     LIBCMT:winapinls.obj
 0002:00005a70       ??_C@_1M@OMFIPEDC@?$AAa?$AAr?$AA?9?$AAt?$AAn?$AA?$AA@ 0000000140034a70     LIBCMT:winapinls.obj
 0002:00005a80       ??_C@_1M@IHMHGAON@?$AAa?$AAr?$AA?9?$AAy?$AAe?$AA?$AA@ 0000000140034a80     LIBCMT:winapinls.obj
 0002:00005a90       ??_C@_1BG@KDCPGJGB@?$AAa?$AAz?$AA?9?$AAa?$AAz?$AA?9?$AAc?$AAy?$AAr?$AAl?$AA?$AA@ 0000000140034a90     LIBCMT:winapinls.obj
 0002:00005aa8       ??_C@_1BG@IBCKDDOE@?$AAa?$AAz?$AA?9?$AAa?$AAz?$AA?9?$AAl?$AAa?$AAt?$AAn?$AA?$AA@ 0000000140034aa8     LIBCMT:winapinls.obj
 0002:00005ac0       ??_C@_1M@EGPFDCPD@?$AAb?$AAe?$AA?9?$AAb?$AAy?$AA?$AA@ 0000000140034ac0     LIBCMT:winapinls.obj
 0002:00005ad0       ??_C@_1M@PCMGMCGC@?$AAb?$AAg?$AA?9?$AAb?$AAg?$AA?$AA@ 0000000140034ad0     LIBCMT:winapinls.obj
 0002:00005ae0       ??_C@_1M@BJBMFGOB@?$AAb?$AAn?$AA?9?$AAi?$AAn?$AA?$AA@ 0000000140034ae0     LIBCMT:winapinls.obj
 0002:00005af0       ??_C@_1BG@EAKMMACD@?$AAb?$AAs?$AA?9?$AAb?$AAa?$AA?9?$AAl?$AAa?$AAt?$AAn?$AA?$AA@ 0000000140034af0     LIBCMT:winapinls.obj
 0002:00005b08       ??_C@_1M@KGADAODK@?$AAc?$AAa?$AA?9?$AAe?$AAs?$AA?$AA@ 0000000140034b08     LIBCMT:winapinls.obj
 0002:00005b18       ??_C@_1M@COAJPDHI@?$AAc?$AAs?$AA?9?$AAc?$AAz?$AA?$AA@ 0000000140034b18     LIBCMT:winapinls.obj
 0002:00005b28       ??_C@_1M@DHBHFONH@?$AAc?$AAy?$AA?9?$AAg?$AAb?$AA?$AA@ 0000000140034b28     LIBCMT:winapinls.obj
 0002:00005b38       ??_C@_1M@IMGKELGA@?$AAd?$AAa?$AA?9?$AAd?$AAk?$AA?$AA@ 0000000140034b38     LIBCMT:winapinls.obj
 0002:00005b48       ??_C@_1M@NNDGDNGA@?$AAd?$AAe?$AA?9?$AAa?$AAt?$AA?$AA@ 0000000140034b48     LIBCMT:winapinls.obj
 0002:00005b58       ??_C@_1M@IKDBHEEM@?$AAd?$AAe?$AA?9?$AAc?$AAh?$AA?$AA@ 0000000140034b58     LIBCMT:winapinls.obj
 0002:00005b68       ??_C@_1M@GFFOJMCJ@?$AAd?$AAe?$AA?9?$AAd?$AAe?$AA?$AA@ 0000000140034b68     LIBCMT:winapinls.obj
 0002:00005b78       ??_C@_1M@MDNLKBPM@?$AAd?$AAe?$AA?9?$AAl?$AAi?$AA?$AA@ 0000000140034b78     LIBCMT:winapinls.obj
 0002:00005b88       ??_C@_1M@NJBEEJNL@?$AAd?$AAe?$AA?9?$AAl?$AAu?$AA?$AA@ 0000000140034b88     LIBCMT:winapinls.obj
 0002:00005b98       ??_C@_1O@GNNELBAP@?$AAd?$AAi?$AAv?$AA?9?$AAm?$AAv?$AA?$AA@ 0000000140034b98     LIBCMT:winapinls.obj
 0002:00005ba8       ??_C@_1M@EJLEOGAE@?$AAe?$AAl?$AA?9?$AAg?$AAr?$AA?$AA@ 0000000140034ba8     LIBCMT:winapinls.obj
 0002:00005bb8       ??_C@_1M@GMPONJN@?$AAe?$AAn?$AA?9?$AAa?$AAu?$AA?$AA@ 0000000140034bb8     LIBCMT:winapinls.obj
 0002:00005bc8       ??_C@_1M@NIDIIPGF@?$AAe?$AAn?$AA?9?$AAb?$AAz?$AA?$AA@ 0000000140034bc8     LIBCMT:winapinls.obj
 0002:00005bd8       ??_C@_1M@JEHMIMFO@?$AAe?$AAn?$AA?9?$AAc?$AAa?$AA?$AA@ 0000000140034bd8     LIBCMT:winapinls.obj
 0002:00005be8       ??_C@_1M@IGMJCDLA@?$AAe?$AAn?$AA?9?$AAc?$AAb?$AA?$AA@ 0000000140034be8     LIBCMT:winapinls.obj
 0002:00005bf8       ??_C@_1M@BNFIGBKG@?$AAe?$AAn?$AA?9?$AAg?$AAb?$AA?$AA@ 0000000140034bf8     LIBCMT:winapinls.obj
 0002:00005c08       ??_C@_1M@LKIFDIGP@?$AAe?$AAn?$AA?9?$AAi?$AAe?$AA?$AA@ 0000000140034c08     LIBCMT:winapinls.obj
 0002:00005c18       ??_C@_1M@PJKFGCCO@?$AAe?$AAn?$AA?9?$AAj?$AAm?$AA?$AA@ 0000000140034c18     LIBCMT:winapinls.obj
 0002:00005c28       ??_C@_1M@KPPKEPBO@?$AAe?$AAn?$AA?9?$AAn?$AAz?$AA?$AA@ 0000000140034c28     LIBCMT:winapinls.obj
 0002:00005c38       ??_C@_1M@GMDGLDOB@?$AAe?$AAn?$AA?9?$AAp?$AAh?$AA?$AA@ 0000000140034c38     LIBCMT:winapinls.obj
 0002:00005c48       ??_C@_1M@ONGIBJNA@?$AAe?$AAn?$AA?9?$AAt?$AAt?$AA?$AA@ 0000000140034c48     LIBCMT:winapinls.obj
 0002:00005c58       ??_C@_1M@LLODPCMM@?$AAe?$AAn?$AA?9?$AAu?$AAs?$AA?$AA@ 0000000140034c58     LIBCMT:winapinls.obj
 0002:00005c68       ??_C@_1M@LAKFNPAN@?$AAe?$AAn?$AA?9?$AAz?$AAa?$AA?$AA@ 0000000140034c68     LIBCMT:winapinls.obj
 0002:00005c78       ??_C@_1M@MFNHNHEO@?$AAe?$AAn?$AA?9?$AAz?$AAw?$AA?$AA@ 0000000140034c78     LIBCMT:winapinls.obj
 0002:00005c88       ??_C@_1M@EJEINPHM@?$AAe?$AAs?$AA?9?$AAa?$AAr?$AA?$AA@ 0000000140034c88     LIBCMT:winapinls.obj
 0002:00005c98       ??_C@_1M@GNKPCCJA@?$AAe?$AAs?$AA?9?$AAb?$AAo?$AA?$AA@ 0000000140034c98     LIBCMT:winapinls.obj
 0002:00005ca8       ??_C@_1M@LEEGFONL@?$AAe?$AAs?$AA?9?$AAc?$AAl?$AA?$AA@ 0000000140034ca8     LIBCMT:winapinls.obj
 0002:00005cb8       ??_C@_1M@KGPDPBDF@?$AAe?$AAs?$AA?9?$AAc?$AAo?$AA?$AA@ 0000000140034cb8     LIBCMT:winapinls.obj
 0002:00005cc8       ??_C@_1M@EIAHOHH@?$AAe?$AAs?$AA?9?$AAc?$AAr?$AA?$AA@ 0000000140034cc8     LIBCMT:winapinls.obj
 0002:00005cd8       ??_C@_1M@LLPGMBIN@?$AAe?$AAs?$AA?9?$AAd?$AAo?$AA?$AA@ 0000000140034cd8     LIBCMT:winapinls.obj
 0002:00005ce8       ??_C@_1M@DKHMKNJA@?$AAe?$AAs?$AA?9?$AAe?$AAc?$AA?$AA@ 0000000140034ce8     LIBCMT:winapinls.obj
 0002:00005cf8       ??_C@_1M@GKGFPKAP@?$AAe?$AAs?$AA?9?$AAe?$AAs?$AA?$AA@ 0000000140034cf8     LIBCMT:winapinls.obj
 0002:00005d08       ??_C@_1M@LKHKGDLN@?$AAe?$AAs?$AA?9?$AAg?$AAt?$AA?$AA@ 0000000140034d08     LIBCMT:winapinls.obj
 0002:00005d18       ??_C@_1M@HEIIGGJD@?$AAe?$AAs?$AA?9?$AAh?$AAn?$AA?$AA@ 0000000140034d18     LIBCMT:winapinls.obj
 0002:00005d28       ??_C@_1M@FBDHPPGD@?$AAe?$AAs?$AA?9?$AAm?$AAx?$AA?$AA@ 0000000140034d28     LIBCMT:winapinls.obj
 0002:00005d38       ??_C@_1M@DPAGLNDH@?$AAe?$AAs?$AA?9?$AAn?$AAi?$AA?$AA@ 0000000140034d38     LIBCMT:winapinls.obj
 0002:00005d48       ??_C@_1M@MDGOPGDD@?$AAe?$AAs?$AA?9?$AAp?$AAa?$AA?$AA@ 0000000140034d48     LIBCMT:winapinls.obj
 0002:00005d58       ??_C@_1M@EMAMGBGE@?$AAe?$AAs?$AA?9?$AAp?$AAe?$AA?$AA@ 0000000140034d58     LIBCMT:winapinls.obj
 0002:00005d68       ??_C@_1M@IBMCAOEC@?$AAe?$AAs?$AA?9?$AAp?$AAr?$AA?$AA@ 0000000140034d68     LIBCMT:winapinls.obj
 0002:00005d78       ??_C@_1M@FGMDIJED@?$AAe?$AAs?$AA?9?$AAp?$AAy?$AA?$AA@ 0000000140034d78     LIBCMT:winapinls.obj
 0002:00005d88       ??_C@_1M@IIDEOLLL@?$AAe?$AAs?$AA?9?$AAs?$AAv?$AA?$AA@ 0000000140034d88     LIBCMT:winapinls.obj
 0002:00005d98       ??_C@_1M@GAOBIPA@?$AAe?$AAs?$AA?9?$AAu?$AAy?$AA?$AA@ 0000000140034d98     LIBCMT:winapinls.obj
 0002:00005da8       ??_C@_1M@JKFFICHJ@?$AAe?$AAs?$AA?9?$AAv?$AAe?$AA?$AA@ 0000000140034da8     LIBCMT:winapinls.obj
 0002:00005db8       ??_C@_1M@PNMLOJDF@?$AAe?$AAt?$AA?9?$AAe?$AAe?$AA?$AA@ 0000000140034db8     LIBCMT:winapinls.obj
 0002:00005dc8       ??_C@_1M@GHHLIKEI@?$AAe?$AAu?$AA?9?$AAe?$AAs?$AA?$AA@ 0000000140034dc8     LIBCMT:winapinls.obj
 0002:00005dd8       ??_C@_1M@PBNONODE@?$AAf?$AAa?$AA?9?$AAi?$AAr?$AA?$AA@ 0000000140034dd8     LIBCMT:winapinls.obj
 0002:00005de8       ??_C@_1M@JEEHPMIL@?$AAf?$AAi?$AA?9?$AAf?$AAi?$AA?$AA@ 0000000140034de8     LIBCMT:winapinls.obj
 0002:00005df8       ??_C@_1M@LMDCNDBA@?$AAf?$AAo?$AA?9?$AAf?$AAo?$AA?$AA@ 0000000140034df8     LIBCMT:winapinls.obj
 0002:00005e08       ??_C@_1M@JKEOHLDK@?$AAf?$AAr?$AA?9?$AAb?$AAe?$AA?$AA@ 0000000140034e08     LIBCMT:winapinls.obj
 0002:00005e18       ??_C@_1M@NOHADPMI@?$AAf?$AAr?$AA?9?$AAc?$AAa?$AA?$AA@ 0000000140034e18     LIBCMT:winapinls.obj
 0002:00005e28       ??_C@_1M@KDHIHAEC@?$AAf?$AAr?$AA?9?$AAc?$AAh?$AA?$AA@ 0000000140034e28     LIBCMT:winapinls.obj
 0002:00005e38       ??_C@_1M@MMBBFGAK@?$AAf?$AAr?$AA?9?$AAf?$AAr?$AA?$AA@ 0000000140034e38     LIBCMT:winapinls.obj
 0002:00005e48       ??_C@_1M@PAFNENNF@?$AAf?$AAr?$AA?9?$AAl?$AAu?$AA?$AA@ 0000000140034e48     LIBCMT:winapinls.obj
 0002:00005e58       ??_C@_1M@EOHDJGDD@?$AAf?$AAr?$AA?9?$AAm?$AAc?$AA?$AA@ 0000000140034e58     LIBCMT:winapinls.obj
 0002:00005e68       ??_C@_1M@FAPLLOPF@?$AAg?$AAl?$AA?9?$AAe?$AAs?$AA?$AA@ 0000000140034e68     LIBCMT:winapinls.obj
 0002:00005e78       ??_C@_1M@FOPBFLOO@?$AAg?$AAu?$AA?9?$AAi?$AAn?$AA?$AA@ 0000000140034e78     LIBCMT:winapinls.obj
 0002:00005e88       ??_C@_1M@KBMCINPM@?$AAh?$AAe?$AA?9?$AAi?$AAl?$AA?$AA@ 0000000140034e88     LIBCMT:winapinls.obj
 0002:00005e98       ??_C@_1M@BBPHKFPJ@?$AAh?$AAi?$AA?9?$AAi?$AAn?$AA?$AA@ 0000000140034e98     LIBCMT:winapinls.obj
 0002:00005ea8       ??_C@_1M@PMBNDPHD@?$AAh?$AAr?$AA?9?$AAb?$AAa?$AA?$AA@ 0000000140034ea8     LIBCMT:winapinls.obj
 0002:00005eb8       ??_C@_1M@BPCKOEGE@?$AAh?$AAr?$AA?9?$AAh?$AAr?$AA?$AA@ 0000000140034eb8     LIBCMT:winapinls.obj
 0002:00005ec8       ??_C@_1M@GACBMHKE@?$AAh?$AAu?$AA?9?$AAh?$AAu?$AA?$AA@ 0000000140034ec8     LIBCMT:winapinls.obj
 0002:00005ed8       ??_C@_1M@MILPAJJC@?$AAh?$AAy?$AA?9?$AAa?$AAm?$AA?$AA@ 0000000140034ed8     LIBCMT:winapinls.obj
 0002:00005ee8       ??_C@_1M@BABBICEC@?$AAi?$AAd?$AA?9?$AAi?$AAd?$AA?$AA@ 0000000140034ee8     LIBCMT:winapinls.obj
 0002:00005ef8       ??_C@_1M@BIKNHHPF@?$AAi?$AAs?$AA?9?$AAi?$AAs?$AA?$AA@ 0000000140034ef8     LIBCMT:winapinls.obj
 0002:00005f08       ??_C@_1M@NMPCJPHE@?$AAi?$AAt?$AA?9?$AAc?$AAh?$AA?$AA@ 0000000140034f08     LIBCMT:winapinls.obj
 0002:00005f18       ??_C@_1M@GHKGFEDF@?$AAi?$AAt?$AA?9?$AAi?$AAt?$AA?$AA@ 0000000140034f18     LIBCMT:winapinls.obj
 0002:00005f28       ??_C@_1M@NIEJCJJA@?$AAj?$AAa?$AA?9?$AAj?$AAp?$AA?$AA@ 0000000140034f28     LIBCMT:winapinls.obj
 0002:00005f38       ??_C@_1M@JILFNBIM@?$AAk?$AAa?$AA?9?$AAg?$AAe?$AA?$AA@ 0000000140034f38     LIBCMT:winapinls.obj
 0002:00005f48       ??_C@_1M@PACPMGPH@?$AAk?$AAk?$AA?9?$AAk?$AAz?$AA?$AA@ 0000000140034f48     LIBCMT:winapinls.obj
 0002:00005f58       ??_C@_1M@IELFGMHA@?$AAk?$AAn?$AA?9?$AAi?$AAn?$AA?$AA@ 0000000140034f58     LIBCMT:winapinls.obj
 0002:00005f68       ??_C@_1O@IBBJHCH@?$AAk?$AAo?$AAk?$AA?9?$AAi?$AAn?$AA?$AA@ 0000000140034f68     LIBCMT:winapinls.obj
 0002:00005f78       ??_C@_1M@DMHAEOGC@?$AAk?$AAo?$AA?9?$AAk?$AAr?$AA?$AA@ 0000000140034f78     LIBCMT:winapinls.obj
 0002:00005f88       ??_C@_1M@HBAHBIGA@?$AAk?$AAy?$AA?9?$AAk?$AAg?$AA?$AA@ 0000000140034f88     LIBCMT:winapinls.obj
 0002:00005f98       ??_C@_1M@KPMILCJG@?$AAl?$AAt?$AA?9?$AAl?$AAt?$AA?$AA@ 0000000140034f98     LIBCMT:winapinls.obj
 0002:00005fa8       ??_C@_1M@BDEKKCA@?$AAl?$AAv?$AA?9?$AAl?$AAv?$AA?$AA@ 0000000140034fa8     LIBCMT:winapinls.obj
 0002:00005fb8       ??_C@_1M@ELCKCCJJ@?$AAm?$AAi?$AA?9?$AAn?$AAz?$AA?$AA@ 0000000140034fb8     LIBCMT:winapinls.obj
 0002:00005fc8       ??_C@_1M@CBOOLAPA@?$AAm?$AAk?$AA?9?$AAm?$AAk?$AA?$AA@ 0000000140034fc8     LIBCMT:winapinls.obj
 0002:00005fd8       ??_C@_1M@GPHNBJKN@?$AAm?$AAl?$AA?9?$AAi?$AAn?$AA?$AA@ 0000000140034fd8     LIBCMT:winapinls.obj
 0002:00005fe8       ??_C@_1M@PABJILIG@?$AAm?$AAn?$AA?9?$AAm?$AAn?$AA?$AA@ 0000000140034fe8     LIBCMT:winapinls.obj
 0002:00005ff8       ??_C@_1M@FGBKKIPG@?$AAm?$AAr?$AA?9?$AAi?$AAn?$AA?$AA@ 0000000140034ff8     LIBCMT:winapinls.obj
 0002:00006008       ??_C@_1M@NDBPDDAL@?$AAm?$AAs?$AA?9?$AAb?$AAn?$AA?$AA@ 0000000140035008     LIBCMT:winapinls.obj
 0002:00006018       ??_C@_1M@OPIHOOPI@?$AAm?$AAs?$AA?9?$AAm?$AAy?$AA?$AA@ 0000000140035018     LIBCMT:winapinls.obj
 0002:00006028       ??_C@_1M@PPDBCNFM@?$AAm?$AAt?$AA?9?$AAm?$AAt?$AA?$AA@ 0000000140035028     LIBCMT:winapinls.obj
 0002:00006038       ??_C@_1M@KDJDKMDD@?$AAn?$AAb?$AA?9?$AAn?$AAo?$AA?$AA@ 0000000140035038     LIBCMT:winapinls.obj
 0002:00006048       ??_C@_1M@KFCFLMJP@?$AAn?$AAl?$AA?9?$AAb?$AAe?$AA?$AA@ 0000000140035048     LIBCMT:winapinls.obj
 0002:00006058       ??_C@_1M@KPOPDDGO@?$AAn?$AAl?$AA?9?$AAn?$AAl?$AA?$AA@ 0000000140035058     LIBCMT:winapinls.obj
 0002:00006068       ??_C@_1M@LJKPEMLN@?$AAn?$AAn?$AA?9?$AAn?$AAo?$AA?$AA@ 0000000140035068     LIBCMT:winapinls.obj
 0002:00006078       ??_C@_1M@BDGHHBFL@?$AAn?$AAs?$AA?9?$AAz?$AAa?$AA?$AA@ 0000000140035078     LIBCMT:winapinls.obj
 0002:00006088       ??_C@_1M@IDEHOAP@?$AAp?$AAa?$AA?9?$AAi?$AAn?$AA?$AA@ 0000000140035088     LIBCMT:winapinls.obj
 0002:00006098       ??_C@_1M@HDBKGOGH@?$AAp?$AAl?$AA?9?$AAp?$AAl?$AA?$AA@ 0000000140035098     LIBCMT:winapinls.obj
 0002:000060a8       ??_C@_1M@LJLLCMEH@?$AAp?$AAt?$AA?9?$AAb?$AAr?$AA?$AA@ 00000001400350a8     LIBCMT:winapinls.obj
 0002:000060b8       ??_C@_1M@NCMONAAL@?$AAp?$AAt?$AA?9?$AAp?$AAt?$AA?$AA@ 00000001400350b8     LIBCMT:winapinls.obj
 0002:000060c8       ??_C@_1O@EAKMAJDN@?$AAq?$AAu?$AAz?$AA?9?$AAb?$AAo?$AA?$AA@ 00000001400350c8     LIBCMT:winapinls.obj
 0002:000060d8       ??_C@_1O@BHHPIGDN@?$AAq?$AAu?$AAz?$AA?9?$AAe?$AAc?$AA?$AA@ 00000001400350d8     LIBCMT:winapinls.obj
 0002:000060e8       ??_C@_1O@GBAPEKMJ@?$AAq?$AAu?$AAz?$AA?9?$AAp?$AAe?$AA?$AA@ 00000001400350e8     LIBCMT:winapinls.obj
 0002:000060f8       ??_C@_1M@CLGLEFBO@?$AAr?$AAo?$AA?9?$AAr?$AAo?$AA?$AA@ 00000001400350f8     LIBCMT:winapinls.obj
 0002:00006108       ??_C@_1M@CEEDODME@?$AAr?$AAu?$AA?9?$AAr?$AAu?$AA?$AA@ 0000000140035108     LIBCMT:winapinls.obj
 0002:00006118       ??_C@_1M@HPKKKMPP@?$AAs?$AAa?$AA?9?$AAi?$AAn?$AA?$AA@ 0000000140035118     LIBCMT:winapinls.obj
 0002:00006128       ??_C@_1M@BKMAIGOJ@?$AAs?$AAe?$AA?9?$AAf?$AAi?$AA?$AA@ 0000000140035128     LIBCMT:winapinls.obj
 0002:00006138       ??_C@_1M@NDPIFLFI@?$AAs?$AAe?$AA?9?$AAn?$AAo?$AA?$AA@ 0000000140035138     LIBCMT:winapinls.obj
 0002:00006148       ??_C@_1M@DANKKHJ@?$AAs?$AAe?$AA?9?$AAs?$AAe?$AA?$AA@ 0000000140035148     LIBCMT:winapinls.obj
 0002:00006158       ??_C@_1M@PNBLONPJ@?$AAs?$AAk?$AA?9?$AAs?$AAk?$AA?$AA@ 0000000140035158     LIBCMT:winapinls.obj
 0002:00006168       ??_C@_1M@LFMODOAL@?$AAs?$AAl?$AA?9?$AAs?$AAi?$AA?$AA@ 0000000140035168     LIBCMT:winapinls.obj
 0002:00006178       ??_C@_1O@DFKOMPG@?$AAs?$AAm?$AAa?$AA?9?$AAn?$AAo?$AA?$AA@ 0000000140035178     LIBCMT:winapinls.obj
 0002:00006188       ??_C@_1O@NDKPBNNH@?$AAs?$AAm?$AAa?$AA?9?$AAs?$AAe?$AA?$AA@ 0000000140035188     LIBCMT:winapinls.obj
 0002:00006198       ??_C@_1O@PLLKBHAB@?$AAs?$AAm?$AAj?$AA?9?$AAn?$AAo?$AA?$AA@ 0000000140035198     LIBCMT:winapinls.obj
 0002:000061a8       ??_C@_1O@CLEPOGCA@?$AAs?$AAm?$AAj?$AA?9?$AAs?$AAe?$AA?$AA@ 00000001400351a8     LIBCMT:winapinls.obj
 0002:000061b8       ??_C@_1O@DLGJGKMK@?$AAs?$AAm?$AAn?$AA?9?$AAf?$AAi?$AA?$AA@ 00000001400351b8     LIBCMT:winapinls.obj
 0002:000061c8       ??_C@_1O@OJDJGAJC@?$AAs?$AAm?$AAs?$AA?9?$AAf?$AAi?$AA?$AA@ 00000001400351c8     LIBCMT:winapinls.obj
 0002:000061d8       ??_C@_1M@BOFOGHPB@?$AAs?$AAq?$AA?9?$AAa?$AAl?$AA?$AA@ 00000001400351d8     LIBCMT:winapinls.obj
 0002:000061e8       ??_C@_1BG@LJBBIPGB@?$AAs?$AAr?$AA?9?$AAb?$AAa?$AA?9?$AAc?$AAy?$AAr?$AAl?$AA?$AA@ 00000001400351e8     LIBCMT:winapinls.obj
 0002:00006200       ??_C@_1BG@JLBENFOE@?$AAs?$AAr?$AA?9?$AAb?$AAa?$AA?9?$AAl?$AAa?$AAt?$AAn?$AA?$AA@ 0000000140035200     LIBCMT:winapinls.obj
 0002:00006218       ??_C@_1BG@KODPNHE@?$AAs?$AAr?$AA?9?$AAs?$AAp?$AA?9?$AAc?$AAy?$AAr?$AAl?$AA?$AA@ 0000000140035218     LIBCMT:winapinls.obj
 0002:00006230       ??_C@_1BG@CIOGKHPB@?$AAs?$AAr?$AA?9?$AAs?$AAp?$AA?9?$AAl?$AAa?$AAt?$AAn?$AA?$AA@ 0000000140035230     LIBCMT:winapinls.obj
 0002:00006248       ??_C@_1M@NGFJLMAC@?$AAs?$AAv?$AA?9?$AAf?$AAi?$AA?$AA@ 0000000140035248     LIBCMT:winapinls.obj
 0002:00006258       ??_C@_1M@MPJEJAJC@?$AAs?$AAv?$AA?9?$AAs?$AAe?$AA?$AA@ 0000000140035258     LIBCMT:winapinls.obj
 0002:00006268       ??_C@_1M@MPNDHLFK@?$AAs?$AAw?$AA?9?$AAk?$AAe?$AA?$AA@ 0000000140035268     LIBCMT:winapinls.obj
 0002:00006278       ??_C@_1O@KOHBJJI@?$AAs?$AAy?$AAr?$AA?9?$AAs?$AAy?$AA?$AA@ 0000000140035278     LIBCMT:winapinls.obj
 0002:00006288       ??_C@_1M@LDCEFHA@?$AAt?$AAa?$AA?9?$AAi?$AAn?$AA?$AA@ 0000000140035288     LIBCMT:winapinls.obj
 0002:00006298       ??_C@_1M@CNJOFAK@?$AAt?$AAe?$AA?9?$AAi?$AAn?$AA?$AA@ 0000000140035298     LIBCMT:winapinls.obj
 0002:000062a8       ??_C@_1M@GNAECACD@?$AAt?$AAh?$AA?9?$AAt?$AAh?$AA?$AA@ 00000001400352a8     LIBCMT:winapinls.obj
 0002:000062b8       ??_C@_1M@CHBIHOJO@?$AAt?$AAn?$AA?9?$AAz?$AAa?$AA?$AA@ 00000001400352b8     LIBCMT:winapinls.obj
 0002:000062c8       ??_C@_1M@GCCMIGPJ@?$AAt?$AAr?$AA?9?$AAt?$AAr?$AA?$AA@ 00000001400352c8     LIBCMT:winapinls.obj
 0002:000062d8       ??_C@_1M@CELMCNBK@?$AAt?$AAt?$AA?9?$AAr?$AAu?$AA?$AA@ 00000001400352d8     LIBCMT:winapinls.obj
 0002:000062e8       ??_C@_1M@KLMCELGA@?$AAu?$AAk?$AA?9?$AAu?$AAa?$AA?$AA@ 00000001400352e8     LIBCMT:winapinls.obj
 0002:000062f8       ??_C@_1M@EPAJJAJF@?$AAu?$AAr?$AA?9?$AAp?$AAk?$AA?$AA@ 00000001400352f8     LIBCMT:winapinls.obj
 0002:00006308       ??_C@_1BG@GEGPMCDJ@?$AAu?$AAz?$AA?9?$AAu?$AAz?$AA?9?$AAc?$AAy?$AAr?$AAl?$AA?$AA@ 0000000140035308     LIBCMT:winapinls.obj
 0002:00006320       ??_C@_1BG@EGGKJILM@?$AAu?$AAz?$AA?9?$AAu?$AAz?$AA?9?$AAl?$AAa?$AAt?$AAn?$AA?$AA@ 0000000140035320     LIBCMT:winapinls.obj
 0002:00006338       ??_C@_1M@GFOCLFF@?$AAv?$AAi?$AA?9?$AAv?$AAn?$AA?$AA@ 0000000140035338     LIBCMT:winapinls.obj
 0002:00006348       ??_C@_1M@CPAMEDFI@?$AAx?$AAh?$AA?9?$AAz?$AAa?$AA?$AA@ 0000000140035348     LIBCMT:winapinls.obj
 0002:00006358       ??_C@_1O@EBKIFIGN@?$AAz?$AAh?$AA?9?$AAc?$AAh?$AAs?$AA?$AA@ 0000000140035358     LIBCMT:winapinls.obj
 0002:00006368       ??_C@_1O@NMHPGANE@?$AAz?$AAh?$AA?9?$AAc?$AAh?$AAt?$AA?$AA@ 0000000140035368     LIBCMT:winapinls.obj
 0002:00006378       ??_C@_1M@LPINJOMC@?$AAz?$AAh?$AA?9?$AAc?$AAn?$AA?$AA@ 0000000140035378     LIBCMT:winapinls.obj
 0002:00006388       ??_C@_1M@OCJEJODD@?$AAz?$AAh?$AA?9?$AAh?$AAk?$AA?$AA@ 0000000140035388     LIBCMT:winapinls.obj
 0002:00006398       ??_C@_1M@DNDLJINH@?$AAz?$AAh?$AA?9?$AAm?$AAo?$AA?$AA@ 0000000140035398     LIBCMT:winapinls.obj
 0002:000063a8       ??_C@_1M@MBFDNDND@?$AAz?$AAh?$AA?9?$AAs?$AAg?$AA?$AA@ 00000001400353a8     LIBCMT:winapinls.obj
 0002:000063b8       ??_C@_1M@IMEPLEPE@?$AAz?$AAh?$AA?9?$AAt?$AAw?$AA?$AA@ 00000001400353b8     LIBCMT:winapinls.obj
 0002:000063c8       ??_C@_1M@BBGHNHJP@?$AAz?$AAu?$AA?9?$AAz?$AAa?$AA?$AA@ 00000001400353c8     LIBCMT:winapinls.obj
 0002:000063d8       ??_C@_1BG@GOEBHBDC@?$AAU?$AAS?$AAE?$AAR?$AA3?$AA2?$AA?4?$AAD?$AAL?$AAL?$AA?$AA@ 00000001400353d8     LIBCMT:crtmboxw.obj
 0002:000063f0       ??_C@_0M@DLDCCGNP@MessageBoxW?$AA@ 00000001400353f0     LIBCMT:crtmboxw.obj
 0002:00006400       ??_C@_0BA@HNOPNCHB@GetActiveWindow?$AA@ 0000000140035400     LIBCMT:crtmboxw.obj
 0002:00006410       ??_C@_0BD@HHGDFDBJ@GetLastActivePopup?$AA@ 0000000140035410     LIBCMT:crtmboxw.obj
 0002:00006428       ??_C@_0BK@DEKFELLI@GetUserObjectInformationW?$AA@ 0000000140035428     LIBCMT:crtmboxw.obj
 0002:00006448       ??_C@_0BI@DFKBFLJE@GetProcessWindowStation?$AA@ 0000000140035448     LIBCMT:crtmboxw.obj
 0002:000064e0       __rg_language_count        00000001400354e0     LIBCMT:getqloc.obj
 0002:000064e4       __rg_country_count         00000001400354e4     LIBCMT:getqloc.obj
 0002:000064e8       _FPinit                    00000001400354e8     LIBCMT:fpinit.obj
 0002:000064f0       ??_C@_05KLBDPFGC@e?$CL000?$AA@ 00000001400354f0     LIBCMT:cvt.obj
 0002:000064f8       __real@0000000000000000    00000001400354f8     LIBCMT:cvt.obj
 0002:00006500       ??_C@_1BA@BALFACEM@?$AAC?$AAO?$AAN?$AAO?$AAU?$AAT?$AA$?$AA?$AA@ 0000000140035500     LIBCMT:initcon.obj
 0002:00006510       ??_C@_06PGGFOGJG@1?$CDSNAN?$AA@ 0000000140035510     LIBCMT:x10fout.obj
 0002:00006518       ??_C@_05PHHOCPM@1?$CDIND?$AA@ 0000000140035518     LIBCMT:x10fout.obj
 0002:00006520       ??_C@_05DNEBIAHO@1?$CDINF?$AA@ 0000000140035520     LIBCMT:x10fout.obj
 0002:00006528       ??_C@_06IMKFLFPG@1?$CDQNAN?$AA@ 0000000140035528     LIBCMT:x10fout.obj
 0002:00006530       ??_C@_09IEJHAGNL@CEnterDlg?$AA@ 0000000140035530     Enterdlg.obj
 0002:00006548       ??_7CEnterDlg@@6B@         0000000140035548     Enterdlg.obj
 0002:00006660       ??_C@_04BBNPPDNC@Edit?$AA@ 0000000140035660     Enterdlg.obj
 0002:00006665       ??_C@_00CNPNBAHC@?$AA@     0000000140035665     Enterdlg.obj
 0002:00006670       ??_7CCmdUI@@6B@            0000000140035670     Enterdlg.obj
 0002:00006698       ??_7CTestCmdUI@@6B@        0000000140035698     Enterdlg.obj
 0002:000066c0       ??_7CDCMTL@@6B@            00000001400356c0     Enterdlg.obj
 0002:000066f8       ??_7CWnd@@6B@              00000001400356f8     Enterdlg.obj
 0002:000067e0       ??_C@_0L@CNCKOKP@AfxWndMtls?$AA@ 00000001400357e0     Enterdlg.obj
 0002:000067f0       ??_C@_0BC@JFPEICKM@AfxOleControlMtls?$AA@ 00000001400357f0     Enterdlg.obj
 0002:00006808       ??_C@_0BC@FKIOCHOL@AfxControlBarMtls?$AA@ 0000000140035808     Enterdlg.obj
 0002:00006820       ??_C@_0BA@KMGIIJIM@AfxMDIFrameMtls?$AA@ 0000000140035820     Enterdlg.obj
 0002:00006830       ??_C@_0BD@FIGPECAF@AfxFrameOrViewMtls?$AA@ 0000000140035830     Enterdlg.obj
 0002:00006850       ??_7CCmdTarget@@6B@        0000000140035850     Enterdlg.obj
 0002:00006880       ??_7CMenuMTL@@6B@          0000000140035880     Enterdlg.obj
 0002:00006890       ??_7CWMHnd@@6B@            0000000140035890     Enterdlg.obj
 0002:00006930       ??_7CDialog@@6B@           0000000140035930     Enterdlg.obj
 0002:00006a48       ?classCEnterDlg@CEnterDlg@@2UCRuntimeClass@@B 0000000140035a48     Enterdlg.obj
 0002:00006a78       ??_C@_0L@HAHAACHC@CInputView?$AA@ 0000000140035a78     Inputvw.obj
 0002:00006a90       ??_7CInputView@@6B@        0000000140035a90     Inputvw.obj
 0002:00006bf8       ??_7CScrollView@@6B@       0000000140035bf8     Inputvw.obj
 0002:00006d58       ??_C@_09NJJHGIHK@Afx?3?$CFp?3?$CFx?$AA@ 0000000140035d58     Inputvw.obj
 0002:00006d68       ??_C@_0BD@EOLFNIPD@Afx?3?$CFp?3?$CFx?3?$CFp?3?$CFp?3?$CFp?$AA@ 0000000140035d68     Inputvw.obj
 0002:00006d88       ??_7CRgnMTL@@6B@           0000000140035d88     Inputvw.obj
 0002:00006d98       ??_7_AFX_MOUSEANCHORWND@@6B@ 0000000140035d98     Inputvw.obj
 0002:00006e88       ??_7CPaintDCMTL@@6B@       0000000140035e88     Inputvw.obj
 0002:00006ec0       ??_7CView@@6B@             0000000140035ec0     Inputvw.obj
 0002:00007018       ??_7CWindowDCMTL@@6B@      0000000140036018     Inputvw.obj
 0002:00007048       ?classCInputView@CInputView@@2UCRuntimeClass@@B 0000000140036048     Inputvw.obj
 0002:00007078       ??_C@_08HBGEKIFD@CMainDoc?$AA@ 0000000140036078     Maindoc.obj
 0002:00007088       ??_C@_0BD@BCDAKDKM@Sample?5Data?5String?$AA@ 0000000140036088     Maindoc.obj
 0002:000070a8       ??_7CMainDoc@@6B@          00000001400360a8     Maindoc.obj
 0002:00007150       ??_C@_03GEDCCLKD@?3?1?2?$AA@ 0000000140036150     Maindoc.obj
 0002:00007158       ??_C@_0BL@OFBDHBNO@commdlg_LBSelChangedNotify?$AA@ 0000000140036158     Maindoc.obj
 0002:00007178       ??_C@_0BH@HGKAGIJK@commdlg_ShareViolation?$AA@ 0000000140036178     Maindoc.obj
 0002:00007190       ??_C@_0BD@BNBCEAFM@commdlg_FileNameOK?$AA@ 0000000140036190     Maindoc.obj
 0002:000071a8       ??_C@_0N@FIGHHFHB@commdlg_help?$AA@ 00000001400361a8     Maindoc.obj
 0002:000071b8       ??_C@_0BE@IEIONKOG@commdlg_SetRGBColor?$AA@ 00000001400361b8     Maindoc.obj
 0002:000071d0       _GUID_42f85136_db7e_439c_85f1_e4075d135fc8 00000001400361d0     Maindoc.obj
 0002:000071e0       _GUID_e6fdd21a_163f_4975_9c8c_a69f1ba37034 00000001400361e0     Maindoc.obj
 0002:000071f8       ??_7CFileDialogMTL@@6B@    00000001400361f8     Maindoc.obj
 0002:00007350       ??_C@_01ICJEACDI@?$DL?$AA@ 0000000140036350     Maindoc.obj
 0002:00007354       ??_C@_03EMIMMIHL@?$CK?4?$CK?$AA@ 0000000140036354     Maindoc.obj
 0002:00007358       ??_C@_1BI@BNFKGMFK@?$AAs?$AAh?$AAe?$AAl?$AAl?$AA3?$AA2?$AA?4?$AAd?$AAl?$AAl?$AA?$AA@ 0000000140036358     Maindoc.obj
 0002:00007370       ??_C@_0BM@LOMPMPGE@SHCreateItemFromParsingName?$AA@ 0000000140036370     Maindoc.obj
 0002:00007390       _GUID_43826d1e_e718_42ee_bc55_a1e261c37bfe 0000000140036390     Maindoc.obj
 0002:000073a0       _GUID_84bccd23_5fde_4cdb_aea4_af64b83d78ab 00000001400363a0     Maindoc.obj
 0002:000073b0       _GUID_d57c7288_d4ad_4768_be02_9d969532d960 00000001400363b0     Maindoc.obj
 0002:000073c8       ??_7CFile@@6B@             00000001400363c8     Maindoc.obj
 0002:00007408       ?classCMainDoc@CMainDoc@@2UCRuntimeClass@@B 0000000140036408     Maindoc.obj
 0002:00007438       ??_C@_09EOGGCAAM@CTextView?$AA@ 0000000140036438     Simpvw.obj
 0002:00007448       ??_C@_0L@EOMKICAB@CColorView?$AA@ 0000000140036448     Simpvw.obj
 0002:00007460       ??_7CBrushMTL@@6B@         0000000140036460     Simpvw.obj
 0002:00007470       ??_7CColorView@@6B@        0000000140036470     Simpvw.obj
 0002:000075c0       ?classCColorView@CColorView@@2UCRuntimeClass@@B 00000001400365c0     Simpvw.obj
 0002:000075f8       ??_7CTextView@@6B@         00000001400365f8     Simpvw.obj
 0002:00007748       ?classCTextView@CTextView@@2UCRuntimeClass@@B 0000000140036748     Simpvw.obj
 0002:00007778       ??_C@_0P@CEOICDCF@CSplitterFrame?$AA@ 0000000140036778     Splitter.obj
 0002:00007788       ??_C@_0BD@IAKPKHF@C3WaySplitterFrame?$AA@ 0000000140036788     Splitter.obj
 0002:000077a0       ??_C@_0BA@GKHGKEB@CViewExSplitWnd?$AA@ 00000001400367a0     Splitter.obj
 0002:000077b8       ??_7CViewExSplitWnd@@6B@   00000001400367b8     Splitter.obj
 0002:00007990       ?classCViewExSplitWnd@CViewExSplitWnd@@2UCRuntimeClass@@B 0000000140036990     Splitter.obj
 0002:000079c8       ??_7C3WaySplitterFrame@@6B@ 00000001400369c8     Splitter.obj
 0002:00007b20       ?classC3WaySplitterFrame@C3WaySplitterFrame@@2UCRuntimeClass@@B 0000000140036b20     Splitter.obj
 0002:00007b50       ??_C@_09CBFIFDOD@SCROLLBAR?$AA@ 0000000140036b50     Splitter.obj
 0002:00007b68       ??_7CSplitterWnd@@6B@      0000000140036b68     Splitter.obj
 0002:00007d48       ??_7CSplitterFrame@@6B@    0000000140036d48     Splitter.obj
 0002:00007ea0       ??_C@_03NLJIHOMM@?5?9?5?$AA@ 0000000140036ea0     Splitter.obj
 0002:00007ea4       ??_C@_03HODKBCIO@?3?$CFd?$AA@ 0000000140036ea4     Splitter.obj
 0002:00007eb0       ??_7CFrameWnd@@6B@         0000000140036eb0     Splitter.obj
 0002:00008000       ??_7CMDIChildWnd@@6B@      0000000140037000     Splitter.obj
 0002:00008158       ?classCSplitterFrame@CSplitterFrame@@2UCRuntimeClass@@B 0000000140037158     Splitter.obj
 0002:00008188       ?classCDialog@CDialog@@2UCRuntimeClass@@B 0000000140037188     Stdafx.obj
 0002:000081b8       ?classCSplitterWnd@CSplitterWnd@@2UCRuntimeClass@@B 00000001400371b8     Stdafx.obj
 0002:000081e8       ?sizeDefault@CScrollView@@2UtagSIZE@@B 00000001400371e8     Stdafx.obj
 0002:000081f0       ?classCObject@CObject@@2UCRuntimeClass@@B 00000001400371f0     Stdafx.obj
 0002:00008220       ?classCFrameWnd@CFrameWnd@@2UCRuntimeClass@@B 0000000140037220     Stdafx.obj
 0002:00008250       ?classCFormView@CFormView@@2UCRuntimeClass@@B 0000000140037250     Stdafx.obj
 0002:00008280       ?classCFileDialogMTL@CFileDialogMTL@@2UCRuntimeClass@@B 0000000140037280     Stdafx.obj
 0002:000082b0       ?classCDocument@CDocument@@2UCRuntimeClass@@B 00000001400372b0     Stdafx.obj
 0002:000082e0       ?classCView@CView@@2UCRuntimeClass@@B 00000001400372e0     Stdafx.obj
 0002:00008310       ?classCScrollView@CScrollView@@2UCRuntimeClass@@B 0000000140037310     Stdafx.obj
 0002:00008340       ?classCDockBar@CDockBar@@2UCRuntimeClass@@B 0000000140037340     Stdafx.obj
 0002:00008370       ?classCControlBar@CControlBar@@2UCRuntimeClass@@B 0000000140037370     Stdafx.obj
 0002:000083a0       ?classCMDIChildWnd@CMDIChildWnd@@2UCRuntimeClass@@B 00000001400373a0     Stdafx.obj
 0002:000083d0       ??_C@_09KCOPKCPN@mdiclient?$AA@ 00000001400373d0     Stdafx.obj
 0002:000083dc       ??_C@_04PFNDIDGE@?4CHM?$AA@ 00000001400373dc     Stdafx.obj
 0002:000083e4       ??_C@_04NKLHMAKF@?4HLP?$AA@ 00000001400373e4     Stdafx.obj
 0002:000083ec       ??_C@_04PKIPNKLG@?4INI?$AA@ 00000001400373ec     Stdafx.obj
 0002:000083f8       ?classCWnd@CWnd@@2UCRuntimeClass@@B 00000001400373f8     Stdafx.obj
 0002:00008428       ?classCMultiDocTemplate@CMultiDocTemplate@@2UCRuntimeClass@@B 0000000140037428     Stdafx.obj
 0002:00008458       ?classCCmdTarget@CCmdTarget@@2UCRuntimeClass@@B 0000000140037458     Stdafx.obj
 0002:00008490       ??_7CMDIFrameWnd@@6B@      0000000140037490     Stdafx.obj
 0002:000085f0       ?classCMDIFrameWnd@CMDIFrameWnd@@2UCRuntimeClass@@B 00000001400375f0     Stdafx.obj
 0002:00008620       ?classCDocTemplate@CDocTemplate@@2UCRuntimeClass@@B 0000000140037620     Stdafx.obj
 0002:00008650       ??_C@_07BEAIOPAP@CObject?$AA@ 0000000140037650     Stdafx.obj
 0002:00008658       ??_C@_0L@GDEMJNJL@CCmdTarget?$AA@ 0000000140037658     Stdafx.obj
 0002:00008664       ??_C@_04DDIMFFOJ@CWnd?$AA@ 0000000140037664     Stdafx.obj
 0002:00008670       ??_C@_07BOOFINFL@CDialog?$AA@ 0000000140037670     Stdafx.obj
 0002:00008678       ??_C@_09PHHOBLDA@CFrameWnd?$AA@ 0000000140037678     Stdafx.obj
 0002:00008684       ??_C@_05BIOOECIG@CView?$AA@ 0000000140037684     Stdafx.obj
 0002:00008690       ??_C@_0N@IAAEHEJA@CSplitterWnd?$AA@ 0000000140037690     Stdafx.obj
 0002:000086a0       ??_C@_09GGLMOPCJ@CDocument?$AA@ 00000001400376a0     Stdafx.obj
 0002:000086b0       ??_C@_0N@PIIJNOBP@CDocTemplate?$AA@ 00000001400376b0     Stdafx.obj
 0002:000086c0       ??_C@_0BC@FHADKPLB@CMultiDocTemplate?$AA@ 00000001400376c0     Stdafx.obj
 0002:000086d8       ??_C@_0M@KLLMHFML@CControlBar?$AA@ 00000001400376d8     Stdafx.obj
 0002:000086e8       ??_C@_08CLEDDFPF@CDockBar?$AA@ 00000001400376e8     Stdafx.obj
 0002:000086f8       ??_C@_0N@MELIIEBL@CMDIFrameWnd?$AA@ 00000001400376f8     Stdafx.obj
 0002:00008708       ??_C@_0N@KGIHFIMF@CMDIChildWnd?$AA@ 0000000140037708     Stdafx.obj
 0002:00008718       ??_C@_0M@CDPKIMCK@CScrollView?$AA@ 0000000140037718     Stdafx.obj
 0002:00008728       ??_C@_09NNDJFKCO@CFormView?$AA@ 0000000140037728     Stdafx.obj
 0002:00008738       ??_C@_0P@HEBNJMNI@CFileDialogMTL?$AA@ 0000000140037738     Stdafx.obj
 0002:00008748       ??_C@_02DPKJAMEF@?$CFd?$AA@ 0000000140037748     Viewex.obj
 0002:00008758       ??_7CMultiDocTemplate@@6B@ 0000000140037758     Viewex.obj
 0002:000087f8       ??_7CDocManager@@6B@       00000001400377f8     Viewex.obj
 0002:00008828       ??_7CViewExApp@@6B@        0000000140037828     Viewex.obj
 0002:000088a0       ??_7CWinThread@@6B@        00000001400378a0     Viewex.obj
 0002:000088d0       ??_7CWinApp@@6B@           00000001400378d0     Viewex.obj
 0002:00008940       ??_C@_0DD@KLACBBLO@?$HL?$CF08X?9?$CF04X?9?$CF04X?9?$CF02X?$CF02X?9?$CF02X?$CF02@ 0000000140037940     Viewex.obj
 0002:00008978       ??_C@_1M@KANJNLFF@?$AAC?$AAL?$AAS?$AAI?$AAD?$AA?$AA@ 0000000140037978     Viewex.obj
 0002:00008988       ??_C@_1BO@ECHKLJPO@?$AAI?$AAn?$AAP?$AAr?$AAo?$AAc?$AAS?$AAe?$AAr?$AAv?$AAe?$AAr?$AA3?$AA2?$AA?$AA@ 0000000140037988     Viewex.obj
 0002:000089a8       ??_C@_0BC@JDLGBILA@DllGetClassObject?$AA@ 00000001400379a8     Viewex.obj
 0002:000089c8       ??_7CNewTypeDlg@@6B@       00000001400379c8     Viewex.obj
 0002:00008ca0       __xmm@000000000000000000000000000007d0 0000000140037ca0     Viewex.obj
 0002:00008cb0       __xmm@00007fff00007fff0000000000000000 0000000140037cb0     Splitter.obj
 0002:00009a28       _pDestructExceptionObject  0000000140038a28     LIBCMT:frame.obj
 0002:00009a38       ??_7bad_exception@std@@6B@ 0000000140038a38     LIBCMT:frame.obj
 0002:00009a48       ??_C@_0O@DPKOEFFH@bad?5exception?$AA@ 0000000140038a48     LIBCMT:frame.obj
 0002:00009a60       _load_config_used          0000000140038a60     LIBCMT:loadcfg.obj
 0002:00009ad0       ??_R1A@?0A@EA@exception@std@@8 0000000140038ad0     LIBCMT:new.obj
 0002:00009af8       ??_R3exception@std@@8      0000000140038af8     LIBCMT:new.obj
 0002:00009b10       ??_R2exception@std@@8      0000000140038b10     LIBCMT:new.obj
 0002:00009b20       ??_R4bad_alloc@std@@6B@    0000000140038b20     LIBCMT:new.obj
 0002:00009b48       ??_R3bad_alloc@std@@8      0000000140038b48     LIBCMT:new.obj
 0002:00009b60       ??_R2bad_alloc@std@@8      0000000140038b60     LIBCMT:new.obj
 0002:00009b78       ??_R1A@?0A@EA@bad_alloc@std@@8 0000000140038b78     LIBCMT:new.obj
 0002:00009ba0       ??_R4type_info@@6B@        0000000140038ba0     LIBCMT:typinfo.obj
 0002:00009bc8       ??_R3type_info@@8          0000000140038bc8     LIBCMT:typinfo.obj
 0002:00009be0       ??_R2type_info@@8          0000000140038be0     LIBCMT:typinfo.obj
 0002:00009bf0       ??_R1A@?0A@EA@type_info@@8 0000000140038bf0     LIBCMT:typinfo.obj
 0002:00009c18       ??_R4exception@std@@6B@    0000000140038c18     LIBCMT:stdexcpt.obj
 0002:00009c40       ??_R2CEnterDlg@@8          0000000140038c40     Enterdlg.obj
 0002:00009c80       ??_R1A@?0A@EA@CEnterDlg@@8 0000000140038c80     Enterdlg.obj
 0002:00009ca8       ??_R3CEnterDlg@@8          0000000140038ca8     Enterdlg.obj
 0002:00009cc0       ??_R4CEnterDlg@@6B@        0000000140038cc0     Enterdlg.obj
 0002:00009ce8       ??_R1A@?0A@EA@CDialog@@8   0000000140038ce8     Enterdlg.obj
 0002:00009d10       ??_R2CDialog@@8            0000000140038d10     Enterdlg.obj
 0002:00009d48       ??_R3CDialog@@8            0000000140038d48     Enterdlg.obj
 0002:00009d60       ??_R4CDialog@@6B@          0000000140038d60     Enterdlg.obj
 0002:00009d88       ??_R1A@?0A@EA@CWnd@@8      0000000140038d88     Enterdlg.obj
 0002:00009db0       ??_R2CWnd@@8               0000000140038db0     Enterdlg.obj
 0002:00009de0       ??_R3CWnd@@8               0000000140038de0     Enterdlg.obj
 0002:00009df8       ??_R4CWnd@@6B@             0000000140038df8     Enterdlg.obj
 0002:00009e20       ??_R4CCmdUI@@6B@           0000000140038e20     Enterdlg.obj
 0002:00009e48       ??_R1A@?0A@EA@CTestCmdUI@@8 0000000140038e48     Enterdlg.obj
 0002:00009e70       ??_R2CCmdUI@@8             0000000140038e70     Enterdlg.obj
 0002:00009e80       ??_R3CCmdUI@@8             0000000140038e80     Enterdlg.obj
 0002:00009e98       ??_R1A@?0A@EA@CCmdUI@@8    0000000140038e98     Enterdlg.obj
 0002:00009ec0       ??_R2CTestCmdUI@@8         0000000140038ec0     Enterdlg.obj
 0002:00009ed8       ??_R3CTestCmdUI@@8         0000000140038ed8     Enterdlg.obj
 0002:00009ef0       ??_R4CTestCmdUI@@6B@       0000000140038ef0     Enterdlg.obj
 0002:00009f18       ??_R1A@?0A@EA@CDCMTL@@8    0000000140038f18     Enterdlg.obj
 0002:00009f40       ??_R2?$CHandleWrapper@VCDCMTL@@PEAUHDC__@@V?$CDCT@$00@WTL@@@@8 0000000140038f40     Enterdlg.obj
 0002:00009f58       ??_R3?$CHandleWrapper@VCDCMTL@@PEAUHDC__@@V?$CDCT@$00@WTL@@@@8 0000000140038f58     Enterdlg.obj
 0002:00009f70       ??_R1A@?0A@EA@?$CHandleWrapper@VCDCMTL@@PEAUHDC__@@V?$CDCT@$00@WTL@@@@8 0000000140038f70     Enterdlg.obj
 0002:00009f98       ??_R1A@?0A@EA@?$CDCT@$00@WTL@@8 0000000140038f98     Enterdlg.obj
 0002:00009fc0       ??_R2?$CDCT@$00@WTL@@8     0000000140038fc0     Enterdlg.obj
 0002:00009fd0       ??_R3?$CDCT@$00@WTL@@8     0000000140038fd0     Enterdlg.obj
 0002:00009fe8       ??_R17?0A@EA@?$CDCT@$00@WTL@@8 0000000140038fe8     Enterdlg.obj
 0002:0000a010       ??_R2CDCMTL@@8             0000000140039010     Enterdlg.obj
 0002:0000a030       ??_R3CDCMTL@@8             0000000140039030     Enterdlg.obj
 0002:0000a048       ??_R4CDCMTL@@6B@           0000000140039048     Enterdlg.obj
 0002:0000a070       ??_R4CCmdTarget@@6B@       0000000140039070     Enterdlg.obj
 0002:0000a098       ??_R1A@?0A@EA@CWMHnd@@8    0000000140039098     Enterdlg.obj
 0002:0000a0c0       ??_R2CCmdTarget@@8         00000001400390c0     Enterdlg.obj
 0002:0000a0d8       ??_R3CCmdTarget@@8         00000001400390d8     Enterdlg.obj
 0002:0000a0f0       ??_R1A@?0A@EA@CCmdTarget@@8 00000001400390f0     Enterdlg.obj
 0002:0000a118       ??_R2CObject@@8            0000000140039118     Enterdlg.obj
 0002:0000a128       ??_R3CObject@@8            0000000140039128     Enterdlg.obj
 0002:0000a140       ??_R1A@?0A@EA@CObject@@8   0000000140039140     Enterdlg.obj
 0002:0000a168       ??_R1A@?0A@EA@CWindow@ATL@@8 0000000140039168     Enterdlg.obj
 0002:0000a190       ??_R2CWindow@ATL@@8        0000000140039190     Enterdlg.obj
 0002:0000a1a0       ??_R3CWindow@ATL@@8        00000001400391a0     Enterdlg.obj
 0002:0000a1b8       ??_R17?0A@EA@CWindow@ATL@@8 00000001400391b8     Enterdlg.obj
 0002:0000a1e0       ??_R2CWMHnd@@8             00000001400391e0     Enterdlg.obj
 0002:0000a208       ??_R3CWMHnd@@8             0000000140039208     Enterdlg.obj
 0002:0000a220       ??_R4CWMHnd@@6B@           0000000140039220     Enterdlg.obj
 0002:0000a248       ??_R1A@?0A@EA@CMenuMTL@@8  0000000140039248     Enterdlg.obj
 0002:0000a270       ??_R2?$CHandleWrapper@VCMenuMTL@@PEAUHMENU__@@V?$CMenuT@$00@WTL@@@@8 0000000140039270     Enterdlg.obj
 0002:0000a288       ??_R3?$CHandleWrapper@VCMenuMTL@@PEAUHMENU__@@V?$CMenuT@$00@WTL@@@@8 0000000140039288     Enterdlg.obj
 0002:0000a2a0       ??_R1A@?0A@EA@?$CHandleWrapper@VCMenuMTL@@PEAUHMENU__@@V?$CMenuT@$00@WTL@@@@8 00000001400392a0     Enterdlg.obj
 0002:0000a2c8       ??_R1A@?0A@EA@?$CMenuT@$00@WTL@@8 00000001400392c8     Enterdlg.obj
 0002:0000a2f0       ??_R2?$CMenuT@$00@WTL@@8   00000001400392f0     Enterdlg.obj
 0002:0000a300       ??_R3?$CMenuT@$00@WTL@@8   0000000140039300     Enterdlg.obj
 0002:0000a318       ??_R17?0A@EA@?$CMenuT@$00@WTL@@8 0000000140039318     Enterdlg.obj
 0002:0000a340       ??_R2CMenuMTL@@8           0000000140039340     Enterdlg.obj
 0002:0000a360       ??_R3CMenuMTL@@8           0000000140039360     Enterdlg.obj
 0002:0000a378       ??_R4CMenuMTL@@6B@         0000000140039378     Enterdlg.obj
 0002:0000a3a0       ??_R2CInputView@@8         00000001400393a0     Inputvw.obj
 0002:0000a3f0       ??_R1A@?0A@EA@CInputView@@8 00000001400393f0     Inputvw.obj
 0002:0000a418       ??_R3CInputView@@8         0000000140039418     Inputvw.obj
 0002:0000a430       ??_R4CInputView@@6B@       0000000140039430     Inputvw.obj
 0002:0000a458       ??_R4CScrollView@@6B@      0000000140039458     Inputvw.obj
 0002:0000a480       ??_R1A@?0A@EA@CFormView@@8 0000000140039480     Inputvw.obj
 0002:0000a4a8       ??_R2CScrollView@@8        00000001400394a8     Inputvw.obj
 0002:0000a4e8       ??_R3CScrollView@@8        00000001400394e8     Inputvw.obj
 0002:0000a500       ??_R1A@?0A@EA@CScrollView@@8 0000000140039500     Inputvw.obj
 0002:0000a530       ??_R2CFormView@@8          0000000140039530     Inputvw.obj
 0002:0000a578       ??_R3CFormView@@8          0000000140039578     Inputvw.obj
 0002:0000a590       ??_R1A@?0A@EA@CRgnMTL@@8   0000000140039590     Inputvw.obj
 0002:0000a5b8       ??_R2?$CHandleWrapper@VCRgnMTL@@PEAUHRGN__@@V?$CRgnT@$00@WTL@@@@8 00000001400395b8     Inputvw.obj
 0002:0000a5d0       ??_R3?$CHandleWrapper@VCRgnMTL@@PEAUHRGN__@@V?$CRgnT@$00@WTL@@@@8 00000001400395d0     Inputvw.obj
 0002:0000a5e8       ??_R1A@?0A@EA@?$CHandleWrapper@VCRgnMTL@@PEAUHRGN__@@V?$CRgnT@$00@WTL@@@@8 00000001400395e8     Inputvw.obj
 0002:0000a610       ??_R1A@?0A@EA@?$CRgnT@$00@WTL@@8 0000000140039610     Inputvw.obj
 0002:0000a638       ??_R2?$CRgnT@$00@WTL@@8    0000000140039638     Inputvw.obj
 0002:0000a648       ??_R3?$CRgnT@$00@WTL@@8    0000000140039648     Inputvw.obj
 0002:0000a660       ??_R17?0A@EA@?$CRgnT@$00@WTL@@8 0000000140039660     Inputvw.obj
 0002:0000a688       ??_R2CRgnMTL@@8            0000000140039688     Inputvw.obj
 0002:0000a6a8       ??_R3CRgnMTL@@8            00000001400396a8     Inputvw.obj
 0002:0000a6c0       ??_R4CRgnMTL@@6B@          00000001400396c0     Inputvw.obj
 0002:0000a6e8       ??_R1A@?0A@EA@_AFX_MOUSEANCHORWND@@8 00000001400396e8     Inputvw.obj
 0002:0000a710       ??_R2_AFX_MOUSEANCHORWND@@8 0000000140039710     Inputvw.obj
 0002:0000a748       ??_R3_AFX_MOUSEANCHORWND@@8 0000000140039748     Inputvw.obj
 0002:0000a760       ??_R4_AFX_MOUSEANCHORWND@@6B@ 0000000140039760     Inputvw.obj
 0002:0000a788       ??_R1A@?0A@EA@CView@@8     0000000140039788     Inputvw.obj
 0002:0000a7b0       ??_R2CView@@8              00000001400397b0     Inputvw.obj
 0002:0000a7e8       ??_R3CView@@8              00000001400397e8     Inputvw.obj
 0002:0000a800       ??_R4CView@@6B@            0000000140039800     Inputvw.obj
 0002:0000a828       ??_R1A@?0A@EA@CPaintDCMTL@@8 0000000140039828     Inputvw.obj
 0002:0000a850       ??_R2CPaintDCMTL@@8        0000000140039850     Inputvw.obj
 0002:0000a878       ??_R3CPaintDCMTL@@8        0000000140039878     Inputvw.obj
 0002:0000a890       ??_R4CPaintDCMTL@@6B@      0000000140039890     Inputvw.obj
 0002:0000a8b8       ??_R1A@?0A@EA@CWindowDCMTL@@8 00000001400398b8     Inputvw.obj
 0002:0000a8e0       ??_R2CWindowDCMTL@@8       00000001400398e0     Inputvw.obj
 0002:0000a908       ??_R3CWindowDCMTL@@8       0000000140039908     Inputvw.obj
 0002:0000a920       ??_R4CWindowDCMTL@@6B@     0000000140039920     Inputvw.obj
 0002:0000a948       ??_R2CMainDoc@@8           0000000140039948     Maindoc.obj
 0002:0000a970       ??_R2CDocument@@8          0000000140039970     Maindoc.obj
 0002:0000a990       ??_R3CDocument@@8          0000000140039990     Maindoc.obj
 0002:0000a9a8       ??_R1A@?0A@EA@CDocument@@8 00000001400399a8     Maindoc.obj
 0002:0000a9d0       ??_R1A@?0A@EA@CMainDoc@@8  00000001400399d0     Maindoc.obj
 0002:0000a9f8       ??_R3CMainDoc@@8           00000001400399f8     Maindoc.obj
 0002:0000aa10       ??_R4CMainDoc@@6B@         0000000140039a10     Maindoc.obj
 0002:0000aa38       ??_R1A@?0A@EA@CFileDialogMTL@@8 0000000140039a38     Maindoc.obj
 0002:0000aa60       ??_R2CCommonDialog@@8      0000000140039a60     Maindoc.obj
 0002:0000aaa0       ??_R3CCommonDialog@@8      0000000140039aa0     Maindoc.obj
 0002:0000aab8       ??_R1A@?0A@EA@CCommonDialog@@8 0000000140039ab8     Maindoc.obj
 0002:0000aae0       ??_R2CFileDialogMTL@@8     0000000140039ae0     Maindoc.obj
 0002:0000ab28       ??_R3CFileDialogMTL@@8     0000000140039b28     Maindoc.obj
 0002:0000ab40       ??_R4CFileDialogMTL@@6B@   0000000140039b40     Maindoc.obj
 0002:0000ab68       ??_R1A@?0A@EA@CFile@@8     0000000140039b68     Maindoc.obj
 0002:0000ab90       ??_R2CFile@@8              0000000140039b90     Maindoc.obj
 0002:0000aba0       ??_R3CFile@@8              0000000140039ba0     Maindoc.obj
 0002:0000abb8       ??_R4CFile@@6B@            0000000140039bb8     Maindoc.obj
 0002:0000abe0       ??_R2CColorView@@8         0000000140039be0     Simpvw.obj
 0002:0000ac20       ??_R2CTextView@@8          0000000140039c20     Simpvw.obj
 0002:0000ac60       ??_R1A@?0A@EA@CColorView@@8 0000000140039c60     Simpvw.obj
 0002:0000ac88       ??_R1A@?0A@EA@CTextView@@8 0000000140039c88     Simpvw.obj
 0002:0000acb0       ??_R3CColorView@@8         0000000140039cb0     Simpvw.obj
 0002:0000acc8       ??_R3CTextView@@8          0000000140039cc8     Simpvw.obj
 0002:0000ace0       ??_R4CColorView@@6B@       0000000140039ce0     Simpvw.obj
 0002:0000ad08       ??_R4CTextView@@6B@        0000000140039d08     Simpvw.obj
 0002:0000ad30       ??_R1A@?0A@EA@CBrushMTL@@8 0000000140039d30     Simpvw.obj
 0002:0000ad58       ??_R2?$CHandleWrapper@VCBrushMTL@@PEAUHBRUSH__@@V?$CBrushT@$00@WTL@@@@8 0000000140039d58     Simpvw.obj
 0002:0000ad70       ??_R3?$CHandleWrapper@VCBrushMTL@@PEAUHBRUSH__@@V?$CBrushT@$00@WTL@@@@8 0000000140039d70     Simpvw.obj
 0002:0000ad88       ??_R1A@?0A@EA@?$CHandleWrapper@VCBrushMTL@@PEAUHBRUSH__@@V?$CBrushT@$00@WTL@@@@8 0000000140039d88     Simpvw.obj
 0002:0000adb0       ??_R1A@?0A@EA@?$CBrushT@$00@WTL@@8 0000000140039db0     Simpvw.obj
 0002:0000add8       ??_R2?$CBrushT@$00@WTL@@8  0000000140039dd8     Simpvw.obj
 0002:0000ade8       ??_R3?$CBrushT@$00@WTL@@8  0000000140039de8     Simpvw.obj
 0002:0000ae00       ??_R17?0A@EA@?$CBrushT@$00@WTL@@8 0000000140039e00     Simpvw.obj
 0002:0000ae28       ??_R2CBrushMTL@@8          0000000140039e28     Simpvw.obj
 0002:0000ae48       ??_R3CBrushMTL@@8          0000000140039e48     Simpvw.obj
 0002:0000ae60       ??_R4CBrushMTL@@6B@        0000000140039e60     Simpvw.obj
 0002:0000ae90       ??_R2C3WaySplitterFrame@@8 0000000140039e90     Splitter.obj
 0002:0000aed8       ??_R2CViewExSplitWnd@@8    0000000140039ed8     Splitter.obj
 0002:0000af20       ??_R2CSplitterFrame@@8     0000000140039f20     Splitter.obj
 0002:0000af68       ??_R1A@?0A@EA@C3WaySplitterFrame@@8 0000000140039f68     Splitter.obj
 0002:0000af90       ??_R1A@?0A@EA@CViewExSplitWnd@@8 0000000140039f90     Splitter.obj
 0002:0000afb8       ??_R1A@?0A@EA@CSplitterFrame@@8 0000000140039fb8     Splitter.obj
 0002:0000afe0       ??_R3C3WaySplitterFrame@@8 0000000140039fe0     Splitter.obj
 0002:0000aff8       ??_R3CViewExSplitWnd@@8    0000000140039ff8     Splitter.obj
 0002:0000b010       ??_R3CSplitterFrame@@8     000000014003a010     Splitter.obj
 0002:0000b028       ??_R4C3WaySplitterFrame@@6B@ 000000014003a028     Splitter.obj
 0002:0000b050       ??_R4CViewExSplitWnd@@6B@  000000014003a050     Splitter.obj
 0002:0000b078       ??_R4CSplitterFrame@@6B@   000000014003a078     Splitter.obj
 0002:0000b0a0       ??_R1A@?0A@EA@CSplitterWnd@@8 000000014003a0a0     Splitter.obj
 0002:0000b0c8       ??_R2CSplitterWnd@@8       000000014003a0c8     Splitter.obj
 0002:0000b100       ??_R3CSplitterWnd@@8       000000014003a100     Splitter.obj
 0002:0000b118       ??_R4CSplitterWnd@@6B@     000000014003a118     Splitter.obj
 0002:0000b140       ??_R1A@?0A@EA@CMDIChildWnd@@8 000000014003a140     Splitter.obj
 0002:0000b168       ??_R2CMDIChildWnd@@8       000000014003a168     Splitter.obj
 0002:0000b1a8       ??_R3CMDIChildWnd@@8       000000014003a1a8     Splitter.obj
 0002:0000b1c0       ??_R4CMDIChildWnd@@6B@     000000014003a1c0     Splitter.obj
 0002:0000b1e8       ??_R1A@?0A@EA@CFrameWnd@@8 000000014003a1e8     Splitter.obj
 0002:0000b210       ??_R2CFrameWnd@@8          000000014003a210     Splitter.obj
 0002:0000b248       ??_R3CFrameWnd@@8          000000014003a248     Splitter.obj
 0002:0000b260       ??_R4CFrameWnd@@6B@        000000014003a260     Splitter.obj
 0002:0000b288       ??_R4CMDIFrameWnd@@6B@     000000014003a288     Stdafx.obj
 0002:0000b2b0       ??_R3CMDIFrameWnd@@8       000000014003a2b0     Stdafx.obj
 0002:0000b2c8       ??_R1A@?0A@EA@CMDIFrameWnd@@8 000000014003a2c8     Stdafx.obj
 0002:0000b2f0       ??_R2CMDIFrameWnd@@8       000000014003a2f0     Stdafx.obj
 0002:0000b330       ??_R2CViewExApp@@8         000000014003a330     Viewex.obj
 0002:0000b378       ??_R1A@?0A@EA@CViewExApp@@8 000000014003a378     Viewex.obj
 0002:0000b3a0       ??_R3CViewExApp@@8         000000014003a3a0     Viewex.obj
 0002:0000b3b8       ??_R4CViewExApp@@6B@       000000014003a3b8     Viewex.obj
 0002:0000b3e0       ??_R1A@?0A@EA@CMultiDocTemplate@@8 000000014003a3e0     Viewex.obj
 0002:0000b408       ??_R2CDocTemplate@@8       000000014003a408     Viewex.obj
 0002:0000b428       ??_R3CDocTemplate@@8       000000014003a428     Viewex.obj
 0002:0000b440       ??_R1A@?0A@EA@CDocTemplate@@8 000000014003a440     Viewex.obj
 0002:0000b468       ??_R2CMultiDocTemplate@@8  000000014003a468     Viewex.obj
 0002:0000b490       ??_R3CMultiDocTemplate@@8  000000014003a490     Viewex.obj
 0002:0000b4a8       ??_R4CMultiDocTemplate@@6B@ 000000014003a4a8     Viewex.obj
 0002:0000b4d0       ??_R1A@?0A@EA@CDocManager@@8 000000014003a4d0     Viewex.obj
 0002:0000b4f8       ??_R2CDocManager@@8        000000014003a4f8     Viewex.obj
 0002:0000b508       ??_R3CDocManager@@8        000000014003a508     Viewex.obj
 0002:0000b520       ??_R4CDocManager@@6B@      000000014003a520     Viewex.obj
 0002:0000b548       ??_R4CWinThread@@6B@       000000014003a548     Viewex.obj
 0002:0000b570       ??_R1A@?0A@EA@CWinApp@@8   000000014003a570     Viewex.obj
 0002:0000b598       ??_R2CWinThread@@8         000000014003a598     Viewex.obj
 0002:0000b5b8       ??_R3CWinThread@@8         000000014003a5b8     Viewex.obj
 0002:0000b5d0       ??_R1A@?0A@EA@CWinThread@@8 000000014003a5d0     Viewex.obj
 0002:0000b5f8       ??_R1A@?0A@EA@CModuleThreadState@@8 000000014003a5f8     Viewex.obj
 0002:0000b620       ??_R2CModuleThreadState@@8 000000014003a620     Viewex.obj
 0002:0000b638       ??_R3CModuleThreadState@@8 000000014003a638     Viewex.obj
 0002:0000b650       ??_R1DA@?0A@EA@CModuleThreadState@@8 000000014003a650     Viewex.obj
 0002:0000b678       ??_R1A@?0A@EA@CThreadState@@8 000000014003a678     Viewex.obj
 0002:0000b6a0       ??_R2CThreadState@@8       000000014003a6a0     Viewex.obj
 0002:0000b6b0       ??_R3CThreadState@@8       000000014003a6b0     Viewex.obj
 0002:0000b6c8       ??_R1DA@?0A@EA@CThreadState@@8 000000014003a6c8     Viewex.obj
 0002:0000b6f0       ??_R1A@?0A@EA@CWinMsg@@8   000000014003a6f0     Viewex.obj
 0002:0000b718       ??_R2CWinMsg@@8            000000014003a718     Viewex.obj
 0002:0000b728       ??_R3CWinMsg@@8            000000014003a728     Viewex.obj
 0002:0000b740       ??_R1BEI@?0A@EA@CWinMsg@@8 000000014003a740     Viewex.obj
 0002:0000b768       ??_R2CWinApp@@8            000000014003a768     Viewex.obj
 0002:0000b7a8       ??_R3CWinApp@@8            000000014003a7a8     Viewex.obj
 0002:0000b7c0       ??_R4CWinApp@@6B@          000000014003a7c0     Viewex.obj
 0002:0000b7e8       ??_R1A@?0A@EA@CNewTypeDlg@@8 000000014003a7e8     Viewex.obj
 0002:0000b810       ??_R2CNewTypeDlg@@8        000000014003a810     Viewex.obj
 0002:0000b850       ??_R3CNewTypeDlg@@8        000000014003a850     Viewex.obj
 0002:0000b868       ??_R4CNewTypeDlg@@6B@      000000014003a868     Viewex.obj
 0002:0000b890       ??_R4bad_exception@std@@6B@ 000000014003a890     LIBCMT:frame.obj
 0002:0000b8b8       ??_R3bad_exception@std@@8  000000014003a8b8     LIBCMT:frame.obj
 0002:0000b8d0       ??_R2bad_exception@std@@8  000000014003a8d0     LIBCMT:frame.obj
 0002:0000b8e8       ??_R1A@?0A@EA@bad_exception@std@@8 000000014003a8e8     LIBCMT:frame.obj
 0002:0000b910       __rtc_iaa                  000000014003a910     LIBCMT:initsect.obj
 0002:0000b918       __rtc_izz                  000000014003a918     LIBCMT:initsect.obj
 0002:0000b920       __rtc_taa                  000000014003a920     LIBCMT:initsect.obj
 0002:0000b928       __rtc_tzz                  000000014003a928     LIBCMT:initsect.obj
 0002:00010298       _TI2?AVbad_alloc@std@@     000000014003f298     LIBCMT:new.obj
 0002:000102b8       _CTA2?AVbad_alloc@std@@    000000014003f2b8     LIBCMT:new.obj
 0002:000102d0       _CT??_R0?AVbad_alloc@std@@@8??0bad_alloc@std@@QEAA@AEBV01@@Z24 000000014003f2d0     LIBCMT:new.obj
 0002:000102f8       _CT??_R0?AVexception@std@@@8??0exception@std@@QEAA@AEBV01@@Z24 000000014003f2f8     LIBCMT:new.obj
 0002:00010320       _CT??_R0?AVCAtlException@ATL@@@84 000000014003f320     Enterdlg.obj
 0002:00010348       _CTA1?AVCAtlException@ATL@@ 000000014003f348     Enterdlg.obj
 0002:00010358       _TI1?AVCAtlException@ATL@@ 000000014003f358     Enterdlg.obj
 0002:00010378       _CT??_R0PEAVCFileException@@@88 000000014003f378     Maindoc.obj
 0002:000103a0       _CTA4PEAVCFileException@@  000000014003f3a0     Maindoc.obj
 0002:000103c8       _TI4PEAVCFileException@@   000000014003f3c8     Maindoc.obj
 0002:000103e8       _CTA2PEAVCException@@      000000014003f3e8     Maindoc.obj
 0002:00010400       _TI2PEAVCException@@       000000014003f400     Maindoc.obj
 0002:00010420       _CT??_R0PEAVCSimpleException@@@88 000000014003f420     Maindoc.obj
 0002:00010448       _CT??_R0PEAVCException@@@88 000000014003f448     Maindoc.obj
 0002:00010470       _CT??_R0PEAX@88            000000014003f470     Maindoc.obj
 0002:00010498       _TI2?AVbad_exception@std@@ 000000014003f498     LIBCMT:frame.obj
 0002:000104b8       _CTA2?AVbad_exception@std@@ 000000014003f4b8     LIBCMT:frame.obj
 0002:000104d0       _CT??_R0?AVbad_exception@std@@@8??0bad_exception@std@@QEAA@AEBV01@@Z24 000000014003f4d0     LIBCMT:frame.obj
 0002:000104f8       __IMPORT_DESCRIPTOR_KERNEL32 000000014003f4f8     kernel32:KERNEL32.dll
 0002:0001050c       __IMPORT_DESCRIPTOR_USER32 000000014003f50c     user32:USER32.dll
 0002:00010520       __IMPORT_DESCRIPTOR_ADVAPI32 000000014003f520     advapi32:ADVAPI32.dll
 0002:00010534       __IMPORT_DESCRIPTOR_ole32  000000014003f534     ole32:ole32.dll
 0002:00010548       __IMPORT_DESCRIPTOR_SHELL32 000000014003f548     shell32:SHELL32.dll
 0002:0001055c       __IMPORT_DESCRIPTOR_SHLWAPI 000000014003f55c     shlwapi:SHLWAPI.dll
 0002:00010570       __IMPORT_DESCRIPTOR_GDI32  000000014003f570     gdi32:GDI32.dll
 0002:00010584       __IMPORT_DESCRIPTOR_COMCTL32 000000014003f584     comctl32:COMCTL32.dll
 0002:00010598       __IMPORT_DESCRIPTOR_COMDLG32 000000014003f598     comdlg32:COMDLG32.dll
 0002:000105ac       __NULL_IMPORT_DESCRIPTOR   000000014003f5ac     kernel32:KERNEL32.dll
 0003:00000000       __security_cookie          0000000140042000     LIBCMT:gs_cookie.obj
 0003:00000008       __security_cookie_complement 0000000140042008     LIBCMT:gs_cookie.obj
 0003:00000180       _mbctype                   0000000140042180     LIBCMT:mbctype.obj
 0003:00000290       _mbcasemap                 0000000140042290     LIBCMT:mbctype.obj
 0003:00000390       __initialmbcinfo           0000000140042390     LIBCMT:mbctype.obj
 0003:000006b0       __ptmbcinfo                00000001400426b0     LIBCMT:mbctype.obj
 0003:000006b8       __flsindex                 00000001400426b8     LIBCMT:tidtable.obj
 0003:000006bc       __mb_cur_max               00000001400426bc     LIBCMT:nlsdata.obj
 0003:000006c0       __wclocalestr              00000001400426c0     LIBCMT:nlsdata.obj
 0003:000006d0       __lc_time_c                00000001400426d0     LIBCMT:nlsdata.obj
 0003:00000990       __ptlocinfo                0000000140042990     LIBCMT:nlsdata.obj
 0003:000009a0       __initiallocinfo           00000001400429a0     LIBCMT:nlsdata.obj
 0003:00000af8       __initiallocalestructinfo  0000000140042af8     LIBCMT:nlsdata.obj
 0003:00000b08       __globallocalestatus       0000000140042b08     LIBCMT:glstatus.obj
 0003:00000b0c       __isa_available            0000000140042b0c     LIBCMT:cpu_disp.obj
 0003:00000b10       __isa_enabled              0000000140042b10     LIBCMT:cpu_disp.obj
 0003:00000b20       _timezone                  0000000140042b20     LIBCMT:timeset.obj
 0003:00000b24       _daylight                  0000000140042b24     LIBCMT:timeset.obj
 0003:00000b28       _dstbias                   0000000140042b28     LIBCMT:timeset.obj
 0003:00000bb0       _tzname                    0000000140042bb0     LIBCMT:timeset.obj
 0003:00000be0       _days                      0000000140042be0     LIBCMT:days.obj
 0003:00000c18       _lpdays                    0000000140042c18     LIBCMT:days.obj
 0003:00000c4c       __abort_behavior           0000000140042c4c     LIBCMT:abort.obj
 0003:00000c50       __badioinfo                0000000140042c50     LIBCMT:ioinit.obj
 0003:00000ef0       _cfltcvt_tab               0000000140042ef0     LIBCMT:cmiscdat.obj
 0003:00000f40       __lconv_c                  0000000140042f40     LIBCMT:lconv.obj
 0003:00000fd8       __lconv_static_decimal     0000000140042fd8     LIBCMT:lconv.obj
 0003:00000fdc       __lconv_static_W_decimal   0000000140042fdc     LIBCMT:lconv.obj
 0003:00000fe0       __lconv                    0000000140042fe0     LIBCMT:lconv.obj
 0003:00000fe8       _pctype                    0000000140042fe8     LIBCMT:ctype.obj
 0003:00000ff0       _pwctype                   0000000140042ff0     LIBCMT:ctype.obj
 0003:00001000       _iob                       0000000140043000     LIBCMT:_file.obj
 0003:000013d0       _fltused                   00000001400433d0     LIBCMT:fpinit.obj
 0003:000013d4       _ldused                    00000001400433d4     LIBCMT:fpinit.obj
 0003:000013e0       _HUGE                      00000001400433e0     LIBCMT:huge.obj
 0003:00001418       _confh                     0000000140043418     LIBCMT:initcon.obj
 0003:00001420       _pow10pos                  0000000140043420     LIBCMT:constpow.obj
 0003:00001580       _pow10neg                  0000000140043580     LIBCMT:constpow.obj
 0003:000016e0       ?_atltmpPchNil@WTL@@3PEBDEB 00000001400436e0     Enterdlg.obj
 0003:000016e8       ?rgInitData@WTL@@3PAHA     00000001400436e8     Enterdlg.obj
 0003:00001700       ?rectDefault@CFrameWnd@@2VCRect@WTL@@B 0000000140043700     Stdafx.obj
 0003:00001710       ?wndNoTopMost@CWMHnd@@2V1@B 0000000140043710     Stdafx.obj
 0003:00001760       ?wndTopMost@CWMHnd@@2V1@B  0000000140043760     Stdafx.obj
 0003:000017b0       ?wndBottom@CWMHnd@@2V1@B   00000001400437b0     Stdafx.obj
 0003:00001800       ?wndTop@CWMHnd@@2V1@B      0000000140043800     Stdafx.obj
 0003:00001850       ??_R0?AVbad_alloc@std@@@8  0000000140043850     LIBCMT:new.obj
 0003:00001878       ??_R0?AVexception@std@@@8  0000000140043878     LIBCMT:new.obj
 0003:000018a0       ??_R0?AVtype_info@@@8      00000001400438a0     LIBCMT:typinfo.obj
 0003:000018c0       ??_R0?AVCEnterDlg@@@8      00000001400438c0     Enterdlg.obj
 0003:000018e0       ??_R0?AVCDialog@@@8        00000001400438e0     Enterdlg.obj
 0003:00001900       ??_R0?AVCWnd@@@8           0000000140043900     Enterdlg.obj
 0003:00001920       ??_R0?AVCTestCmdUI@@@8     0000000140043920     Enterdlg.obj
 0003:00001948       ??_R0?AVCCmdUI@@@8         0000000140043948     Enterdlg.obj
 0003:00001968       ??_R0?AVCDCMTL@@@8         0000000140043968     Enterdlg.obj
 0003:00001990       ??_R0?AV?$CHandleWrapper@VCDCMTL@@PEAUHDC__@@V?$CDCT@$00@WTL@@@@@8 0000000140043990     Enterdlg.obj
 0003:000019e0       ??_R0?AV?$CDCT@$00@WTL@@@8 00000001400439e0     Enterdlg.obj
 0003:00001a08       ??_R0?AVCAtlException@ATL@@@8 0000000140043a08     Enterdlg.obj
 0003:00001a30       ??_R0?AVCWMHnd@@@8         0000000140043a30     Enterdlg.obj
 0003:00001a50       ??_R0?AVCCmdTarget@@@8     0000000140043a50     Enterdlg.obj
 0003:00001a78       ??_R0?AVCObject@@@8        0000000140043a78     Enterdlg.obj
 0003:00001a98       ??_R0?AVCWindow@ATL@@@8    0000000140043a98     Enterdlg.obj
 0003:00001ac0       ??_R0?AVCMenuMTL@@@8       0000000140043ac0     Enterdlg.obj
 0003:00001ae0       ??_R0?AV?$CHandleWrapper@VCMenuMTL@@PEAUHMENU__@@V?$CMenuT@$00@WTL@@@@@8 0000000140043ae0     Enterdlg.obj
 0003:00001b38       ??_R0?AV?$CMenuT@$00@WTL@@@8 0000000140043b38     Enterdlg.obj
 0003:00001b60       ??_R0?AVCInputView@@@8     0000000140043b60     Inputvw.obj
 0003:00001b88       ??_R0?AVCFormView@@@8      0000000140043b88     Inputvw.obj
 0003:00001ba8       ??_R0?AVCScrollView@@@8    0000000140043ba8     Inputvw.obj
 0003:00001bd0       ??_R0?AVCRgnMTL@@@8        0000000140043bd0     Inputvw.obj
 0003:00001bf0       ??_R0?AV?$CHandleWrapper@VCRgnMTL@@PEAUHRGN__@@V?$CRgnT@$00@WTL@@@@@8 0000000140043bf0     Inputvw.obj
 0003:00001c40       ??_R0?AV?$CRgnT@$00@WTL@@@8 0000000140043c40     Inputvw.obj
 0003:00001c68       ??_R0?AV_AFX_MOUSEANCHORWND@@@8 0000000140043c68     Inputvw.obj
 0003:00001c98       ??_R0?AVCView@@@8          0000000140043c98     Inputvw.obj
 0003:00001cb8       ??_R0?AVCPaintDCMTL@@@8    0000000140043cb8     Inputvw.obj
 0003:00001ce0       ??_R0?AVCWindowDCMTL@@@8   0000000140043ce0     Inputvw.obj
 0003:00001d08       ??_R0?AVCDocument@@@8      0000000140043d08     Maindoc.obj
 0003:00001d28       ??_R0?AVCMainDoc@@@8       0000000140043d28     Maindoc.obj
 0003:00001d48       ??_R0?AVCFileDialogMTL@@@8 0000000140043d48     Maindoc.obj
 0003:00001d70       ??_R0?AVCCommonDialog@@@8  0000000140043d70     Maindoc.obj
 0003:00001d98       ??_R0?AVCFile@@@8          0000000140043d98     Maindoc.obj
 0003:00001db8       ??_R0PEAVCFileException@@@8 0000000140043db8     Maindoc.obj
 0003:00001de0       ??_R0PEAVCSimpleException@@@8 0000000140043de0     Maindoc.obj
 0003:00001e08       ??_R0PEAX@8                0000000140043e08     Maindoc.obj
 0003:00001e20       ??_R0PEAVCException@@@8    0000000140043e20     Maindoc.obj
 0003:00001e48       ??_R0?AVCColorView@@@8     0000000140043e48     Simpvw.obj
 0003:00001e70       ??_R0?AVCTextView@@@8      0000000140043e70     Simpvw.obj
 0003:00001e90       ??_R0?AVCBrushMTL@@@8      0000000140043e90     Simpvw.obj
 0003:00001eb0       ??_R0?AV?$CHandleWrapper@VCBrushMTL@@PEAUHBRUSH__@@V?$CBrushT@$00@WTL@@@@@8 0000000140043eb0     Simpvw.obj
 0003:00001f08       ??_R0?AV?$CBrushT@$00@WTL@@@8 0000000140043f08     Simpvw.obj
 0003:00001f30       ??_R0?AVC3WaySplitterFrame@@@8 0000000140043f30     Splitter.obj
 0003:00001f60       ??_R0?AVCViewExSplitWnd@@@8 0000000140043f60     Splitter.obj
 0003:00001f88       ??_R0?AVCSplitterFrame@@@8 0000000140043f88     Splitter.obj
 0003:00001fb0       ??_R0?AVCSplitterWnd@@@8   0000000140043fb0     Splitter.obj
 0003:00001fd8       ??_R0?AVCMDIChildWnd@@@8   0000000140043fd8     Splitter.obj
 0003:00002000       ??_R0?AVCFrameWnd@@@8      0000000140044000     Splitter.obj
 0003:00002020       ??_R0?AVCMDIFrameWnd@@@8   0000000140044020     Stdafx.obj
 0003:00002048       ??_R0?AVCViewExApp@@@8     0000000140044048     Viewex.obj
 0003:00002070       ??_R0?AVCMultiDocTemplate@@@8 0000000140044070     Viewex.obj
 0003:00002098       ??_R0?AVCDocTemplate@@@8   0000000140044098     Viewex.obj
 0003:000020c0       ??_R0?AVCDocManager@@@8    00000001400440c0     Viewex.obj
 0003:000020e8       ??_R0?AVCWinApp@@@8        00000001400440e8     Viewex.obj
 0003:00002108       ??_R0?AVCWinThread@@@8     0000000140044108     Viewex.obj
 0003:00002130       ??_R0?AVCModuleThreadState@@@8 0000000140044130     Viewex.obj
 0003:00002160       ??_R0?AVCThreadState@@@8   0000000140044160     Viewex.obj
 0003:00002188       ??_R0?AVCWinMsg@@@8        0000000140044188     Viewex.obj
 0003:000021a8       ??_R0?AVCNewTypeDlg@@@8    00000001400441a8     Viewex.obj
 0003:000021d0       ??_R0?AVbad_exception@std@@@8 00000001400441d0     LIBCMT:frame.obj
 0003:00002200       ?__AtlThunkPool@@3PEAT_SLIST_HEADER@@EA 0000000140044200     atls:atlthunk.obj
 0003:00002210       ?_AtlBaseModule@ATL@@3VCAtlBaseModule@1@A 0000000140044210     atls:atlbase.obj
 0003:00002270       __@@_PchSym_@00@UwwUexgllohUexHoryhUhsrkUzgonuxUhixUzgoUzgohUlyqBiUznwGEUhgwzucOlyq@84C1280690CF6209 0000000140044270     atls:stdafx.obj
 0003:000027f8       _aenvptr                   00000001400447f8     LIBCMT:wincrt0.obj
 0003:00002800       _wenvptr                   0000000140044800     LIBCMT:wincrt0.obj
 0003:00002808       _C_Exit_Done               0000000140044808     LIBCMT:crt0dat.obj
 0003:0000280c       __argc                     000000014004480c     LIBCMT:crt0dat.obj
 0003:00002810       __argv                     0000000140044810     LIBCMT:crt0dat.obj
 0003:00002818       __wargv                    0000000140044818     LIBCMT:crt0dat.obj
 0003:00002820       _environ                   0000000140044820     LIBCMT:crt0dat.obj
 0003:00002828       _wenviron                  0000000140044828     LIBCMT:crt0dat.obj
 0003:00002830       _pgmptr                    0000000140044830     LIBCMT:crt0dat.obj
 0003:00002838       _wpgmptr                   0000000140044838     LIBCMT:crt0dat.obj
 0003:00002840       _umaskval                  0000000140044840     LIBCMT:crt0dat.obj
 0003:00002844       _exitflag                  0000000140044844     LIBCMT:crt0dat.obj
 0003:00002848       _C_Termination_Done        0000000140044848     LIBCMT:crt0dat.obj
 0003:00002850       __winitenv                 0000000140044850     LIBCMT:crt0dat.obj
 0003:00002858       __initenv                  0000000140044858     LIBCMT:crt0dat.obj
 0003:00002860       _maxwait                   0000000140044860     LIBCMT:crtheap.obj
 0003:00002868       ?_pnhHeap@@3P6AH_K@ZEA     0000000140044868     LIBCMT:handler.obj
 0003:00002880       _crtheap                   0000000140044880     LIBCMT:heapinit.obj
 0003:00002888       __pInvalidArgHandler       0000000140044888     LIBCMT:invarg.obj
 0003:00002890       __mbcodepage               0000000140044890     LIBCMT:mbctype.obj
 0003:00002894       __ismbcodepage             0000000140044894     LIBCMT:mbctype.obj
 0003:00002898       __mbulinfo                 0000000140044898     LIBCMT:mbctype.obj
 0003:000028a8       __mblocalename             00000001400448a8     LIBCMT:mbctype.obj
 0003:000028b4       __favor                    00000001400448b4     LIBCMT:cpu_disp.obj
 0003:00002980       ?__pInconsistency@@3P6AXXZEA 0000000140044980     LIBCMT:hooks.obj
 0003:00002988       __pPurecall                0000000140044988     LIBCMT:inithelp.obj
 0003:00002990       __pioinfo                  0000000140044990     LIBCMT:ioinit.obj
 0003:00002ca0       __app_type                 0000000140044ca0     LIBCMT:crt0msg.obj
 0003:000032d8       __error_mode               00000001400452d8     LIBCMT:errmode.obj
 0003:00003540       _stdbuf                    0000000140045540     LIBCMT:_sftbuf.obj
 0003:00003550       _newmode                   0000000140045550     LIBCMT:_newmode.obj
 0003:00003558       ?m_pGetParameter@UnDecorator@@0P6APEADJ@ZEA 0000000140045558     LIBCMT:undname.obj
 0003:00003560       ?pArgList@UnDecorator@@0PEAVReplicator@@EA 0000000140045560     LIBCMT:undname.obj
 0003:00003568       ?pZNameList@UnDecorator@@0PEAVReplicator@@EA 0000000140045568     LIBCMT:undname.obj
 0003:00003570       ?pTemplateArgList@UnDecorator@@0PEAVReplicator@@EA 0000000140045570     LIBCMT:undname.obj
 0003:00003578       ?gName@UnDecorator@@0PEBDEB 0000000140045578     LIBCMT:undname.obj
 0003:00003580       ?name@UnDecorator@@0PEBDEB 0000000140045580     LIBCMT:undname.obj
 0003:00003588       ?outputString@UnDecorator@@0PEADEA 0000000140045588     LIBCMT:undname.obj
 0003:00003590       ?maxStringLength@UnDecorator@@0HA 0000000140045590     LIBCMT:undname.obj
 0003:00003594       ?disableFlags@UnDecorator@@0KA 0000000140045594     LIBCMT:undname.obj
 0003:00003598       ?fExplicitTemplateParams@UnDecorator@@0_NA 0000000140045598     LIBCMT:undname.obj
 0003:00003599       ?fGetTemplateArgumentList@UnDecorator@@0_NA 0000000140045599     LIBCMT:undname.obj
 0003:000035c8       __lconv_static_null        00000001400455c8     LIBCMT:lconv.obj
 0003:000035cc       __lconv_static_W_null      00000001400455cc     LIBCMT:lconv.obj
 0003:000035d8       _cflush                    00000001400455d8     LIBCMT:_file.obj
 0003:00003608       __locale_changed           0000000140045608     LIBCMT:wsetloca.obj
 0003:0000360c       __fastflag                 000000014004560c     LIBCMT:fpinit.obj
 0003:00003610       _outputformat              0000000140045610     LIBCMT:outputformat.obj
 0003:00003614       ?m_bInitFailed@CAtlBaseModule@ATL@@2_NA 0000000140045614     Enterdlg.obj
 0003:00003618       ?m_lastSentMsg@?1??GetLastSentMsg@CCmdTarget@@SAAEAPEAU_ATL_MSG@ATL@@XZ@4PEAU34@EA 0000000140045618     Enterdlg.obj
 0003:00003620       ?cwp@?1??GetHookOldCbtFilter@CWnd@@SAAEAU_CreateWindowParam@2@XZ@4U32@A 0000000140045620     Enterdlg.obj
 0003:00003638       ??_B?1??GetCModuleState@CWinApp@@SAPEAVCModuleState@@XZ@51 0000000140045638     Enterdlg.obj
 0003:00003640       ?cModuleState@?1??GetCModuleState@CWinApp@@SAPEAVCModuleState@@XZ@4V3@A 0000000140045640     Enterdlg.obj
 0003:00003680       ?_afxdata@?1??GetAfxData@CAfx@@SAAEBU_AUX_DATA@@XZ@4U3@A 0000000140045680     Inputvw.obj
 0003:000036c0       ??_B?1??GetAfxData@CAfx@@SAAEBU_AUX_DATA@@XZ@51 00000001400456c0     Inputvw.obj
 0003:000036c4       ?_afxGotScrollLines@?1??_AfxGetMouseScrollLines@CScrollView@@QEAAIXZ@4HA 00000001400456c4     Inputvw.obj
 0003:000036c8       ?uCachedScrollLines@?1??_AfxGetMouseScrollLines@CScrollView@@QEAAIXZ@4IA 00000001400456c8     Inputvw.obj
 0003:000036cc       ?_afxMsgHELP@?1??_AfxCommDlgProc@CCommonDialog@@SA_KPEAUHWND__@@I_K_J@Z@4IA 00000001400456cc     Maindoc.obj
 0003:000036d0       ?_afxMsgSHAREVI@?1??_AfxCommDlgProc@CCommonDialog@@SA_KPEAUHWND__@@I_K_J@Z@4IA 00000001400456d0     Maindoc.obj
 0003:000036d4       ?_afxMsgLBSELCHANGE@?1??_AfxCommDlgProc@CCommonDialog@@SA_KPEAUHWND__@@I_K_J@Z@4IA 00000001400456d4     Maindoc.obj
 0003:000036d8       ?_afxMsgSETRGB@?1??_AfxCommDlgProc@CCommonDialog@@SA_KPEAUHWND__@@I_K_J@Z@4IA 00000001400456d8     Maindoc.obj
 0003:000036dc       ?_afxMsgFILEOK@?1??_AfxCommDlgProc@CCommonDialog@@SA_KPEAUHWND__@@I_K_J@Z@4IA 00000001400456dc     Maindoc.obj
 0003:000036e0       ?pfSHCreateItemFromParsingName_cache@?1??_AfxSHCreateItemFromParsingName@CFileDialogMTL@@SAJPEB_WPEAUIBindCtx@@AEBU_GUID@@PEAPEAX@Z@4R6AJ0123@ZEA 00000001400456e0     Maindoc.obj
 0003:000036e8       ?_simpleResourceException@?1??GetCException@CAfx@@SAAEAVCException@@H@Z@4VCResourceException@@A 00000001400456e8     Maindoc.obj
 0003:000036f0       ?_simpleInvalidArgException@?1??GetCException@CAfx@@SAAEAVCException@@H@Z@4VCInvalidArgException@@A 00000001400456f0     Maindoc.obj
 0003:000036f8       ?_simpleNotSupportedException@?1??GetCException@CAfx@@SAAEAVCException@@H@Z@4VCNotSupportedException@@A 00000001400456f8     Maindoc.obj
 0003:00003700       ??_B?1??GetCException@CAfx@@SAAEAVCException@@H@Z@51 0000000140045700     Maindoc.obj
 0003:00003708       ?_simpleMemoryException@?1??GetCException@CAfx@@SAAEAVCException@@H@Z@4VCMemoryException@@A 0000000140045708     Maindoc.obj
 0003:00003710       ?_afx_hcurDestroy@?1??SetSplitCursor@CSplitterWnd@@UEAAXH@Z@4PEAUHICON__@@EA 0000000140045710     Splitter.obj
 0003:00003718       ?_afx_hcurLast@?1??SetSplitCursor@CSplitterWnd@@UEAAXH@Z@4PEAUHICON__@@EA 0000000140045718     Splitter.obj
 0003:00003720       ?_afx_idcPrimaryLast@?1??SetSplitCursor@CSplitterWnd@@UEAAXH@Z@4IA 0000000140045720     Splitter.obj
 0003:00003728       ?hHalftoneBrush@?1??HalftoneBrush@CAfx@@SAPEAUHBRUSH__@@H@Z@4PEAU3@EA 0000000140045728     Splitter.obj
 0003:00003730       __@@_PchSym_@00@UwirevUuUexUngonuxUhznkovhUervdvcUivovzhvUhgwzucOlyq@15A8D0F995BA19D0 0000000140045730     Stdafx.obj
 0003:00003740       ?m_pCWinApp@CWinApp@@2PEAV1@EA 0000000140045740     Stdafx.obj
 0003:00003748       ?_init_CMainDoc@@3UAFX_CLASSINIT@@A 0000000140045748     Maindoc.obj
 0003:00003750       ?theApp@@3VCViewExApp@@A   0000000140045750     Viewex.obj
 0003:00003950       ?_AtlWinModule@ATL@@3VCAtlWinModule@1@A 0000000140045950     Enterdlg.obj
 0003:00003998       ?g_OutOfMemoryExceptionCallback@@3P6APEAXXZEA 0000000140045998     LIBCMT:frame.obj
 0003:000039a0       __piob                     00000001400459a0     <common>
 0003:000039a8       _nstream                   00000001400459a8     <common>
 0003:000039c0       _bufin                     00000001400459c0     <common>
 0003:000049c0       _nhandle                   00000001400469c0     <common>
 0003:000049e0       encodedKERNEL32Functions   00000001400469e0     <common>
 0003:00004ae8       _debugger_hook_dummy       0000000140046ae8     <common>
 0003:00004af0       __dyn_tls_init_callback    0000000140046af0     <common>
 0003:00004af8       __onexitend                0000000140046af8     <common>
 0003:00004b00       __onexitbegin              0000000140046b00     <common>
 0003:00004b08       __mbctype_initialized      0000000140046b08     <common>
 0003:00004b0c       __env_initialized          0000000140046b0c     <common>
 0003:00004b10       _acmdln                    0000000140046b10     <common>

 entry point at        0001:0001e978

 Static symbols

 0002:fffd1000       .idata$6                   0000000140000000     oleaut32:OLEAUT32.dll
 0001:00000000       ??__E_AtlWinModule@ATL@@YAXXZ 0000000140001000 f   Enterdlg.obj
 0001:00000020       ??__E_init_CMainDoc@@YAXXZ 0000000140001020 f   Maindoc.obj
 0001:00000030       ??__E?wndTop@CWMHnd@@2V1@B@@YAXXZ 0000000140001030 f   Stdafx.obj
 0001:00000050       ??__E?wndBottom@CWMHnd@@2V1@B@@YAXXZ 0000000140001050 f   Stdafx.obj
 0001:00000070       ??__E?wndTopMost@CWMHnd@@2V1@B@@YAXXZ 0000000140001070 f   Stdafx.obj
 0001:00000090       ??__E?wndNoTopMost@CWMHnd@@2V1@B@@YAXXZ 0000000140001090 f   Stdafx.obj
 0001:000000b0       ??__EtheApp@@YAXXZ         00000001400010b0 f   Viewex.obj
 0001:000000d8       ??__E_AtlBaseModule@ATL@@YAXXZ 00000001400010d8 f   atls:atlbase.obj
 0001:0000926c       $LN39                      000000014000a26c     Inputvw.obj
 0001:0000928c       $LN38                      000000014000a28c     Inputvw.obj
 0001:0000ae98       $LN18                      000000014000be98     Maindoc.obj
 0001:0000eb9c       $LN87                      000000014000fb9c     Maindoc.obj
 0001:0000ebd8       $LN86                      000000014000fbd8     Maindoc.obj
 0001:0000fa84       $LN33                      0000000140010a84     Splitter.obj
 0001:0000faa0       $LN32                      0000000140010aa0     Splitter.obj
 0001:0001d35c       ?__InitializeThunkPool@@YAHXZ 000000014001e35c f   atls:atlthunk.obj
 0001:0001d4c0       $$000000                   000000014001e4c0     LIBCMT:amdsecgs.obj
 0001:0001da00       $$000000                   000000014001ea00     LIBCMT:memcpy.obj
 0001:0001daf0       MoveSmall                  000000014001eaf0     LIBCMT:memcpy.obj
 0001:0001e148       _make__time64_t            000000014001f148 f   LIBCMT:mktime64.obj
 0001:0001e770       ?x_ismbbtype_l@@YAHPEAUlocaleinfo_struct@@IHH@Z 000000014001f770 f   LIBCMT:ismbbyte.obj
 0001:0001e98c       __tmainCRTStartup          000000014001f98c f   LIBCMT:wincrt0.obj
 0001:0001eb18       fast_error_exit            000000014001fb18 f   LIBCMT:wincrt0.obj
 0001:0001ebd0       $$000000                   000000014001fbd0     LIBCMT:memset.obj
 0001:0001ed75       MsetTab                    000000014001fd75     LIBCMT:memset.obj
 0001:0001efa0       _initterm                  000000014001ffa0 f   LIBCMT:crt0dat.obj
 0001:0001f054       doexit                     0000000140020054 f   LIBCMT:crt0dat.obj
 0001:0001f980       $$000000                   0000000140020980     LIBCMT:strcmp.obj
 0001:000200f0       ?getSystemCP@@YAHH@Z       00000001400210f0 f   LIBCMT:mbctype.obj
 0001:00020170       ?setSBCS@@YAXPEAUthreadmbcinfostruct@@@Z 0000000140021170 f   LIBCMT:mbctype.obj
 0001:00020200       ?setSBUpLow@@YAXPEAUthreadmbcinfostruct@@@Z 0000000140021200 f   LIBCMT:mbctype.obj
 0001:00021bc0       _isindst_nolock            0000000140022bc0 f   LIBCMT:tzset.obj
 0001:00021e70       _tzset_nolock              0000000140022e70 f   LIBCMT:tzset.obj
 0001:000222d4       cvtdate                    00000001400232d4 f   LIBCMT:tzset.obj
 0001:000229e0       $$000000                   00000001400239e0     LIBCMT:strlen.obj
 0001:0002321c       parse_cmdline              000000014002421c f   LIBCMT:stdargv.obj
 0001:000241d0       $$000000                   00000001400251d0     LIBCMT:jmpuwind.obj
 0001:000247b8       ?__crtLCMapStringA_stat@@YAHPEAUlocaleinfo_struct@@PEB_WKPEBDHPEADHHH@Z 00000001400257b8 f   LIBCMT:a_map.obj
 0001:00024b3c       ?__crtGetStringTypeA_stat@@YAHPEAUlocaleinfo_struct@@KPEBDHPEAGHH@Z 0000000140025b3c f   LIBCMT:a_str.obj
 0001:00025898       flsall                     0000000140026898 f   LIBCMT:fflush.obj
 0001:000259d0       $$000000                   00000001400269d0     LIBCMT:chkstk.obj
 0001:00025a30       ?strtoxl@@YAKPEAUlocaleinfo_struct@@PEBDPEAPEBDHH@Z 0000000140026a30 f   LIBCMT:strtol.obj
 0001:000268f0       $$000000                   00000001400278f0     LIBCMT:memcmp.obj
 0001:00027188       ?__crtCompareStringA_stat@@YAHPEAUlocaleinfo_struct@@PEB_WKPEBDH2HH@Z 0000000140028188 f   LIBCMT:a_cmp.obj
 0001:00029348       _cftoe2_l                  000000014002a348 f   LIBCMT:cvt.obj
 0001:0002963c       _cftof2_l                  000000014002a63c f   LIBCMT:cvt.obj
 0001:0002b790       ?CatchIt@@YAXPEAUEHExceptionRecord@@PEA_KPEAU_CONTEXT@@PEAU_xDISPATCHER_CONTEXT@@PEBU_s_FuncInfo@@PEBU_s_HandlerType@@PEBU_s_CatchableType@@PEBU_s_TryBlockMapEntry@@H1EE@Z 000000014002c790 f   LIBCMT:frame.obj
 0001:0002b854       ?FindHandler@@YAXPEAUEHExceptionRecord@@PEA_KPEAU_CONTEXT@@PEAU_xDISPATCHER_CONTEXT@@PEBU_s_FuncInfo@@EH1@Z 000000014002c854 f   LIBCMT:frame.obj
 0001:0002bd08       ?FindHandlerForForeignException@@YAXPEAUEHExceptionRecord@@PEA_KPEAU_CONTEXT@@PEAU_xDISPATCHER_CONTEXT@@PEBU_s_FuncInfo@@HH1@Z 000000014002cd08 f   LIBCMT:frame.obj
 0001:0002bf70       ?IsInExceptionSpec@@YAEPEAUEHExceptionRecord@@PEBU_s_ESTypeList@@@Z 000000014002cf70 f   LIBCMT:frame.obj
 0001:0002cbf0       $$000000                   000000014002dbf0     LIBCMT:handlers.obj
 0001:0002cc50       ?dtor$0@?0???1CEnterDlg@@UEAA@XZ@4HA 000000014002dc50 f   Enterdlg.obj
 0001:0002cc50       ?dtor$0@?0???_GCEnterDlg@@UEAAPEAXI@Z@4HA 000000014002dc50 f   Enterdlg.obj
 0001:0002cc60       ?dtor$1@?0???_GCDCMTL@@UEAAPEAXI@Z@4HA 000000014002dc60 f   Enterdlg.obj
 0001:0002cc60       ?dtor$1@?0???1CDCMTL@@UEAA@XZ@4HA 000000014002dc60 f   Enterdlg.obj
 0001:0002cc60       ?dtor$2@?0???1CWindowDCMTL@@UEAA@XZ@4HA 000000014002dc60 f   Inputvw.obj
 0001:0002cc60       ?dtor$2@?0???1CPaintDCMTL@@UEAA@XZ@4HA 000000014002dc60 f   Inputvw.obj
 0001:0002cc70       ?dtor$0@?0??_ProcessWindowMessage@CSplitterWnd@@UEAAHPEAUHWND__@@I_K_JAEA_J@Z@4HA 000000014002dc70 f   Splitter.obj
 0001:0002cc70       ?dtor$0@?0??_ProcessWindowMessage@CWnd@@UEAAHPEAUHWND__@@I_K_JAEA_J@Z@4HA 000000014002dc70 f   Enterdlg.obj
 0001:0002cc7c       ?dtor$2@?0??_ProcessWindowMessage@CSplitterWnd@@UEAAHPEAUHWND__@@I_K_JAEA_J@Z@4HA 000000014002dc7c f   Splitter.obj
 0001:0002cc7c       ?dtor$2@?0??_ProcessWindowMessage@CWnd@@UEAAHPEAUHWND__@@I_K_JAEA_J@Z@4HA 000000014002dc7c f   Enterdlg.obj
 0001:0002cc90       ?dtor$1@?0???1CWnd@@UEAA@XZ@4HA 000000014002dc90 f   Enterdlg.obj
 0001:0002cc90       ?dtor$0@?0???_GCWMHnd@@UEAAPEAXI@Z@4HA 000000014002dc90 f   Enterdlg.obj
 0001:0002cca0       ?catch$0@?0??AllocBuffer@CString@WTL@@IEAAHH@Z@4HA 000000014002dca0 f   Enterdlg.obj
 0001:0002ccad       __catch$?AllocBuffer@CString@WTL@@IEAAHH@Z$0 000000014002dcad f   Enterdlg.obj
 0001:0002ccc0       ?dtor$1@?0???_GCMenuMTL@@UEAAPEAXI@Z@4HA 000000014002dcc0 f   Enterdlg.obj
 0001:0002ccc0       ?dtor$1@?0???1CMenuMTL@@UEAA@XZ@4HA 000000014002dcc0 f   Enterdlg.obj
 0001:0002ccd0       ?dtor$0@?0???1CModuleState@@QEAA@XZ@4HA 000000014002dcd0 f   Enterdlg.obj
 0001:0002cce0       ?dtor$0@?0??CreateObject@CInputView@@SAPEAVCObject@@XZ@4HA 000000014002dce0 f   Inputvw.obj
 0001:0002cce0       ?dtor$0@?0??CreateObject@C3WaySplitterFrame@@SAPEAVCObject@@XZ@4HA 000000014002dce0 f   Splitter.obj
 0001:0002cce0       ?dtor$0@?0??CreateObject@CMDIChildWnd@@SAPEAVCObject@@XZ@4HA 000000014002dce0 f   Stdafx.obj
 0001:0002cce0       ?dtor$0@?0??CreateObject@CMDIFrameWnd@@SAPEAVCObject@@XZ@4HA 000000014002dce0 f   Stdafx.obj
 0001:0002cce0       ?dtor$0@?0??CreateObject@CFrameWnd@@SAPEAVCObject@@XZ@4HA 000000014002dce0 f   Stdafx.obj
 0001:0002cce0       ?dtor$0@?0??CreateObject@CSplitterFrame@@SAPEAVCObject@@XZ@4HA 000000014002dce0 f   Splitter.obj
 0001:0002ccf0       ?dtor$0@?0???0CInputView@@IEAA@XZ@4HA 000000014002dcf0 f   Inputvw.obj
 0001:0002ccfc       ?dtor$1@?0???0CInputView@@IEAA@XZ@4HA 000000014002dcfc f   Inputvw.obj
 0001:0002cd10       ?dtor$0@?0???_GCInputView@@MEAAPEAXI@Z@4HA 000000014002dd10 f   Inputvw.obj
 0001:0002cd20       ?dtor$0@?0???1CScrollView@@UEAA@XZ@4HA 000000014002dd20 f   Inputvw.obj
 0001:0002cd2c       ?dtor$1@?0???1CScrollView@@UEAA@XZ@4HA 000000014002dd2c f   Inputvw.obj
 0001:0002cd40       ?dtor$1@?0???_GCBrushMTL@@UEAAPEAXI@Z@4HA 000000014002dd40 f   Simpvw.obj
 0001:0002cd40       ?dtor$1@?0???1CRgnMTL@@UEAA@XZ@4HA 000000014002dd40 f   Inputvw.obj
 0001:0002cd40       ?dtor$1@?0???_GCRgnMTL@@UEAAPEAXI@Z@4HA 000000014002dd40 f   Inputvw.obj
 0001:0002cd50       ?dtor$0@?0??Create@_AFX_MOUSEANCHORWND@@QEAAHPEAVCScrollView@@@Z@4HA 000000014002dd50 f   Inputvw.obj
 0001:0002cd5c       ?dtor$2@?0??Create@_AFX_MOUSEANCHORWND@@QEAAHPEAVCScrollView@@@Z@4HA 000000014002dd5c f   Inputvw.obj
 0001:0002cd70       ?dtor$3@?0??OnPaint@_AFX_MOUSEANCHORWND@@QEAAXXZ@4HA 000000014002dd70 f   Inputvw.obj
 0001:0002cd80       ?dtor$0@?0??_ProcessWindowMessage@CView@@UEAAHPEAUHWND__@@I_K_JAEA_J@Z@4HA 000000014002dd80 f   Inputvw.obj
 0001:0002cd80       ?dtor$0@?0??_ProcessWindowMessage@CFormView@@UEAAHPEAUHWND__@@I_K_JAEA_J@Z@4HA 000000014002dd80 f   Inputvw.obj
 0001:0002cd8c       ?dtor$2@?0??_ProcessWindowMessage@CView@@UEAAHPEAUHWND__@@I_K_JAEA_J@Z@4HA 000000014002dd8c f   Inputvw.obj
 0001:0002cd8c       ?dtor$4@?0??_ProcessWindowMessage@CFormView@@UEAAHPEAUHWND__@@I_K_JAEA_J@Z@4HA 000000014002dd8c f   Inputvw.obj
 0001:0002cda0       ?dtor$0@?0??OnPaint@CSplitterWnd@@QEAAXXZ@4HA 000000014002dda0 f   Splitter.obj
 0001:0002cda0       ?dtor$0@?0??OnPaint@CView@@QEAAXXZ@4HA 000000014002dda0 f   Inputvw.obj
 0001:0002cdac       ?dtor$3@?0??OnPaint@CView@@QEAAXXZ@4HA 000000014002ddac f   Inputvw.obj
 0001:0002cdac       ?dtor$3@?0??OnPaint@CSplitterWnd@@QEAAXXZ@4HA 000000014002ddac f   Splitter.obj
 0001:0002cdc0       ?dtor$1@?0???1CViewExSplitWnd@@UEAA@XZ@4HA 000000014002ddc0 f   Splitter.obj
 0001:0002cdc0       ?dtor$1@?0???_GCTextView@@UEAAPEAXI@Z@4HA 000000014002ddc0 f   Simpvw.obj
 0001:0002cdc0       ?dtor$1@?0???_GCViewExSplitWnd@@UEAAPEAXI@Z@4HA 000000014002ddc0 f   Splitter.obj
 0001:0002cdc0       ?dtor$0@?0???_GCView@@UEAAPEAXI@Z@4HA 000000014002ddc0 f   Inputvw.obj
 0001:0002cdc0       ?dtor$0@?0???_GCSplitterWnd@@UEAAPEAXI@Z@4HA 000000014002ddc0 f   Splitter.obj
 0001:0002cdc0       ?dtor$1@?0???_GCColorView@@UEAAPEAXI@Z@4HA 000000014002ddc0 f   Simpvw.obj
 0001:0002cdc0       ?dtor$0@?0???1CView@@UEAA@XZ@4HA 000000014002ddc0 f   Inputvw.obj
 0001:0002cdd0       ?dtor$0@?0???1CDocument@@QEAA@XZ@4HA 000000014002ddd0 f   Inputvw.obj
 0001:0002cde0       ?dtor$1@?0???1CDocument@@QEAA@XZ@4HA 000000014002dde0 f   Inputvw.obj
 0001:0002cdf0       ?dtor$2@?0???1CDocument@@QEAA@XZ@4HA 000000014002ddf0 f   Inputvw.obj
 0001:0002ce00       ?dtor$3@?0??SetScrollSizes@CScrollView@@QEAAXHUtagSIZE@@AEBU2@1@Z@4HA 000000014002de00 f   Inputvw.obj
 0001:0002ce10       ?dtor$0@?0???_GCMainDoc@@UEAAPEAXI@Z@4HA 000000014002de10 f   Maindoc.obj
 0001:0002ce20       ?dtor$1@?0??OnChangeData@CMainDoc@@IEAAXXZ@4HA 000000014002de20 f   Maindoc.obj
 0001:0002ce2c       ?dtor$2@?0??OnChangeData@CMainDoc@@IEAAXXZ@4HA 000000014002de2c f   Maindoc.obj
 0001:0002ce3c       ?dtor$0@?0??OnChangeData@CMainDoc@@IEAAXXZ@4HA 000000014002de3c f   Maindoc.obj
 0001:0002ce48       ?dtor$6@?0??OnChangeData@CMainDoc@@IEAAXXZ@4HA 000000014002de48 f   Maindoc.obj
 0001:0002ce60       ?dtor$0@?0??OnOpenDocument@CDocument@@UEAAHPEBD@Z@4HA 000000014002de60 f   Maindoc.obj
 0001:0002ce6c       ?dtor$3@?0??OnOpenDocument@CDocument@@UEAAHPEBD@Z@4HA 000000014002de6c f   Maindoc.obj
 0001:0002ce7c       ?dtor$1@?0??OnOpenDocument@CDocument@@UEAAHPEBD@Z@4HA 000000014002de7c f   Maindoc.obj
 0001:0002ce88       ?dtor$2@?0??OnOpenDocument@CDocument@@UEAAHPEBD@Z@4HA 000000014002de88 f   Maindoc.obj
 0001:0002ce94       ?catch$0@?0??OnOpenDocument@CDocument@@UEAAHPEBD@Z@4HA 000000014002de94 f   Maindoc.obj
 0001:0002cea2       __catch$?OnOpenDocument@CDocument@@UEAAHPEBD@Z$0 000000014002dea2 f   Maindoc.obj
 0001:0002cef0       ?dtor$0@?0??SaveModified@CDocument@@UEAAHXZ@4HA 000000014002def0 f   Maindoc.obj
 0001:0002cefc       ?dtor$1@?0??SaveModified@CDocument@@UEAAHXZ@4HA 000000014002defc f   Maindoc.obj
 0001:0002cf08       ?dtor$2@?0??SaveModified@CDocument@@UEAAHXZ@4HA 000000014002df08 f   Maindoc.obj
 0001:0002cf20       ?dtor$0@?0???0CFileDialogMTL@@QEAA@HPEBD0K0PEAVCWnd@@KH@Z@4HA 000000014002df20 f   Maindoc.obj
 0001:0002cf2c       ?dtor$1@?0???0CFileDialogMTL@@QEAA@HPEBD0K0PEAVCWnd@@KH@Z@4HA 000000014002df2c f   Maindoc.obj
 0001:0002cf40       ?dtor$0@?0???1CFileDialogMTL@@UEAA@XZ@4HA 000000014002df40 f   Maindoc.obj
 0001:0002cf4c       ?dtor$1@?0???1CFileDialogMTL@@UEAA@XZ@4HA 000000014002df4c f   Maindoc.obj
 0001:0002cf60       ?dtor$0@?0??Mid@CString@WTL@@QEBA?AV12@HH@Z@4HA 000000014002df60 f   Maindoc.obj
 0001:0002cf90       ?dtor$0@?0??_AfxAppendFilterSuffix@@YAXAEAVCString@WTL@@AEAUtagOFNA@@PEAVCDocTemplate@@PEAV12@@Z@4HA 000000014002df90 f   Maindoc.obj
 0001:0002cf9c       ?dtor$1@?0??_AfxAppendFilterSuffix@@YAXAEAVCString@WTL@@AEAUtagOFNA@@PEAVCDocTemplate@@PEAV12@@Z@4HA 000000014002df9c f   Maindoc.obj
 0001:0002cfa8       ?dtor$2@?0??_AfxAppendFilterSuffix@@YAXAEAVCString@WTL@@AEAUtagOFNA@@PEAVCDocTemplate@@PEAV12@@Z@4HA 000000014002dfa8 f   Maindoc.obj
 0001:0002cfb4       ?dtor$3@?0??_AfxAppendFilterSuffix@@YAXAEAVCString@WTL@@AEAUtagOFNA@@PEAVCDocTemplate@@PEAV12@@Z@4HA 000000014002dfb4 f   Maindoc.obj
 0001:0002cfc0       ?dtor$0@?0???0CStringW@@QEAA@PEBD@Z@4HA 000000014002dfc0 f   Maindoc.obj
 0001:0002cfd0       ?dtor$0@?0??ApplyOFNToShellDialog@CFileDialogMTL@@QEAAXXZ@4HA 000000014002dfd0 f   Maindoc.obj
 0001:0002cfdc       ?dtor$1@?0??ApplyOFNToShellDialog@CFileDialogMTL@@QEAAXXZ@4HA 000000014002dfdc f   Maindoc.obj
 0001:0002cfe8       ?dtor$2@?0??ApplyOFNToShellDialog@CFileDialogMTL@@QEAAXXZ@4HA 000000014002dfe8 f   Maindoc.obj
 0001:0002cff4       ?dtor$3@?0??ApplyOFNToShellDialog@CFileDialogMTL@@QEAAXXZ@4HA 000000014002dff4 f   Maindoc.obj
 0001:0002d000       ?dtor$4@?0??ApplyOFNToShellDialog@CFileDialogMTL@@QEAAXXZ@4HA 000000014002e000 f   Maindoc.obj
 0001:0002d010       ?dtor$0@?0??GetPathName@CFileDialogMTL@@QEAA?AVCString@WTL@@XZ@4HA 000000014002e010 f   Maindoc.obj
 0001:0002d01c       ?dtor$2@?0??GetPathName@CFileDialogMTL@@QEAA?AVCString@WTL@@XZ@4HA 000000014002e01c f   Maindoc.obj
 0001:0002d030       ?dtor$0@?0??UpdateOFNFromShellDialog@CFileDialogMTL@@UEAAXXZ@4HA 000000014002e030 f   Maindoc.obj
 0001:0002d03c       ?dtor$1@?0??UpdateOFNFromShellDialog@CFileDialogMTL@@UEAAXXZ@4HA 000000014002e03c f   Maindoc.obj
 0001:0002d048       ?dtor$2@?0??UpdateOFNFromShellDialog@CFileDialogMTL@@UEAAXXZ@4HA 000000014002e048 f   Maindoc.obj
 0001:0002d054       ?dtor$3@?0??UpdateOFNFromShellDialog@CFileDialogMTL@@UEAAXXZ@4HA 000000014002e054 f   Maindoc.obj
 0001:0002d060       ?dtor$4@?0??UpdateOFNFromShellDialog@CFileDialogMTL@@UEAAXXZ@4HA 000000014002e060 f   Maindoc.obj
 0001:0002d06c       ?dtor$5@?0??UpdateOFNFromShellDialog@CFileDialogMTL@@UEAAXXZ@4HA 000000014002e06c f   Maindoc.obj
 0001:0002d080       ?dtor$0@?0??DoPromptFileName@CDocManager@@QEAAHAEAVCString@WTL@@IKHPEAVCDocTemplate@@@Z@4HA 000000014002e080 f   Maindoc.obj
 0001:0002d08c       ?dtor$1@?0??DoPromptFileName@CDocManager@@QEAAHAEAVCString@WTL@@IKHPEAVCDocTemplate@@@Z@4HA 000000014002e08c f   Maindoc.obj
 0001:0002d098       ?dtor$2@?0??DoPromptFileName@CDocManager@@QEAAHAEAVCString@WTL@@IKHPEAVCDocTemplate@@@Z@4HA 000000014002e098 f   Maindoc.obj
 0001:0002d0a4       ?dtor$3@?0??DoPromptFileName@CDocManager@@QEAAHAEAVCString@WTL@@IKHPEAVCDocTemplate@@@Z@4HA 000000014002e0a4 f   Maindoc.obj
 0001:0002d0b0       ?dtor$4@?0??DoPromptFileName@CDocManager@@QEAAHAEAVCString@WTL@@IKHPEAVCDocTemplate@@@Z@4HA 000000014002e0b0 f   Maindoc.obj
 0001:0002d0bc       ?dtor$5@?0??DoPromptFileName@CDocManager@@QEAAHAEAVCString@WTL@@IKHPEAVCDocTemplate@@@Z@4HA 000000014002e0bc f   Maindoc.obj
 0001:0002d0c8       ?dtor$6@?0??DoPromptFileName@CDocManager@@QEAAHAEAVCString@WTL@@IKHPEAVCDocTemplate@@@Z@4HA 000000014002e0c8 f   Maindoc.obj
 0001:0002d0e0       ?dtor$0@?0???0CArchive@@QEAA@PEAVCFile@@IHPEAX@Z@4HA 000000014002e0e0 f   Maindoc.obj
 0001:0002d0f0       ?dtor$1@?0???0CArchive@@QEAA@PEAVCFile@@IHPEAX@Z@4HA 000000014002e0f0 f   Maindoc.obj
 0001:0002d100       ?dtor$0@?0??Write@CFile@@UEAAXPEBXI@Z@4HA 000000014002e100 f   Maindoc.obj
 0001:0002d10c       ?dtor$1@?0??Write@CFile@@UEAAXPEBXI@Z@4HA 000000014002e10c f   Maindoc.obj
 0001:0002d120       ?dtor$0@?0??Close@CFile@@UEAAXXZ@4HA 000000014002e120 f   Maindoc.obj
 0001:0002d120       ?dtor$0@?0??ThrowOsError@CFileException@@SAXJPEBD@Z@4HA 000000014002e120 f   Maindoc.obj
 0001:0002d130       ?dtor$0@?0???_GCFile@@QEAAPEAXI@Z@4HA 000000014002e130 f   Maindoc.obj
 0001:0002d140       ?dtor$0@?0??OnSaveDocument@CDocument@@UEAAHPEBD@Z@4HA 000000014002e140 f   Maindoc.obj
 0001:0002d14c       ?dtor$3@?0??OnSaveDocument@CDocument@@UEAAHPEBD@Z@4HA 000000014002e14c f   Maindoc.obj
 0001:0002d15c       ?dtor$1@?0??OnSaveDocument@CDocument@@UEAAHPEBD@Z@4HA 000000014002e15c f   Maindoc.obj
 0001:0002d168       ?dtor$2@?0??OnSaveDocument@CDocument@@UEAAHPEBD@Z@4HA 000000014002e168 f   Maindoc.obj
 0001:0002d180       ?dtor$0@?0??_AfxFullPath2@CAfx@@SAHPEADPEBDPEAVCFileException@@@Z@4HA 000000014002e180 f   Maindoc.obj
 0001:0002d180       ?dtor$0@?0??OnWindowNew@CMDIFrameWnd@@QEAAXXZ@4HA 000000014002e180 f   Stdafx.obj
 0001:0002d180       ?dtor$0@?0??AfxResolveShortcut@@YAHPEAVCWMHnd@@PEBDPEADH@Z@4HA 000000014002e180 f   Viewex.obj
 0001:0002d190       ?dtor$0@?0??DoSave@CDocument@@UEAAHPEBDH@Z@4HA 000000014002e190 f   Maindoc.obj
 0001:0002d19c       ?dtor$1@?0??DoSave@CDocument@@UEAAHPEBDH@Z@4HA 000000014002e19c f   Maindoc.obj
 0001:0002d1a8       ?dtor$2@?0??DoSave@CDocument@@UEAAHPEBDH@Z@4HA 000000014002e1a8 f   Maindoc.obj
 0001:0002d1b4       ?dtor$3@?0??DoSave@CDocument@@UEAAHPEBDH@Z@4HA 000000014002e1b4 f   Maindoc.obj
 0001:0002d1c0       ?dtor$0@?0???0CFileException@@QEAA@HJPEBD@Z@4HA 000000014002e1c0 f   Maindoc.obj
 0001:0002d1d0       ?dtor$2@?0??OnDraw@CColorView@@UEAAXPEAVCDCMTL@@@Z@4HA 000000014002e1d0 f   Simpvw.obj
 0001:0002d1e0       ?dtor$0@?0???1CSplitterFrame@@UEAA@XZ@4HA 000000014002e1e0 f   Splitter.obj
 0001:0002d1ec       ?dtor$2@?0???1CSplitterFrame@@UEAA@XZ@4HA 000000014002e1ec f   Splitter.obj
 0001:0002d200       ?dtor$0@?0???1C3WaySplitterFrame@@UEAA@XZ@4HA 000000014002e200 f   Splitter.obj
 0001:0002d20c       ?dtor$1@?0???1C3WaySplitterFrame@@UEAA@XZ@4HA 000000014002e20c f   Splitter.obj
 0001:0002d21f       ?dtor$4@?0???1C3WaySplitterFrame@@UEAA@XZ@4HA 000000014002e21f f   Splitter.obj
 0001:0002d22b       ?dtor$6@?0???1C3WaySplitterFrame@@UEAA@XZ@4HA 000000014002e22b f   Splitter.obj
 0001:0002d240       ?catch$0@?0??CreateCommon@CSplitterWnd@@QEAAHPEAVCWnd@@UtagSIZE@@KI@Z@4HA 000000014002e240 f   Splitter.obj
 0001:0002d24d       __catch$?CreateCommon@CSplitterWnd@@QEAAHPEAVCWnd@@UtagSIZE@@KI@Z$0 000000014002e24d f   Splitter.obj
 0001:0002d270       ?catch$0@?0??CreateView@CSplitterWnd@@UEAAHHHPEAUCRuntimeClass@@UtagSIZE@@PEAUCCreateContext@@@Z@4HA 000000014002e270 f   Splitter.obj
 0001:0002d27d       __catch$?CreateView@CSplitterWnd@@UEAAHHHPEAUCRuntimeClass@@UtagSIZE@@PEAUCCreateContext@@@Z$0 000000014002e27d f   Splitter.obj
 0001:0002d290       ?dtor$0@?0???0CFrameWnd@@QEAA@XZ@4HA 000000014002e290 f   Splitter.obj
 0001:0002d29c       ?dtor$1@?0???0CFrameWnd@@QEAA@XZ@4HA 000000014002e29c f   Splitter.obj
 0001:0002d2ac       ?dtor$2@?0???0CFrameWnd@@QEAA@XZ@4HA 000000014002e2ac f   Splitter.obj
 0001:0002d2c0       ?dtor$0@?0??LoadFrame@CMDIChildWnd@@UEAAHIKPEAVCWnd@@PEAUCCreateContext@@@Z@4HA 000000014002e2c0 f   Splitter.obj
 0001:0002d2cc       ?dtor$1@?0??LoadFrame@CMDIChildWnd@@UEAAHIKPEAVCWnd@@PEAUCCreateContext@@@Z@4HA 000000014002e2cc f   Splitter.obj
 0001:0002d2e0       ?dtor$0@?0??DestroyDockBars@CFrameWnd@@QEAAXXZ@4HA 000000014002e2e0 f   Splitter.obj
 0001:0002d2ec       ?dtor$1@?0??DestroyDockBars@CFrameWnd@@QEAAXXZ@4HA 000000014002e2ec f   Splitter.obj
 0001:0002d300       ?dtor$0@?0??MatchDocType@CDocTemplate@@UEAA?AW4Confidence@1@PEBDAEAPEAVCDocument@@@Z@4HA 000000014002e300 f   Viewex.obj
 0001:0002d300       ?dtor$0@?0??OnInitDialog@CNewTypeDlg@@UEAAHXZ@4HA 000000014002e300 f   Viewex.obj
 0001:0002d300       ?dtor$0@?0??OnSetMessageString@CFrameWnd@@QEAA_J_K_J@Z@4HA 000000014002e300 f   Splitter.obj
 0001:0002d310       ?dtor$0@?0??_ProcessWindowMessage@CFrameWnd@@UEAAHPEAUHWND__@@I_K_JAEA_J@Z@4HA 000000014002e310 f   Splitter.obj
 0001:0002d31c       ?dtor$5@?0??_ProcessWindowMessage@CFrameWnd@@UEAAHPEAUHWND__@@I_K_JAEA_J@Z@4HA 000000014002e31c f   Splitter.obj
 0001:0002d32c       ?dtor$1@?0??_ProcessWindowMessage@CFrameWnd@@UEAAHPEAUHWND__@@I_K_JAEA_J@Z@4HA 000000014002e32c f   Splitter.obj
 0001:0002d338       ?dtor$7@?0??_ProcessWindowMessage@CFrameWnd@@UEAAHPEAUHWND__@@I_K_JAEA_J@Z@4HA 000000014002e338 f   Splitter.obj
 0001:0002d348       ?dtor$2@?0??_ProcessWindowMessage@CFrameWnd@@UEAAHPEAUHWND__@@I_K_JAEA_J@Z@4HA 000000014002e348 f   Splitter.obj
 0001:0002d354       ?dtor$9@?0??_ProcessWindowMessage@CFrameWnd@@UEAAHPEAUHWND__@@I_K_JAEA_J@Z@4HA 000000014002e354 f   Splitter.obj
 0001:0002d364       ?dtor$3@?0??_ProcessWindowMessage@CFrameWnd@@UEAAHPEAUHWND__@@I_K_JAEA_J@Z@4HA 000000014002e364 f   Splitter.obj
 0001:0002d370       ?dtor$13@?0??_ProcessWindowMessage@CFrameWnd@@UEAAHPEAUHWND__@@I_K_JAEA_J@Z@4HA 000000014002e370 f   Splitter.obj
 0001:0002d380       ?dtor$0@?0??UpdateFrameTitleForDocument@CFrameWnd@@QEAAXPEBD@Z@4HA 000000014002e380 f   Splitter.obj
 0001:0002d380       ?dtor$0@?0??SetDefaultTitle@CMultiDocTemplate@@UEAAXPEAVCDocument@@@Z@4HA 000000014002e380 f   Viewex.obj
 0001:0002d390       ?dtor$0@?0??LoadFrame@CFrameWnd@@UEAAHIKPEAVCWnd@@PEAUCCreateContext@@@Z@4HA 000000014002e390 f   Splitter.obj
 0001:0002d39c       ?dtor$1@?0??LoadFrame@CFrameWnd@@UEAAHIKPEAVCWnd@@PEAUCCreateContext@@@Z@4HA 000000014002e39c f   Splitter.obj
 0001:0002d3b0       ?dtor$0@?0???1CFrameWnd@@UEAA@XZ@4HA 000000014002e3b0 f   Splitter.obj
 0001:0002d3bc       ?dtor$1@?0???1CFrameWnd@@UEAA@XZ@4HA 000000014002e3bc f   Splitter.obj
 0001:0002d3d0       ?dtor$0@?0??AfxMessageBox@@YAHIII@Z@4HA 000000014002e3d0 f   Stdafx.obj
 0001:0002d3d0       ?dtor$0@?0??OnFileOpen@CDocManager@@UEAAXXZ@4HA 000000014002e3d0 f   Viewex.obj
 0001:0002d3e0       ?dtor$0@?0???__F?wndTop@CWMHnd@@2V1@B@@YAXXZ@4HA 000000014002e3e0 f   Stdafx.obj
 0001:0002d3f0       ?dtor$0@?0???__F?wndBottom@CWMHnd@@2V1@B@@YAXXZ@4HA 000000014002e3f0 f   Stdafx.obj
 0001:0002d400       ?dtor$0@?0???__F?wndTopMost@CWMHnd@@2V1@B@@YAXXZ@4HA 000000014002e400 f   Stdafx.obj
 0001:0002d410       ?dtor$0@?0???__F?wndNoTopMost@CWMHnd@@2V1@B@@YAXXZ@4HA 000000014002e410 f   Stdafx.obj
 0001:0002d420       ?dtor$0@?0??InitInstance@CViewExApp@@UEAAHXZ@4HA 000000014002e420 f   Viewex.obj
 0001:0002d42c       ?dtor$8@?0??InitInstance@CViewExApp@@UEAAHXZ@4HA 000000014002e42c f   Viewex.obj
 0001:0002d43c       ?dtor$6@?0??InitInstance@CViewExApp@@UEAAHXZ@4HA 000000014002e43c f   Viewex.obj
 0001:0002d448       ?dtor$7@?0??InitInstance@CViewExApp@@UEAAHXZ@4HA 000000014002e448 f   Viewex.obj
 0001:0002d458       ?dtor$1@?0??InitInstance@CViewExApp@@UEAAHXZ@4HA 000000014002e458 f   Viewex.obj
 0001:0002d464       ?dtor$11@?0??InitInstance@CViewExApp@@UEAAHXZ@4HA 000000014002e464 f   Viewex.obj
 0001:0002d474       ?dtor$9@?0??InitInstance@CViewExApp@@UEAAHXZ@4HA 000000014002e474 f   Viewex.obj
 0001:0002d480       ?dtor$10@?0??InitInstance@CViewExApp@@UEAAHXZ@4HA 000000014002e480 f   Viewex.obj
 0001:0002d490       ?dtor$2@?0??InitInstance@CViewExApp@@UEAAHXZ@4HA 000000014002e490 f   Viewex.obj
 0001:0002d49c       ?dtor$14@?0??InitInstance@CViewExApp@@UEAAHXZ@4HA 000000014002e49c f   Viewex.obj
 0001:0002d4ac       ?dtor$12@?0??InitInstance@CViewExApp@@UEAAHXZ@4HA 000000014002e4ac f   Viewex.obj
 0001:0002d4b8       ?dtor$13@?0??InitInstance@CViewExApp@@UEAAHXZ@4HA 000000014002e4b8 f   Viewex.obj
 0001:0002d4c8       ?dtor$3@?0??InitInstance@CViewExApp@@UEAAHXZ@4HA 000000014002e4c8 f   Viewex.obj
 0001:0002d4d4       ?dtor$17@?0??InitInstance@CViewExApp@@UEAAHXZ@4HA 000000014002e4d4 f   Viewex.obj
 0001:0002d4e4       ?dtor$15@?0??InitInstance@CViewExApp@@UEAAHXZ@4HA 000000014002e4e4 f   Viewex.obj
 0001:0002d4f0       ?dtor$16@?0??InitInstance@CViewExApp@@UEAAHXZ@4HA 000000014002e4f0 f   Viewex.obj
 0001:0002d500       ?dtor$4@?0??InitInstance@CViewExApp@@UEAAHXZ@4HA 000000014002e500 f   Viewex.obj
 0001:0002d50c       ?dtor$20@?0??InitInstance@CViewExApp@@UEAAHXZ@4HA 000000014002e50c f   Viewex.obj
 0001:0002d51c       ?dtor$18@?0??InitInstance@CViewExApp@@UEAAHXZ@4HA 000000014002e51c f   Viewex.obj
 0001:0002d528       ?dtor$19@?0??InitInstance@CViewExApp@@UEAAHXZ@4HA 000000014002e528 f   Viewex.obj
 0001:0002d538       ?dtor$5@?0??InitInstance@CViewExApp@@UEAAHXZ@4HA 000000014002e538 f   Viewex.obj
 0001:0002d550       ?dtor$0@?0??OnAppAbout@CViewExApp@@QEAAXXZ@4HA 000000014002e550 f   Viewex.obj
 0001:0002d560       ?dtor$0@?0??OpenDocumentFile@CMultiDocTemplate@@UEAAPEAVCDocument@@PEBDHH@Z@4HA 000000014002e560 f   Viewex.obj
 0001:0002d570       ?dtor$0@?0???1CCommandLineInfo@@QEAA@XZ@4HA 000000014002e570 f   Viewex.obj
 0001:0002d580       ?dtor$1@?0???1CCommandLineInfo@@QEAA@XZ@4HA 000000014002e580 f   Viewex.obj
 0001:0002d590       ?dtor$2@?0???1CCommandLineInfo@@QEAA@XZ@4HA 000000014002e590 f   Viewex.obj
 0001:0002d5a0       ?dtor$0@?0???1CWinApp@@QEAA@XZ@4HA 000000014002e5a0 f   Viewex.obj
 0001:0002d5ac       ?dtor$1@?0???1CWinApp@@QEAA@XZ@4HA 000000014002e5ac f   Viewex.obj
 0001:0002d5bc       ?dtor$2@?0???1CWinApp@@QEAA@XZ@4HA 000000014002e5bc f   Viewex.obj
 0001:0002d5d0       ?dtor$0@?0???0CModuleThreadState@@QEAA@XZ@4HA 000000014002e5d0 f   Viewex.obj
 0001:0002d5d0       ?dtor$0@?0???1CModuleThreadState@@QEAA@XZ@4HA 000000014002e5d0 f   Viewex.obj
 0001:0002d5f0       ?dtor$0@?0???0CWinApp@@QEAA@XZ@4HA 000000014002e5f0 f   Viewex.obj
 0001:0002d600       ?dtor$0@?0??GetClassObject@AFX_COM@@QEAAJAEBU_GUID@@0PEAPEAX@Z@4HA 000000014002e600 f   Viewex.obj
 0001:0002d60c       ?dtor$1@?0??GetClassObject@AFX_COM@@QEAAJAEBU_GUID@@0PEAPEAX@Z@4HA 000000014002e60c f   Viewex.obj
 0001:0002d620       ?dtor$0@?0??OnFileNew@CDocManager@@UEAAXXZ@4HA 000000014002e620 f   Viewex.obj
 0001:0002d62c       _onexit$fin$0              000000014002e62c f   LIBCMT:onexit.obj
 0001:0002d640       __tmainCRTStartup$filt$0   000000014002e640 f   LIBCMT:wincrt0.obj
 0001:0002d65e       doexit$fin$0               000000014002e65e f   LIBCMT:crt0dat.obj
 0001:0002d682       ?fin$0@?0??_Type_info_dtor@type_info@@CAXPEAV1@@Z@4HA 000000014002e682 f   LIBCMT:typname.obj
 0001:0002d69b       _setmbcp$fin$0             000000014002e69b f   LIBCMT:mbctype.obj
 0001:0002d69b       __updatetmbcinfo$fin$0     000000014002e69b f   LIBCMT:mbctype.obj
 0001:0002d6b4       _freefls$fin$1             000000014002e6b4 f   LIBCMT:tidtable.obj
 0001:0002d6b4       _initptd$fin$1             000000014002e6b4 f   LIBCMT:tidtable.obj
 0001:0002d6cd       _initptd$fin$0             000000014002e6cd f   LIBCMT:tidtable.obj
 0001:0002d6cd       _freefls$fin$0             000000014002e6cd f   LIBCMT:tidtable.obj
 0001:0002d6e6       __tzset$fin$0              000000014002e6e6 f   LIBCMT:tzset.obj
 0001:0002d6e6       _isindst$fin$0             000000014002e6e6 f   LIBCMT:tzset.obj
 0001:0002d6ff       _tzset_nolock$fin$0        000000014002e6ff f   LIBCMT:tzset.obj
 0001:0002d71a       _ioinit$fin$0              000000014002e71a f   LIBCMT:ioinit.obj
 0001:0002d735       _mtinitlocknum$fin$0       000000014002e735 f   LIBCMT:mlock.obj
 0001:0002d760       _IsNonwritableInCurrentImage$filt$0 000000014002e760 f   LIBCMT:pesect.obj
 0001:0002d780       raise$fin$0                000000014002e780 f   LIBCMT:winsig.obj
 0001:0002d79e       flsall$fin$0               000000014002e79e f   LIBCMT:fflush.obj
 0001:0002d7c6       flsall$fin$1               000000014002e7c6 f   LIBCMT:fflush.obj
 0001:0002d7df       __updatetlocinfo$fin$0     000000014002e7df f   LIBCMT:wsetloca.obj
 0001:0002d7df       _locterm$fin$0             000000014002e7df f   LIBCMT:wsetloca.obj
 0001:0002d7f8       _fcloseall$fin$0           000000014002e7f8 f   LIBCMT:closeall.obj
 0001:0002d811       _close$fin$0               000000014002e811 f   LIBCMT:commit.obj
 0001:0002d811       _commit$fin$0              000000014002e811 f   LIBCMT:commit.obj
 0001:0002d828       _write$fin$0               000000014002e828 f   LIBCMT:write.obj
 0001:0002d83f       fclose$fin$0               000000014002e83f f   LIBCMT:fclose.obj
 0001:0002d857       __lock_fhandle$fin$0       000000014002e857 f   LIBCMT:osfinfo.obj
 0001:0002d870       _CallSETranslator$filt$0   000000014002e870 f   LIBCMT:trnsctrl.obj
 0001:0002d8b6       __CxxCallCatchBlock$filt$0 000000014002e8b6 f   LIBCMT:frame.obj
 0001:0002d9aa       __CxxCallCatchBlock$fin$1  000000014002e9aa f   LIBCMT:frame.obj
 0001:0002da28       __DestructExceptionObject$filt$0 000000014002ea28 f   LIBCMT:frame.obj
 0001:0002da40       __FrameUnwindToState$filt$0 000000014002ea40 f   LIBCMT:frame.obj
 0001:0002da56       __FrameUnwindToState$fin$1 000000014002ea56 f   LIBCMT:frame.obj
 0001:0002da80       ??__F_AtlWinModule@ATL@@YAXXZ 000000014002ea80 f   Enterdlg.obj
 0001:0002dae0       ??__F?wndTop@CWMHnd@@2V1@B@@YAXXZ 000000014002eae0 f   Stdafx.obj
 0001:0002db50       ??__F?wndBottom@CWMHnd@@2V1@B@@YAXXZ 000000014002eb50 f   Stdafx.obj
 0001:0002dbc0       ??__F?wndTopMost@CWMHnd@@2V1@B@@YAXXZ 000000014002ebc0 f   Stdafx.obj
 0001:0002dc30       ??__F?wndNoTopMost@CWMHnd@@2V1@B@@YAXXZ 000000014002ec30 f   Stdafx.obj
 0001:0002dca0       ??__FtheApp@@YAXXZ         000000014002eca0 f   Viewex.obj
 0001:0002dca8       ??__F_AtlBaseModule@ATL@@YAXXZ 000000014002eca8 f   atls:atlbase.obj
 0002:00000908       _AtlBaseModule$initializer$ 000000014002f908     atls:atlbase.obj
 0002:00000910       _AtlWinModule$initializer$ 000000014002f910     Enterdlg.obj
 0002:00000918       _init_CMainDoc$initializer$ 000000014002f918     Maindoc.obj
 0002:00000920       ?wndTop$initializer$@CWMHnd@@2P6AXXZEA 000000014002f920     Stdafx.obj
 0002:00000928       ?wndBottom$initializer$@CWMHnd@@2P6AXXZEA 000000014002f928     Stdafx.obj
 0002:00000930       ?wndTopMost$initializer$@CWMHnd@@2P6AXXZEA 000000014002f930     Stdafx.obj
 0002:00000938       ?wndNoTopMost$initializer$@CWMHnd@@2P6AXXZEA 000000014002f938     Stdafx.obj
 0002:00000940       theApp$initializer$        000000014002f940     Viewex.obj
 0002:00000958       pinit                      000000014002f958     LIBCMT:onexit.obj
 0002:00000960       pinit                      000000014002f960     LIBCMT:mbctype.obj
 0002:00000968       pinit                      000000014002f968     LIBCMT:cpu_disp.obj
 0002:00000970       pinit                      000000014002f970     LIBCMT:_file.obj
 0002:00000978       pinit                      000000014002f978     LIBCMT:wincrt0.obj
 0002:00000990       pterm                      000000014002f990     LIBCMT:wsetloca.obj
 0002:00000998       pterm                      000000014002f998     LIBCMT:initcon.obj
 0002:000009a0       pterm                      000000014002f9a0     LIBCMT:_file.obj
 0002:00000af0       GS_ExceptionPointers       000000014002faf0     LIBCMT:gs_report.obj
 0002:00000b60       ?ExceptionTemplate@?1??_CxxThrowException@@9@4UEHExceptionRecord@@B 000000014002fb60     LIBCMT:throw.obj
 0002:00000ba0       _mb_locale_names           000000014002fba0     LIBCMT:mbctype.obj
 0002:00001400       rterrs                     0000000140030400     LIBCMT:crt0msg.obj
 0002:00001f70       tokenTable                 0000000140030f70     LIBCMT:undname.obj
 0002:00001fe0       nameTable                  0000000140030fe0     LIBCMT:undname.obj
 0002:00002260       rttiTable                  0000000140031260     LIBCMT:undname.obj
 0002:00006460       _first_127char             0000000140035460     LIBCMT:wsetloca.obj
 0002:00008ae0       $cppxdata$??1CModuleState@@QEAA@XZ 0000000140037ae0     Enterdlg.obj
 0002:00008b08       $cppxdata$??1CMenuMTL@@UEAA@XZ 0000000140037b08     Enterdlg.obj
 0002:00008b30       $cppxdata$??_GCMenuMTL@@UEAAPEAXI@Z 0000000140037b30     Enterdlg.obj
 0002:00008b58       $cppxdata$??_GCWMHnd@@UEAAPEAXI@Z 0000000140037b58     Enterdlg.obj
 0002:00008b80       $cppxdata$?AllocBuffer@CString@WTL@@IEAAHH@Z 0000000140037b80     Enterdlg.obj
 0002:00008ba8       $cppxdata$??1CWnd@@UEAA@XZ 0000000140037ba8     Enterdlg.obj
 0002:00008bd0       $cppxdata$?_ProcessWindowMessage@CWnd@@UEAAHPEAUHWND__@@I_K_JAEA_J@Z 0000000140037bd0     Enterdlg.obj
 0002:00008bf8       $cppxdata$??1CDCMTL@@UEAA@XZ 0000000140037bf8     Enterdlg.obj
 0002:00008c20       $cppxdata$??_GCDCMTL@@UEAAPEAXI@Z 0000000140037c20     Enterdlg.obj
 0002:00008c48       $cppxdata$??1CEnterDlg@@UEAA@XZ 0000000140037c48     Enterdlg.obj
 0002:00008c70       $cppxdata$??_GCEnterDlg@@UEAAPEAXI@Z 0000000140037c70     Enterdlg.obj
 0002:00008cc0       $cppxdata$?SetScrollSizes@CScrollView@@QEAAXHUtagSIZE@@AEBU2@1@Z 0000000140037cc0     Inputvw.obj
 0002:00008ce8       $cppxdata$??1CWindowDCMTL@@UEAA@XZ 0000000140037ce8     Inputvw.obj
 0002:00008d10       $cppxdata$??1CView@@UEAA@XZ 0000000140037d10     Inputvw.obj
 0002:00008d38       $cppxdata$??1CDocument@@QEAA@XZ 0000000140037d38     Inputvw.obj
 0002:00008d60       $cppxdata$??_GCColorView@@UEAAPEAXI@Z 0000000140037d60     Simpvw.obj
 0002:00008d60       $cppxdata$??_GCView@@UEAAPEAXI@Z 0000000140037d60     Inputvw.obj
 0002:00008d60       $cppxdata$??_GCTextView@@UEAAPEAXI@Z 0000000140037d60     Simpvw.obj
 0002:00008d88       $cppxdata$?_ProcessWindowMessage@CView@@UEAAHPEAUHWND__@@I_K_JAEA_J@Z 0000000140037d88     Inputvw.obj
 0002:00008db0       $cppxdata$?OnPaint@CView@@QEAAXXZ 0000000140037db0     Inputvw.obj
 0002:00008dd8       $cppxdata$??1CPaintDCMTL@@UEAA@XZ 0000000140037dd8     Inputvw.obj
 0002:00008e00       $cppxdata$?_ProcessWindowMessage@CFormView@@UEAAHPEAUHWND__@@I_K_JAEA_J@Z 0000000140037e00     Inputvw.obj
 0002:00008e28       $cppxdata$?OnPaint@_AFX_MOUSEANCHORWND@@QEAAXXZ 0000000140037e28     Inputvw.obj
 0002:00008e50       $cppxdata$?Create@_AFX_MOUSEANCHORWND@@QEAAHPEAVCScrollView@@@Z 0000000140037e50     Inputvw.obj
 0002:00008e78       $cppxdata$??1CRgnMTL@@UEAA@XZ 0000000140037e78     Inputvw.obj
 0002:00008ea0       $cppxdata$??_GCRgnMTL@@UEAAPEAXI@Z 0000000140037ea0     Inputvw.obj
 0002:00008ea0       $cppxdata$??_GCBrushMTL@@UEAAPEAXI@Z 0000000140037ea0     Simpvw.obj
 0002:00008ec8       $cppxdata$??1CScrollView@@UEAA@XZ 0000000140037ec8     Inputvw.obj
 0002:00008ef0       $cppxdata$??_GCInputView@@MEAAPEAXI@Z 0000000140037ef0     Inputvw.obj
 0002:00008f18       $cppxdata$??0CInputView@@IEAA@XZ 0000000140037f18     Inputvw.obj
 0002:00008f40       $cppxdata$?CreateObject@CInputView@@SAPEAVCObject@@XZ 0000000140037f40     Inputvw.obj
 0002:00008f68       $cppxdata$?ThrowOsError@CFileException@@SAXJPEBD@Z 0000000140037f68     Maindoc.obj
 0002:00008f90       $cppxdata$??0CFileException@@QEAA@HJPEBD@Z 0000000140037f90     Maindoc.obj
 0002:00008fb8       $cppxdata$?DoSave@CDocument@@UEAAHPEBDH@Z 0000000140037fb8     Maindoc.obj
 0002:00008fe0       $cppxdata$?_AfxFullPath2@CAfx@@SAHPEADPEBDPEAVCFileException@@@Z 0000000140037fe0     Maindoc.obj
 0002:00009008       $cppxdata$?OnSaveDocument@CDocument@@UEAAHPEBD@Z 0000000140038008     Maindoc.obj
 0002:00009030       $cppxdata$??_GCFile@@QEAAPEAXI@Z 0000000140038030     Maindoc.obj
 0002:00009058       $cppxdata$?Close@CFile@@UEAAXXZ 0000000140038058     Maindoc.obj
 0002:00009080       $cppxdata$?Write@CFile@@UEAAXPEBXI@Z 0000000140038080     Maindoc.obj
 0002:000090a8       $cppxdata$??0CArchive@@QEAA@PEAVCFile@@IHPEAX@Z 00000001400380a8     Maindoc.obj
 0002:000090d0       $cppxdata$?DoPromptFileName@CDocManager@@QEAAHAEAVCString@WTL@@IKHPEAVCDocTemplate@@@Z 00000001400380d0     Maindoc.obj
 0002:000090f8       $cppxdata$?UpdateOFNFromShellDialog@CFileDialogMTL@@UEAAXXZ 00000001400380f8     Maindoc.obj
 0002:00009120       $cppxdata$?GetPathName@CFileDialogMTL@@QEAA?AVCString@WTL@@XZ 0000000140038120     Maindoc.obj
 0002:00009148       $cppxdata$?ApplyOFNToShellDialog@CFileDialogMTL@@QEAAXXZ 0000000140038148     Maindoc.obj
 0002:00009170       $cppxdata$??0CStringW@@QEAA@PEBD@Z 0000000140038170     Maindoc.obj
 0002:00009198       $cppxdata$?_AfxAppendFilterSuffix@@YAXAEAVCString@WTL@@AEAUtagOFNA@@PEAVCDocTemplate@@PEAV12@@Z 0000000140038198     Maindoc.obj
 0002:000091c0       $cppxdata$?Mid@CString@WTL@@QEBA?AV12@HH@Z 00000001400381c0     Maindoc.obj
 0002:000091e8       $cppxdata$??1CFileDialogMTL@@UEAA@XZ 00000001400381e8     Maindoc.obj
 0002:00009210       $cppxdata$??0CFileDialogMTL@@QEAA@HPEBD0K0PEAVCWnd@@KH@Z 0000000140038210     Maindoc.obj
 0002:00009238       $cppxdata$?SaveModified@CDocument@@UEAAHXZ 0000000140038238     Maindoc.obj
 0002:00009260       $cppxdata$?OnOpenDocument@CDocument@@UEAAHPEBD@Z 0000000140038260     Maindoc.obj
 0002:00009288       $cppxdata$?OnChangeData@CMainDoc@@IEAAXXZ 0000000140038288     Maindoc.obj
 0002:000092b0       $cppxdata$??_GCMainDoc@@UEAAPEAXI@Z 00000001400382b0     Maindoc.obj
 0002:000092d8       $cppxdata$?OnDraw@CColorView@@UEAAXPEAVCDCMTL@@@Z 00000001400382d8     Simpvw.obj
 0002:00009300       $cppxdata$??1CFrameWnd@@UEAA@XZ 0000000140038300     Splitter.obj
 0002:00009328       $cppxdata$?LoadFrame@CFrameWnd@@UEAAHIKPEAVCWnd@@PEAUCCreateContext@@@Z 0000000140038328     Splitter.obj
 0002:00009350       $cppxdata$?UpdateFrameTitleForDocument@CFrameWnd@@QEAAXPEBD@Z 0000000140038350     Splitter.obj
 0002:00009378       $cppxdata$?_ProcessWindowMessage@CFrameWnd@@UEAAHPEAUHWND__@@I_K_JAEA_J@Z 0000000140038378     Splitter.obj
 0002:000093a0       $cppxdata$?OnSetMessageString@CFrameWnd@@QEAA_J_K_J@Z 00000001400383a0     Splitter.obj
 0002:000093c8       $cppxdata$?DestroyDockBars@CFrameWnd@@QEAAXXZ 00000001400383c8     Splitter.obj
 0002:000093f0       $cppxdata$?LoadFrame@CMDIChildWnd@@UEAAHIKPEAVCWnd@@PEAUCCreateContext@@@Z 00000001400383f0     Splitter.obj
 0002:00009418       $cppxdata$??0CFrameWnd@@QEAA@XZ 0000000140038418     Splitter.obj
 0002:00009440       $cppxdata$?CreateView@CSplitterWnd@@UEAAHHHPEAUCRuntimeClass@@UtagSIZE@@PEAUCCreateContext@@@Z 0000000140038440     Splitter.obj
 0002:00009468       $cppxdata$?CreateCommon@CSplitterWnd@@QEAAHPEAVCWnd@@UtagSIZE@@KI@Z 0000000140038468     Splitter.obj
 0002:00009490       $cppxdata$?_ProcessWindowMessage@CSplitterWnd@@UEAAHPEAUHWND__@@I_K_JAEA_J@Z 0000000140038490     Splitter.obj
 0002:000094b8       $cppxdata$?OnPaint@CSplitterWnd@@QEAAXXZ 00000001400384b8     Splitter.obj
 0002:000094e0       $cppxdata$??1CViewExSplitWnd@@UEAA@XZ 00000001400384e0     Splitter.obj
 0002:00009508       $cppxdata$??_GCViewExSplitWnd@@UEAAPEAXI@Z 0000000140038508     Splitter.obj
 0002:00009508       $cppxdata$??_GCSplitterWnd@@UEAAPEAXI@Z 0000000140038508     Splitter.obj
 0002:00009530       $cppxdata$??1C3WaySplitterFrame@@UEAA@XZ 0000000140038530     Splitter.obj
 0002:00009558       $cppxdata$?CreateObject@C3WaySplitterFrame@@SAPEAVCObject@@XZ 0000000140038558     Splitter.obj
 0002:00009580       $cppxdata$??1CSplitterFrame@@UEAA@XZ 0000000140038580     Splitter.obj
 0002:000095a8       $cppxdata$?CreateObject@CSplitterFrame@@SAPEAVCObject@@XZ 00000001400385a8     Splitter.obj
 0002:000095d0       $cppxdata$?CreateObject@CMDIChildWnd@@SAPEAVCObject@@XZ 00000001400385d0     Stdafx.obj
 0002:000095f8       $cppxdata$?CreateObject@CMDIFrameWnd@@SAPEAVCObject@@XZ 00000001400385f8     Stdafx.obj
 0002:00009620       $cppxdata$?CreateObject@CFrameWnd@@SAPEAVCObject@@XZ 0000000140038620     Stdafx.obj
 0002:00009648       $cppxdata$??__F?wndNoTopMost@CWMHnd@@2V1@B@@YAXXZ 0000000140038648     Stdafx.obj
 0002:00009670       $cppxdata$??__F?wndTopMost@CWMHnd@@2V1@B@@YAXXZ 0000000140038670     Stdafx.obj
 0002:00009698       $cppxdata$??__F?wndBottom@CWMHnd@@2V1@B@@YAXXZ 0000000140038698     Stdafx.obj
 0002:000096c0       $cppxdata$??__F?wndTop@CWMHnd@@2V1@B@@YAXXZ 00000001400386c0     Stdafx.obj
 0002:000096e8       $cppxdata$?AfxMessageBox@@YAHIII@Z 00000001400386e8     Stdafx.obj
 0002:00009710       $cppxdata$?OnWindowNew@CMDIFrameWnd@@QEAAXXZ 0000000140038710     Stdafx.obj
 0002:00009738       $cppxdata$?OnFileNew@CDocManager@@UEAAXXZ 0000000140038738     Viewex.obj
 0002:00009760       $cppxdata$?OnInitDialog@CNewTypeDlg@@UEAAHXZ 0000000140038760     Viewex.obj
 0002:00009788       $cppxdata$?OnFileOpen@CDocManager@@UEAAXXZ 0000000140038788     Viewex.obj
 0002:000097b0       $cppxdata$?MatchDocType@CDocTemplate@@UEAA?AW4Confidence@1@PEBDAEAPEAVCDocument@@@Z 00000001400387b0     Viewex.obj
 0002:000097d8       $cppxdata$?AfxResolveShortcut@@YAHPEAVCWMHnd@@PEBDPEADH@Z 00000001400387d8     Viewex.obj
 0002:00009800       $cppxdata$?GetClassObject@AFX_COM@@QEAAJAEBU_GUID@@0PEAPEAX@Z 0000000140038800     Viewex.obj
 0002:00009828       $cppxdata$??0CWinApp@@QEAA@XZ 0000000140038828     Viewex.obj
 0002:00009850       $cppxdata$??1CModuleThreadState@@QEAA@XZ 0000000140038850     Viewex.obj
 0002:00009878       $cppxdata$??0CModuleThreadState@@QEAA@XZ 0000000140038878     Viewex.obj
 0002:000098a0       $cppxdata$??1CWinApp@@QEAA@XZ 00000001400388a0     Viewex.obj
 0002:000098c8       $cppxdata$??1CCommandLineInfo@@QEAA@XZ 00000001400388c8     Viewex.obj
 0002:000098f0       $cppxdata$?SetDefaultTitle@CMultiDocTemplate@@UEAAXPEAVCDocument@@@Z 00000001400388f0     Viewex.obj
 0002:00009918       $cppxdata$?OpenDocumentFile@CMultiDocTemplate@@UEAAPEAVCDocument@@PEBDHH@Z 0000000140038918     Viewex.obj
 0002:00009940       $cppxdata$?OnAppAbout@CViewExApp@@QEAAXXZ 0000000140038940     Viewex.obj
 0002:00009968       $cppxdata$?InitInstance@CViewExApp@@UEAAHXZ 0000000140038968     Viewex.obj
 0002:00009990       ?ExceptionTemplate@?1??_UnwindNestedFrames@@9@4U_EXCEPTION_RECORD@@B 0000000140038990     LIBCMT:trnsctrl.obj
 0002:0000b930       $unwind$??_GCEnterDlg@@UEAAPEAXI@Z 000000014003a930     Enterdlg.obj
 0002:0000b944       $stateUnwindMap$??1CEnterDlg@@UEAA@XZ 000000014003a944     Enterdlg.obj
 0002:0000b944       $stateUnwindMap$??_GCEnterDlg@@UEAAPEAXI@Z 000000014003a944     Enterdlg.obj
 0002:0000b950       $ip2state$??_GCEnterDlg@@UEAAPEAXI@Z 000000014003a950     Enterdlg.obj
 0002:0000b968       $unwind$??1CEnterDlg@@UEAA@XZ 000000014003a968     Enterdlg.obj
 0002:0000b978       $ip2state$??1CEnterDlg@@UEAA@XZ 000000014003a978     Enterdlg.obj
 0002:0000b990       $unwind$_mtdeletelocks     000000014003a990     LIBCMT:mlock.obj
 0002:0000b990       $unwind$?ExecuteDlgInit@CWnd@@QEAAHPEBD@Z 000000014003a990     Enterdlg.obj
 0002:0000b990       $unwind$_XcptFilter        000000014003a990     LIBCMT:winxfltr.obj
 0002:0000b990       $unwind$_gmtime64_s        000000014003a990     LIBCMT:gmtime64.obj
 0002:0000b990       $unwind$?CalcWindowRect@CWMHnd@@UEAAXPEAUtagRECT@@I@Z 000000014003a990     Enterdlg.obj
 0002:0000b990       $unwind$?__StateFromIp@@YAHPEBU_s_FuncInfo@@PEAU_xDISPATCHER_CONTEXT@@_J@Z 000000014003a990     LIBCMT:ehstate.obj
 0002:0000b990       $unwind$?AddDocTemplate@CWinApp@@QEAAXPEAVCDocTemplate@@@Z 000000014003a990     Viewex.obj
 0002:0000b990       $unwind$_initterm          000000014003a990     LIBCMT:crt0dat.obj
 0002:0000b990       $unwind$__freetlocinfo     000000014003a990     LIBCMT:localref.obj
 0002:0000b990       $unwind$?GetFile@CDocument@@QEAAPEAVCFile@@PEBDIPEAVCFileException@@@Z 000000014003a990     Maindoc.obj
 0002:0000b990       $unwind$?SetActiveView@CFrameWnd@@QEAAXPEAVCView@@H@Z 000000014003a990     Inputvw.obj
 0002:0000b990       $unwind$?CbtFilterHook@CWnd@@SA_JH_K_J@Z 000000014003a990     Enterdlg.obj
 0002:0000b990       $unwind$?OnNotify@CSplitterWnd@@UEAAH_K_JPEA_J@Z 000000014003a990     Splitter.obj
 0002:0000b990       $unwind$?GetBuffer@CString@WTL@@QEAAPEADH@Z 000000014003a990     Enterdlg.obj
 0002:0000b990       $unwind$?setSBCS@@YAXPEAUthreadmbcinfostruct@@@Z 000000014003a990     LIBCMT:mbctype.obj
 0002:0000b990       $unwind$?OnUpdateFrameMenu@CMDIChildWnd@@QEAAXHPEAVCWnd@@PEAUHMENU__@@@Z 000000014003a990     Splitter.obj
 0002:0000b990       $unwind$?CreateIndirect@CDialog@@UEAAHPEAXPEAVCWnd@@PEAUHINSTANCE__@@@Z 000000014003a990     Enterdlg.obj
 0002:0000b990       $unwind$?DDX_Radio@@YAXPEAVCDataExchange@@HAEAH@Z 000000014003a990     Inputvw.obj
 0002:0000b9a4       $unwind$_initterm_e        000000014003a9a4     LIBCMT:crt0dat.obj
 0002:0000b9a4       $unwind$?OnNewDocument@CMainDoc@@MEAAHXZ 000000014003a9a4     Maindoc.obj
 0002:0000b9a4       $unwind$??_Gbad_exception@std@@UEAAPEAXI@Z 000000014003a9a4     LIBCMT:frame.obj
 0002:0000b9a4       $unwind$?PumpMessage@CWinApp@@UEAAHXZ 000000014003a9a4     Viewex.obj
 0002:0000b9a4       $unwind$??_GCMDIChildWnd@@UEAAPEAXI@Z 000000014003a9a4     Splitter.obj
 0002:0000b9a4       $unwind$??_GCDialog@@UEAAPEAXI@Z 000000014003a9a4     Enterdlg.obj
 0002:0000b9a4       $unwind$??_Gtype_info@@UEAAPEAXI@Z 000000014003a9a4     LIBCMT:typinfo.obj
 0002:0000b9a4       $unwind$??_GCWnd@@UEAAPEAXI@Z 000000014003a9a4     Enterdlg.obj
 0002:0000b9a4       $unwind$?OnSize@CFrameWnd@@QEAAXIHH@Z 000000014003a9a4     Splitter.obj
 0002:0000b9a4       $unwind$?OnOK@CNewTypeDlg@@UEAAXXZ 000000014003a9a4     Viewex.obj
 0002:0000b9a4       $unwind$?OnUpdateMDIWindowCmd@CMDIFrameWnd@@QEAAXPEAVCCmdUI@@@Z 000000014003a9a4     Stdafx.obj
 0002:0000b9a4       $unwind$??0CScrollView@@QEAA@XZ 000000014003a9a4     Inputvw.obj
 0002:0000b9a4       $unwind$?OnUpdateFrameTitle@CFrameWnd@@UEAAXH@Z 000000014003a9a4     Splitter.obj
 0002:0000b9a4       $unwind$??4CString@WTL@@QEAAAEAV01@AEBV01@@Z 000000014003a9a4     Inputvw.obj
 0002:0000b9a4       $unwind$_FindAndUnlinkFrame 000000014003a9a4     LIBCMT:trnsctrl.obj
 0002:0000b9a4       $unwind$??_GCPaintDCMTL@@UEAAPEAXI@Z 000000014003a9a4     Inputvw.obj
 0002:0000b9a4       $unwind$?PreTranslateMessage@CWnd@@UEAAHPEAUtagMSG@@@Z 000000014003a9a4     Enterdlg.obj
 0002:0000b9a4       $unwind$??_GCNewTypeDlg@@UEAAPEAXI@Z 000000014003a9a4     Viewex.obj
 0002:0000b9a4       $unwind$?Create@CDialog@@UEAAHPEBDPEAVCWnd@@@Z 000000014003a9a4     Enterdlg.obj
 0002:0000b9a4       $unwind$_RTC_Terminate     000000014003a9a4     LIBCMT:initsect.obj
 0002:0000b9a4       $unwind$?CopyBeforeWrite@CString@WTL@@IEAAXXZ 000000014003a9a4     Enterdlg.obj
 0002:0000b9a4       $unwind$?DoDataExchange@CInputView@@MEAAXPEAVCDataExchange@@@Z 000000014003a9a4     Inputvw.obj
 0002:0000b9a4       $unwind$_lock              000000014003a9a4     LIBCMT:mlock.obj
 0002:0000b9a4       $unwind$__initstdio        000000014003a9a4     LIBCMT:_file.obj
 0002:0000b9a4       $unwind$??_GCMultiDocTemplate@@UEAAPEAXI@Z 000000014003a9a4     Viewex.obj
 0002:0000b9a4       $unwind$?RemoveFrameWnd@CFrameWnd@@QEAAXXZ 000000014003a9a4     Splitter.obj
 0002:0000b9a4       $unwind$??_Gbad_alloc@std@@UEAAPEAXI@Z 000000014003a9a4     LIBCMT:new.obj
 0002:0000b9a4       $unwind$??_GCWindowDCMTL@@UEAAPEAXI@Z 000000014003a9a4     Inputvw.obj
 0002:0000b9a4       $unwind$??_G_AFX_MOUSEANCHORWND@@UEAAPEAXI@Z 000000014003a9a4     Inputvw.obj
 0002:0000b9a4       $unwind$?AfxClassInit@@YAXPEAUCRuntimeClass@@@Z 000000014003a9a4     Maindoc.obj
 0002:0000b9a4       $unwind$_wincmdln          000000014003a9a4     LIBCMT:wincmdln.obj
 0002:0000b9a4       $unwind$?SetCheck@CCmdUI@@UEAAXH@Z 000000014003a9a4     Enterdlg.obj
 0002:0000b9a4       $unwind$??0CSplitterWnd@@QEAA@XZ 000000014003a9a4     Splitter.obj
 0002:0000b9a4       $unwind$?SetRadio@CCmdUI@@UEAAXH@Z 000000014003a9a4     Enterdlg.obj
 0002:0000b9a4       $unwind$?Init@CDynamicStdCallThunk@ATL@@QEAAH_KPEAX@Z 000000014003a9a4     Enterdlg.obj
 0002:0000b9a4       $unwind$_RTC_Initialize    000000014003a9a4     LIBCMT:initsect.obj
 0002:0000b9a4       $unwind$_getptd_noexit     000000014003a9a4     LIBCMT:tidtable.obj
 0002:0000b9a4       $unwind$??0CAtlBaseModule@ATL@@QEAA@XZ 000000014003a9a4     atls:atlbase.obj
 0002:0000b9a4       $unwind$??_GCMDIFrameWnd@@UEAAPEAXI@Z 000000014003a9a4     Stdafx.obj
 0002:0000b9a4       $unwind$?SaveDC@CDCMTL@@UEAAHXZ 000000014003a9a4     Enterdlg.obj
 0002:0000b9a4       $unwind$?AfxIsDescendant@CFrameWnd@@SAHPEAUHWND__@@0@Z 000000014003a9a4     Splitter.obj
 0002:0000b9a4       $unwind$_initp_misc_cfltcvt_tab 000000014003a9a4     LIBCMT:cmiscdat.obj
 0002:0000b9a4       $unwind$_close_nolock      000000014003a9a4     LIBCMT:close.obj
 0002:0000b9a4       $unwind$_fclose_nolock     000000014003a9a4     LIBCMT:fclose.obj
 0002:0000b9a4       $unwind$?PreTranslateMessage@CMDIFrameWnd@@UEAAHPEAUtagMSG@@@Z 000000014003a9a4     Stdafx.obj
 0002:0000b9a4       $unwind$?RestoreDC@CDCMTL@@UEAAHH@Z 000000014003a9a4     Enterdlg.obj
 0002:0000b9a4       $unwind$?__AllocStdCallThunk@ATL@@YAPEAXXZ 000000014003a9a4     atls:atlthunk.obj
 0002:0000b9a4       $unwind$_calloc_impl       000000014003a9a4     LIBCMT:calloc_impl.obj
 0002:0000b9a4       $unwind$?__SetUnwindTryBlock@@YAXPEA_KPEAU_xDISPATCHER_CONTEXT@@PEBU_s_FuncInfo@@H@Z 000000014003a9a4     LIBCMT:ehstate.obj
 0002:0000b9a4       $unwind$?__InitializeThunkPool@@YAHXZ 000000014003a9a4     atls:atlthunk.obj
 0002:0000b9a4       $unwind$??4exception@std@@QEAAAEAV01@AEBV01@@Z 000000014003a9a4     LIBCMT:stdexcpt.obj
 0002:0000b9a4       $unwind$_updatetlocinfoEx_nolock 000000014003a9a4     LIBCMT:localref.obj
 0002:0000b9a4       $unwind$?UnsubclassWindow@CWMHnd@@QEAAPEAUHWND__@@XZ 000000014003a9a4     Enterdlg.obj
 0002:0000b9a4       $unwind$??_GCSplitterFrame@@UEAAPEAXI@Z 000000014003a9a4     Splitter.obj
 0002:0000b9a4       $unwind$_dosmaperr         000000014003a9a4     LIBCMT:dosmap.obj
 0002:0000b9a4       $unwind$?GetInsideRect@CSplitterWnd@@UEBAXAEAVCRect@WTL@@@Z 000000014003a9a4     Splitter.obj
 0002:0000b9a4       $unwind$??_GCFileDialogMTL@@UEAAPEAXI@Z 000000014003a9a4     Maindoc.obj
 0002:0000b9a4       $unwind$?HookWindowCreate@CWnd@@SAHPEAV1@G@Z 000000014003a9a4     Enterdlg.obj
 0002:0000b9a4       $unwind$??_Gexception@std@@UEAAPEAXI@Z 000000014003a9a4     LIBCMT:stdexcpt.obj
 0002:0000b9a4       $unwind$?DeleteView@CSplitterWnd@@UEAAXHH@Z 000000014003a9a4     Splitter.obj
 0002:0000b9a4       $unwind$??_GC3WaySplitterFrame@@UEAAPEAXI@Z 000000014003a9a4     Splitter.obj
 0002:0000b9a4       $unwind$??_GCScrollView@@UEAAPEAXI@Z 000000014003a9a4     Inputvw.obj
 0002:0000b9a4       $unwind$?AtlWinModuleExtractCreateWndData@ATL@@YAPEAXPEAU_ATL_WIN_MODULE70@1@@Z 000000014003a9a4     Enterdlg.obj
 0002:0000b9a4       $unwind$?_ProcessWindowMessage@CDocument@@UEAAHPEAUHWND__@@I_K_JAEA_J@Z 000000014003a9a4     Maindoc.obj
 0002:0000b9a4       $unwind$?PreTranslateMessage@CFrameWnd@@UEAAHPEAUtagMSG@@@Z 000000014003a9a4     Splitter.obj
 0002:0000b9a4       $unwind$?PreCreateWindow@CWnd@@UEAAHAEAUtagCREATESTRUCTA@@@Z 000000014003a9a4     Enterdlg.obj
 0002:0000b9a4       $unwind$?RemoveView@CDocument@@QEAAXPEAVCView@@@Z 000000014003a9a4     Inputvw.obj
 0002:0000b9a4       $unwind$_fptostr           000000014003a9a4     LIBCMT:_fptostr.obj
 0002:0000b9a4       $unwind$??_GCFrameWnd@@UEAAPEAXI@Z 000000014003a9a4     Splitter.obj
 0002:0000b9b0       $unwind$_mtinitlocks       000000014003a9b0     LIBCMT:mlock.obj
 0002:0000b9b0       $unwind$?OnPrintClient@CView@@QEAA_JPEAVCDCMTL@@I@Z 000000014003a9b0     Inputvw.obj
 0002:0000b9b0       $unwind$?AddView@CDocument@@QEAAXPEAVCView@@@Z 000000014003a9b0     Inputvw.obj
 0002:0000b9b0       $unwind$_flush             000000014003a9b0     LIBCMT:fflush.obj
 0002:0000b9b0       $unwind$_lseeki64_nolock   000000014003a9b0     LIBCMT:lseeki64.obj
 0002:0000b9b0       $unwind$?OnNotify@CFileDialogMTL@@UEAAH_K_JPEA_J@Z 000000014003a9b0     Maindoc.obj
 0002:0000b9b0       $unwind$?AddFrameWnd@CFrameWnd@@QEAAXXZ 000000014003a9b0     Splitter.obj
 0002:0000b9b0       $unwind$?OnCreateHelper@CFrameWnd@@QEAAHPEAUtagCREATESTRUCTA@@PEAUCCreateContext@@@Z 000000014003a9b0     Splitter.obj
 0002:0000b9b0       $unwind$?DDX_Text@@YAXPEAVCDataExchange@@HAEAVCString@WTL@@@Z 000000014003a9b0     Enterdlg.obj
 0002:0000b9b0       $unwind$?AddDocument@CMultiDocTemplate@@UEAAXPEAVCDocument@@@Z 000000014003a9b0     Viewex.obj
 0002:0000b9b0       $unwind$memcpy_s           000000014003a9b0     LIBCMT:memcpy_s.obj
 0002:0000b9b0       $unwind$?ShowControlBar@CFrameWnd@@QEAAXPEAVCControlBar@@HH@Z 000000014003a9b0     Splitter.obj
 0002:0000b9b0       $unwind$?RemoveHandle@?$CHandleList@PEAUHDC__@@VCDCMTL@@PEAUHWND__@@@@QEAAPEAUHDC__@@QEAU2@@Z 000000014003a9b0     Enterdlg.obj
 0002:0000b9b0       $unwind$?OnActivateView@CFormView@@UEAAXHPEAVCView@@0@Z 000000014003a9b0     Inputvw.obj
 0002:0000b9b0       $unwind$??0C3WaySplitterFrame@@IEAA@XZ 000000014003a9b0     Splitter.obj
 0002:0000b9b0       $unwind$_getenv_helper_nolock 000000014003a9b0     LIBCMT:getenv.obj
 0002:0000b9b0       $unwind$malloc             000000014003a9b0     LIBCMT:malloc.obj
 0002:0000b9b0       $unwind$?SetTitle@CDocument@@UEAAXPEBD@Z 000000014003a9b0     Maindoc.obj
 0002:0000b9b0       $unwind$?RemoveHandle@?$CHandleHashList@PEAUHWND__@@VCWMHnd@@PEAU1@$0BB@@@QEAAPEAUHWND__@@QEAU2@@Z 000000014003a9b0     Enterdlg.obj
 0002:0000b9b0       $unwind$?RemoveHandle@?$CHandleList@PEAXVCGdiObject@@PEAUHWND__@@@@QEAAPEAXQEAX@Z 000000014003a9b0     Inputvw.obj
 0002:0000b9b0       $unwind$?OnCommand@CMDIFrameWnd@@UEAAH_K_J@Z 000000014003a9b0     Stdafx.obj
 0002:0000b9b0       $unwind$??0CString@WTL@@QEAA@PEBD@Z 000000014003a9b0     Maindoc.obj
 0002:0000b9b0       $unwind$?ActivateFrame@CFrameWnd@@UEAAXH@Z 000000014003a9b0     Splitter.obj
 0002:0000b9b0       $unwind$realloc            000000014003a9b0     LIBCMT:realloc.obj
 0002:0000b9b0       $unwind$?RemoveHandle@?$CHandleList@PEAUHMENU__@@VCMenuMTL@@PEAUHWND__@@@@QEAAPEAUHMENU__@@QEAU2@@Z 000000014003a9b0     Enterdlg.obj
 0002:0000b9b0       $unwind$?OnSysCommand@CSplitterWnd@@QEAAXI_J@Z 000000014003a9b0     Splitter.obj
 0002:0000b9b0       $unwind$_recalloc          000000014003a9b0     LIBCMT:recalloc.obj
 0002:0000b9b0       $unwind$?EnableScrollBarCtrl@CWMHnd@@QEAAXHH@Z 000000014003a9b0     Inputvw.obj
 0002:0000b9b0       $unwind$?AfxExtractSubString@CAfx@@SAHAEAVCString@WTL@@PEBDHD@Z 000000014003a9b0     Splitter.obj
 0002:0000b9b0       $unwind$?WalkPreTranslateTree@CWnd@@SAHPEAUHWND__@@PEAUtagMSG@@@Z 000000014003a9b0     Viewex.obj
 0002:0000b9c0       $unwind$?OnToolHitTest@CWnd@@UEBA_JVCPoint@WTL@@PEAUtagTOOLINFOA@@@Z 000000014003a9c0     Enterdlg.obj
 0002:0000b9c0       $unwind$?AssignCopy@CString@WTL@@IEAAXHPEBD@Z 000000014003a9c0     Enterdlg.obj
 0002:0000b9d0       $chain$0$?AssignCopy@CString@WTL@@IEAAXHPEBD@Z 000000014003a9d0     Enterdlg.obj
 0002:0000b9e4       $chain$1$?AssignCopy@CString@WTL@@IEAAXHPEBD@Z 000000014003a9e4     Enterdlg.obj
 0002:0000b9f4       $chain$2$?AssignCopy@CString@WTL@@IEAAXHPEBD@Z 000000014003a9f4     Enterdlg.obj
 0002:0000ba08       $unwind$?SetText@CCmdUI@@UEAAXPEBD@Z 000000014003aa08     Enterdlg.obj
 0002:0000ba08       $unwind$?OnKeyDown@CSplitterWnd@@QEAAXIII@Z 000000014003aa08     Splitter.obj
 0002:0000ba08       $unwind$?_ProcessWindowMessage@CDialog@@UEAAHPEAUHWND__@@I_K_JAEA_J@Z 000000014003aa08     Enterdlg.obj
 0002:0000ba14       $unwind$?OnCmdMsg@CDocument@@UEAAHIHPEAXPEAUAFX_CMDHANDLERINFO@@@Z 000000014003aa14     Maindoc.obj
 0002:0000ba14       $unwind$?CreateDlgIndirect@CWnd@@QEAAHPEBUDLGTEMPLATE@@PEAV1@PEAUHINSTANCE__@@@Z 000000014003aa14     Enterdlg.obj
 0002:0000ba14       $unwind$?Run@CWinApp@@UEAAHXZ 000000014003aa14     Viewex.obj
 0002:0000ba14       $unwind$?OnInvertTracker@CSplitterWnd@@UEAAXAEBVCRect@WTL@@@Z 000000014003aa14     Splitter.obj
 0002:0000ba14       $unwind$?OnCmdMsg@CMDIFrameWnd@@UEAAHIHPEAXPEAUAFX_CMDHANDLERINFO@@@Z 000000014003aa14     Stdafx.obj
 0002:0000ba14       $unwind$?OnCmdMsg@CView@@UEAAHIHPEAXPEAUAFX_CMDHANDLERINFO@@@Z 000000014003aa14     Inputvw.obj
 0002:0000ba14       $unwind$?OnCmdMsg@CFrameWnd@@UEAAHIHPEAXPEAUAFX_CMDHANDLERINFO@@@Z 000000014003aa14     Splitter.obj
 0002:0000ba14       $unwind$?OnCmdMsg@CDialog@@UEAAHIHPEAXPEAUAFX_CMDHANDLERINFO@@@Z 000000014003aa14     Enterdlg.obj
 0002:0000ba2c       $unwind$?PreTranslateMessage@CDialog@@UEAAHPEAUtagMSG@@@Z 000000014003aa2c     Enterdlg.obj
 0002:0000ba40       $unwind$_mbschr_l          000000014003aa40     LIBCMT:mbschr.obj
 0002:0000ba40       $unwind$?AfxLoadString@CAfx@@SAHIPEADI@Z 000000014003aa40     Splitter.obj
 0002:0000ba40       $unwind$?x_ismbbtype_l@@YAHPEAUlocaleinfo_struct@@IHH@Z 000000014003aa40     LIBCMT:ismbbyte.obj
 0002:0000ba40       $unwind$_mbsrchr_l         000000014003aa40     LIBCMT:mbsrchr.obj
 0002:0000ba40       $unwind$??4CString@WTL@@QEAAAEAV01@PEB_W@Z 000000014003aa40     Maindoc.obj
 0002:0000ba40       $unwind$?OnOK@CCommonDialog@@UEAAXXZ 000000014003aa40     Maindoc.obj
 0002:0000ba40       $unwind$?OnUpdate@CInputView@@MEAAXPEAVCView@@_JPEAVCObject@@@Z 000000014003aa40     Inputvw.obj
 0002:0000ba40       $unwind$_mbscmp_l          000000014003aa40     LIBCMT:mbscmp.obj
 0002:0000ba40       $unwind$?OnInitialUpdate@CFormView@@UEAAXXZ 000000014003aa40     Inputvw.obj
 0002:0000ba40       $unwind$?OnOK@CDialog@@UEAAXXZ 000000014003aa40     Enterdlg.obj
 0002:0000ba50       $unwind$?classHandleFuncCWnd@CWnd@@SAPEAXPEAX0@Z 000000014003aa50     Enterdlg.obj
 0002:0000ba50       $unwind$??0_AUX_DATA@@QEAA@XZ 000000014003aa50     Inputvw.obj
 0002:0000ba50       $unwind$__crtLoadWinApiPointers 000000014003aa50     LIBCMT:winapisupp.obj
 0002:0000ba50       $unwind$?PreCreateWindow@CMDIFrameWnd@@UEAAHAEAUtagCREATESTRUCTA@@@Z 000000014003aa50     Stdafx.obj
 0002:0000ba50       $unwind$?classHandleFuncCDCMTL@CDCMTL@@SAPEAXPEAX0@Z 000000014003aa50     Splitter.obj
 0002:0000ba50       $unwind$?OnIdleUpdateCmdUI@CFrameWnd@@QEAAXXZ 000000014003aa50     Splitter.obj
 0002:0000ba50       $unwind$?__GetUnwindTryBlock@@YAHPEA_KPEAU_xDISPATCHER_CONTEXT@@PEBU_s_FuncInfo@@@Z 000000014003aa50     LIBCMT:ehstate.obj
 0002:0000ba50       $unwind$?PreCreateWindow@CView@@UEAAHAEAUtagCREATESTRUCTA@@@Z 000000014003aa50     Inputvw.obj
 0002:0000ba50       $unwind$?classHandleFuncCBrushMTL@CBrushMTL@@SAPEAXPEAX0@Z 000000014003aa50     Splitter.obj
 0002:0000ba50       $unwind$?GetActiveFrame@CMDIFrameWnd@@UEAAPEAVCFrameWnd@@XZ 000000014003aa50     Stdafx.obj
 0002:0000ba50       $unwind$wcsncpy_s          000000014003aa50     LIBCMT:wcsncpy_s.obj
 0002:0000ba50       $unwind$_freebuf           000000014003aa50     LIBCMT:_freebuf.obj
 0002:0000ba50       $unwind$??1?$CRgnT@$00@WTL@@QEAA@XZ 000000014003aa50     Inputvw.obj
 0002:0000ba50       $unwind$??0exception@std@@QEAA@AEBQEBD@Z 000000014003aa50     LIBCMT:stdexcpt.obj
 0002:0000ba50       $unwind$??1CAtlBaseModule@ATL@@QEAA@XZ 000000014003aa50     atls:atlbase.obj
 0002:0000ba50       $unwind$_SetThrowImageBase 000000014003aa50     LIBCMT:trnsctrl.obj
 0002:0000ba50       $unwind$__crtIsPackagedApp 000000014003aa50     LIBCMT:winapisupp.obj
 0002:0000ba50       $unwind$__crtTerminateProcess 000000014003aa50     LIBCMT:winapisupp.obj
 0002:0000ba50       $unwind$??0exception@std@@QEAA@AEBV01@@Z 000000014003aa50     LIBCMT:stdexcpt.obj
 0002:0000ba50       $unwind$_SetImageBase      000000014003aa50     LIBCMT:trnsctrl.obj
 0002:0000ba50       $unwind$?DoFileSave@CDocument@@QEAAHXZ 000000014003aa50     Maindoc.obj
 0002:0000ba50       $unwind$?OnDestroy@CFrameWnd@@QEAAXXZ 000000014003aa50     Splitter.obj
 0002:0000ba50       $unwind$?_ProcessWindowMessage@CViewExApp@@UEAAHPEAUHWND__@@I_K_JAEA_J@Z 000000014003aa50     Viewex.obj
 0002:0000ba50       $unwind$_getptd            000000014003aa50     LIBCMT:tidtable.obj
 0002:0000ba50       $unwind$?OnFileSave@CDocument@@QEAAXXZ 000000014003aa50     Maindoc.obj
 0002:0000ba50       $unwind$??0bad_exception@std@@QEAA@AEBV01@@Z 000000014003aa50     LIBCMT:frame.obj
 0002:0000ba50       $unwind$??0CAtlWinModule@ATL@@QEAA@XZ 000000014003aa50     Enterdlg.obj
 0002:0000ba50       $unwind$?OnInitDialog@CWMHnd@@UEAAHXZ 000000014003aa50     Enterdlg.obj
 0002:0000ba50       $unwind$wcscpy_s           000000014003aa50     LIBCMT:wcscpy_s.obj
 0002:0000ba50       $unwind$?ReleaseFile@CDocument@@UEAAXPEAVCFile@@H@Z 000000014003aa50     Maindoc.obj
 0002:0000ba50       $unwind$_mtinit            000000014003aa50     LIBCMT:tidtable.obj
 0002:0000ba50       $unwind$??1?$CBrushT@$00@WTL@@QEAA@XZ 000000014003aa50     Simpvw.obj
 0002:0000ba50       $unwind$?CreateNewDocument@CDocTemplate@@UEAAPEAVCDocument@@XZ 000000014003aa50     Viewex.obj
 0002:0000ba50       $unwind$__crtUnhandledException 000000014003aa50     LIBCMT:winapisupp.obj
 0002:0000ba50       $unwind$__onexitinit       000000014003aa50     LIBCMT:onexit.obj
 0002:0000ba50       $unwind$?DelayUpdateFrameMenu@CMDIFrameWnd@@UEAAXPEAUHMENU__@@@Z 000000014003aa50     Stdafx.obj
 0002:0000ba50       $unwind$_IsExceptionObjectToBeDestroyed 000000014003aa50     LIBCMT:trnsctrl.obj
 0002:0000ba50       $unwind$_callnewh          000000014003aa50     LIBCMT:handler.obj
 0002:0000ba50       $unwind$__GSHandlerCheckCommon 000000014003aa50     LIBCMT:gshandler.obj
 0002:0000ba50       $unwind$_CreateFrameInfo   000000014003aa50     LIBCMT:trnsctrl.obj
 0002:0000ba50       $unwind$?SetScrollStyle@CSplitterWnd@@QEAAXK@Z 000000014003aa50     Splitter.obj
 0002:0000ba50       $unwind$?_ProcessWindowMessage@CWinApp@@UEAAHPEAUHWND__@@I_K_JAEA_J@Z 000000014003aa50     Viewex.obj
 0002:0000ba50       $unwind$?SetMenuBarState@CFrameWnd@@QEAAHK@Z 000000014003aa50     Splitter.obj
 0002:0000ba50       $unwind$??0_LocaleUpdate@@QEAA@PEAUlocaleinfo_struct@@@Z 000000014003aa50     LIBCMT:mbscmp.obj
 0002:0000ba50       $unwind$?classHandleFuncCMenuMTL@CMenuMTL@@SAPEAXPEAX0@Z 000000014003aa50     Enterdlg.obj
 0002:0000ba50       $unwind$?PreCreateWindow@CFrameWnd@@UEAAHAEAUtagCREATESTRUCTA@@@Z 000000014003aa50     Splitter.obj
 0002:0000ba50       $unwind$wcscat_s           000000014003aa50     LIBCMT:wcscat_s.obj
 0002:0000ba50       $unwind$?Empty@CString@WTL@@QEAAXXZ 000000014003aa50     Maindoc.obj
 0002:0000ba50       $unwind$strncpy_s          000000014003aa50     LIBCMT:strncpy_s.obj
 0002:0000ba50       $unwind$?PreCreateWindow@CMDIChildWnd@@UEAAHAEAUtagCREATESTRUCTA@@@Z 000000014003aa50     Splitter.obj
 0002:0000ba50       $unwind$??0bad_alloc@std@@QEAA@AEBV01@@Z 000000014003aa50     LIBCMT:new.obj
 0002:0000ba50       $unwind$?CanActivateNext@CSplitterWnd@@UEAAHH@Z 000000014003aa50     Splitter.obj
 0002:0000ba50       $unwind$fast_error_exit    000000014003aa50     LIBCMT:wincrt0.obj
 0002:0000ba50       $unwind$strcpy_s           000000014003aa50     LIBCMT:strcpy_s.obj
 0002:0000ba50       $unwind$?RemoveDocument@CMultiDocTemplate@@UEAAXPEAVCDocument@@@Z 000000014003aa50     Viewex.obj
 0002:0000ba50       $unwind$?_Tidy@exception@std@@AEAAXXZ 000000014003aa50     LIBCMT:stdexcpt.obj
 0002:0000ba50       $unwind$?Seek@CFile@@UEAA_K_JI@Z 000000014003aa50     Maindoc.obj
 0002:0000ba50       $unwind$?GetDefaultAccelerator@CFrameWnd@@UEAAPEAUHACCEL__@@XZ 000000014003aa50     Splitter.obj
 0002:0000ba50       $unwind$?classHandleFuncCWMHnd@CWMHnd@@SAPEAXPEAX0@Z 000000014003aa50     Enterdlg.obj
 0002:0000ba50       $unwind$?OnCancel@CCommonDialog@@UEAAXXZ 000000014003aa50     Maindoc.obj
 0002:0000ba50       $unwind$?Abort@CFile@@UEAAXXZ 000000014003aa50     Maindoc.obj
 0002:0000ba50       $unwind$??1?$CMenuT@$00@WTL@@QEAA@XZ 000000014003aa50     Enterdlg.obj
 0002:0000ba50       $unwind$?OnIdleUpdateCmdUI@CMDIFrameWnd@@QEAAXXZ 000000014003aa50     Stdafx.obj
 0002:0000ba50       $unwind$?GetLength@CFile@@UEBA_KXZ 000000014003aa50     Maindoc.obj
 0002:0000ba50       $unwind$WinMain            000000014003aa50     Stdafx.obj
 0002:0000ba50       $unwind$?OnCancel@CDialog@@UEAAXXZ 000000014003aa50     Enterdlg.obj
 0002:0000ba50       $unwind$_lock_file         000000014003aa50     LIBCMT:_file.obj
 0002:0000ba50       $unwind$?classHandleFuncCDialog@CDialog@@SAPEAXPEAX0@Z 000000014003aa50     Enterdlg.obj
 0002:0000ba50       $unwind$__raise_securityfailure 000000014003aa50     LIBCMT:gs_report.obj
 0002:0000ba50       $unwind$_lock_file2        000000014003aa50     LIBCMT:_file.obj
 0002:0000ba50       $unwind$?GetActivePane@CViewExSplitWnd@@UEAAPEAVCWnd@@PEAH0@Z 000000014003aa50     Splitter.obj
 0002:0000ba50       $unwind$_mbsinc            000000014003aa50     LIBCMT:mbsinc.obj
 0002:0000ba50       $unwind$_init_pointers     000000014003aa50     LIBCMT:crt0dat.obj
 0002:0000ba50       $unwind$_cinit             000000014003aa50     LIBCMT:crt0dat.obj
 0002:0000ba50       $unwind$__crtCorExitProcess 000000014003aa50     LIBCMT:crt0dat.obj
 0002:0000ba50       $unwind$__crtExitProcess   000000014003aa50     LIBCMT:crt0dat.obj
 0002:0000ba50       $unwind$_amsg_exit         000000014003aa50     LIBCMT:crt0dat.obj
 0002:0000ba50       $unwind$_fflush_nolock     000000014003aa50     LIBCMT:fflush.obj
 0002:0000ba58       $unwind$?WindowProc@_AFX_MOUSEANCHORWND@@UEAA_JI_K_J@Z 000000014003aa58     Inputvw.obj
 0002:0000ba58       $unwind$?OnCreateClient@C3WaySplitterFrame@@UEAAHPEAUtagCREATESTRUCTA@@PEAUCCreateContext@@@Z 000000014003aa58     Splitter.obj
 0002:0000ba58       $unwind$?WindowProc@CWnd@@UEAA_JI_K_J@Z 000000014003aa58     Enterdlg.obj
 0002:0000ba6c       $unwind$?_AfxTopChildWindowFromPoint@CWnd@@SAPEAUHWND__@@PEAU2@UtagPOINT@@@Z 000000014003aa6c     Enterdlg.obj
 0002:0000ba84       $chain$0$?OnToolHitTest@CWnd@@UEBA_JVCPoint@WTL@@PEAUtagTOOLINFOA@@@Z 000000014003aa84     Enterdlg.obj
 0002:0000ba98       $chain$1$?OnToolHitTest@CWnd@@UEBA_JVCPoint@WTL@@PEAUtagTOOLINFOA@@@Z 000000014003aa98     Enterdlg.obj
 0002:0000baa8       $unwind$?GetLastActivePopup@CWnd@@QEAAPEAV1@XZ 000000014003aaa8     Inputvw.obj
 0002:0000baa8       $unwind$?SetActiveWindow@CWnd@@QEAAPEAV1@XZ 000000014003aaa8     Splitter.obj
 0002:0000baa8       $unwind$?GetParent@CWnd@@QEAAPEAV1@XZ 000000014003aaa8     Enterdlg.obj
 0002:0000baa8       $unwind$?GetDlgItem@CWnd@@QEAAPEAV1@H@Z 000000014003aaa8     Splitter.obj
 0002:0000baa8       $unwind$?SetCapture@CWnd@@QEAAPEAV1@XZ 000000014003aaa8     Inputvw.obj
 0002:0000bac0       $chain$3$?GetParent@CWnd@@QEAAPEAV1@XZ 000000014003aac0     Enterdlg.obj
 0002:0000bad4       $chain$4$?GetParent@CWnd@@QEAAPEAV1@XZ 000000014003aad4     Enterdlg.obj
 0002:0000bad4       $chain$8$?GetParent@CWnd@@QEAAPEAV1@XZ 000000014003aad4     Enterdlg.obj
 0002:0000bae4       $chain$5$?GetParent@CWnd@@QEAAPEAV1@XZ 000000014003aae4     Enterdlg.obj
 0002:0000baf8       $chain$6$?GetParent@CWnd@@QEAAPEAV1@XZ 000000014003aaf8     Enterdlg.obj
 0002:0000bb0c       $chain$7$?GetParent@CWnd@@QEAAPEAV1@XZ 000000014003ab0c     Enterdlg.obj
 0002:0000bb1c       $unwind$?PreTranslateMessage@CMDIChildWnd@@UEAAHPEAUtagMSG@@@Z 000000014003ab1c     Splitter.obj
 0002:0000bb1c       $unwind$?SaveAllModified@CDocManager@@QEAAHXZ 000000014003ab1c     Splitter.obj
 0002:0000bb1c       $unwind$?TrackColumnSize@CSplitterWnd@@UEAAXHH@Z 000000014003ab1c     Splitter.obj
 0002:0000bb1c       $unwind$?ActivateNext@CSplitterWnd@@UEAAXH@Z 000000014003ab1c     Splitter.obj
 0002:0000bb1c       $unwind$?TrackRowSize@CSplitterWnd@@UEAAXHH@Z 000000014003ab1c     Splitter.obj
 0002:0000bb1c       $unwind$?Enable@CCmdUI@@UEAAXH@Z 000000014003ab1c     Enterdlg.obj
 0002:0000bb28       $chain$0$?Enable@CCmdUI@@UEAAXH@Z 000000014003ab28     Enterdlg.obj
 0002:0000bb3c       $chain$1$?Enable@CCmdUI@@UEAAXH@Z 000000014003ab3c     Enterdlg.obj
 0002:0000bb4c       $unwind$?AfxSetWindowText@CAfx@@SAXPEAUHWND__@@PEBD@Z 000000014003ab4c     Enterdlg.obj
 0002:0000bb68       $unwind$?OnCommand@CWnd@@UEAAH_K_J@Z 000000014003ab68     Enterdlg.obj
 0002:0000bb80       $unwind$??_GCDCMTL@@UEAAPEAXI@Z 000000014003ab80     Enterdlg.obj
 0002:0000bb94       $stateUnwindMap$??_GCDCMTL@@UEAAPEAXI@Z 000000014003ab94     Enterdlg.obj
 0002:0000bb94       $stateUnwindMap$??1CPaintDCMTL@@UEAA@XZ 000000014003ab94     Inputvw.obj
 0002:0000bb94       $stateUnwindMap$??1CDCMTL@@UEAA@XZ 000000014003ab94     Enterdlg.obj
 0002:0000bb94       $stateUnwindMap$??1CWindowDCMTL@@UEAA@XZ 000000014003ab94     Inputvw.obj
 0002:0000bba0       $ip2state$??_GCDCMTL@@UEAAPEAXI@Z 000000014003aba0     Enterdlg.obj
 0002:0000bbb8       $unwind$??1CDCMTL@@UEAA@XZ 000000014003abb8     Enterdlg.obj
 0002:0000bbc8       $ip2state$??1CDCMTL@@UEAA@XZ 000000014003abc8     Enterdlg.obj
 0002:0000bbe0       $unwind$?OnNcDestroy@CWnd@@QEAAXXZ 000000014003abe0     Enterdlg.obj
 0002:0000bbf8       $unwind$?_ProcessWindowMessage@CWnd@@UEAAHPEAUHWND__@@I_K_JAEA_J@Z 000000014003abf8     Enterdlg.obj
 0002:0000bc1c       $stateUnwindMap$?_ProcessWindowMessage@CWnd@@UEAAHPEAUHWND__@@I_K_JAEA_J@Z 000000014003ac1c     Enterdlg.obj
 0002:0000bc1c       $stateUnwindMap$?_ProcessWindowMessage@CSplitterWnd@@UEAAHPEAUHWND__@@I_K_JAEA_J@Z 000000014003ac1c     Splitter.obj
 0002:0000bc30       $ip2state$?_ProcessWindowMessage@CWnd@@UEAAHPEAUHWND__@@I_K_JAEA_J@Z 000000014003ac30     Enterdlg.obj
 0002:0000bc50       $unwind$?Create@CSplitterWnd@@UEAAHPEAVCWnd@@HHUtagSIZE@@PEAUCCreateContext@@KI@Z 000000014003ac50     Splitter.obj
 0002:0000bc50       $unwind$?GetMenu@CWMHnd@@UEBAPEAVCMenuMTL@@XZ 000000014003ac50     Enterdlg.obj
 0002:0000bc50       $unwind$?_ProcessWindowMessage@CMainDoc@@UEAAHPEAUHWND__@@I_K_JAEA_J@Z 000000014003ac50     Maindoc.obj
 0002:0000bc50       $unwind$?Tokenize@@YA?AVCString@WTL@@AEAV12@PEADAEAH@Z 000000014003ac50     Maindoc.obj
 0002:0000bc50       $unwind$?GetTopLevelParent@CWnd@@QEAAPEAV1@XZ 000000014003ac50     Inputvw.obj
 0002:0000bc50       $unwind$?OnWndMsg@CWnd@@UEAAHI_K_JPEA_J@Z 000000014003ac50     Enterdlg.obj
 0002:0000bc50       $unwind$?_ProcessWindowMessage@CColorView@@UEAAHPEAUHWND__@@I_K_JAEA_J@Z 000000014003ac50     Simpvw.obj
 0002:0000bc50       $unwind$?Mid@CString@WTL@@QEBA?AV12@H@Z 000000014003ac50     Maindoc.obj
 0002:0000bc50       $unwind$?_ProcessWindowMessage@CTextView@@UEAAHPEAUHWND__@@I_K_JAEA_J@Z 000000014003ac50     Simpvw.obj
 0002:0000bc50       $unwind$_fassign_l         000000014003ac50     LIBCMT:cvt.obj
 0002:0000bc50       $unwind$?LoadFrame@CMDIFrameWnd@@UEAAHIKPEAVCWnd@@PEAUCCreateContext@@@Z 000000014003ac50     Stdafx.obj
 0002:0000bc50       $unwind$?CreateStatic@CSplitterWnd@@UEAAHPEAVCWnd@@HHKI@Z 000000014003ac50     Splitter.obj
 0002:0000bc50       $unwind$?GetOwner@CWnd@@QEAAPEAV1@XZ 000000014003ac50     Inputvw.obj
 0002:0000bc50       $unwind$?_ProcessWindowMessage@CInputView@@UEAAHPEAUHWND__@@I_K_JAEA_J@Z 000000014003ac50     Inputvw.obj
 0002:0000bc50       $unwind$?AfxStringFromCLSID@@YA?AVCString@WTL@@AEBU_GUID@@@Z 000000014003ac50     Viewex.obj
 0002:0000bc50       $unwind$?Read@CFile@@UEAAIPEAXI@Z 000000014003ac50     Maindoc.obj
 0002:0000bc58       $unwind$?ReflectChildNotify@CWnd@@QEAAHI_K_JPEA_J@Z 000000014003ac58     Enterdlg.obj
 0002:0000bc60       $chain$0$?ReflectChildNotify@CWnd@@QEAAHI_K_JPEA_J@Z 000000014003ac60     Enterdlg.obj
 0002:0000bc74       $chain$1$?ReflectChildNotify@CWnd@@QEAAHI_K_JPEA_J@Z 000000014003ac74     Enterdlg.obj
 0002:0000bc84       $unwind$?OnDataChange@CInputView@@IEAAXXZ 000000014003ac84     Inputvw.obj
 0002:0000bc84       $unwind$?OnNotify@CWnd@@UEAAH_K_JPEA_J@Z 000000014003ac84     Enterdlg.obj
 0002:0000bc9c       $unwind$?Create@CWnd@@UEAAHPEBD0KAEBUtagRECT@@PEAV1@IPEAUCCreateContext@@@Z 000000014003ac9c     Enterdlg.obj
 0002:0000bcb4       $unwind$?CreateEx@CWnd@@UEAAHKPEBD0KHHHHPEAUHWND__@@PEAUHMENU__@@PEAX@Z 000000014003acb4     Enterdlg.obj
 0002:0000bcc8       $chain$1$?CreateEx@CWnd@@UEAAHKPEBD0KHHHHPEAUHWND__@@PEAUHMENU__@@PEAX@Z 000000014003acc8     Enterdlg.obj
 0002:0000bcdc       $chain$2$?CreateEx@CWnd@@UEAAHKPEBD0KHHHHPEAUHWND__@@PEAUHMENU__@@PEAX@Z 000000014003acdc     Enterdlg.obj
 0002:0000bcec       $unwind$??1CWnd@@UEAA@XZ   000000014003acec     Enterdlg.obj
 0002:0000bcfc       $stateUnwindMap$??1CWnd@@UEAA@XZ 000000014003acfc     Enterdlg.obj
 0002:0000bcfc       $stateUnwindMap$??_GCWMHnd@@UEAAPEAXI@Z 000000014003acfc     Enterdlg.obj
 0002:0000bd08       $ip2state$??1CWnd@@UEAA@XZ 000000014003ad08     Enterdlg.obj
 0002:0000bd20       $unwind$?GetFocus@CWnd@@SAPEAV1@XZ 000000014003ad20     Splitter.obj
 0002:0000bd20       $unwind$?GetForegroundWindow@CWnd@@SAPEAV1@XZ 000000014003ad20     Inputvw.obj
 0002:0000bd20       $unwind$?GetCapture@CWnd@@SAPEAV1@XZ 000000014003ad20     Splitter.obj
 0002:0000bd20       $unwind$?GetActiveWindow@CWnd@@SAPEAV1@XZ 000000014003ad20     Enterdlg.obj
 0002:0000bd38       $chain$3$?GetActiveWindow@CWnd@@SAPEAV1@XZ 000000014003ad38     Enterdlg.obj
 0002:0000bd4c       $chain$4$?GetActiveWindow@CWnd@@SAPEAV1@XZ 000000014003ad4c     Enterdlg.obj
 0002:0000bd4c       $chain$8$?GetActiveWindow@CWnd@@SAPEAV1@XZ 000000014003ad4c     Enterdlg.obj
 0002:0000bd5c       $chain$5$?GetActiveWindow@CWnd@@SAPEAV1@XZ 000000014003ad5c     Enterdlg.obj
 0002:0000bd70       $chain$6$?GetActiveWindow@CWnd@@SAPEAV1@XZ 000000014003ad70     Enterdlg.obj
 0002:0000bd84       $chain$7$?GetActiveWindow@CWnd@@SAPEAV1@XZ 000000014003ad84     Enterdlg.obj
 0002:0000bd94       $unwind$?AllocBuffer@CString@WTL@@IEAAHH@Z 000000014003ad94     Enterdlg.obj
 0002:0000bda8       $stateUnwindMap$?CreateCommon@CSplitterWnd@@QEAAHPEAVCWnd@@UtagSIZE@@KI@Z 000000014003ada8     Splitter.obj
 0002:0000bda8       $stateUnwindMap$?CreateView@CSplitterWnd@@UEAAHHHPEAUCRuntimeClass@@UtagSIZE@@PEAUCCreateContext@@@Z 000000014003ada8     Splitter.obj
 0002:0000bda8       $stateUnwindMap$?AllocBuffer@CString@WTL@@IEAAHH@Z 000000014003ada8     Enterdlg.obj
 0002:0000bdb8       $tryMap$?AllocBuffer@CString@WTL@@IEAAHH@Z 000000014003adb8     Enterdlg.obj
 0002:0000bdcc       $handlerMap$0$?AllocBuffer@CString@WTL@@IEAAHH@Z 000000014003adcc     Enterdlg.obj
 0002:0000bde0       $ip2state$?AllocBuffer@CString@WTL@@IEAAHH@Z 000000014003ade0     Enterdlg.obj
 0002:0000be00       $unwind$?catch$0@?0??AllocBuffer@CString@WTL@@IEAAHH@Z@4HA 000000014003ae00     Enterdlg.obj
 0002:0000be10       $unwind$?ConcatCopy@CString@WTL@@IEAAHHPEBDH0@Z 000000014003ae10     Enterdlg.obj
 0002:0000be24       $chain$0$?ConcatCopy@CString@WTL@@IEAAHHPEBDH0@Z 000000014003ae24     Enterdlg.obj
 0002:0000be38       $chain$1$?ConcatCopy@CString@WTL@@IEAAHHPEBDH0@Z 000000014003ae38     Enterdlg.obj
 0002:0000be4c       $chain$2$?ConcatCopy@CString@WTL@@IEAAHHPEBDH0@Z 000000014003ae4c     Enterdlg.obj
 0002:0000be5c       $chain$3$?ConcatCopy@CString@WTL@@IEAAHHPEBDH0@Z 000000014003ae5c     Enterdlg.obj
 0002:0000be6c       $unwind$__crtInitializeCriticalSectionEx 000000014003ae6c     LIBCMT:winapisupp.obj
 0002:0000be6c       $unwind$?AtlThrowImpl@ATL@@YAXJ@Z 000000014003ae6c     Enterdlg.obj
 0002:0000be6c       $unwind$?CreateObject@CColorView@@SAPEAVCObject@@XZ 000000014003ae6c     Simpvw.obj
 0002:0000be6c       $unwind$?CreateObject@CTextView@@SAPEAVCObject@@XZ 000000014003ae6c     Simpvw.obj
 0002:0000be6c       $unwind$_get_daylight      000000014003ae6c     LIBCMT:timeset.obj
 0002:0000be6c       $unwind$?__GetCurrentState@@YAHPEA_KPEAU_xDISPATCHER_CONTEXT@@PEBU_s_FuncInfo@@@Z 000000014003ae6c     LIBCMT:ehstate.obj
 0002:0000be6c       $unwind$WinMainCRTStartup  000000014003ae6c     LIBCMT:wincrt0.obj
 0002:0000be6c       $unwind$__FrameUnwindFilter 000000014003ae6c     LIBCMT:frame.obj
 0002:0000be6c       $unwind$_set_error_mode    000000014003ae6c     LIBCMT:errmode.obj
 0002:0000be6c       $unwind$??1?$CList@PEAUCRuntimeClass@@AEBQEAU1@@@QEAA@XZ 000000014003ae6c     Enterdlg.obj
 0002:0000be6c       $unwind$_invoke_watson     000000014003ae6c     LIBCMT:invarg.obj
 0002:0000be6c       $unwind$_isatty            000000014003ae6c     LIBCMT:isatty.obj
 0002:0000be6c       $unwind$??__EtheApp@@YAXXZ 000000014003ae6c     Viewex.obj
 0002:0000be6c       $unwind$_fileno            000000014003ae6c     LIBCMT:fileno.obj
 0002:0000be6c       $unwind$_GetThrowImageBase 000000014003ae6c     LIBCMT:trnsctrl.obj
 0002:0000be6c       $unwind$?__CxxUnhandledExceptionFilter@@YAJPEAU_EXCEPTION_POINTERS@@@Z 000000014003ae6c     LIBCMT:unhandld.obj
 0002:0000be6c       $unwind$__CxxSetUnhandledExceptionFilter 000000014003ae6c     LIBCMT:unhandld.obj
 0002:0000be6c       $unwind$?CreateObject@CMainDoc@@SAPEAVCObject@@XZ 000000014003ae6c     Maindoc.obj
 0002:0000be6c       $unwind$?AfxThrowMemoryException@@YAXXZ 000000014003ae6c     Maindoc.obj
 0002:0000be6c       $unwind$_GetImageBase      000000014003ae6c     LIBCMT:trnsctrl.obj
 0002:0000be6c       $unwind$?OnMDIWindowCmd@CMDIFrameWnd@@QEAAHI@Z 000000014003ae6c     Stdafx.obj
 0002:0000be6c       $unwind$?AfxThrowResourceException@@YAXXZ 000000014003ae6c     Splitter.obj
 0002:0000be6c       $unwind$??__E_AtlWinModule@ATL@@YAXXZ 000000014003ae6c     Enterdlg.obj
 0002:0000be6c       $unwind$_get_dstbias       000000014003ae6c     LIBCMT:timeset.obj
 0002:0000be6c       $unwind$??8type_info@@QEBA_NAEBV0@@Z 000000014003ae6c     LIBCMT:typinfo.obj
 0002:0000be6c       $unwind$??1?$CList@PEAUHWND__@@PEAU1@@@QEAA@XZ 000000014003ae6c     Splitter.obj
 0002:0000be6c       $unwind$__termconout       000000014003ae6c     LIBCMT:initcon.obj
 0002:0000be6c       $unwind$_mtterm            000000014003ae6c     LIBCMT:tidtable.obj
 0002:0000be6c       $unwind$?AfxDlgProc@CWnd@@SA_JPEAUHWND__@@I_K_J@Z 000000014003ae6c     Enterdlg.obj
 0002:0000be6c       $unwind$abort              000000014003ae6c     LIBCMT:abort.obj
 0002:0000be6c       $unwind$??1?$CList@PEAXPEAX@@QEAA@XZ 000000014003ae6c     Inputvw.obj
 0002:0000be6c       $unwind$__initmbctable     000000014003ae6c     LIBCMT:mbctype.obj
 0002:0000be6c       $unwind$_msize             000000014003ae6c     LIBCMT:msize.obj
 0002:0000be6c       $unwind$__endstdio         000000014003ae6c     LIBCMT:_file.obj
 0002:0000be6c       $unwind$?EnsureParentFrame@CWnd@@QEAAPEAVCFrameWnd@@XZ 000000014003ae6c     Inputvw.obj
 0002:0000be6c       $unwind$?AfxGetModuleState@@YAPEAVCModuleState@@XZ 000000014003ae6c     Enterdlg.obj
 0002:0000be6c       $unwind$___lc_codepage_func 000000014003ae6c     LIBCMT:initctyp.obj
 0002:0000be6c       $unwind$??1?$CList@PEAVCFrameWnd@@AEBQEAV1@@@QEAA@XZ 000000014003ae6c     Viewex.obj
 0002:0000be6c       $unwind$_heap_init         000000014003ae6c     LIBCMT:heapinit.obj
 0002:0000be6c       $unwind$??__E_AtlBaseModule@ATL@@YAXXZ 000000014003ae6c     atls:atlbase.obj
 0002:0000be6c       $unwind$?AfxThrowInvalidArgException@@YAXXZ 000000014003ae6c     Maindoc.obj
 0002:0000be6c       $unwind$__GSHandlerCheck   000000014003ae6c     LIBCMT:gshandler.obj
 0002:0000be6c       $unwind$?CreateObject@CWnd@@SAPEAVCObject@@XZ 000000014003ae6c     Stdafx.obj
 0002:0000be6c       $unwind$atexit             000000014003ae6c     LIBCMT:onexit.obj
 0002:0000be6c       $unwind$_errno             000000014003ae6c     LIBCMT:dosmap.obj
 0002:0000be6c       $unwind$?memcpy_x@SecureHelper@WTL@@YAXPEAX_KPEBX1@Z 000000014003ae6c     Enterdlg.obj
 0002:0000be6c       $unwind$_initp_eh_hooks    000000014003ae6c     LIBCMT:hooks.obj
 0002:0000be6c       $unwind$__crtDownlevelLocaleNameToLCID 000000014003ae6c     LIBCMT:winapinls.obj
 0002:0000be6c       $unwind$_get_osfhandle     000000014003ae6c     LIBCMT:osfinfo.obj
 0002:0000be6c       $unwind$??__F_AtlWinModule@ATL@@YAXXZ 000000014003ae6c     Enterdlg.obj
 0002:0000be6c       $unwind$??1CWaitCursor@@QEAA@XZ 000000014003ae6c     Maindoc.obj
 0002:0000be6c       $unwind$_get_timezone      000000014003ae6c     LIBCMT:timeset.obj
 0002:0000be6c       $unwind$?OnCreateClient@CFrameWnd@@UEAAHPEAUtagCREATESTRUCTA@@PEAUCCreateContext@@@Z 000000014003ae6c     Splitter.obj
 0002:0000be6c       $unwind$__doserrno         000000014003ae6c     LIBCMT:dosmap.obj
 0002:0000be6c       $unwind$?OnInitDone@CFileDialogMTL@@UEAAXXZ 000000014003ae6c     Maindoc.obj
 0002:0000be6c       $unwind$?GetParentFrame@CWnd@@QEAAPEAVCFrameWnd@@XZ 000000014003ae6c     Inputvw.obj
 0002:0000be6c       $unwind$_FF_MSGBANNER      000000014003ae6c     LIBCMT:crt0msg.obj
 0002:0000be6c       $unwind$__report_rangecheckfailure 000000014003ae6c     LIBCMT:gs_report.obj
 0002:0000be74       $unwind$?_ProcessWindowMessage@CScrollView@@UEAAHPEAUHWND__@@I_K_JAEA_J@Z 000000014003ae74     Inputvw.obj
 0002:0000be74       $unwind$?ConcatInPlace@CString@WTL@@IEAAXHPEBD@Z 000000014003ae74     Enterdlg.obj
 0002:0000be74       $unwind$_strdup            000000014003ae74     LIBCMT:strdup.obj
 0002:0000be84       $unwind$?AfxEndDeferRegisterClass@CAfx@@SAHJ@Z 000000014003ae84     Enterdlg.obj
 0002:0000be94       $chain$2$?AfxEndDeferRegisterClass@CAfx@@SAHJ@Z 000000014003ae94     Enterdlg.obj
 0002:0000beb0       $chain$3$?AfxEndDeferRegisterClass@CAfx@@SAHJ@Z 000000014003aeb0     Enterdlg.obj
 0002:0000bec4       $chain$4$?AfxEndDeferRegisterClass@CAfx@@SAHJ@Z 000000014003aec4     Enterdlg.obj
 0002:0000bed4       $chain$5$?AfxEndDeferRegisterClass@CAfx@@SAHJ@Z 000000014003aed4     Enterdlg.obj
 0002:0000beec       $unwind$?AtlWinModuleTerm@ATL@@YAJPEAU_ATL_WIN_MODULE70@1@PEAUHINSTANCE__@@@Z 000000014003aeec     Enterdlg.obj
 0002:0000bef4       $chain$2$?AtlWinModuleTerm@ATL@@YAJPEAU_ATL_WIN_MODULE70@1@PEAUHINSTANCE__@@@Z 000000014003aef4     Enterdlg.obj
 0002:0000bf10       $chain$3$?AtlWinModuleTerm@ATL@@YAJPEAU_ATL_WIN_MODULE70@1@PEAUHINSTANCE__@@@Z 000000014003af10     Enterdlg.obj
 0002:0000bf20       $chain$4$?AtlWinModuleTerm@ATL@@YAJPEAU_ATL_WIN_MODULE70@1@PEAUHINSTANCE__@@@Z 000000014003af20     Enterdlg.obj
 0002:0000bf3c       $unwind$?AfxWindowProc@CWMHnd@@SA_JPEAUHWND__@@I_K_J@Z 000000014003af3c     Enterdlg.obj
 0002:0000bf3c       $unwind$?CreateScrollBarCtrl@CSplitterWnd@@UEAAHKI@Z 000000014003af3c     Splitter.obj
 0002:0000bf44       $unwind$?OnCmdMsg@CCmdTarget@@UEAAHIHPEAXPEAUAFX_CMDHANDLERINFO@@@Z 000000014003af44     Enterdlg.obj
 0002:0000bf50       $chain$0$?OnCmdMsg@CCmdTarget@@UEAAHIHPEAXPEAUAFX_CMDHANDLERINFO@@@Z 000000014003af50     Enterdlg.obj
 0002:0000bf64       $chain$1$?OnCmdMsg@CCmdTarget@@UEAAHIHPEAXPEAUAFX_CMDHANDLERINFO@@@Z 000000014003af64     Enterdlg.obj
 0002:0000bf74       $unwind$??_GCWMHnd@@UEAAPEAXI@Z 000000014003af74     Enterdlg.obj
 0002:0000bf88       $ip2state$??_GCWMHnd@@UEAAPEAXI@Z 000000014003af88     Enterdlg.obj
 0002:0000bfa0       $unwind$?FromHandle@?$CHandleList@PEAUHDC__@@VCDCMTL@@PEAUHWND__@@@@QEAAPEAVCDCMTL@@QEAUHDC__@@PEAV2@QEAUHWND__@@Q6APEAXPEAX3@Z@Z 000000014003afa0     Splitter.obj
 0002:0000bfa0       $unwind$?RemoveOwner@?$CHandleList@PEAXVCGdiObject@@PEAUHWND__@@@@QEAAHQEAUHWND__@@@Z 000000014003afa0     Enterdlg.obj
 0002:0000bfa0       $unwind$?RemoveOwner@?$CHandleList@PEAUHDC__@@VCDCMTL@@PEAUHWND__@@@@QEAAHQEAUHWND__@@@Z 000000014003afa0     Enterdlg.obj
 0002:0000bfa0       $unwind$?RemoveOwner@?$CHandleList@PEAXXPEAUHWND__@@@@QEAAHQEAUHWND__@@@Z 000000014003afa0     Enterdlg.obj
 0002:0000bfa0       $unwind$?FromHandle@?$CHandleList@PEAUHMENU__@@VCMenuMTL@@PEAUHWND__@@@@QEAAPEAVCMenuMTL@@QEAUHMENU__@@PEAV2@QEAUHWND__@@Q6APEAXPEAX3@Z@Z 000000014003afa0     Enterdlg.obj
 0002:0000bfa0       $unwind$?RemoveOwner@?$CHandleList@PEAUHMENU__@@VCMenuMTL@@PEAUHWND__@@@@QEAAHQEAUHWND__@@@Z 000000014003afa0     Enterdlg.obj
 0002:0000bfb0       $chain$1$?FromHandle@?$CHandleList@PEAUHMENU__@@VCMenuMTL@@PEAUHWND__@@@@QEAAPEAVCMenuMTL@@QEAUHMENU__@@PEAV2@QEAUHWND__@@Q6APEAXPEAX3@Z@Z 000000014003afb0     Enterdlg.obj
 0002:0000bfc8       $chain$2$?FromHandle@?$CHandleList@PEAUHMENU__@@VCMenuMTL@@PEAUHWND__@@@@QEAAPEAVCMenuMTL@@QEAUHMENU__@@PEAV2@QEAUHWND__@@Q6APEAXPEAX3@Z@Z 000000014003afc8     Enterdlg.obj
 0002:0000bfd8       $chain$3$?FromHandle@?$CHandleList@PEAUHMENU__@@VCMenuMTL@@PEAUHWND__@@@@QEAAPEAVCMenuMTL@@QEAUHMENU__@@PEAV2@QEAUHWND__@@Q6APEAXPEAX3@Z@Z 000000014003afd8     Enterdlg.obj
 0002:0000bff0       $unwind$??_GCMenuMTL@@UEAAPEAXI@Z 000000014003aff0     Enterdlg.obj
 0002:0000c004       $stateUnwindMap$??1CMenuMTL@@UEAA@XZ 000000014003b004     Enterdlg.obj
 0002:0000c004       $stateUnwindMap$??_GCMenuMTL@@UEAAPEAXI@Z 000000014003b004     Enterdlg.obj
 0002:0000c010       $ip2state$??_GCMenuMTL@@UEAAPEAXI@Z 000000014003b010     Enterdlg.obj
 0002:0000c028       $unwind$??1CMenuMTL@@UEAA@XZ 000000014003b028     Enterdlg.obj
 0002:0000c038       $ip2state$??1CMenuMTL@@UEAA@XZ 000000014003b038     Enterdlg.obj
 0002:0000c050       $unwind$?OnVScroll@CSplitterWnd@@QEAAXIIPEAVCScrollBarMTL@@@Z 000000014003b050     Splitter.obj
 0002:0000c050       $unwind$?RemoveOwner@?$CHandleHashList@PEAUHWND__@@VCWMHnd@@PEAU1@$0BB@@@QEAAHQEAUHWND__@@@Z 000000014003b050     Enterdlg.obj
 0002:0000c050       $unwind$?OnHScroll@CSplitterWnd@@QEAAXIIPEAVCScrollBarMTL@@@Z 000000014003b050     Splitter.obj
 0002:0000c06c       $chain$1$?RemoveOwner@?$CHandleList@PEAUHMENU__@@VCMenuMTL@@PEAUHWND__@@@@QEAAHQEAUHWND__@@@Z 000000014003b06c     Enterdlg.obj
 0002:0000c06c       $chain$1$?RemoveOwner@?$CHandleList@PEAXVCGdiObject@@PEAUHWND__@@@@QEAAHQEAUHWND__@@@Z 000000014003b06c     Enterdlg.obj
 0002:0000c06c       $chain$1$?RemoveOwner@?$CHandleList@PEAXXPEAUHWND__@@@@QEAAHQEAUHWND__@@@Z 000000014003b06c     Enterdlg.obj
 0002:0000c06c       $chain$1$?RemoveOwner@?$CHandleList@PEAUHDC__@@VCDCMTL@@PEAUHWND__@@@@QEAAHQEAUHWND__@@@Z 000000014003b06c     Enterdlg.obj
 0002:0000c084       $chain$2$?RemoveOwner@?$CHandleList@PEAXVCGdiObject@@PEAUHWND__@@@@QEAAHQEAUHWND__@@@Z 000000014003b084     Enterdlg.obj
 0002:0000c084       $chain$2$?RemoveOwner@?$CHandleList@PEAUHMENU__@@VCMenuMTL@@PEAUHWND__@@@@QEAAHQEAUHWND__@@@Z 000000014003b084     Enterdlg.obj
 0002:0000c084       $chain$2$?RemoveOwner@?$CHandleList@PEAUHDC__@@VCDCMTL@@PEAUHWND__@@@@QEAAHQEAUHWND__@@@Z 000000014003b084     Enterdlg.obj
 0002:0000c084       $chain$2$?RemoveOwner@?$CHandleList@PEAXXPEAUHWND__@@@@QEAAHQEAUHWND__@@@Z 000000014003b084     Enterdlg.obj
 0002:0000c094       $unwind$?RemoveHandleWnd@CModuleThreadState@@QEAAPEAUHWND__@@PEAU2@@Z 000000014003b094     Enterdlg.obj
 0002:0000c0a4       $unwind$?SubclassWindow@CWMHnd@@QEAAHPEAUHWND__@@PEAUtagCREATESTRUCTA@@@Z 000000014003b0a4     Enterdlg.obj
 0002:0000c0a4       $unwind$?OnCreateClient@CMDIFrameWnd@@UEAAHPEAUtagCREATESTRUCTA@@PEAUCCreateContext@@@Z 000000014003b0a4     Stdafx.obj
 0002:0000c0b4       $chain$0$?SubclassWindow@CWMHnd@@QEAAHPEAUHWND__@@PEAUtagCREATESTRUCTA@@@Z 000000014003b0b4     Enterdlg.obj
 0002:0000c0c8       $chain$1$?SubclassWindow@CWMHnd@@QEAAHPEAUHWND__@@PEAUtagCREATESTRUCTA@@@Z 000000014003b0c8     Enterdlg.obj
 0002:0000c0d8       $unwind$?CenterWindow@CWindow@ATL@@QEAAHPEAUHWND__@@@Z 000000014003b0d8     Enterdlg.obj
 0002:0000c0f4       $unwind$?DefWindowProcA@CMDIFrameWnd@@UEAA_JI_K_J@Z 000000014003b0f4     Stdafx.obj
 0002:0000c0f4       $unwind$?DefWindowProcA@CWMHnd@@UEAA_JI_K_J@Z 000000014003b0f4     Enterdlg.obj
 0002:0000c0f4       $unwind$?_ProcessWindowMessage@_AFX_MOUSEANCHORWND@@UEAAHPEAUHWND__@@I_K_JAEA_J@Z 000000014003b0f4     Inputvw.obj
 0002:0000c0f4       $unwind$?_ProcessWindowMessage@CNewTypeDlg@@UEAAHPEAUHWND__@@I_K_JAEA_J@Z 000000014003b0f4     Viewex.obj
 0002:0000c0f4       $unwind$_invalid_parameter_noinfo 000000014003b0f4     LIBCMT:invarg.obj
 0002:0000c0f4       $unwind$_cfltcvt_l         000000014003b0f4     LIBCMT:cvt.obj
 0002:0000c0f4       $unwind$strtol             000000014003b0f4     LIBCMT:strtol.obj
 0002:0000c0fc       $unwind$?SendMessageToDescendants@CWnd@@QEAAXPEAUHWND__@@I_K_JHH@Z 000000014003b0fc     Enterdlg.obj
 0002:0000c10c       $chain$0$?SendMessageToDescendants@CWnd@@QEAAXPEAUHWND__@@I_K_JHH@Z 000000014003b10c     Enterdlg.obj
 0002:0000c120       $chain$1$?SendMessageToDescendants@CWnd@@QEAAXPEAUHWND__@@I_K_JHH@Z 000000014003b120     Enterdlg.obj
 0002:0000c130       $unwind$?RunModalLoop@CWnd@@QEAAHK@Z 000000014003b130     Enterdlg.obj
 0002:0000c130       $unwind$?ExecuteDlgInit@CWnd@@QEAAHPEAX@Z 000000014003b130     Enterdlg.obj
 0002:0000c14c       $unwind$?OnInitDialog@CDialog@@UEAAHXZ 000000014003b14c     Enterdlg.obj
 0002:0000c15c       $chain$0$?AfxDlgProc@CWnd@@SA_JPEAUHWND__@@I_K_J@Z 000000014003b15c     Enterdlg.obj
 0002:0000c170       $chain$2$?AfxDlgProc@CWnd@@SA_JPEAUHWND__@@I_K_J@Z 000000014003b170     Enterdlg.obj
 0002:0000c184       $chain$3$?AfxDlgProc@CWnd@@SA_JPEAUHWND__@@I_K_J@Z 000000014003b184     Enterdlg.obj
 0002:0000c194       $unwind$?AllocCopy@CString@WTL@@IEBAHAEAV12@HHH@Z 000000014003b194     Maindoc.obj
 0002:0000c194       $unwind$?CreateDlg@CWnd@@QEAAHPEBDPEAV1@@Z 000000014003b194     Enterdlg.obj
 0002:0000c194       $unwind$?OnMenuSelect@CFrameWnd@@QEAAXIIPEAUHMENU__@@@Z 000000014003b194     Splitter.obj
 0002:0000c194       $unwind$?GetActivePane@CSplitterWnd@@UEAAPEAVCWnd@@PEAH0@Z 000000014003b194     Splitter.obj
 0002:0000c194       $unwind$?OnMDIActivate@CMDIChildWnd@@QEAAXHPEAVCWnd@@0@Z 000000014003b194     Splitter.obj
 0002:0000c1ac       $unwind$?FromHandle@?$CHandleHashList@PEAUHWND__@@VCWMHnd@@PEAU1@$0BB@@@QEAAPEAVCWMHnd@@QEAUHWND__@@PEAV2@0Q6APEAXPEAX2@Z@Z 000000014003b1ac     Enterdlg.obj
 0002:0000c1bc       $chain$1$?FromHandle@?$CHandleHashList@PEAUHWND__@@VCWMHnd@@PEAU1@$0BB@@@QEAAPEAVCWMHnd@@QEAUHWND__@@PEAV2@0Q6APEAXPEAX2@Z@Z 000000014003b1bc     Enterdlg.obj
 0002:0000c1d4       $chain$2$?FromHandle@?$CHandleHashList@PEAUHWND__@@VCWMHnd@@PEAU1@$0BB@@@QEAAPEAVCWMHnd@@QEAUHWND__@@PEAV2@0Q6APEAXPEAX2@Z@Z 000000014003b1d4     Enterdlg.obj
 0002:0000c1e4       $chain$3$?FromHandle@?$CHandleHashList@PEAUHWND__@@VCWMHnd@@PEAU1@$0BB@@@QEAAPEAVCWMHnd@@QEAUHWND__@@PEAV2@0Q6APEAXPEAX2@Z@Z 000000014003b1e4     Enterdlg.obj
 0002:0000c1fc       $chain$4$?FromHandle@?$CHandleHashList@PEAUHWND__@@VCWMHnd@@PEAU1@$0BB@@@QEAAPEAVCWMHnd@@QEAUHWND__@@PEAV2@0Q6APEAXPEAX2@Z@Z 000000014003b1fc     Enterdlg.obj
 0002:0000c210       $chain$5$?FromHandle@?$CHandleHashList@PEAUHWND__@@VCWMHnd@@PEAU1@$0BB@@@QEAAPEAVCWMHnd@@QEAUHWND__@@PEAV2@0Q6APEAXPEAX2@Z@Z 000000014003b210     Enterdlg.obj
 0002:0000c220       $chain$0$??1?$CList@PEAXPEAX@@QEAA@XZ 000000014003b220     Inputvw.obj
 0002:0000c220       $chain$0$??1?$CList@PEAUCRuntimeClass@@AEBQEAU1@@@QEAA@XZ 000000014003b220     Enterdlg.obj
 0002:0000c220       $chain$0$??1?$CList@PEAVCFrameWnd@@AEBQEAV1@@@QEAA@XZ 000000014003b220     Viewex.obj
 0002:0000c220       $chain$0$??1?$CList@PEAUHWND__@@PEAU1@@@QEAA@XZ 000000014003b220     Splitter.obj
 0002:0000c234       $chain$1$??1?$CList@PEAUHWND__@@PEAU1@@@QEAA@XZ 000000014003b234     Splitter.obj
 0002:0000c234       $chain$1$??1?$CList@PEAXPEAX@@QEAA@XZ 000000014003b234     Inputvw.obj
 0002:0000c234       $chain$1$??1?$CList@PEAVCFrameWnd@@AEBQEAV1@@@QEAA@XZ 000000014003b234     Viewex.obj
 0002:0000c234       $chain$1$??1?$CList@PEAUCRuntimeClass@@AEBQEAU1@@@QEAA@XZ 000000014003b234     Enterdlg.obj
 0002:0000c244       $unwind$??1CModuleState@@QEAA@XZ 000000014003b244     Enterdlg.obj
 0002:0000c254       $stateUnwindMap$??1CModuleState@@QEAA@XZ 000000014003b254     Enterdlg.obj
 0002:0000c260       $ip2state$??1CModuleState@@QEAA@XZ 000000014003b260     Enterdlg.obj
 0002:0000c278       $unwind$?DoModal@CDialog@@UEAA_JXZ 000000014003b278     Enterdlg.obj
 0002:0000c284       $chain$3$?DoModal@CDialog@@UEAA_JXZ 000000014003b284     Enterdlg.obj
 0002:0000c2a4       $chain$5$?DoModal@CDialog@@UEAA_JXZ 000000014003b2a4     Enterdlg.obj
 0002:0000c2bc       $chain$6$?DoModal@CDialog@@UEAA_JXZ 000000014003b2bc     Enterdlg.obj
 0002:0000c2cc       $chain$7$?DoModal@CDialog@@UEAA_JXZ 000000014003b2cc     Enterdlg.obj
 0002:0000c2e4       $chain$8$?DoModal@CDialog@@UEAA_JXZ 000000014003b2e4     Enterdlg.obj
 0002:0000c2f4       $unwind$?CreateObject@CInputView@@SAPEAVCObject@@XZ 000000014003b2f4     Inputvw.obj
 0002:0000c304       $stateUnwindMap$?CreateObject@CMDIChildWnd@@SAPEAVCObject@@XZ 000000014003b304     Stdafx.obj
 0002:0000c304       $stateUnwindMap$?CreateObject@CFrameWnd@@SAPEAVCObject@@XZ 000000014003b304     Stdafx.obj
 0002:0000c304       $stateUnwindMap$?CreateObject@CSplitterFrame@@SAPEAVCObject@@XZ 000000014003b304     Splitter.obj
 0002:0000c304       $stateUnwindMap$?CreateObject@CMDIFrameWnd@@SAPEAVCObject@@XZ 000000014003b304     Stdafx.obj
 0002:0000c304       $stateUnwindMap$?CreateObject@C3WaySplitterFrame@@SAPEAVCObject@@XZ 000000014003b304     Splitter.obj
 0002:0000c304       $stateUnwindMap$?CreateObject@CInputView@@SAPEAVCObject@@XZ 000000014003b304     Inputvw.obj
 0002:0000c310       $ip2state$?CreateObject@CInputView@@SAPEAVCObject@@XZ 000000014003b310     Inputvw.obj
 0002:0000c328       $unwind$??0CInputView@@IEAA@XZ 000000014003b328     Inputvw.obj
 0002:0000c33c       $stateUnwindMap$??0CInputView@@IEAA@XZ 000000014003b33c     Inputvw.obj
 0002:0000c350       $ip2state$??0CInputView@@IEAA@XZ 000000014003b350     Inputvw.obj
 0002:0000c370       $unwind$??_GCInputView@@MEAAPEAXI@Z 000000014003b370     Inputvw.obj
 0002:0000c384       $stateUnwindMap$??_GCInputView@@MEAAPEAXI@Z 000000014003b384     Inputvw.obj
 0002:0000c390       $ip2state$??_GCInputView@@MEAAPEAXI@Z 000000014003b390     Inputvw.obj
 0002:0000c3a8       $unwind$?CanCloseFrame@CDocument@@QEAAHPEAVCFrameWnd@@@Z 000000014003b3a8     Splitter.obj
 0002:0000c3a8       $unwind$?UpdateAllViews@CDocument@@QEAAXPEAVCView@@_JPEAVCObject@@@Z 000000014003b3a8     Inputvw.obj
 0002:0000c3b4       $unwind$??1CScrollView@@UEAA@XZ 000000014003b3b4     Inputvw.obj
 0002:0000c3c4       $stateUnwindMap$??1CScrollView@@UEAA@XZ 000000014003b3c4     Inputvw.obj
 0002:0000c3d8       $ip2state$??1CScrollView@@UEAA@XZ 000000014003b3d8     Inputvw.obj
 0002:0000c400       $unwind$?SetScaleToFitSize@CScrollView@@QEAAXUtagSIZE@@@Z 000000014003b400     Inputvw.obj
 0002:0000c410       $unwind$?OnHScroll@CScrollView@@QEAAXIIPEAVCScrollBarMTL@@@Z 000000014003b410     Inputvw.obj
 0002:0000c410       $unwind$_invalid_parameter 000000014003b410     LIBCMT:invarg.obj
 0002:0000c410       $unwind$_setenvp           000000014003b410     LIBCMT:stdenvp.obj
 0002:0000c410       $unwind$?OnVScroll@CScrollView@@QEAAXIIPEAVCScrollBarMTL@@@Z 000000014003b410     Inputvw.obj
 0002:0000c424       $unwind$?DoMouseWheel@CScrollView@@QEAAHIFVCPoint@WTL@@@Z 000000014003b424     Inputvw.obj
 0002:0000c43c       $unwind$?AfxRegisterWndClass@CAfx@@SAPEBDIPEAUHICON__@@PEAUHBRUSH__@@0@Z 000000014003b43c     Inputvw.obj
 0002:0000c458       $unwind$??_GCBrushMTL@@UEAAPEAXI@Z 000000014003b458     Simpvw.obj
 0002:0000c458       $unwind$??_GCRgnMTL@@UEAAPEAXI@Z 000000014003b458     Inputvw.obj
 0002:0000c46c       $stateUnwindMap$??1CRgnMTL@@UEAA@XZ 000000014003b46c     Inputvw.obj
 0002:0000c46c       $stateUnwindMap$??_GCBrushMTL@@UEAAPEAXI@Z 000000014003b46c     Simpvw.obj
 0002:0000c46c       $stateUnwindMap$??_GCRgnMTL@@UEAAPEAXI@Z 000000014003b46c     Inputvw.obj
 0002:0000c478       $ip2state$??_GCBrushMTL@@UEAAPEAXI@Z 000000014003b478     Simpvw.obj
 0002:0000c478       $ip2state$??_GCRgnMTL@@UEAAPEAXI@Z 000000014003b478     Inputvw.obj
 0002:0000c490       $unwind$??1CRgnMTL@@UEAA@XZ 000000014003b490     Inputvw.obj
 0002:0000c4a0       $ip2state$??1CRgnMTL@@UEAA@XZ 000000014003b4a0     Inputvw.obj
 0002:0000c4b8       $chain$3$?SetCapture@CWnd@@QEAAPEAV1@XZ 000000014003b4b8     Inputvw.obj
 0002:0000c4cc       $chain$4$?SetCapture@CWnd@@QEAAPEAV1@XZ 000000014003b4cc     Inputvw.obj
 0002:0000c4cc       $chain$8$?SetCapture@CWnd@@QEAAPEAV1@XZ 000000014003b4cc     Inputvw.obj
 0002:0000c4dc       $chain$5$?SetCapture@CWnd@@QEAAPEAV1@XZ 000000014003b4dc     Inputvw.obj
 0002:0000c4f0       $chain$6$?SetCapture@CWnd@@QEAAPEAV1@XZ 000000014003b4f0     Inputvw.obj
 0002:0000c504       $chain$7$?SetCapture@CWnd@@QEAAPEAV1@XZ 000000014003b504     Inputvw.obj
 0002:0000c514       $unwind$?Create@_AFX_MOUSEANCHORWND@@QEAAHPEAVCScrollView@@@Z 000000014003b514     Inputvw.obj
 0002:0000c530       $stateUnwindMap$?Create@_AFX_MOUSEANCHORWND@@QEAAHPEAVCScrollView@@@Z 000000014003b530     Inputvw.obj
 0002:0000c540       $ip2state$?Create@_AFX_MOUSEANCHORWND@@QEAAHPEAVCScrollView@@@Z 000000014003b540     Inputvw.obj
 0002:0000c560       $unwind$?OnPaint@_AFX_MOUSEANCHORWND@@QEAAXXZ 000000014003b560     Inputvw.obj
 0002:0000c580       $stateUnwindMap$?OnPaint@_AFX_MOUSEANCHORWND@@QEAAXXZ 000000014003b580     Inputvw.obj
 0002:0000c588       $ip2state$?OnPaint@_AFX_MOUSEANCHORWND@@QEAAXXZ 000000014003b588     Inputvw.obj
 0002:0000c5a0       $unwind$?OnTimer@_AFX_MOUSEANCHORWND@@QEAAX_K@Z 000000014003b5a0     Inputvw.obj
 0002:0000c5b8       $chain$1$?OnTimer@_AFX_MOUSEANCHORWND@@QEAAX_K@Z 000000014003b5b8     Inputvw.obj
 0002:0000c5cc       $chain$2$?OnTimer@_AFX_MOUSEANCHORWND@@QEAAX_K@Z 000000014003b5cc     Inputvw.obj
 0002:0000c5dc       $chain$3$?OnTimer@_AFX_MOUSEANCHORWND@@QEAAX_K@Z 000000014003b5dc     Inputvw.obj
 0002:0000c5f0       $unwind$?HandleMButtonDown@CScrollView@@QEAA_J_K_J@Z 000000014003b5f0     Inputvw.obj
 0002:0000c604       $unwind$?_ProcessWindowMessage@CFormView@@UEAAHPEAUHWND__@@I_K_JAEA_J@Z 000000014003b604     Inputvw.obj
 0002:0000c628       $stateUnwindMap$?_ProcessWindowMessage@CFormView@@UEAAHPEAUHWND__@@I_K_JAEA_J@Z 000000014003b628     Inputvw.obj
 0002:0000c628       $stateUnwindMap$?_ProcessWindowMessage@CView@@UEAAHPEAUHWND__@@I_K_JAEA_J@Z 000000014003b628     Inputvw.obj
 0002:0000c638       $ip2state$?_ProcessWindowMessage@CFormView@@UEAAHPEAUHWND__@@I_K_JAEA_J@Z 000000014003b638     Inputvw.obj
 0002:0000c658       $unwind$??1CMultiDocTemplate@@UEAA@XZ 000000014003b658     Viewex.obj
 0002:0000c658       $unwind$?OnDestroy@CView@@QEAAXXZ 000000014003b658     Inputvw.obj
 0002:0000c658       $unwind$?OnCloseDocument@CDocument@@QEAAXXZ 000000014003b658     Inputvw.obj
 0002:0000c658       $unwind$?LoadTemplate@CMultiDocTemplate@@UEAAXXZ 000000014003b658     Viewex.obj
 0002:0000c658       $unwind$?GetTopLevelFrame@CWnd@@QEAAPEAVCFrameWnd@@XZ 000000014003b658     Inputvw.obj
 0002:0000c660       $chain$0$?OnDestroy@CView@@QEAAXXZ 000000014003b660     Inputvw.obj
 0002:0000c674       $chain$1$?OnDestroy@CView@@QEAAXXZ 000000014003b674     Inputvw.obj
 0002:0000c684       $unwind$?OnMouseActivate@CView@@QEAAHPEAVCWnd@@II@Z 000000014003b684     Inputvw.obj
 0002:0000c690       $chain$0$?OnMouseActivate@CView@@QEAAHPEAVCWnd@@II@Z 000000014003b690     Inputvw.obj
 0002:0000c6a4       $chain$1$?OnMouseActivate@CView@@QEAAHPEAVCWnd@@II@Z 000000014003b6a4     Inputvw.obj
 0002:0000c6b8       $chain$2$?OnMouseActivate@CView@@QEAAHPEAVCWnd@@II@Z 000000014003b6b8     Inputvw.obj
 0002:0000c6c8       $chain$4$?OnMouseActivate@CView@@QEAAHPEAVCWnd@@II@Z 000000014003b6c8     Inputvw.obj
 0002:0000c6dc       $chain$5$?OnMouseActivate@CView@@QEAAHPEAVCWnd@@II@Z 000000014003b6dc     Inputvw.obj
 0002:0000c6ec       $unwind$??1CPaintDCMTL@@UEAA@XZ 000000014003b6ec     Inputvw.obj
 0002:0000c700       $ip2state$??1CPaintDCMTL@@UEAA@XZ 000000014003b700     Inputvw.obj
 0002:0000c718       $unwind$?OnPaint@CView@@QEAAXXZ 000000014003b718     Inputvw.obj
 0002:0000c734       $stateUnwindMap$?OnPaint@CSplitterWnd@@QEAAXXZ 000000014003b734     Splitter.obj
 0002:0000c734       $stateUnwindMap$?OnPaint@CView@@QEAAXXZ 000000014003b734     Inputvw.obj
 0002:0000c748       $ip2state$?OnPaint@CView@@QEAAXXZ 000000014003b748     Inputvw.obj
 0002:0000c770       $unwind$?_ProcessWindowMessage@CView@@UEAAHPEAUHWND__@@I_K_JAEA_J@Z 000000014003b770     Inputvw.obj
 0002:0000c788       $ip2state$?_ProcessWindowMessage@CView@@UEAAHPEAUHWND__@@I_K_JAEA_J@Z 000000014003b788     Inputvw.obj
 0002:0000c7a8       $unwind$??_GCColorView@@UEAAPEAXI@Z 000000014003b7a8     Simpvw.obj
 0002:0000c7a8       $unwind$??_GCView@@UEAAPEAXI@Z 000000014003b7a8     Inputvw.obj
 0002:0000c7a8       $unwind$??_GCTextView@@UEAAPEAXI@Z 000000014003b7a8     Simpvw.obj
 0002:0000c7bc       $stateUnwindMap$??_GCTextView@@UEAAPEAXI@Z 000000014003b7bc     Simpvw.obj
 0002:0000c7bc       $stateUnwindMap$??_GCViewExSplitWnd@@UEAAPEAXI@Z 000000014003b7bc     Splitter.obj
 0002:0000c7bc       $stateUnwindMap$??1CViewExSplitWnd@@UEAA@XZ 000000014003b7bc     Splitter.obj
 0002:0000c7bc       $stateUnwindMap$??_GCView@@UEAAPEAXI@Z 000000014003b7bc     Inputvw.obj
 0002:0000c7bc       $stateUnwindMap$??1CView@@UEAA@XZ 000000014003b7bc     Inputvw.obj
 0002:0000c7bc       $stateUnwindMap$??_GCColorView@@UEAAPEAXI@Z 000000014003b7bc     Simpvw.obj
 0002:0000c7bc       $stateUnwindMap$??_GCSplitterWnd@@UEAAPEAXI@Z 000000014003b7bc     Splitter.obj
 0002:0000c7c8       $ip2state$??_GCView@@UEAAPEAXI@Z 000000014003b7c8     Inputvw.obj
 0002:0000c7c8       $ip2state$??_GCColorView@@UEAAPEAXI@Z 000000014003b7c8     Simpvw.obj
 0002:0000c7c8       $ip2state$??_GCTextView@@UEAAPEAXI@Z 000000014003b7c8     Simpvw.obj
 0002:0000c7e0       $chain$0$?EnsureParentFrame@CWnd@@QEAAPEAVCFrameWnd@@XZ 000000014003b7e0     Inputvw.obj
 0002:0000c7e0       $chain$0$?GetParentFrame@CWnd@@QEAAPEAVCFrameWnd@@XZ 000000014003b7e0     Inputvw.obj
 0002:0000c7f4       $chain$2$?EnsureParentFrame@CWnd@@QEAAPEAVCFrameWnd@@XZ 000000014003b7f4     Inputvw.obj
 0002:0000c7f4       $chain$2$?GetParentFrame@CWnd@@QEAAPEAVCFrameWnd@@XZ 000000014003b7f4     Inputvw.obj
 0002:0000c808       $chain$3$?EnsureParentFrame@CWnd@@QEAAPEAVCFrameWnd@@XZ 000000014003b808     Inputvw.obj
 0002:0000c808       $chain$3$?GetParentFrame@CWnd@@QEAAPEAVCFrameWnd@@XZ 000000014003b808     Inputvw.obj
 0002:0000c818       $unwind$??1CDocument@@QEAA@XZ 000000014003b818     Inputvw.obj
 0002:0000c830       $stateUnwindMap$??1CDocument@@QEAA@XZ 000000014003b830     Inputvw.obj
 0002:0000c848       $ip2state$??1CDocument@@QEAA@XZ 000000014003b848     Inputvw.obj
 0002:0000c870       $chain$0$?OnCloseDocument@CDocument@@QEAAXXZ 000000014003b870     Inputvw.obj
 0002:0000c884       $chain$1$?OnCloseDocument@CDocument@@QEAAXXZ 000000014003b884     Inputvw.obj
 0002:0000c898       $chain$2$?OnCloseDocument@CDocument@@QEAAXXZ 000000014003b898     Inputvw.obj
 0002:0000c8a8       $chain$3$?OnCloseDocument@CDocument@@QEAAXXZ 000000014003b8a8     Inputvw.obj
 0002:0000c8b8       $unwind$?UpdateFrameCounts@CDocument@@QEAAXXZ 000000014003b8b8     Inputvw.obj
 0002:0000c8cc       $unwind$??1CView@@UEAA@XZ  000000014003b8cc     Inputvw.obj
 0002:0000c8e0       $ip2state$??1CView@@UEAA@XZ 000000014003b8e0     Inputvw.obj
 0002:0000c8f8       $chain$0$?GetTopLevelFrame@CWnd@@QEAAPEAVCFrameWnd@@XZ 000000014003b8f8     Inputvw.obj
 0002:0000c90c       $chain$3$?GetTopLevelFrame@CWnd@@QEAAPEAVCFrameWnd@@XZ 000000014003b90c     Inputvw.obj
 0002:0000c90c       $chain$1$?GetTopLevelFrame@CWnd@@QEAAPEAVCFrameWnd@@XZ 000000014003b90c     Inputvw.obj
 0002:0000c91c       $chain$2$?GetTopLevelFrame@CWnd@@QEAAPEAVCFrameWnd@@XZ 000000014003b91c     Inputvw.obj
 0002:0000c930       $unwind$?PreTranslateMessage@CFormView@@UEAAHPEAUtagMSG@@@Z 000000014003b930     Inputvw.obj
 0002:0000c940       $unwind$??1CWindowDCMTL@@UEAA@XZ 000000014003b940     Inputvw.obj
 0002:0000c950       $ip2state$??1CWindowDCMTL@@UEAA@XZ 000000014003b950     Inputvw.obj
 0002:0000c968       $unwind$?GetScrollBarState@CScrollView@@QEAAXVCSize@WTL@@AEAV23@1AEAVCPoint@3@H@Z 000000014003b968     Inputvw.obj
 0002:0000c97c       $unwind$?ScrollToDevicePosition@CScrollView@@QEAAXUtagPOINT@@@Z 000000014003b97c     Inputvw.obj
 0002:0000c98c       $unwind$?UpdateBars@CScrollView@@QEAAXXZ 000000014003b98c     Inputvw.obj
 0002:0000c9a0       $chain$5$?UpdateBars@CScrollView@@QEAAXXZ 000000014003b9a0     Inputvw.obj
 0002:0000c9c8       $chain$6$?UpdateBars@CScrollView@@QEAAXXZ 000000014003b9c8     Inputvw.obj
 0002:0000c9d8       $unwind$?SetScrollSizes@CScrollView@@QEAAXHUtagSIZE@@AEBU2@1@Z 000000014003b9d8     Inputvw.obj
 0002:0000c9fc       $stateUnwindMap$?SetScrollSizes@CScrollView@@QEAAXHUtagSIZE@@AEBU2@1@Z 000000014003b9fc     Inputvw.obj
 0002:0000ca08       $ip2state$?SetScrollSizes@CScrollView@@QEAAXHUtagSIZE@@AEBU2@1@Z 000000014003ba08     Inputvw.obj
 0002:0000ca20       $unwind$?Create@CFormView@@UEAAHPEBD0KAEBUtagRECT@@PEAVCWnd@@IPEAUCCreateContext@@@Z 000000014003ba20     Inputvw.obj
 0002:0000ca3c       $chain$0$?Create@CFormView@@UEAAHPEBD0KAEBUtagRECT@@PEAVCWnd@@IPEAUCCreateContext@@@Z 000000014003ba3c     Inputvw.obj
 0002:0000ca50       $chain$1$?Create@CFormView@@UEAAHPEBD0KAEBUtagRECT@@PEAVCWnd@@IPEAUCCreateContext@@@Z 000000014003ba50     Inputvw.obj
 0002:0000ca60       $unwind$?OnActivateFrame@CFormView@@UEAAXIPEAVCFrameWnd@@@Z 000000014003ba60     Inputvw.obj
 0002:0000ca60       $unwind$?OnActivateView@CView@@UEAAXHPEAV1@0@Z 000000014003ba60     Inputvw.obj
 0002:0000ca68       $chain$0$?OnActivateFrame@CFormView@@UEAAXIPEAVCFrameWnd@@@Z 000000014003ba68     Inputvw.obj
 0002:0000ca7c       $chain$1$?OnActivateFrame@CFormView@@UEAAXIPEAVCFrameWnd@@@Z 000000014003ba7c     Inputvw.obj
 0002:0000ca8c       $chain$2$?GetOwner@CWnd@@QEAAPEAV1@XZ 000000014003ba8c     Inputvw.obj
 0002:0000caa8       $chain$4$?GetOwner@CWnd@@QEAAPEAV1@XZ 000000014003baa8     Inputvw.obj
 0002:0000cac0       $chain$5$?GetOwner@CWnd@@QEAAPEAV1@XZ 000000014003bac0     Inputvw.obj
 0002:0000cac0       $chain$9$?GetOwner@CWnd@@QEAAPEAV1@XZ 000000014003bac0     Inputvw.obj
 0002:0000cad0       $chain$6$?GetOwner@CWnd@@QEAAPEAV1@XZ 000000014003bad0     Inputvw.obj
 0002:0000cae8       $chain$7$?GetOwner@CWnd@@QEAAPEAV1@XZ 000000014003bae8     Inputvw.obj
 0002:0000cafc       $chain$8$?GetOwner@CWnd@@QEAAPEAV1@XZ 000000014003bafc     Inputvw.obj
 0002:0000cb0c       $chain$10$?GetOwner@CWnd@@QEAAPEAV1@XZ 000000014003bb0c     Inputvw.obj
 0002:0000cb1c       $chain$0$?GetTopLevelParent@CWnd@@QEAAPEAV1@XZ 000000014003bb1c     Inputvw.obj
 0002:0000cb30       $chain$2$?GetTopLevelParent@CWnd@@QEAAPEAV1@XZ 000000014003bb30     Inputvw.obj
 0002:0000cb48       $chain$4$?GetTopLevelParent@CWnd@@QEAAPEAV1@XZ 000000014003bb48     Inputvw.obj
 0002:0000cb60       $chain$5$?GetTopLevelParent@CWnd@@QEAAPEAV1@XZ 000000014003bb60     Inputvw.obj
 0002:0000cb60       $chain$9$?GetTopLevelParent@CWnd@@QEAAPEAV1@XZ 000000014003bb60     Inputvw.obj
 0002:0000cb70       $chain$6$?GetTopLevelParent@CWnd@@QEAAPEAV1@XZ 000000014003bb70     Inputvw.obj
 0002:0000cb88       $chain$7$?GetTopLevelParent@CWnd@@QEAAPEAV1@XZ 000000014003bb88     Inputvw.obj
 0002:0000cb9c       $chain$8$?GetTopLevelParent@CWnd@@QEAAPEAV1@XZ 000000014003bb9c     Inputvw.obj
 0002:0000cbac       $chain$10$?GetTopLevelParent@CWnd@@QEAAPEAV1@XZ 000000014003bbac     Inputvw.obj
 0002:0000cbbc       $chain$11$?GetTopLevelParent@CWnd@@QEAAPEAV1@XZ 000000014003bbbc     Inputvw.obj
 0002:0000cbcc       $chain$3$?GetForegroundWindow@CWnd@@SAPEAV1@XZ 000000014003bbcc     Inputvw.obj
 0002:0000cbe0       $chain$4$?GetForegroundWindow@CWnd@@SAPEAV1@XZ 000000014003bbe0     Inputvw.obj
 0002:0000cbe0       $chain$8$?GetForegroundWindow@CWnd@@SAPEAV1@XZ 000000014003bbe0     Inputvw.obj
 0002:0000cbf0       $chain$5$?GetForegroundWindow@CWnd@@SAPEAV1@XZ 000000014003bbf0     Inputvw.obj
 0002:0000cc04       $chain$6$?GetForegroundWindow@CWnd@@SAPEAV1@XZ 000000014003bc04     Inputvw.obj
 0002:0000cc18       $chain$7$?GetForegroundWindow@CWnd@@SAPEAV1@XZ 000000014003bc18     Inputvw.obj
 0002:0000cc28       $chain$3$?GetLastActivePopup@CWnd@@QEAAPEAV1@XZ 000000014003bc28     Inputvw.obj
 0002:0000cc3c       $chain$8$?GetLastActivePopup@CWnd@@QEAAPEAV1@XZ 000000014003bc3c     Inputvw.obj
 0002:0000cc3c       $chain$4$?GetLastActivePopup@CWnd@@QEAAPEAV1@XZ 000000014003bc3c     Inputvw.obj
 0002:0000cc4c       $chain$5$?GetLastActivePopup@CWnd@@QEAAPEAV1@XZ 000000014003bc4c     Inputvw.obj
 0002:0000cc60       $chain$6$?GetLastActivePopup@CWnd@@QEAAPEAV1@XZ 000000014003bc60     Inputvw.obj
 0002:0000cc74       $chain$7$?GetLastActivePopup@CWnd@@QEAAPEAV1@XZ 000000014003bc74     Inputvw.obj
 0002:0000cc84       $chain$0$?OnActivateView@CView@@UEAAXHPEAV1@0@Z 000000014003bc84     Inputvw.obj
 0002:0000cc98       $chain$1$?OnActivateView@CView@@UEAAXHPEAV1@0@Z 000000014003bc98     Inputvw.obj
 0002:0000cca8       $unwind$?OnEndPrintPreview@CView@@UEAAXPEAVCDCMTL@@PEAUCPrintInfo@@UtagPOINT@@PEAVCPreviewView@@@Z 000000014003bca8     Inputvw.obj
 0002:0000cca8       $unwind$?IsChildPane@CSplitterWnd@@QEAAHPEAVCWnd@@PEAH1@Z 000000014003bca8     Splitter.obj
 0002:0000ccc0       $unwind$?OnPrepareDC@CScrollView@@UEAAXPEAVCDCMTL@@PEAUCPrintInfo@@@Z 000000014003bcc0     Inputvw.obj
 0002:0000ccdc       $unwind$?OnScroll@CScrollView@@UEAAHIIH@Z 000000014003bcdc     Inputvw.obj
 0002:0000ccdc       $unwind$?_GetEstablisherFrame@@YAPEA_KPEA_KPEAU_xDISPATCHER_CONTEXT@@PEBU_s_FuncInfo@@0@Z 000000014003bcdc     LIBCMT:trnsctrl.obj
 0002:0000ccf4       $unwind$?GetScrollLimit@CWMHnd@@QEAAHH@Z 000000014003bcf4     Inputvw.obj
 0002:0000cd0c       $unwind$?ScrollWindow@CWMHnd@@QEAAXHHPEBUtagRECT@@0@Z 000000014003bd0c     Inputvw.obj
 0002:0000cd24       $chain$0$?ScrollWindow@CWMHnd@@QEAAXHHPEBUtagRECT@@0@Z 000000014003bd24     Inputvw.obj
 0002:0000cd38       $chain$1$?ScrollWindow@CWMHnd@@QEAAXHHPEBUtagRECT@@0@Z 000000014003bd38     Inputvw.obj
 0002:0000cd48       $unwind$?OnScrollBy@CScrollView@@UEAAHVCSize@WTL@@H@Z 000000014003bd48     Inputvw.obj
 0002:0000cd60       $unwind$?CCalcWindowRect@CScrollView@@UEAAXPEAUtagRECT@@I@Z 000000014003bd60     Inputvw.obj
 0002:0000cd6c       $chain$0$?CCalcWindowRect@CScrollView@@UEAAXPEAUtagRECT@@I@Z 000000014003bd6c     Inputvw.obj
 0002:0000cd80       $chain$3$?CCalcWindowRect@CScrollView@@UEAAXPEAUtagRECT@@I@Z 000000014003bd80     Inputvw.obj
 0002:0000cd9c       $chain$4$?CCalcWindowRect@CScrollView@@UEAAXPEAUtagRECT@@I@Z 000000014003bd9c     Inputvw.obj
 0002:0000cdb0       $chain$5$?CCalcWindowRect@CScrollView@@UEAAXPEAUtagRECT@@I@Z 000000014003bdb0     Inputvw.obj
 0002:0000cdc0       $unwind$??_GCMainDoc@@UEAAPEAXI@Z 000000014003bdc0     Maindoc.obj
 0002:0000cdd4       $stateUnwindMap$??_GCMainDoc@@UEAAPEAXI@Z 000000014003bdd4     Maindoc.obj
 0002:0000cde0       $ip2state$??_GCMainDoc@@UEAAPEAXI@Z 000000014003bde0     Maindoc.obj
 0002:0000cdf8       $unwind$?OnChangeData@CMainDoc@@IEAAXXZ 000000014003bdf8     Maindoc.obj
 0002:0000ce20       $stateUnwindMap$?OnChangeData@CMainDoc@@IEAAXXZ 000000014003be20     Maindoc.obj
 0002:0000ce48       $ip2state$?OnChangeData@CMainDoc@@IEAAXXZ 000000014003be48     Maindoc.obj
 0002:0000ce78       $unwind$?OnOpenDocument@CDocument@@UEAAHPEBD@Z 000000014003be78     Maindoc.obj
 0002:0000ce98       $stateUnwindMap$?OnOpenDocument@CDocument@@UEAAHPEBD@Z 000000014003be98     Maindoc.obj
 0002:0000cec8       $tryMap$?OnOpenDocument@CDocument@@UEAAHPEBD@Z 000000014003bec8     Maindoc.obj
 0002:0000cedc       $handlerMap$0$?OnOpenDocument@CDocument@@UEAAHPEBD@Z 000000014003bedc     Maindoc.obj
 0002:0000cef0       $ip2state$?OnOpenDocument@CDocument@@UEAAHPEBD@Z 000000014003bef0     Maindoc.obj
 0002:0000cf60       $unwind$?catch$0@?0??OnOpenDocument@CDocument@@UEAAHPEBD@Z@4HA 000000014003bf60     Maindoc.obj
 0002:0000cf74       $unwind$?AfxFormatStrings@CAfx@@SAXAEAVCString@WTL@@PEBDPEBQEBDH@Z 000000014003bf74     Maindoc.obj
 0002:0000cf74       $unwind$__CxxCallCatchBlock$fin$1 000000014003bf74     LIBCMT:frame.obj
 0002:0000cf80       $chain$2$?AfxFormatStrings@CAfx@@SAXAEAVCString@WTL@@PEBDPEBQEBDH@Z 000000014003bf80     Maindoc.obj
 0002:0000cf9c       $chain$3$?AfxFormatStrings@CAfx@@SAXAEAVCString@WTL@@PEBDPEBQEBDH@Z 000000014003bf9c     Maindoc.obj
 0002:0000cfb0       $chain$4$?AfxFormatStrings@CAfx@@SAXAEAVCString@WTL@@PEBDPEBQEBDH@Z 000000014003bfb0     Maindoc.obj
 0002:0000cfc0       $chain$5$?AfxFormatStrings@CAfx@@SAXAEAVCString@WTL@@PEBDPEBQEBDH@Z 000000014003bfc0     Maindoc.obj
 0002:0000cfd0       $unwind$?ShowAppMessageBox@CWinApp@@SAHPEAV1@PEBDII@Z 000000014003bfd0     Maindoc.obj
 0002:0000cff0       $unwind$?SaveModified@CDocument@@UEAAHXZ 000000014003bff0     Maindoc.obj
 0002:0000d010       $stateUnwindMap$?SaveModified@CDocument@@UEAAHXZ 000000014003c010     Maindoc.obj
 0002:0000d030       $ip2state$?SaveModified@CDocument@@UEAAHXZ 000000014003c030     Maindoc.obj
 0002:0000d078       $unwind$?_AfxCommDlgProc@CCommonDialog@@SA_KPEAUHWND__@@I_K_J@Z 000000014003c078     Maindoc.obj
 0002:0000d088       $chain$1$?_AfxCommDlgProc@CCommonDialog@@SA_KPEAUHWND__@@I_K_J@Z 000000014003c088     Maindoc.obj
 0002:0000d0a0       $chain$3$?_AfxCommDlgProc@CCommonDialog@@SA_KPEAUHWND__@@I_K_J@Z 000000014003c0a0     Maindoc.obj
 0002:0000d0b8       $chain$5$?_AfxCommDlgProc@CCommonDialog@@SA_KPEAUHWND__@@I_K_J@Z 000000014003c0b8     Maindoc.obj
 0002:0000d0d0       $chain$6$?_AfxCommDlgProc@CCommonDialog@@SA_KPEAUHWND__@@I_K_J@Z 000000014003c0d0     Maindoc.obj
 0002:0000d0e0       $unwind$??0CFileDialogMTL@@QEAA@HPEBD0K0PEAVCWnd@@KH@Z 000000014003c0e0     Maindoc.obj
 0002:0000d104       $stateUnwindMap$??0CFileDialogMTL@@QEAA@HPEBD0K0PEAVCWnd@@KH@Z 000000014003c104     Maindoc.obj
 0002:0000d118       $ip2state$??0CFileDialogMTL@@QEAA@HPEBD0K0PEAVCWnd@@KH@Z 000000014003c118     Maindoc.obj
 0002:0000d138       $unwind$??1CFileDialogMTL@@UEAA@XZ 000000014003c138     Maindoc.obj
 0002:0000d148       $stateUnwindMap$??1CFileDialogMTL@@UEAA@XZ 000000014003c148     Maindoc.obj
 0002:0000d158       $ip2state$??1CFileDialogMTL@@UEAA@XZ 000000014003c158     Maindoc.obj
 0002:0000d178       $unwind$?Tokenize@CAfx@@SA?AVCString@WTL@@AEAV23@PEADAEAH@Z 000000014003c178     Maindoc.obj
 0002:0000d190       $unwind$?Mid@CString@WTL@@QEBA?AV12@HH@Z 000000014003c190     Maindoc.obj
 0002:0000d1a0       $stateUnwindMap$?Mid@CString@WTL@@QEBA?AV12@HH@Z 000000014003c1a0     Maindoc.obj
 0002:0000d1a8       $ip2state$?Mid@CString@WTL@@QEBA?AV12@HH@Z 000000014003c1a8     Maindoc.obj
 0002:0000d1b8       $unwind$?dtor$0@?0??Mid@CString@WTL@@QEBA?AV12@HH@Z@4HA 000000014003c1b8     Maindoc.obj
 0002:0000d1b8       $unwind$_ioinit$fin$0      000000014003c1b8     LIBCMT:ioinit.obj
 0002:0000d1b8       $unwind$?fin$0@?0??_Type_info_dtor@type_info@@CAXPEAV1@@Z@4HA 000000014003c1b8     LIBCMT:typname.obj
 0002:0000d1b8       $unwind$_locterm$fin$0     000000014003c1b8     LIBCMT:wsetloca.obj
 0002:0000d1b8       $unwind$__DestructExceptionObject$filt$0 000000014003c1b8     LIBCMT:frame.obj
 0002:0000d1b8       $unwind$__FrameUnwindToState$fin$1 000000014003c1b8     LIBCMT:frame.obj
 0002:0000d1b8       $unwind$_commit$fin$0      000000014003c1b8     LIBCMT:commit.obj
 0002:0000d1b8       $unwind$__updatetmbcinfo$fin$0 000000014003c1b8     LIBCMT:mbctype.obj
 0002:0000d1b8       $unwind$_setmbcp$fin$0     000000014003c1b8     LIBCMT:mbctype.obj
 0002:0000d1b8       $unwind$_close$fin$0       000000014003c1b8     LIBCMT:close.obj
 0002:0000d1b8       $unwind$doexit$fin$0       000000014003c1b8     LIBCMT:crt0dat.obj
 0002:0000d1b8       $unwind$__tmainCRTStartup$filt$0 000000014003c1b8     LIBCMT:wincrt0.obj
 0002:0000d1b8       $unwind$raise$fin$0        000000014003c1b8     LIBCMT:winsig.obj
 0002:0000d1b8       $unwind$__tzset$fin$0      000000014003c1b8     LIBCMT:tzset.obj
 0002:0000d1b8       $unwind$_mtinitlocknum$fin$0 000000014003c1b8     LIBCMT:mlock.obj
 0002:0000d1b8       $unwind$_isindst$fin$0     000000014003c1b8     LIBCMT:tzset.obj
 0002:0000d1b8       $unwind$__lock_fhandle$fin$0 000000014003c1b8     LIBCMT:osfinfo.obj
 0002:0000d1b8       $unwind$_initptd$fin$0     000000014003c1b8     LIBCMT:tidtable.obj
 0002:0000d1b8       $unwind$flsall$fin$1       000000014003c1b8     LIBCMT:fflush.obj
 0002:0000d1b8       $unwind$flsall$fin$0       000000014003c1b8     LIBCMT:fflush.obj
 0002:0000d1b8       $unwind$_initptd$fin$1     000000014003c1b8     LIBCMT:tidtable.obj
 0002:0000d1b8       $unwind$_freefls$fin$0     000000014003c1b8     LIBCMT:tidtable.obj
 0002:0000d1b8       $unwind$_freefls$fin$1     000000014003c1b8     LIBCMT:tidtable.obj
 0002:0000d1b8       $unwind$__CxxCallCatchBlock$filt$0 000000014003c1b8     LIBCMT:frame.obj
 0002:0000d1b8       $unwind$fclose$fin$0       000000014003c1b8     LIBCMT:fclose.obj
 0002:0000d1b8       $unwind$_IsNonwritableInCurrentImage$filt$0 000000014003c1b8     LIBCMT:pesect.obj
 0002:0000d1b8       $unwind$__updatetlocinfo$fin$0 000000014003c1b8     LIBCMT:localref.obj
 0002:0000d1b8       $unwind$_onexit$fin$0      000000014003c1b8     LIBCMT:onexit.obj
 0002:0000d1b8       $unwind$_fcloseall$fin$0   000000014003c1b8     LIBCMT:closeall.obj
 0002:0000d1b8       $unwind$__FrameUnwindToState$filt$0 000000014003c1b8     LIBCMT:frame.obj
 0002:0000d1b8       $unwind$_write$fin$0       000000014003c1b8     LIBCMT:write.obj
 0002:0000d1c0       $unwind$?_AfxAppendFilterSuffix@@YAXAEAVCString@WTL@@AEAUtagOFNA@@PEAVCDocTemplate@@PEAV12@@Z 000000014003c1c0     Maindoc.obj
 0002:0000d1e0       $stateUnwindMap$?_AfxAppendFilterSuffix@@YAXAEAVCString@WTL@@AEAUtagOFNA@@PEAVCDocTemplate@@PEAV12@@Z 000000014003c1e0     Maindoc.obj
 0002:0000d200       $ip2state$?_AfxAppendFilterSuffix@@YAXAEAVCString@WTL@@AEAUtagOFNA@@PEAVCDocTemplate@@PEAV12@@Z 000000014003c200     Maindoc.obj
 0002:0000d248       $unwind$??0CStringW@@QEAA@PEBD@Z 000000014003c248     Maindoc.obj
 0002:0000d264       $stateUnwindMap$??0CStringW@@QEAA@PEBD@Z 000000014003c264     Maindoc.obj
 0002:0000d270       $ip2state$??0CStringW@@QEAA@PEBD@Z 000000014003c270     Maindoc.obj
 0002:0000d288       $unwind$??4CStringW@@QEAAAEAVCString@WTL@@PEBD@Z 000000014003c288     Maindoc.obj
 0002:0000d288       $unwind$?Draw3dRect@?$CDCT@$00@WTL@@QEAAXHHHHKK@Z 000000014003c288     Splitter.obj
 0002:0000d2a0       $unwind$?ApplyOFNToShellDialog@CFileDialogMTL@@QEAAXXZ 000000014003c2a0     Maindoc.obj
 0002:0000d2c0       $stateUnwindMap$?ApplyOFNToShellDialog@CFileDialogMTL@@QEAAXXZ 000000014003c2c0     Maindoc.obj
 0002:0000d2f0       $ip2state$?ApplyOFNToShellDialog@CFileDialogMTL@@QEAAXXZ 000000014003c2f0     Maindoc.obj
 0002:0000d358       $unwind$??0CString@WTL@@QEAA@PEB_W@Z 000000014003c358     Maindoc.obj
 0002:0000d364       $chain$0$??0CString@WTL@@QEAA@PEB_W@Z 000000014003c364     Maindoc.obj
 0002:0000d378       $chain$1$??0CString@WTL@@QEAA@PEB_W@Z 000000014003c378     Maindoc.obj
 0002:0000d388       $unwind$?GetPathName@CFileDialogMTL@@QEAA?AVCString@WTL@@XZ 000000014003c388     Maindoc.obj
 0002:0000d3a0       $stateUnwindMap$?GetPathName@CFileDialogMTL@@QEAA?AVCString@WTL@@XZ 000000014003c3a0     Maindoc.obj
 0002:0000d3b0       $ip2state$?GetPathName@CFileDialogMTL@@QEAA?AVCString@WTL@@XZ 000000014003c3b0     Maindoc.obj
 0002:0000d3d8       $unwind$?UpdateOFNFromShellDialog@CFileDialogMTL@@UEAAXXZ 000000014003c3d8     Maindoc.obj
 0002:0000d3f8       $stateUnwindMap$?UpdateOFNFromShellDialog@CFileDialogMTL@@UEAAXXZ 000000014003c3f8     Maindoc.obj
 0002:0000d430       $ip2state$?UpdateOFNFromShellDialog@CFileDialogMTL@@UEAAXXZ 000000014003c430     Maindoc.obj
 0002:0000d4a8       $unwind$_recalloc_crt      000000014003c4a8     LIBCMT:crtheap.obj
 0002:0000d4a8       $unwind$?DoModal@CFileDialogMTL@@UEAA_JXZ 000000014003c4a8     Maindoc.obj
 0002:0000d4c0       $unwind$?DoPromptFileName@CDocManager@@QEAAHAEAVCString@WTL@@IKHPEAVCDocTemplate@@@Z 000000014003c4c0     Maindoc.obj
 0002:0000d4e8       $stateUnwindMap$?DoPromptFileName@CDocManager@@QEAAHAEAVCString@WTL@@IKHPEAVCDocTemplate@@@Z 000000014003c4e8     Maindoc.obj
 0002:0000d520       $ip2state$?DoPromptFileName@CDocManager@@QEAAHAEAVCString@WTL@@IKHPEAVCDocTemplate@@@Z 000000014003c520     Maindoc.obj
 0002:0000d590       $unwind$??0CArchive@@QEAA@PEAVCFile@@IHPEAX@Z 000000014003c590     Maindoc.obj
 0002:0000d5a8       $stateUnwindMap$??0CArchive@@QEAA@PEAVCFile@@IHPEAX@Z 000000014003c5a8     Maindoc.obj
 0002:0000d5b8       $ip2state$??0CArchive@@QEAA@PEAVCFile@@IHPEAX@Z 000000014003c5b8     Maindoc.obj
 0002:0000d5e0       $unwind$??0CTime@@QEAA@AEBU_FILETIME@@H@Z 000000014003c5e0     Maindoc.obj
 0002:0000d5f0       $unwind$?GetStatus@CFile@@QEBAHAEAUCFileStatus@@@Z 000000014003c5f0     Maindoc.obj
 0002:0000d604       $unwind$?LoadStringA@CString@WTL@@QEAAHI@Z 000000014003c604     Maindoc.obj
 0002:0000d61c       $chain$1$?LoadStringA@CString@WTL@@QEAAHI@Z 000000014003c61c     Maindoc.obj
 0002:0000d634       $chain$2$?LoadStringA@CString@WTL@@QEAAHI@Z 000000014003c634     Maindoc.obj
 0002:0000d644       $unwind$?GetFilePath@CFile@@UEBA?AVCString@WTL@@XZ 000000014003c644     Maindoc.obj
 0002:0000d658       $unwind$?Open@CFile@@UEAAHPEBDIPEAVCFileException@@@Z 000000014003c658     Maindoc.obj
 0002:0000d674       $unwind$?Write@CFile@@UEAAXPEBXI@Z 000000014003c674     Maindoc.obj
 0002:0000d690       $stateUnwindMap$?Write@CFile@@UEAAXPEBXI@Z 000000014003c690     Maindoc.obj
 0002:0000d6a0       $ip2state$?Write@CFile@@UEAAXPEBXI@Z 000000014003c6a0     Maindoc.obj
 0002:0000d6c8       $unwind$?Close@CFile@@UEAAXXZ 000000014003c6c8     Maindoc.obj
 0002:0000d6e0       $stateUnwindMap$?Close@CFile@@UEAAXXZ 000000014003c6e0     Maindoc.obj
 0002:0000d6e0       $stateUnwindMap$?ThrowOsError@CFileException@@SAXJPEBD@Z 000000014003c6e0     Maindoc.obj
 0002:0000d6e8       $ip2state$?Close@CFile@@UEAAXXZ 000000014003c6e8     Maindoc.obj
 0002:0000d700       $unwind$??_GCFile@@QEAAPEAXI@Z 000000014003c700     Maindoc.obj
 0002:0000d710       $stateUnwindMap$??_GCFile@@QEAAPEAXI@Z 000000014003c710     Maindoc.obj
 0002:0000d718       $ip2state$??_GCFile@@QEAAPEAXI@Z 000000014003c718     Maindoc.obj
 0002:0000d730       $unwind$?OnSaveDocument@CDocument@@UEAAHPEBD@Z 000000014003c730     Maindoc.obj
 0002:0000d750       $stateUnwindMap$?OnSaveDocument@CDocument@@UEAAHPEBD@Z 000000014003c750     Maindoc.obj
 0002:0000d770       $ip2state$?OnSaveDocument@CDocument@@UEAAHPEBD@Z 000000014003c770     Maindoc.obj
 0002:0000d7b8       $unwind$?_AfxFullPath2@CAfx@@SAHPEADPEBDPEAVCFileException@@@Z 000000014003c7b8     Maindoc.obj
 0002:0000d7dc       $stateUnwindMap$?_AfxFullPath2@CAfx@@SAHPEADPEBDPEAVCFileException@@@Z 000000014003c7dc     Maindoc.obj
 0002:0000d7dc       $stateUnwindMap$?AfxResolveShortcut@@YAHPEAVCWMHnd@@PEBDPEADH@Z 000000014003c7dc     Viewex.obj
 0002:0000d7dc       $stateUnwindMap$?OnWindowNew@CMDIFrameWnd@@QEAAXXZ 000000014003c7dc     Stdafx.obj
 0002:0000d7e8       $ip2state$?_AfxFullPath2@CAfx@@SAHPEADPEBDPEAVCFileException@@@Z 000000014003c7e8     Maindoc.obj
 0002:0000d800       $unwind$?AfxGetFileTitle@CAfx@@SAIPEBDPEADI@Z 000000014003c800     Maindoc.obj
 0002:0000d81c       $unwind$?SetPathName@CDocument@@UEAAXPEBDH@Z 000000014003c81c     Maindoc.obj
 0002:0000d834       $unwind$?DoSave@CDocument@@UEAAHPEBDH@Z 000000014003c834     Maindoc.obj
 0002:0000d854       $stateUnwindMap$?DoSave@CDocument@@UEAAHPEBDH@Z 000000014003c854     Maindoc.obj
 0002:0000d880       $ip2state$?DoSave@CDocument@@UEAAHPEBDH@Z 000000014003c880     Maindoc.obj
 0002:0000d8c8       $unwind$??0CFileException@@QEAA@HJPEBD@Z 000000014003c8c8     Maindoc.obj
 0002:0000d8e0       $stateUnwindMap$??0CFileException@@QEAA@HJPEBD@Z 000000014003c8e0     Maindoc.obj
 0002:0000d8e8       $ip2state$??0CFileException@@QEAA@HJPEBD@Z 000000014003c8e8     Maindoc.obj
 0002:0000d900       $unwind$?ThrowOsError@CFileException@@SAXJPEBD@Z 000000014003c900     Maindoc.obj
 0002:0000d918       $ip2state$?ThrowOsError@CFileException@@SAXJPEBD@Z 000000014003c918     Maindoc.obj
 0002:0000d930       $unwind$?OnDraw@CTextView@@UEAAXPEAVCDCMTL@@@Z 000000014003c930     Simpvw.obj
 0002:0000d948       $unwind$?OnDraw@CColorView@@UEAAXPEAVCDCMTL@@@Z 000000014003c948     Simpvw.obj
 0002:0000d960       $stateUnwindMap$?OnDraw@CColorView@@UEAAXPEAVCDCMTL@@@Z 000000014003c960     Simpvw.obj
 0002:0000d968       $ip2state$?OnDraw@CColorView@@UEAAXPEAVCDCMTL@@@Z 000000014003c968     Simpvw.obj
 0002:0000d980       $unwind$?CreateObject@CSplitterFrame@@SAPEAVCObject@@XZ 000000014003c980     Splitter.obj
 0002:0000d990       $ip2state$?CreateObject@CSplitterFrame@@SAPEAVCObject@@XZ 000000014003c990     Splitter.obj
 0002:0000d9a8       $unwind$??1CSplitterFrame@@UEAA@XZ 000000014003c9a8     Splitter.obj
 0002:0000d9bc       $stateUnwindMap$??1CSplitterFrame@@UEAA@XZ 000000014003c9bc     Splitter.obj
 0002:0000d9d0       $ip2state$??1CSplitterFrame@@UEAA@XZ 000000014003c9d0     Splitter.obj
 0002:0000d9f8       $unwind$?OnCreateClient@CSplitterFrame@@UEAAHPEAUtagCREATESTRUCTA@@PEAUCCreateContext@@@Z 000000014003c9f8     Splitter.obj
 0002:0000da08       $unwind$?CreateObject@C3WaySplitterFrame@@SAPEAVCObject@@XZ 000000014003ca08     Splitter.obj
 0002:0000da18       $ip2state$?CreateObject@C3WaySplitterFrame@@SAPEAVCObject@@XZ 000000014003ca18     Splitter.obj
 0002:0000da30       $unwind$??1C3WaySplitterFrame@@UEAA@XZ 000000014003ca30     Splitter.obj
 0002:0000da48       $stateUnwindMap$??1C3WaySplitterFrame@@UEAA@XZ 000000014003ca48     Splitter.obj
 0002:0000da70       $ip2state$??1C3WaySplitterFrame@@UEAA@XZ 000000014003ca70     Splitter.obj
 0002:0000dab0       $unwind$??_GCViewExSplitWnd@@UEAAPEAXI@Z 000000014003cab0     Splitter.obj
 0002:0000dab0       $unwind$??_GCSplitterWnd@@UEAAPEAXI@Z 000000014003cab0     Splitter.obj
 0002:0000dac8       $ip2state$??_GCSplitterWnd@@UEAAPEAXI@Z 000000014003cac8     Splitter.obj
 0002:0000dac8       $ip2state$??_GCViewExSplitWnd@@UEAAPEAXI@Z 000000014003cac8     Splitter.obj
 0002:0000dae0       $unwind$??1CViewExSplitWnd@@UEAA@XZ 000000014003cae0     Splitter.obj
 0002:0000daf0       $ip2state$??1CViewExSplitWnd@@UEAA@XZ 000000014003caf0     Splitter.obj
 0002:0000db08       $unwind$?OnLButtonDblClk@CSplitterWnd@@QEAAXIVCPoint@WTL@@@Z 000000014003cb08     Splitter.obj
 0002:0000db14       $chain$0$?OnLButtonDblClk@CSplitterWnd@@QEAAXIVCPoint@WTL@@@Z 000000014003cb14     Splitter.obj
 0002:0000db28       $chain$1$?OnLButtonDblClk@CSplitterWnd@@QEAAXIVCPoint@WTL@@@Z 000000014003cb28     Splitter.obj
 0002:0000db38       $chain$3$?GetCapture@CWnd@@SAPEAV1@XZ 000000014003cb38     Splitter.obj
 0002:0000db4c       $chain$8$?GetCapture@CWnd@@SAPEAV1@XZ 000000014003cb4c     Splitter.obj
 0002:0000db4c       $chain$4$?GetCapture@CWnd@@SAPEAV1@XZ 000000014003cb4c     Splitter.obj
 0002:0000db5c       $chain$5$?GetCapture@CWnd@@SAPEAV1@XZ 000000014003cb5c     Splitter.obj
 0002:0000db70       $chain$6$?GetCapture@CWnd@@SAPEAV1@XZ 000000014003cb70     Splitter.obj
 0002:0000db84       $chain$7$?GetCapture@CWnd@@SAPEAV1@XZ 000000014003cb84     Splitter.obj
 0002:0000db94       $unwind$?OnMouseMove@CSplitterWnd@@QEAAXIVCPoint@WTL@@@Z 000000014003cb94     Splitter.obj
 0002:0000db9c       $chain$0$?OnMouseMove@CSplitterWnd@@QEAAXIVCPoint@WTL@@@Z 000000014003cb9c     Splitter.obj
 0002:0000dbb0       $chain$1$?OnMouseMove@CSplitterWnd@@QEAAXIVCPoint@WTL@@@Z 000000014003cbb0     Splitter.obj
 0002:0000dbc0       $unwind$?OnMouseWheel@CSplitterWnd@@QEAAHIFVCPoint@WTL@@@Z 000000014003cbc0     Splitter.obj
 0002:0000dbdc       $unwind$_forcdecpt_l       000000014003cbdc     LIBCMT:cvt.obj
 0002:0000dbdc       $unwind$_cropzeros_l       000000014003cbdc     LIBCMT:cvt.obj
 0002:0000dbdc       $unwind$?getSystemCP@@YAHH@Z 000000014003cbdc     LIBCMT:mbctype.obj
 0002:0000dbdc       $unwind$_isleadbyte_l      000000014003cbdc     LIBCMT:_wctype.obj
 0002:0000dbdc       $unwind$isdigit            000000014003cbdc     LIBCMT:_ctype.obj
 0002:0000dbdc       $unwind$??2@YAPEAX_K@Z     000000014003cbdc     LIBCMT:new.obj
 0002:0000dbdc       $unwind$isleadbyte         000000014003cbdc     LIBCMT:_wctype.obj
 0002:0000dbdc       $unwind$?OnNcCreate@CSplitterWnd@@QEAAHPEAUtagCREATESTRUCTA@@@Z 000000014003cbdc     Splitter.obj
 0002:0000dbe4       $unwind$?OnPaint@CSplitterWnd@@QEAAXXZ 000000014003cbe4     Splitter.obj
 0002:0000dc00       $ip2state$?OnPaint@CSplitterWnd@@QEAAXXZ 000000014003cc00     Splitter.obj
 0002:0000dc28       $unwind$?_ProcessWindowMessage@CSplitterWnd@@UEAAHPEAUHWND__@@I_K_JAEA_J@Z 000000014003cc28     Splitter.obj
 0002:0000dc48       $ip2state$?_ProcessWindowMessage@CSplitterWnd@@UEAAHPEAUHWND__@@I_K_JAEA_J@Z 000000014003cc48     Splitter.obj
 0002:0000dc68       $unwind$?OnCommand@CSplitterWnd@@UEAAH_K_J@Z 000000014003cc68     Splitter.obj
 0002:0000dc7c       $unwind$?OnDraw@CSplitterWnd@@UEAAXPEAVCDCMTL@@@Z 000000014003cc7c     Splitter.obj
 0002:0000dc90       $chain$0$?SetScrollStyle@CSplitterWnd@@QEAAXK@Z 000000014003cc90     Splitter.obj
 0002:0000dca4       $chain$2$?SetScrollStyle@CSplitterWnd@@QEAAXK@Z 000000014003cca4     Splitter.obj
 0002:0000dca4       $chain$4$?SetScrollStyle@CSplitterWnd@@QEAAXK@Z 000000014003cca4     Splitter.obj
 0002:0000dcb8       $chain$3$?SetScrollStyle@CSplitterWnd@@QEAAXK@Z 000000014003ccb8     Splitter.obj
 0002:0000dcc8       $unwind$?CreateCommon@CSplitterWnd@@QEAAHPEAVCWnd@@UtagSIZE@@KI@Z 000000014003ccc8     Splitter.obj
 0002:0000dce4       $tryMap$?CreateCommon@CSplitterWnd@@QEAAHPEAVCWnd@@UtagSIZE@@KI@Z 000000014003cce4     Splitter.obj
 0002:0000dcf8       $handlerMap$0$?CreateCommon@CSplitterWnd@@QEAAHPEAVCWnd@@UtagSIZE@@KI@Z 000000014003ccf8     Splitter.obj
 0002:0000dd10       $ip2state$?CreateCommon@CSplitterWnd@@QEAAHPEAVCWnd@@UtagSIZE@@KI@Z 000000014003cd10     Splitter.obj
 0002:0000dd40       $unwind$?catch$0@?0??CreateCommon@CSplitterWnd@@QEAAHPEAVCWnd@@UtagSIZE@@KI@Z@4HA 000000014003cd40     Splitter.obj
 0002:0000dd50       $unwind$?DoKeyboardSplit@CSplitterWnd@@UEAAHXZ 000000014003cd50     Splitter.obj
 0002:0000dd60       $unwind$?DoScroll@CSplitterWnd@@UEAAHPEAVCView@@IH@Z 000000014003cd60     Splitter.obj
 0002:0000dd70       $chain$0$?DoScroll@CSplitterWnd@@UEAAHPEAVCView@@IH@Z 000000014003cd70     Splitter.obj
 0002:0000dd84       $chain$2$?DoScroll@CSplitterWnd@@UEAAHPEAVCView@@IH@Z 000000014003cd84     Splitter.obj
 0002:0000dd9c       $chain$3$?DoScroll@CSplitterWnd@@UEAAHPEAVCView@@IH@Z 000000014003cd9c     Splitter.obj
 0002:0000ddb0       $chain$4$?DoScroll@CSplitterWnd@@UEAAHPEAVCView@@IH@Z 000000014003cdb0     Splitter.obj
 0002:0000ddc0       $unwind$?DoScrollBy@CSplitterWnd@@UEAAHPEAVCView@@VCSize@WTL@@H@Z 000000014003cdc0     Splitter.obj
 0002:0000ddd0       $chain$2$?DoScrollBy@CSplitterWnd@@UEAAHPEAVCView@@VCSize@WTL@@H@Z 000000014003cdd0     Splitter.obj
 0002:0000ddec       $chain$3$?DoScrollBy@CSplitterWnd@@UEAAHPEAVCView@@VCSize@WTL@@H@Z 000000014003cdec     Splitter.obj
 0002:0000ddfc       $unwind$?HitTest@CSplitterWnd@@UEBAHVCPoint@WTL@@@Z 000000014003cdfc     Splitter.obj
 0002:0000de10       $chain$1$?HitTest@CSplitterWnd@@UEBAHVCPoint@WTL@@@Z 000000014003ce10     Splitter.obj
 0002:0000de28       $chain$2$?HitTest@CSplitterWnd@@UEBAHVCPoint@WTL@@@Z 000000014003ce28     Splitter.obj
 0002:0000de3c       $chain$3$?HitTest@CSplitterWnd@@UEBAHVCPoint@WTL@@@Z 000000014003ce3c     Splitter.obj
 0002:0000de4c       $chain$4$?HitTest@CSplitterWnd@@UEBAHVCPoint@WTL@@@Z 000000014003ce4c     Splitter.obj
 0002:0000de5c       $unwind$?GetHitRect@CSplitterWnd@@UEAAXHAEAVCRect@WTL@@@Z 000000014003ce5c     Splitter.obj
 0002:0000de74       $chain$3$?GetHitRect@CSplitterWnd@@UEAAXHAEAVCRect@WTL@@@Z 000000014003ce74     Splitter.obj
 0002:0000de94       $chain$4$?GetHitRect@CSplitterWnd@@UEAAXHAEAVCRect@WTL@@@Z 000000014003ce94     Splitter.obj
 0002:0000dea4       $unwind$?SetSplitCursor@CSplitterWnd@@UEAAXH@Z 000000014003cea4     Splitter.obj
 0002:0000deb4       $unwind$?StartTracking@CSplitterWnd@@UEAAXH@Z 000000014003ceb4     Splitter.obj
 0002:0000dec0       $chain$3$?StartTracking@CSplitterWnd@@UEAAXH@Z 000000014003cec0     Splitter.obj
 0002:0000dee0       $chain$4$?StartTracking@CSplitterWnd@@UEAAXH@Z 000000014003cee0     Splitter.obj
 0002:0000def8       $chain$5$?StartTracking@CSplitterWnd@@UEAAXH@Z 000000014003cef8     Splitter.obj
 0002:0000df08       $chain$1$?FromHandle@?$CHandleList@PEAUHDC__@@VCDCMTL@@PEAUHWND__@@@@QEAAPEAVCDCMTL@@QEAUHDC__@@PEAV2@QEAUHWND__@@Q6APEAXPEAX3@Z@Z 000000014003cf08     Splitter.obj
 0002:0000df20       $chain$2$?FromHandle@?$CHandleList@PEAUHDC__@@VCDCMTL@@PEAUHWND__@@@@QEAAPEAVCDCMTL@@QEAUHDC__@@PEAV2@QEAUHWND__@@Q6APEAXPEAX3@Z@Z 000000014003cf20     Splitter.obj
 0002:0000df30       $chain$3$?FromHandle@?$CHandleList@PEAUHDC__@@VCDCMTL@@PEAUHWND__@@@@QEAAPEAVCDCMTL@@QEAUHDC__@@PEAV2@QEAUHWND__@@Q6APEAXPEAX3@Z@Z 000000014003cf30     Splitter.obj
 0002:0000df48       $unwind$strcspn            000000014003cf48     LIBCMT:strcspn.obj
 0002:0000df48       $unwind$strpbrk            000000014003cf48     LIBCMT:strpbrk.obj
 0002:0000df48       $unwind$strspn             000000014003cf48     LIBCMT:strspn.obj
 0002:0000df48       $unwind$?HalftoneBrush@CAfx@@SAPEAUHBRUSH__@@H@Z 000000014003cf48     Splitter.obj
 0002:0000df58       $chain$0$?HalftoneBrush@CAfx@@SAPEAUHBRUSH__@@H@Z 000000014003cf58     Splitter.obj
 0002:0000df6c       $chain$1$?HalftoneBrush@CAfx@@SAPEAUHBRUSH__@@H@Z 000000014003cf6c     Splitter.obj
 0002:0000df7c       $unwind$?FromHandle@?$CHandleList@PEAXVCGdiObject@@PEAUHWND__@@@@QEAAPEAVCGdiObject@@QEAXPEAV2@QEAUHWND__@@Q6APEAXPEAX3@Z@Z 000000014003cf7c     Splitter.obj
 0002:0000df88       $chain$1$?FromHandle@?$CHandleList@PEAXVCGdiObject@@PEAUHWND__@@@@QEAAPEAVCGdiObject@@QEAXPEAV2@QEAUHWND__@@Q6APEAXPEAX3@Z@Z 000000014003cf88     Splitter.obj
 0002:0000dfa0       $chain$2$?FromHandle@?$CHandleList@PEAXVCGdiObject@@PEAUHWND__@@@@QEAAPEAVCGdiObject@@QEAXPEAV2@QEAUHWND__@@Q6APEAXPEAX3@Z@Z 000000014003cfa0     Splitter.obj
 0002:0000dfb0       $chain$3$?FromHandle@?$CHandleList@PEAXVCGdiObject@@PEAUHWND__@@@@QEAAPEAVCGdiObject@@QEAXPEAV2@QEAUHWND__@@Q6APEAXPEAX3@Z@Z 000000014003cfb0     Splitter.obj
 0002:0000dfc8       $unwind$?SplitRow@CSplitterWnd@@UEAAHH@Z 000000014003cfc8     Splitter.obj
 0002:0000dfc8       $unwind$?SplitColumn@CSplitterWnd@@UEAAHH@Z 000000014003cfc8     Splitter.obj
 0002:0000dfd8       $chain$2$?SplitRow@CSplitterWnd@@UEAAHH@Z 000000014003cfd8     Splitter.obj
 0002:0000dff4       $chain$4$?SplitRow@CSplitterWnd@@UEAAHH@Z 000000014003cff4     Splitter.obj
 0002:0000e010       $unwind$?CreateView@CSplitterWnd@@UEAAHHHPEAUCRuntimeClass@@UtagSIZE@@PEAUCCreateContext@@@Z 000000014003d010     Splitter.obj
 0002:0000e034       $tryMap$?CreateView@CSplitterWnd@@UEAAHHHPEAUCRuntimeClass@@UtagSIZE@@PEAUCCreateContext@@@Z 000000014003d034     Splitter.obj
 0002:0000e048       $handlerMap$0$?CreateView@CSplitterWnd@@UEAAHHHPEAUCRuntimeClass@@UtagSIZE@@PEAUCCreateContext@@@Z 000000014003d048     Splitter.obj
 0002:0000e060       $ip2state$?CreateView@CSplitterWnd@@UEAAHHHPEAUCRuntimeClass@@UtagSIZE@@PEAUCCreateContext@@@Z 000000014003d060     Splitter.obj
 0002:0000e090       $unwind$?catch$0@?0??CreateView@CSplitterWnd@@UEAAHHHPEAUCRuntimeClass@@UtagSIZE@@PEAUCCreateContext@@@Z@4HA 000000014003d090     Splitter.obj
 0002:0000e0a0       $chain$2$?SplitColumn@CSplitterWnd@@UEAAHH@Z 000000014003d0a0     Splitter.obj
 0002:0000e0bc       $chain$4$?SplitColumn@CSplitterWnd@@UEAAHH@Z 000000014003d0bc     Splitter.obj
 0002:0000e0d8       $unwind$?StopTracking@CSplitterWnd@@UEAAXH@Z 000000014003d0d8     Splitter.obj
 0002:0000e0e4       $chain$2$?StopTracking@CSplitterWnd@@UEAAXH@Z 000000014003d0e4     Splitter.obj
 0002:0000e100       $chain$3$?StopTracking@CSplitterWnd@@UEAAXH@Z 000000014003d100     Splitter.obj
 0002:0000e114       $chain$4$?StopTracking@CSplitterWnd@@UEAAXH@Z 000000014003d114     Splitter.obj
 0002:0000e124       $unwind$?DeleteColumn@CSplitterWnd@@UEAAXH@Z 000000014003d124     Splitter.obj
 0002:0000e12c       $chain$1$?DeleteColumn@CSplitterWnd@@UEAAXH@Z 000000014003d12c     Splitter.obj
 0002:0000e144       $chain$6$?DeleteColumn@CSplitterWnd@@UEAAXH@Z 000000014003d144     Splitter.obj
 0002:0000e168       $chain$7$?DeleteColumn@CSplitterWnd@@UEAAXH@Z 000000014003d168     Splitter.obj
 0002:0000e178       $chain$8$?DeleteColumn@CSplitterWnd@@UEAAXH@Z 000000014003d178     Splitter.obj
 0002:0000e188       $chain$3$?GetFocus@CWnd@@SAPEAV1@XZ 000000014003d188     Splitter.obj
 0002:0000e19c       $chain$8$?GetFocus@CWnd@@SAPEAV1@XZ 000000014003d19c     Splitter.obj
 0002:0000e19c       $chain$4$?GetFocus@CWnd@@SAPEAV1@XZ 000000014003d19c     Splitter.obj
 0002:0000e1ac       $chain$5$?GetFocus@CWnd@@SAPEAV1@XZ 000000014003d1ac     Splitter.obj
 0002:0000e1c0       $chain$6$?GetFocus@CWnd@@SAPEAV1@XZ 000000014003d1c0     Splitter.obj
 0002:0000e1d4       $chain$7$?GetFocus@CWnd@@SAPEAV1@XZ 000000014003d1d4     Splitter.obj
 0002:0000e1e4       $unwind$?SetActivePane@CSplitterWnd@@UEAAXHHPEAVCWnd@@@Z 000000014003d1e4     Splitter.obj
 0002:0000e1f4       $unwind$?_AfxLayoutRowCol@CSplitterWnd@@QEAAXPEAUCRowColInfo@1@HHH@Z 000000014003d1f4     Splitter.obj
 0002:0000e204       $unwind$?GetSizingParent@CSplitterWnd@@QEAAPEAVCWnd@@XZ 000000014003d204     Splitter.obj
 0002:0000e218       $chain$3$?GetDlgItem@CWnd@@QEAAPEAV1@H@Z 000000014003d218     Splitter.obj
 0002:0000e22c       $chain$4$?GetDlgItem@CWnd@@QEAAPEAV1@H@Z 000000014003d22c     Splitter.obj
 0002:0000e22c       $chain$8$?GetDlgItem@CWnd@@QEAAPEAV1@H@Z 000000014003d22c     Splitter.obj
 0002:0000e23c       $chain$5$?GetDlgItem@CWnd@@QEAAPEAV1@H@Z 000000014003d23c     Splitter.obj
 0002:0000e250       $chain$6$?GetDlgItem@CWnd@@QEAAPEAV1@H@Z 000000014003d250     Splitter.obj
 0002:0000e264       $chain$7$?GetDlgItem@CWnd@@QEAAPEAV1@H@Z 000000014003d264     Splitter.obj
 0002:0000e274       $unwind$?_AfxDeferClientPos@CSplitterWnd@@QEAAXPEAUAFX_SIZEPARENTPARAMS@@PEAVCWnd@@HHHHH@Z 000000014003d274     Splitter.obj
 0002:0000e288       $chain$0$?_AfxDeferClientPos@CSplitterWnd@@QEAAXPEAUAFX_SIZEPARENTPARAMS@@PEAVCWnd@@HHHHH@Z 000000014003d288     Splitter.obj
 0002:0000e29c       $chain$4$?_AfxDeferClientPos@CSplitterWnd@@QEAAXPEAUAFX_SIZEPARENTPARAMS@@PEAVCWnd@@HHHHH@Z 000000014003d29c     Splitter.obj
 0002:0000e2bc       $chain$5$?_AfxDeferClientPos@CSplitterWnd@@QEAAXPEAUAFX_SIZEPARENTPARAMS@@PEAVCWnd@@HHHHH@Z 000000014003d2bc     Splitter.obj
 0002:0000e2d0       $chain$6$?_AfxDeferClientPos@CSplitterWnd@@QEAAXPEAUAFX_SIZEPARENTPARAMS@@PEAVCWnd@@HHHHH@Z 000000014003d2d0     Splitter.obj
 0002:0000e2e0       $chain$7$?_AfxDeferClientPos@CSplitterWnd@@QEAAXPEAUAFX_SIZEPARENTPARAMS@@PEAVCWnd@@HHHHH@Z 000000014003d2e0     Splitter.obj
 0002:0000e2f4       $chain$8$?_AfxDeferClientPos@CSplitterWnd@@QEAAXPEAUAFX_SIZEPARENTPARAMS@@PEAVCWnd@@HHHHH@Z 000000014003d2f4     Splitter.obj
 0002:0000e304       $unwind$?FillSolidRect@?$CDCT@$00@WTL@@QEAAXHHHHK@Z 000000014003d304     Splitter.obj
 0002:0000e318       $unwind$?OnDrawSplitter@CSplitterWnd@@UEAAXPEAVCDCMTL@@W4ESplitType@1@AEBVCRect@WTL@@@Z 000000014003d318     Splitter.obj
 0002:0000e32c       $chain$0$?OnDrawSplitter@CSplitterWnd@@UEAAXPEAVCDCMTL@@W4ESplitType@1@AEBVCRect@WTL@@@Z 000000014003d32c     Splitter.obj
 0002:0000e340       $chain$1$?OnDrawSplitter@CSplitterWnd@@UEAAXPEAVCDCMTL@@W4ESplitType@1@AEBVCRect@WTL@@@Z 000000014003d340     Splitter.obj
 0002:0000e350       $unwind$?DrawAllSplitBars@CSplitterWnd@@UEAAXPEAVCDCMTL@@HH@Z 000000014003d350     Splitter.obj
 0002:0000e370       $unwind$?RecalcLayout@CSplitterWnd@@UEAAXXZ 000000014003d370     Splitter.obj
 0002:0000e384       $chain$5$?RecalcLayout@CSplitterWnd@@UEAAXXZ 000000014003d384     Splitter.obj
 0002:0000e3ac       $chain$6$?RecalcLayout@CSplitterWnd@@UEAAXXZ 000000014003d3ac     Splitter.obj
 0002:0000e3bc       $unwind$?DeleteRow@CSplitterWnd@@UEAAXH@Z 000000014003d3bc     Splitter.obj
 0002:0000e3c8       $chain$1$?DeleteRow@CSplitterWnd@@UEAAXH@Z 000000014003d3c8     Splitter.obj
 0002:0000e3e0       $chain$5$?DeleteRow@CSplitterWnd@@UEAAXH@Z 000000014003d3e0     Splitter.obj
 0002:0000e400       $chain$6$?DeleteRow@CSplitterWnd@@UEAAXH@Z 000000014003d400     Splitter.obj
 0002:0000e410       $chain$7$?DeleteRow@CSplitterWnd@@UEAAXH@Z 000000014003d410     Splitter.obj
 0002:0000e420       $unwind$??0CFrameWnd@@QEAA@XZ 000000014003d420     Splitter.obj
 0002:0000e430       $stateUnwindMap$??0CFrameWnd@@QEAA@XZ 000000014003d430     Splitter.obj
 0002:0000e448       $ip2state$??0CFrameWnd@@QEAA@XZ 000000014003d448     Splitter.obj
 0002:0000e470       $unwind$?UpdateClientEdge@CMDIChildWnd@@QEAAHPEAUtagRECT@@@Z 000000014003d470     Splitter.obj
 0002:0000e484       $chain$0$?UpdateClientEdge@CMDIChildWnd@@QEAAHPEAUtagRECT@@@Z 000000014003d484     Splitter.obj
 0002:0000e498       $chain$1$?UpdateClientEdge@CMDIChildWnd@@QEAAHPEAUtagRECT@@@Z 000000014003d498     Splitter.obj
 0002:0000e4a8       $unwind$?OnWindowPosChanging@CMDIChildWnd@@QEAAXPEAUtagWINDOWPOS@@@Z 000000014003d4a8     Splitter.obj
 0002:0000e4bc       $chain$0$?OnWindowPosChanging@CMDIChildWnd@@QEAAXPEAUtagWINDOWPOS@@@Z 000000014003d4bc     Splitter.obj
 0002:0000e4d0       $chain$1$?OnWindowPosChanging@CMDIChildWnd@@QEAAXPEAUtagWINDOWPOS@@@Z 000000014003d4d0     Splitter.obj
 0002:0000e4e0       $unwind$?_ProcessWindowMessage@CMDIChildWnd@@UEAAHPEAUHWND__@@I_K_JAEA_J@Z 000000014003d4e0     Splitter.obj
 0002:0000e4ec       $chain$0$?_ProcessWindowMessage@CMDIChildWnd@@UEAAHPEAUHWND__@@I_K_JAEA_J@Z 000000014003d4ec     Splitter.obj
 0002:0000e500       $chain$7$?_ProcessWindowMessage@CMDIChildWnd@@UEAAHPEAUHWND__@@I_K_JAEA_J@Z 000000014003d500     Splitter.obj
 0002:0000e528       $chain$13$?_ProcessWindowMessage@CMDIChildWnd@@UEAAHPEAUHWND__@@I_K_JAEA_J@Z 000000014003d528     Splitter.obj
 0002:0000e528       $chain$9$?_ProcessWindowMessage@CMDIChildWnd@@UEAAHPEAUHWND__@@I_K_JAEA_J@Z 000000014003d528     Splitter.obj
 0002:0000e528       $chain$19$?_ProcessWindowMessage@CMDIChildWnd@@UEAAHPEAUHWND__@@I_K_JAEA_J@Z 000000014003d528     Splitter.obj
 0002:0000e528       $chain$15$?_ProcessWindowMessage@CMDIChildWnd@@UEAAHPEAUHWND__@@I_K_JAEA_J@Z 000000014003d528     Splitter.obj
 0002:0000e528       $chain$17$?_ProcessWindowMessage@CMDIChildWnd@@UEAAHPEAUHWND__@@I_K_JAEA_J@Z 000000014003d528     Splitter.obj
 0002:0000e528       $chain$11$?_ProcessWindowMessage@CMDIChildWnd@@UEAAHPEAUHWND__@@I_K_JAEA_J@Z 000000014003d528     Splitter.obj
 0002:0000e528       $chain$21$?_ProcessWindowMessage@CMDIChildWnd@@UEAAHPEAUHWND__@@I_K_JAEA_J@Z 000000014003d528     Splitter.obj
 0002:0000e540       $unwind$?DestroyWindow@CMDIChildWnd@@UEAAHXZ 000000014003d540     Splitter.obj
 0002:0000e554       $chain$0$?PreTranslateMessage@CMDIChildWnd@@UEAAHPEAUtagMSG@@@Z 000000014003d554     Splitter.obj
 0002:0000e568       $chain$2$?PreTranslateMessage@CMDIChildWnd@@UEAAHPEAUtagMSG@@@Z 000000014003d568     Splitter.obj
 0002:0000e57c       $chain$3$?PreTranslateMessage@CMDIChildWnd@@UEAAHPEAUtagMSG@@@Z 000000014003d57c     Splitter.obj
 0002:0000e58c       $unwind$?OnUpdateFrameTitle@CMDIChildWnd@@UEAAXH@Z 000000014003d58c     Splitter.obj
 0002:0000e5a4       $unwind$?MDIGetActive@CMDIFrameWnd@@QEBAPEAVCMDIChildWnd@@PEAH@Z 000000014003d5a4     Splitter.obj
 0002:0000e5b8       $chain$3$?MDIGetActive@CMDIFrameWnd@@QEBAPEAVCMDIChildWnd@@PEAH@Z 000000014003d5b8     Splitter.obj
 0002:0000e5d0       $chain$4$?MDIGetActive@CMDIFrameWnd@@QEBAPEAVCMDIChildWnd@@PEAH@Z 000000014003d5d0     Splitter.obj
 0002:0000e5e4       $chain$5$?MDIGetActive@CMDIFrameWnd@@QEBAPEAVCMDIChildWnd@@PEAH@Z 000000014003d5e4     Splitter.obj
 0002:0000e5e4       $chain$9$?MDIGetActive@CMDIFrameWnd@@QEBAPEAVCMDIChildWnd@@PEAH@Z 000000014003d5e4     Splitter.obj
 0002:0000e5f4       $chain$6$?MDIGetActive@CMDIFrameWnd@@QEBAPEAVCMDIChildWnd@@PEAH@Z 000000014003d5f4     Splitter.obj
 0002:0000e608       $chain$7$?MDIGetActive@CMDIFrameWnd@@QEBAPEAVCMDIChildWnd@@PEAH@Z 000000014003d608     Splitter.obj
 0002:0000e61c       $chain$8$?MDIGetActive@CMDIFrameWnd@@QEBAPEAVCMDIChildWnd@@PEAH@Z 000000014003d61c     Splitter.obj
 0002:0000e62c       $chain$10$?MDIGetActive@CMDIFrameWnd@@QEBAPEAVCMDIChildWnd@@PEAH@Z 000000014003d62c     Splitter.obj
 0002:0000e63c       $unwind$?GetMDIFrame@CMDIChildWnd@@QEAAPEAVCMDIFrameWnd@@XZ 000000014003d63c     Splitter.obj
 0002:0000e654       $chain$3$?GetMDIFrame@CMDIChildWnd@@QEAAPEAVCMDIFrameWnd@@XZ 000000014003d654     Splitter.obj
 0002:0000e668       $chain$8$?GetMDIFrame@CMDIChildWnd@@QEAAPEAVCMDIFrameWnd@@XZ 000000014003d668     Splitter.obj
 0002:0000e668       $chain$4$?GetMDIFrame@CMDIChildWnd@@QEAAPEAVCMDIFrameWnd@@XZ 000000014003d668     Splitter.obj
 0002:0000e678       $chain$5$?GetMDIFrame@CMDIChildWnd@@QEAAPEAVCMDIFrameWnd@@XZ 000000014003d678     Splitter.obj
 0002:0000e68c       $chain$6$?GetMDIFrame@CMDIChildWnd@@QEAAPEAVCMDIFrameWnd@@XZ 000000014003d68c     Splitter.obj
 0002:0000e6a0       $chain$7$?GetMDIFrame@CMDIChildWnd@@QEAAPEAVCMDIFrameWnd@@XZ 000000014003d6a0     Splitter.obj
 0002:0000e6b0       $unwind$?ActivateFrame@CMDIChildWnd@@UEAAXH@Z 000000014003d6b0     Splitter.obj
 0002:0000e6c4       $unwind$?LoadFrame@CMDIChildWnd@@UEAAHIKPEAVCWnd@@PEAUCCreateContext@@@Z 000000014003d6c4     Splitter.obj
 0002:0000e6e4       $stateUnwindMap$?LoadFrame@CMDIChildWnd@@UEAAHIKPEAVCWnd@@PEAUCCreateContext@@@Z 000000014003d6e4     Splitter.obj
 0002:0000e6f8       $ip2state$?LoadFrame@CMDIChildWnd@@UEAAHIKPEAVCWnd@@PEAUCCreateContext@@@Z 000000014003d6f8     Splitter.obj
 0002:0000e720       $unwind$?CloseAllDocuments@CDocTemplate@@QEAAXH@Z 000000014003d720     Splitter.obj
 0002:0000e728       $chain$3$?CloseAllDocuments@CDocTemplate@@QEAAXH@Z 000000014003d728     Splitter.obj
 0002:0000e748       $chain$4$?CloseAllDocuments@CDocTemplate@@QEAAXH@Z 000000014003d748     Splitter.obj
 0002:0000e758       $unwind$?OnClose@CFrameWnd@@QEAAXXZ 000000014003d758     Splitter.obj
 0002:0000e764       $chain$2$?OnClose@CFrameWnd@@QEAAXXZ 000000014003d764     Splitter.obj
 0002:0000e77c       $chain$3$?OnClose@CFrameWnd@@QEAAXXZ 000000014003d77c     Splitter.obj
 0002:0000e78c       $unwind$?DestroyDockBars@CFrameWnd@@QEAAXXZ 000000014003d78c     Splitter.obj
 0002:0000e7b0       $stateUnwindMap$?DestroyDockBars@CFrameWnd@@QEAAXXZ 000000014003d7b0     Splitter.obj
 0002:0000e7c0       $ip2state$?DestroyDockBars@CFrameWnd@@QEAAXXZ 000000014003d7c0     Splitter.obj
 0002:0000e7e8       $chain$0$?OnDestroy@CFrameWnd@@QEAAXXZ 000000014003d7e8     Splitter.obj
 0002:0000e7fc       $chain$1$?OnDestroy@CFrameWnd@@QEAAXXZ 000000014003d7fc     Splitter.obj
 0002:0000e80c       $chain$3$?SetActiveWindow@CWnd@@QEAAPEAV1@XZ 000000014003d80c     Splitter.obj
 0002:0000e820       $chain$8$?SetActiveWindow@CWnd@@QEAAPEAV1@XZ 000000014003d820     Splitter.obj
 0002:0000e820       $chain$4$?SetActiveWindow@CWnd@@QEAAPEAV1@XZ 000000014003d820     Splitter.obj
 0002:0000e830       $chain$5$?SetActiveWindow@CWnd@@QEAAPEAV1@XZ 000000014003d830     Splitter.obj
 0002:0000e844       $chain$6$?SetActiveWindow@CWnd@@QEAAPEAV1@XZ 000000014003d844     Splitter.obj
 0002:0000e858       $chain$7$?SetActiveWindow@CWnd@@QEAAPEAV1@XZ 000000014003d858     Splitter.obj
 0002:0000e868       $unwind$?OnDropFiles@CFrameWnd@@QEAAXPEAUHDROP__@@@Z 000000014003d868     Splitter.obj
 0002:0000e884       $unwind$?OnIdle@CCmdUI@@QEAAHPEAVCCmdTarget@@H@Z 000000014003d884     Splitter.obj
 0002:0000e898       $unwind$?OnInitMenuPopup@CFrameWnd@@QEAAXPEAVCMenuMTL@@IH@Z 000000014003d898     Splitter.obj
 0002:0000e8a4       $chain$2$?OnInitMenuPopup@CFrameWnd@@QEAAXPEAVCMenuMTL@@IH@Z 000000014003d8a4     Splitter.obj
 0002:0000e8c0       $chain$3$?OnInitMenuPopup@CFrameWnd@@QEAAXPEAVCMenuMTL@@IH@Z 000000014003d8c0     Splitter.obj
 0002:0000e8d4       $chain$4$?OnInitMenuPopup@CFrameWnd@@QEAAXPEAVCMenuMTL@@IH@Z 000000014003d8d4     Splitter.obj
 0002:0000e8e4       $chain$5$?OnInitMenuPopup@CFrameWnd@@QEAAXPEAVCMenuMTL@@IH@Z 000000014003d8e4     Splitter.obj
 0002:0000e8f4       $chain$6$?OnInitMenuPopup@CFrameWnd@@QEAAXPEAVCMenuMTL@@IH@Z 000000014003d8f4     Splitter.obj
 0002:0000e910       $unwind$?GetDescendantWindow@CWnd@@QEAAPEAV1@PEAUHWND__@@HH@Z 000000014003d910     Splitter.obj
 0002:0000e924       $unwind$?_AtlGetStringResourceImage@CAfx@@SAPEBUATLSTRINGRESOURCEIMAGE@ATL@@PEAUHINSTANCE__@@PEAUHRSRC__@@I@Z 000000014003d924     Splitter.obj
 0002:0000e938       $unwind$?OnSetMessageString@CFrameWnd@@QEAA_J_K_J@Z 000000014003d938     Splitter.obj
 0002:0000e958       $stateUnwindMap$?MatchDocType@CDocTemplate@@UEAA?AW4Confidence@1@PEBDAEAPEAVCDocument@@@Z 000000014003d958     Viewex.obj
 0002:0000e958       $stateUnwindMap$?OnSetMessageString@CFrameWnd@@QEAA_J_K_J@Z 000000014003d958     Splitter.obj
 0002:0000e958       $stateUnwindMap$?OnInitDialog@CNewTypeDlg@@UEAAHXZ 000000014003d958     Viewex.obj
 0002:0000e960       $ip2state$?OnSetMessageString@CFrameWnd@@QEAA_J_K_J@Z 000000014003d960     Splitter.obj
 0002:0000e978       $unwind$?_ProcessWindowMessage@CFrameWnd@@UEAAHPEAUHWND__@@I_K_JAEA_J@Z 000000014003d978     Splitter.obj
 0002:0000e99c       $stateUnwindMap$?_ProcessWindowMessage@CFrameWnd@@UEAAHPEAUHWND__@@I_K_JAEA_J@Z 000000014003d99c     Splitter.obj
 0002:0000e9e0       $ip2state$?_ProcessWindowMessage@CFrameWnd@@UEAAHPEAUHWND__@@I_K_JAEA_J@Z 000000014003d9e0     Splitter.obj
 0002:0000ea48       $unwind$?CreateView@CFrameWnd@@QEAAPEAVCWnd@@PEAUCCreateContext@@I@Z 000000014003da48     Splitter.obj
 0002:0000ea5c       $chain$0$?CreateView@CFrameWnd@@QEAAPEAVCWnd@@PEAUCCreateContext@@I@Z 000000014003da5c     Splitter.obj
 0002:0000ea70       $chain$3$?CreateView@CFrameWnd@@QEAAPEAVCWnd@@PEAUCCreateContext@@I@Z 000000014003da70     Splitter.obj
 0002:0000ea70       $chain$1$?CreateView@CFrameWnd@@QEAAPEAVCWnd@@PEAUCCreateContext@@I@Z 000000014003da70     Splitter.obj
 0002:0000ea80       $chain$2$?CreateView@CFrameWnd@@QEAAPEAVCWnd@@PEAUCCreateContext@@I@Z 000000014003da80     Splitter.obj
 0002:0000ea94       $unwind$?ShowOwnedWindows@CFrameWnd@@QEAAXH@Z 000000014003da94     Splitter.obj
 0002:0000eaa0       $chain$4$?ShowOwnedWindows@CFrameWnd@@QEAAXH@Z 000000014003daa0     Splitter.obj
 0002:0000eac4       $chain$5$?ShowOwnedWindows@CFrameWnd@@QEAAXH@Z 000000014003dac4     Splitter.obj
 0002:0000ead4       $unwind$?OnSetPreviewMode@CFrameWnd@@UEAAXHPEAUCPrintPreviewState@@@Z 000000014003dad4     Splitter.obj
 0002:0000eae0       $chain$2$?OnSetPreviewMode@CFrameWnd@@UEAAXHPEAUCPrintPreviewState@@@Z 000000014003dae0     Splitter.obj
 0002:0000eafc       $chain$4$?OnSetPreviewMode@CFrameWnd@@UEAAXHPEAUCPrintPreviewState@@@Z 000000014003dafc     Splitter.obj
 0002:0000eb14       $chain$5$?OnSetPreviewMode@CFrameWnd@@UEAAXHPEAUCPrintPreviewState@@@Z 000000014003db14     Splitter.obj
 0002:0000eb24       $chain$6$?OnSetPreviewMode@CFrameWnd@@UEAAXHPEAUCPrintPreviewState@@@Z 000000014003db24     Splitter.obj
 0002:0000eb34       $unwind$?UpdateFrameTitleForDocument@CFrameWnd@@QEAAXPEBD@Z 000000014003db34     Splitter.obj
 0002:0000eb5c       $stateUnwindMap$?UpdateFrameTitleForDocument@CFrameWnd@@QEAAXPEBD@Z 000000014003db5c     Splitter.obj
 0002:0000eb5c       $stateUnwindMap$?SetDefaultTitle@CMultiDocTemplate@@UEAAXPEAVCDocument@@@Z 000000014003db5c     Viewex.obj
 0002:0000eb68       $ip2state$?UpdateFrameTitleForDocument@CFrameWnd@@QEAAXPEBD@Z 000000014003db68     Splitter.obj
 0002:0000eb80       $unwind$?GetIconWndClass@CFrameWnd@@QEAAPEBDKI@Z 000000014003db80     Splitter.obj
 0002:0000eb94       $unwind$?Create@CFrameWnd@@UEAAHPEBD0KAEBUtagRECT@@PEAVCWnd@@0KPEAUCCreateContext@@@Z 000000014003db94     Splitter.obj
 0002:0000ebac       $chain$0$?Create@CFrameWnd@@UEAAHPEBD0KAEBUtagRECT@@PEAVCWnd@@0KPEAUCCreateContext@@@Z 000000014003dbac     Splitter.obj
 0002:0000ebc0       $chain$1$?Create@CFrameWnd@@UEAAHPEBD0KAEBUtagRECT@@PEAVCWnd@@0KPEAUCCreateContext@@@Z 000000014003dbc0     Splitter.obj
 0002:0000ebd0       $unwind$?LoadFrame@CFrameWnd@@UEAAHIKPEAVCWnd@@PEAUCCreateContext@@@Z 000000014003dbd0     Splitter.obj
 0002:0000ebf4       $stateUnwindMap$?LoadFrame@CFrameWnd@@UEAAHIKPEAVCWnd@@PEAUCCreateContext@@@Z 000000014003dbf4     Splitter.obj
 0002:0000ec08       $ip2state$?LoadFrame@CFrameWnd@@UEAAHIKPEAVCWnd@@PEAUCCreateContext@@@Z 000000014003dc08     Splitter.obj
 0002:0000ec30       $unwind$?AfxRepositionWindow@CAfx@@SAXPEAUAFX_SIZEPARENTPARAMS@@PEAUHWND__@@PEBUtagRECT@@@Z 000000014003dc30     Splitter.obj
 0002:0000ec48       $unwind$?RepositionBars@CWnd@@QEAAXIIIIPEAUtagRECT@@PEBU2@H@Z 000000014003dc48     Splitter.obj
 0002:0000ec6c       $unwind$?RecalcLayout@CFrameWnd@@UEAAXH@Z 000000014003dc6c     Splitter.obj
 0002:0000ec7c       $unwind$??1CFrameWnd@@UEAA@XZ 000000014003dc7c     Splitter.obj
 0002:0000ec90       $stateUnwindMap$??1CFrameWnd@@UEAA@XZ 000000014003dc90     Splitter.obj
 0002:0000eca0       $ip2state$??1CFrameWnd@@UEAA@XZ 000000014003dca0     Splitter.obj
 0002:0000ecc0       $unwind$?Create@CMDIChildWnd@@UEAAHPEBD0KAEBUtagRECT@@PEAVCMDIFrameWnd@@PEAUCCreateContext@@@Z 000000014003dcc0     Splitter.obj
 0002:0000ecdc       $chain$0$?OnCreateClient@CMDIFrameWnd@@UEAAHPEAUtagCREATESTRUCTA@@PEAUCCreateContext@@@Z 000000014003dcdc     Stdafx.obj
 0002:0000ecf0       $chain$1$?OnCreateClient@CMDIFrameWnd@@UEAAHPEAUtagCREATESTRUCTA@@PEAUCCreateContext@@@Z 000000014003dcf0     Stdafx.obj
 0002:0000ed00       $unwind$?CreateClient@CMDIFrameWnd@@UEAAHPEAUtagCREATESTRUCTA@@PEAVCMenuMTL@@@Z 000000014003dd00     Stdafx.obj
 0002:0000ed08       $chain$2$?CreateClient@CMDIFrameWnd@@UEAAHPEAUtagCREATESTRUCTA@@PEAVCMenuMTL@@@Z 000000014003dd08     Stdafx.obj
 0002:0000ed24       $chain$3$?CreateClient@CMDIFrameWnd@@UEAAHPEAUtagCREATESTRUCTA@@PEAVCMenuMTL@@@Z 000000014003dd24     Stdafx.obj
 0002:0000ed38       $chain$4$?CreateClient@CMDIFrameWnd@@UEAAHPEAUtagCREATESTRUCTA@@PEAVCMenuMTL@@@Z 000000014003dd38     Stdafx.obj
 0002:0000ed48       $chain$5$?CreateClient@CMDIFrameWnd@@UEAAHPEAUtagCREATESTRUCTA@@PEAVCMenuMTL@@@Z 000000014003dd48     Stdafx.obj
 0002:0000ed58       $unwind$?GetWindowMenuPopup@CMDIFrameWnd@@UEAAPEAUHMENU__@@PEAU2@@Z 000000014003dd58     Stdafx.obj
 0002:0000ed60       $chain$3$?GetWindowMenuPopup@CMDIFrameWnd@@UEAAPEAUHMENU__@@PEAU2@@Z 000000014003dd60     Stdafx.obj
 0002:0000ed80       $chain$5$?GetWindowMenuPopup@CMDIFrameWnd@@UEAAPEAUHMENU__@@PEAU2@@Z 000000014003dd80     Stdafx.obj
 0002:0000eda0       $unwind$?_ProcessWindowMessage@CMDIFrameWnd@@UEAAHPEAUHWND__@@I_K_JAEA_J@Z 000000014003dda0     Stdafx.obj
 0002:0000edc0       $unwind$?OnWindowNew@CMDIFrameWnd@@QEAAXXZ 000000014003ddc0     Stdafx.obj
 0002:0000edd8       $ip2state$?OnWindowNew@CMDIFrameWnd@@QEAAXXZ 000000014003ddd8     Stdafx.obj
 0002:0000edf0       $unwind$?SetCurrentHandles@CWinApp@@QEAAXXZ 000000014003ddf0     Stdafx.obj
 0002:0000ee04       $chain$4$?SetCurrentHandles@CWinApp@@QEAAXXZ 000000014003de04     Stdafx.obj
 0002:0000ee28       $chain$5$?SetCurrentHandles@CWinApp@@QEAAXXZ 000000014003de28     Stdafx.obj
 0002:0000ee38       $unwind$?AfxMessageBox@@YAHIII@Z 000000014003de38     Stdafx.obj
 0002:0000ee4c       $stateUnwindMap$?OnFileOpen@CDocManager@@UEAAXXZ 000000014003de4c     Viewex.obj
 0002:0000ee4c       $stateUnwindMap$?AfxMessageBox@@YAHIII@Z 000000014003de4c     Stdafx.obj
 0002:0000ee58       $ip2state$?AfxMessageBox@@YAHIII@Z 000000014003de58     Stdafx.obj
 0002:0000ee70       $unwind$??__F?wndTop@CWMHnd@@2V1@B@@YAXXZ 000000014003de70     Stdafx.obj
 0002:0000ee80       $stateUnwindMap$??__F?wndTop@CWMHnd@@2V1@B@@YAXXZ 000000014003de80     Stdafx.obj
 0002:0000ee88       $ip2state$??__F?wndTop@CWMHnd@@2V1@B@@YAXXZ 000000014003de88     Stdafx.obj
 0002:0000eea0       $unwind$??__F?wndBottom@CWMHnd@@2V1@B@@YAXXZ 000000014003dea0     Stdafx.obj
 0002:0000eeb0       $stateUnwindMap$??__F?wndBottom@CWMHnd@@2V1@B@@YAXXZ 000000014003deb0     Stdafx.obj
 0002:0000eeb8       $ip2state$??__F?wndBottom@CWMHnd@@2V1@B@@YAXXZ 000000014003deb8     Stdafx.obj
 0002:0000eed0       $unwind$??__F?wndTopMost@CWMHnd@@2V1@B@@YAXXZ 000000014003ded0     Stdafx.obj
 0002:0000eee0       $stateUnwindMap$??__F?wndTopMost@CWMHnd@@2V1@B@@YAXXZ 000000014003dee0     Stdafx.obj
 0002:0000eee8       $ip2state$??__F?wndTopMost@CWMHnd@@2V1@B@@YAXXZ 000000014003dee8     Stdafx.obj
 0002:0000ef00       $unwind$??__F?wndNoTopMost@CWMHnd@@2V1@B@@YAXXZ 000000014003df00     Stdafx.obj
 0002:0000ef10       $stateUnwindMap$??__F?wndNoTopMost@CWMHnd@@2V1@B@@YAXXZ 000000014003df10     Stdafx.obj
 0002:0000ef18       $ip2state$??__F?wndNoTopMost@CWMHnd@@2V1@B@@YAXXZ 000000014003df18     Stdafx.obj
 0002:0000ef30       $unwind$?CreateObject@CFrameWnd@@SAPEAVCObject@@XZ 000000014003df30     Stdafx.obj
 0002:0000ef40       $ip2state$?CreateObject@CFrameWnd@@SAPEAVCObject@@XZ 000000014003df40     Stdafx.obj
 0002:0000ef58       $unwind$?CreateObject@CMDIFrameWnd@@SAPEAVCObject@@XZ 000000014003df58     Stdafx.obj
 0002:0000ef68       $ip2state$?CreateObject@CMDIFrameWnd@@SAPEAVCObject@@XZ 000000014003df68     Stdafx.obj
 0002:0000ef80       $unwind$?CreateObject@CMDIChildWnd@@SAPEAVCObject@@XZ 000000014003df80     Stdafx.obj
 0002:0000ef90       $ip2state$?CreateObject@CMDIChildWnd@@SAPEAVCObject@@XZ 000000014003df90     Stdafx.obj
 0002:0000efa8       $unwind$?InitInstance@CViewExApp@@UEAAHXZ 000000014003dfa8     Viewex.obj
 0002:0000efcc       $stateUnwindMap$?InitInstance@CViewExApp@@UEAAHXZ 000000014003dfcc     Viewex.obj
 0002:0000f080       $ip2state$?InitInstance@CViewExApp@@UEAAHXZ 000000014003e080     Viewex.obj
 0002:0000f188       $unwind$?OnAppAbout@CViewExApp@@QEAAXXZ 000000014003e188     Viewex.obj
 0002:0000f198       $stateUnwindMap$?OnAppAbout@CViewExApp@@QEAAXXZ 000000014003e198     Viewex.obj
 0002:0000f1a0       $ip2state$?OnAppAbout@CViewExApp@@QEAAXXZ 000000014003e1a0     Viewex.obj
 0002:0000f1b8       $chain$0$?CreateNewDocument@CDocTemplate@@UEAAPEAVCDocument@@XZ 000000014003e1b8     Viewex.obj
 0002:0000f1cc       $chain$2$?CreateNewDocument@CDocTemplate@@UEAAPEAVCDocument@@XZ 000000014003e1cc     Viewex.obj
 0002:0000f1e0       $unwind$?CreateNewFrame@CDocTemplate@@UEAAPEAVCFrameWnd@@PEAVCDocument@@PEAV2@@Z 000000014003e1e0     Viewex.obj
 0002:0000f1e8       $chain$0$?CreateNewFrame@CDocTemplate@@UEAAPEAVCFrameWnd@@PEAVCDocument@@PEAV2@@Z 000000014003e1e8     Viewex.obj
 0002:0000f1fc       $chain$2$?CreateNewFrame@CDocTemplate@@UEAAPEAVCFrameWnd@@PEAVCDocument@@PEAV2@@Z 000000014003e1fc     Viewex.obj
 0002:0000f210       $unwind$?InitialUpdateFrame@CFrameWnd@@QEAAXPEAVCDocument@@H@Z 000000014003e210     Viewex.obj
 0002:0000f21c       $chain$0$?InitialUpdateFrame@CFrameWnd@@QEAAXPEAVCDocument@@H@Z 000000014003e21c     Viewex.obj
 0002:0000f230       $chain$1$?InitialUpdateFrame@CFrameWnd@@QEAAXPEAVCDocument@@H@Z 000000014003e230     Viewex.obj
 0002:0000f244       $chain$2$?InitialUpdateFrame@CFrameWnd@@QEAAXPEAVCDocument@@H@Z 000000014003e244     Viewex.obj
 0002:0000f258       $chain$3$?InitialUpdateFrame@CFrameWnd@@QEAAXPEAVCDocument@@H@Z 000000014003e258     Viewex.obj
 0002:0000f268       $chain$4$?InitialUpdateFrame@CFrameWnd@@QEAAXPEAVCDocument@@H@Z 000000014003e268     Viewex.obj
 0002:0000f278       $chain$5$?InitialUpdateFrame@CFrameWnd@@QEAAXPEAVCDocument@@H@Z 000000014003e278     Viewex.obj
 0002:0000f288       $unwind$?OpenDocumentFile@CMultiDocTemplate@@UEAAPEAVCDocument@@PEBDHH@Z 000000014003e288     Viewex.obj
 0002:0000f2ac       $stateUnwindMap$?OpenDocumentFile@CMultiDocTemplate@@UEAAPEAVCDocument@@PEBDHH@Z 000000014003e2ac     Viewex.obj
 0002:0000f2b8       $ip2state$?OpenDocumentFile@CMultiDocTemplate@@UEAAPEAVCDocument@@PEBDHH@Z 000000014003e2b8     Viewex.obj
 0002:0000f2e0       $chain$0$??1CMultiDocTemplate@@UEAA@XZ 000000014003e2e0     Viewex.obj
 0002:0000f2f4       $chain$1$??1CMultiDocTemplate@@UEAA@XZ 000000014003e2f4     Viewex.obj
 0002:0000f304       $unwind$?SetDefaultTitle@CMultiDocTemplate@@UEAAXPEAVCDocument@@@Z 000000014003e304     Viewex.obj
 0002:0000f328       $ip2state$?SetDefaultTitle@CMultiDocTemplate@@UEAAXPEAVCDocument@@@Z 000000014003e328     Viewex.obj
 0002:0000f340       $chain$0$?LoadTemplate@CMultiDocTemplate@@UEAAXXZ 000000014003e340     Viewex.obj
 0002:0000f354       $chain$1$?LoadTemplate@CMultiDocTemplate@@UEAAXXZ 000000014003e354     Viewex.obj
 0002:0000f364       $unwind$??1CCommandLineInfo@@QEAA@XZ 000000014003e364     Viewex.obj
 0002:0000f37c       $stateUnwindMap$??1CCommandLineInfo@@QEAA@XZ 000000014003e37c     Viewex.obj
 0002:0000f398       $ip2state$??1CCommandLineInfo@@QEAA@XZ 000000014003e398     Viewex.obj
 0002:0000f3c0       $unwind$??1CWinApp@@QEAA@XZ 000000014003e3c0     Viewex.obj
 0002:0000f3d4       $stateUnwindMap$??1CWinApp@@QEAA@XZ 000000014003e3d4     Viewex.obj
 0002:0000f3f0       $ip2state$??1CWinApp@@QEAA@XZ 000000014003e3f0     Viewex.obj
 0002:0000f420       $unwind$??0CModuleThreadState@@QEAA@XZ 000000014003e420     Viewex.obj
 0002:0000f434       $stateUnwindMap$??0CModuleThreadState@@QEAA@XZ 000000014003e434     Viewex.obj
 0002:0000f434       $stateUnwindMap$??1CModuleThreadState@@QEAA@XZ 000000014003e434     Viewex.obj
 0002:0000f440       $ip2state$??0CModuleThreadState@@QEAA@XZ 000000014003e440     Viewex.obj
 0002:0000f458       $unwind$??1CModuleThreadState@@QEAA@XZ 000000014003e458     Viewex.obj
 0002:0000f468       $ip2state$??1CModuleThreadState@@QEAA@XZ 000000014003e468     Viewex.obj
 0002:0000f480       $unwind$?OnIdle@CWinApp@@UEAAHH@Z 000000014003e480     Viewex.obj
 0002:0000f498       $unwind$??0CWinApp@@QEAA@XZ 000000014003e498     Viewex.obj
 0002:0000f4a8       $stateUnwindMap$??0CWinApp@@QEAA@XZ 000000014003e4a8     Viewex.obj
 0002:0000f4b0       $ip2state$??0CWinApp@@QEAA@XZ 000000014003e4b0     Viewex.obj
 0002:0000f4c8       $unwind$?AfxStringFromCLSID@CAfx@@SA?AVCString@WTL@@AEBU_GUID@@@Z 000000014003e4c8     Viewex.obj
 0002:0000f4e8       $unwind$?AfxGetInProcServer@CAfx@@SAHPEBDAEAVCString@WTL@@@Z 000000014003e4e8     Viewex.obj
 0002:0000f4f8       $unwind$?GetClassObject@AFX_COM@@QEAAJAEBU_GUID@@0PEAPEAX@Z 000000014003e4f8     Viewex.obj
 0002:0000f510       $stateUnwindMap$?GetClassObject@AFX_COM@@QEAAJAEBU_GUID@@0PEAPEAX@Z 000000014003e510     Viewex.obj
 0002:0000f520       $ip2state$?GetClassObject@AFX_COM@@QEAAJAEBU_GUID@@0PEAPEAX@Z 000000014003e520     Viewex.obj
 0002:0000f548       $unwind$?AfxResolveShortcut@@YAHPEAVCWMHnd@@PEBDPEADH@Z 000000014003e548     Viewex.obj
 0002:0000f568       $ip2state$?AfxResolveShortcut@@YAHPEAVCWMHnd@@PEBDPEADH@Z 000000014003e568     Viewex.obj
 0002:0000f590       $unwind$?AfxComparePath@CAfx@@SAHPEBD0@Z 000000014003e590     Viewex.obj
 0002:0000f5a8       $chain$0$?AfxComparePath@CAfx@@SAHPEBD0@Z 000000014003e5a8     Viewex.obj
 0002:0000f5bc       $chain$1$?AfxComparePath@CAfx@@SAHPEBD0@Z 000000014003e5bc     Viewex.obj
 0002:0000f5cc       $chain$2$?AfxComparePath@CAfx@@SAHPEBD0@Z 000000014003e5cc     Viewex.obj
 0002:0000f5e0       $unwind$?MatchDocType@CDocTemplate@@UEAA?AW4Confidence@1@PEBDAEAPEAVCDocument@@@Z 000000014003e5e0     Viewex.obj
 0002:0000f5f8       $ip2state$?MatchDocType@CDocTemplate@@UEAA?AW4Confidence@1@PEBDAEAPEAVCDocument@@@Z 000000014003e5f8     Viewex.obj
 0002:0000f610       $unwind$?OpenDocumentFile@CDocManager@@QEAAPEAVCDocument@@PEBDH@Z 000000014003e610     Viewex.obj
 0002:0000f62c       $chain$3$?OpenDocumentFile@CDocManager@@QEAAPEAVCDocument@@PEBDH@Z 000000014003e62c     Viewex.obj
 0002:0000f640       $chain$4$?OpenDocumentFile@CDocManager@@QEAAPEAVCDocument@@PEBDH@Z 000000014003e640     Viewex.obj
 0002:0000f650       $unwind$?OnFileOpen@CDocManager@@UEAAXXZ 000000014003e650     Viewex.obj
 0002:0000f660       $ip2state$?OnFileOpen@CDocManager@@UEAAXXZ 000000014003e660     Viewex.obj
 0002:0000f678       $unwind$?OnInitDialog@CNewTypeDlg@@UEAAHXZ 000000014003e678     Viewex.obj
 0002:0000f698       $ip2state$?OnInitDialog@CNewTypeDlg@@UEAAHXZ 000000014003e698     Viewex.obj
 0002:0000f6c0       $unwind$?PreTranslateMessage@CWinApp@@UEAAHPEAUtagMSG@@@Z 000000014003e6c0     Viewex.obj
 0002:0000f6d0       $chain$0$?PreTranslateMessage@CWinApp@@UEAAHPEAUtagMSG@@@Z 000000014003e6d0     Viewex.obj
 0002:0000f6e4       $chain$1$?PreTranslateMessage@CWinApp@@UEAAHPEAUtagMSG@@@Z 000000014003e6e4     Viewex.obj
 0002:0000f6f4       $unwind$?OnFileNew@CDocManager@@UEAAXXZ 000000014003e6f4     Viewex.obj
 0002:0000f708       $stateUnwindMap$?OnFileNew@CDocManager@@UEAAXXZ 000000014003e708     Viewex.obj
 0002:0000f710       $ip2state$?OnFileNew@CDocManager@@UEAAXXZ 000000014003e710     Viewex.obj
 0002:0000f738       $xdatasym                  000000014003e738     LIBCMT:amdsecgs.obj
 0002:0000f73c       $unwind$_onexit            000000014003e73c     LIBCMT:onexit.obj
 0002:0000f76c       $unwind$free               000000014003e76c     LIBCMT:free.obj
 0002:0000f76c       $unwind$__free_lconv_num   000000014003e76c     LIBCMT:free.obj
 0002:0000f778       $xdatasym                  000000014003e778     LIBCMT:memcpy.obj
 0002:0000f77c       $unwind$__report_securityfailure 000000014003e77c     LIBCMT:gs_report.obj
 0002:0000f784       $unwind$_make__time64_t    000000014003e784     LIBCMT:mktime64.obj
 0002:0000f7a0       $unwind$_mbsspn_l          000000014003e7a0     LIBCMT:mbspbrk.obj
 0002:0000f7a0       $unwind$_mbspbrk_l         000000014003e7a0     LIBCMT:mbspbrk.obj
 0002:0000f7a0       $unwind$_mbscspn_l         000000014003e7a0     LIBCMT:mbspbrk.obj
 0002:0000f7ac       $unwind$__tmainCRTStartup  000000014003e7ac     LIBCMT:wincrt0.obj
 0002:0000f7d8       $xdatasym                  000000014003e7d8     LIBCMT:memset.obj
 0002:0000f7dc       $unwind$doexit             000000014003e7dc     LIBCMT:crt0dat.obj
 0002:0000f80c       $unwind$__C_specific_handler 000000014003e80c     LIBCMT:chandler.obj
 0002:0000f828       $unwind$?_Copy_str@exception@std@@AEAAXPEBD@Z 000000014003e828     LIBCMT:stdexcpt.obj
 0002:0000f838       $unwind$_CxxThrowException 000000014003e838     LIBCMT:throw.obj
 0002:0000f848       $xdatasym                  000000014003e848     LIBCMT:strcmp.obj
 0002:0000f84c       $unwind$?_Type_info_dtor@type_info@@CAXPEAV1@@Z 000000014003e84c     LIBCMT:typname.obj
 0002:0000f86c       $unwind$_call_reportfault  000000014003e86c     LIBCMT:invarg.obj
 0002:0000f88c       $unwind$__updatetlocinfo   000000014003e88c     LIBCMT:localref.obj
 0002:0000f8ac       $unwind$__updatetmbcinfo   000000014003e8ac     LIBCMT:mbctype.obj
 0002:0000f8d0       $unwind$_setmbcp           000000014003e8d0     LIBCMT:mbctype.obj
 0002:0000f900       $unwind$_setmbcp_nolock    000000014003e900     LIBCMT:mbctype.obj
 0002:0000f920       $unwind$?setSBUpLow@@YAXPEAUthreadmbcinfostruct@@@Z 000000014003e920     LIBCMT:mbctype.obj
 0002:0000f93c       $unwind$_freefls           000000014003e93c     LIBCMT:tidtable.obj
 0002:0000f970       $unwind$_initptd           000000014003e970     LIBCMT:tidtable.obj
 0002:0000f9a4       $unwind$__isa_available_init 000000014003e9a4     LIBCMT:cpu_disp.obj
 0002:0000f9b8       $unwind$__crtGetShowWindowMode 000000014003e9b8     LIBCMT:winapisupp.obj
 0002:0000f9c0       $unwind$__crtCaptureCurrentContext 000000014003e9c0     LIBCMT:winapisupp.obj
 0002:0000f9cc       $unwind$__crtCapturePreviousContext 000000014003e9cc     LIBCMT:winapisupp.obj
 0002:0000f9d8       $unwind$_localtime64_s     000000014003e9d8     LIBCMT:loctim64.obj
 0002:0000f9e4       $unwind$_isindst           000000014003e9e4     LIBCMT:tzset.obj
 0002:0000fa04       $unwind$__tzset            000000014003ea04     LIBCMT:tzset.obj
 0002:0000fa24       $unwind$_isindst_nolock    000000014003ea24     LIBCMT:tzset.obj
 0002:0000fa3c       $unwind$_tzset_nolock      000000014003ea3c     LIBCMT:tzset.obj
 0002:0000fa78       $unwind$cvtdate            000000014003ea78     LIBCMT:tzset.obj
 0002:0000fa8c       $unwind$strchr             000000014003ea8c     LIBCMT:strchr.obj
 0002:0000fa8c       $unwind$strrchr            000000014003ea8c     LIBCMT:strchr.obj
 0002:0000fa94       $unwind$?terminate@@YAXXZ  000000014003ea94     LIBCMT:hooks.obj
 0002:0000fab4       $unwind$?_inconsistency@@YAXXZ 000000014003eab4     LIBCMT:hooks.obj
 0002:0000fad8       $xdatasym                  000000014003ead8     LIBCMT:strlen.obj
 0002:0000fadc       $unwind$_ioinit            000000014003eadc     LIBCMT:ioinit.obj
 0002:0000fb24       $unwind$_setargv           000000014003eb24     LIBCMT:stdargv.obj
 0002:0000fb34       $unwind$parse_cmdline      000000014003eb34     LIBCMT:stdargv.obj
 0002:0000fb34       $unwind$?_GetRangeOfTrysToCheck@@YAPEBU_s_TryBlockMapEntry@@PEA_KPEBU_s_FuncInfo@@HHPEAI2PEAU_xDISPATCHER_CONTEXT@@@Z 000000014003eb34     LIBCMT:stdargv.obj
 0002:0000fb50       $unwind$_NMSG_WRITE        000000014003eb50     LIBCMT:crt0msg.obj
 0002:0000fb74       $unwind$__security_init_cookie 000000014003eb74     LIBCMT:gs_support.obj
 0002:0000fb80       $unwind$_mtinitlocknum     000000014003eb80     LIBCMT:mlock.obj
 0002:0000fba8       $unwind$_IsNonwritableInCurrentImage 000000014003eba8     LIBCMT:pesect.obj
 0002:0000fbcc       $unwind$raise              000000014003ebcc     LIBCMT:winsig.obj
 0002:0000fc00       $xdatasym                  000000014003ec00     LIBCMT:jmpuwind.obj
 0002:0000fc14       $unwind$__free_lc_time     000000014003ec14     LIBCMT:initmon.obj
 0002:0000fc14       $unwind$__free_lconv_mon   000000014003ec14     LIBCMT:initmon.obj
 0002:0000fc1c       $unwind$__crtLCMapStringA  000000014003ec1c     LIBCMT:a_map.obj
 0002:0000fc2c       $unwind$?__crtLCMapStringA_stat@@YAHPEAUlocaleinfo_struct@@PEB_WKPEBDHPEADHHH@Z 000000014003ec2c     LIBCMT:a_map.obj
 0002:0000fc54       $unwind$__crtCompareStringA 000000014003ec54     LIBCMT:a_str.obj
 0002:0000fc54       $unwind$__crtGetStringTypeA 000000014003ec54     LIBCMT:a_str.obj
 0002:0000fc64       $unwind$?__crtGetStringTypeA_stat@@YAHPEAUlocaleinfo_struct@@KPEBDHPEAGHH@Z 000000014003ec64     LIBCMT:a_str.obj
 0002:0000fc8c       $unwind$__crtLCMapStringEx 000000014003ec8c     LIBCMT:winapinls.obj
 0002:0000fc8c       $unwind$__crtCompareStringEx 000000014003ec8c     LIBCMT:winapinls.obj
 0002:0000fc9c       $unwind$__crtMessageBoxW   000000014003ec9c     LIBCMT:crtmboxw.obj
 0002:0000fcb8       $unwind$flsall             000000014003ecb8     LIBCMT:fflush.obj
 0002:0000fcf8       $unwind$_locterm           000000014003ecf8     LIBCMT:wsetloca.obj
 0002:0000fd18       $xdatasym                  000000014003ed18     LIBCMT:chkstk.obj
 0002:0000fd20       $unwind$?strtoxl@@YAKPEAUlocaleinfo_struct@@PEBDPEAPEBDHH@Z 000000014003ed20     LIBCMT:strtol.obj
 0002:0000fd38       $unwind$__wtomb_environ    000000014003ed38     LIBCMT:wtombenv.obj
 0002:0000fd48       $unwind$_mbsnbicoll_l      000000014003ed48     LIBCMT:mbsnbico.obj
 0002:0000fd60       $unwind$_fcloseall         000000014003ed60     LIBCMT:closeall.obj
 0002:0000fd88       $unwind$_commit            000000014003ed88     LIBCMT:commit.obj
 0002:0000fdb0       $unwind$_write             000000014003edb0     LIBCMT:write.obj
 0002:0000fddc       $unwind$_write_nolock      000000014003eddc     LIBCMT:write.obj
 0002:0000fe00       $xdatasym                  000000014003ee00     LIBCMT:memcmp.obj
 0002:0000fe04       $unwind$_isctype_l         000000014003ee04     LIBCMT:isctype.obj
 0002:0000fe14       $unwind$_atodbl_l          000000014003ee14     LIBCMT:atodbl.obj
 0002:0000fe28       $unwind$__crt_atoflt_l     000000014003ee28     LIBCMT:atodbl.obj
 0002:0000fe3c       $unwind$__crtsetenv        000000014003ee3c     LIBCMT:setenv.obj
 0002:0000fe58       $unwind$_strnicoll_l       000000014003ee58     LIBCMT:strnicol.obj
 0002:0000fe6c       $unwind$?__crtCompareStringA_stat@@YAHPEAUlocaleinfo_struct@@PEB_WKPEBDH2HH@Z 000000014003ee6c     LIBCMT:a_cmp.obj
 0002:0000fe8c       $unwind$fclose             000000014003ee8c     LIBCMT:fclose.obj
 0002:0000feb0       $unwind$_free_osfhnd       000000014003eeb0     LIBCMT:osfinfo.obj
 0002:0000fec0       $unwind$__lock_fhandle     000000014003eec0     LIBCMT:osfinfo.obj
 0002:0000feec       $unwind$_mbtowc_l          000000014003eeec     LIBCMT:mbtowc.obj
 0002:0000ff04       $unwind$_putwch_nolock     000000014003ef04     LIBCMT:putwch.obj
 0002:0000ff04       $unwind$__report_gsfailure 000000014003ef04     LIBCMT:putwch.obj
 0002:0000ff0c       $unwind$_ld12tof           000000014003ef0c     LIBCMT:intrncvt.obj
 0002:0000ff0c       $unwind$_ld12tod           000000014003ef0c     LIBCMT:intrncvt.obj
 0002:0000ff30       $unwind$__strgtold12_l     000000014003ef30     LIBCMT:strgtold.obj
 0002:0000ff54       $unwind$_cftoe2_l          000000014003ef54     LIBCMT:cvt.obj
 0002:0000ff70       $unwind$_cftoe_l           000000014003ef70     LIBCMT:cvt.obj
 0002:0000ff88       $unwind$_cftoa_l           000000014003ef88     LIBCMT:cvt.obj
 0002:0000ffa4       $unwind$_cftof2_l          000000014003efa4     LIBCMT:cvt.obj
 0002:0000ffa4       $unwind$__crtGetEnvironmentStringsA 000000014003efa4     LIBCMT:cvt.obj
 0002:0000ffbc       $unwind$_cftof_l           000000014003efbc     LIBCMT:cvt.obj
 0002:0000ffd4       $unwind$_cftog_l           000000014003efd4     LIBCMT:cvt.obj
 0002:0000ffec       $unwind$_close             000000014003efec     LIBCMT:close.obj
 0002:00010014       $unwind$__initconout       000000014003f014     LIBCMT:initcon.obj
 0002:00010014       $unwind$_cfltcvt           000000014003f014     LIBCMT:initcon.obj
 0002:0001001c       $unwind$__mtold12          000000014003f01c     LIBCMT:mantold.obj
 0002:00010034       $unwind$_tolower_l         000000014003f034     LIBCMT:tolower.obj
 0002:00010044       $unwind$_fltout2           000000014003f044     LIBCMT:cfout.obj
 0002:0001005c       $unwind$__dtold            000000014003f05c     LIBCMT:cfout.obj
 0002:00010064       $unwind$$I10_OUTPUT        000000014003f064     LIBCMT:x10fout.obj
 0002:00010088       $unwind$?__FrameUnwindToEmptyState@@YAXPEA_KPEAU_xDISPATCHER_CONTEXT@@PEBU_s_FuncInfo@@@Z 000000014003f088     LIBCMT:trnsctrl.obj
 0002:0001009c       $unwind$_UnwindNestedFrames 000000014003f09c     LIBCMT:trnsctrl.obj
 0002:000100b0       $unwind$_CallSETranslator  000000014003f0b0     LIBCMT:trnsctrl.obj
 0002:000100d0       $unwind$_CallSETranslator$filt$0 000000014003f0d0     LIBCMT:trnsctrl.obj
 0002:000100d0       $unwind$_tzset_nolock$fin$0 000000014003f0d0     LIBCMT:trnsctrl.obj
 0002:000100d8       $unwind$__CxxFrameHandler3 000000014003f0d8     LIBCMT:trnsctrl.obj
 0002:000100e8       $unwind$?__SehTransFilter@@YAHPEAU_EXCEPTION_POINTERS@@PEAUEHExceptionRecord@@PEA_KPEAU_CONTEXT@@PEAU_xDISPATCHER_CONTEXT@@PEBU_s_FuncInfo@@PEAH@Z 000000014003f0e8     LIBCMT:trnsctrl.obj
 0002:000100e8       $unwind$_strnicmp_l        000000014003f0e8     LIBCMT:trnsctrl.obj
 0002:000100fc       $unwind$_malloc_crt        000000014003f0fc     LIBCMT:gshandlereh.obj
 0002:000100fc       $unwind$_realloc_crt       000000014003f0fc     LIBCMT:gshandlereh.obj
 0002:000100fc       $unwind$_calloc_crt        000000014003f0fc     LIBCMT:gshandlereh.obj
 0002:000100fc       $unwind$GetTableIndexFromLocaleName 000000014003f0fc     LIBCMT:gshandlereh.obj
 0002:000100fc       $unwind$__GSHandlerCheck_EH 000000014003f0fc     LIBCMT:gshandlereh.obj
 0002:000100fc       $unwind$__TypeMatch        000000014003f0fc     LIBCMT:gshandlereh.obj
 0002:00010114       $unwind$__CxxCallCatchBlock 000000014003f114     LIBCMT:frame.obj
 0002:00010154       $unwind$__FrameUnwindToState 000000014003f154     LIBCMT:frame.obj
 0002:00010190       $unwind$?FindHandler@@YAXPEAUEHExceptionRecord@@PEA_KPEAU_CONTEXT@@PEAU_xDISPATCHER_CONTEXT@@PEBU_s_FuncInfo@@EH1@Z 000000014003f190     LIBCMT:frame.obj
 0002:000101ac       $unwind$?CatchIt@@YAXPEAUEHExceptionRecord@@PEA_KPEAU_CONTEXT@@PEAU_xDISPATCHER_CONTEXT@@PEBU_s_FuncInfo@@PEBU_s_HandlerType@@PEBU_s_CatchableType@@PEBU_s_TryBlockMapEntry@@H1EE@Z 000000014003f1ac     LIBCMT:frame.obj
 0002:000101c4       $unwind$__BuildCatchObject 000000014003f1c4     LIBCMT:frame.obj
 0002:000101f0       $unwind$?FindHandlerForForeignException@@YAXPEAUEHExceptionRecord@@PEA_KPEAU_CONTEXT@@PEAU_xDISPATCHER_CONTEXT@@PEBU_s_FuncInfo@@HH1@Z 000000014003f1f0     LIBCMT:frame.obj
 0002:00010208       $unwind$__DestructExceptionObject 000000014003f208     LIBCMT:frame.obj
 0002:00010228       $unwind$?IsInExceptionSpec@@YAEPEAUEHExceptionRecord@@PEBU_s_ESTypeList@@@Z 000000014003f228     LIBCMT:frame.obj
 0002:00010244       $unwind$__InternalCxxFrameHandler 000000014003f244     LIBCMT:frame.obj
 0002:0001025c       $unwind$__BuildCatchObjectHelper 000000014003f25c     LIBCMT:frame.obj
 0002:00010290       $xdatasym                  000000014003f290     LIBCMT:handlers.obj
 0002:000112f4       .idata$6                   00000001400402f4     kernel32:KERNEL32.dll
 0002:00011b48       .idata$6                   0000000140040b48     user32:USER32.dll
 0002:00011b96       .idata$6                   0000000140040b96     advapi32:ADVAPI32.dll
 0002:00011bec       .idata$6                   0000000140040bec     ole32:ole32.dll
 0002:00011c28       .idata$6                   0000000140040c28     shell32:SHELL32.dll
 0002:00011c96       .idata$6                   0000000140040c96     shlwapi:SHLWAPI.dll
 0002:00011dfc       .idata$6                   0000000140040dfc     gdi32:GDI32.dll
 0002:00011e1e       .idata$6                   0000000140040e1e     comctl32:COMCTL32.dll
 0002:00011e64       .idata$6                   0000000140040e64     comdlg32:COMDLG32.dll
 0003:00000010       errtable                   0000000140042010     LIBCMT:dosmap.obj
 0003:00000178       ErrnoNoMem                 0000000140042178     LIBCMT:dosmap.obj
 0003:0000017c       DoserrorNoMem              000000014004217c     LIBCMT:dosmap.obj
 0003:000005b8       __rgctypeflag              00000001400425b8     LIBCMT:mbctype.obj
 0003:000005c0       __rgcode_page_info         00000001400425c0     LIBCMT:mbctype.obj
 0003:00000b14       ?isPackaged@?1??__crtIsPackagedApp@@9@9 0000000140042b14     LIBCMT:winapisupp.obj
 0003:00000b30       tzstd                      0000000140042b30     LIBCMT:timeset.obj
 0003:00000b70       tzdst                      0000000140042b70     LIBCMT:timeset.obj
 0003:00000bc0       dststart                   0000000140042bc0     LIBCMT:tzset.obj
 0003:00000bd0       dstend                     0000000140042bd0     LIBCMT:tzset.obj
 0003:00000cb0       _locktable                 0000000140042cb0     LIBCMT:mlock.obj
 0003:000013c0       _ctype_loc_style           00000001400433c0     LIBCMT:wsetloca.obj
 0003:000013e8       DoubleFormat               00000001400433e8     LIBCMT:intrncvt.obj
 0003:00001400       FloatFormat                0000000140043400     LIBCMT:intrncvt.obj
 0003:00002280       GS_ExceptionRecord         0000000140044280     LIBCMT:gs_report.obj
 0003:00002320       GS_ContextRecord           0000000140044320     LIBCMT:gs_report.obj
 0003:000027f0       DebuggerWasPresent         00000001400447f0     LIBCMT:gs_report.obj
 0003:00002870       __type_info_root_node      0000000140044870     LIBCMT:typname.obj
 0003:000028b0       fSystemSet                 00000001400448b0     LIBCMT:mbctype.obj
 0003:000028c0       lastTZ                     00000001400448c0     LIBCMT:tzset.obj
 0003:000028c8       ?first_time@?1??__tzset@@9@9 00000001400448c8     LIBCMT:tzset.obj
 0003:000028cc       tzapiused                  00000001400448cc     LIBCMT:tzset.obj
 0003:000028d0       tzinfo                     00000001400448d0     LIBCMT:tzset.obj
 0003:00002b90       ?_pgmname@?1??_setargv@@9@9 0000000140044b90     LIBCMT:stdargv.obj
 0003:00002cb0       ?outmsg@?8??_NMSG_WRITE@@9@9 0000000140044cb0     LIBCMT:crt0msg.obj
 0003:000032e0       lclcritsects               00000001400452e0     LIBCMT:mlock.obj
 0003:00003510       ctrlc_action               0000000140045510     LIBCMT:winsig.obj
 0003:00003518       ctrlbreak_action           0000000140045518     LIBCMT:winsig.obj
 0003:00003520       abort_action               0000000140045520     LIBCMT:winsig.obj
 0003:00003528       term_action                0000000140045528     LIBCMT:winsig.obj
 0003:00003530       ConsoleCtrlHandler_Installed 0000000140045530     LIBCMT:winsig.obj
 0003:00003538       g_pfnRtlGenRandom          0000000140045538     LIBCMT:rand_s.obj
 0003:000035a0       heap                       00000001400455a0     LIBCMT:undname.obj
 0003:000035d0       __crtCallProc              00000001400455d0     LIBCMT:winapinls.obj
 0003:000035e0       ?pfnMessageBox@?1??__crtMessageBoxW@@9@9 00000001400455e0     LIBCMT:crtmboxw.obj
 0003:000035e8       ?pfnGetActiveWindow@?1??__crtMessageBoxW@@9@9 00000001400455e8     LIBCMT:crtmboxw.obj
 0003:000035f0       ?pfnGetLastActivePopup@?1??__crtMessageBoxW@@9@9 00000001400455f0     LIBCMT:crtmboxw.obj
 0003:000035f8       ?pfnGetProcessWindowStation@?1??__crtMessageBoxW@@9@9 00000001400455f8     LIBCMT:crtmboxw.obj
 0003:00003600       ?pfnGetUserObjectInformation@?1??__crtMessageBoxW@@9@9 0000000140045600     LIBCMT:crtmboxw.obj
 0003:0000374c       atlTraceUI                 000000014004574c     Stdafx.obj
 0004:00000000       $pdata$??__E_AtlWinModule@ATL@@YAXXZ 0000000140047000     Enterdlg.obj
 0004:0000000c       $pdata$??__EtheApp@@YAXXZ  000000014004700c     Viewex.obj
 0004:00000018       $pdata$??__E_AtlBaseModule@ATL@@YAXXZ 0000000140047018     atls:atlbase.obj
 0004:00000024       $pdata$??_GCEnterDlg@@UEAAPEAXI@Z 0000000140047024     Enterdlg.obj
 0004:00000030       $pdata$??1CEnterDlg@@UEAA@XZ 0000000140047030     Enterdlg.obj
 0004:0000003c       $pdata$?GetBuffer@CString@WTL@@QEAAPEADH@Z 000000014004703c     Enterdlg.obj
 0004:00000048       $pdata$?CopyBeforeWrite@CString@WTL@@IEAAXXZ 0000000140047048     Enterdlg.obj
 0004:00000054       $pdata$?DDX_Text@@YAXPEAVCDataExchange@@HAEAVCString@WTL@@@Z 0000000140047054     Enterdlg.obj
 0004:00000060       $pdata$?AssignCopy@CString@WTL@@IEAAXHPEBD@Z 0000000140047060     Enterdlg.obj
 0004:0000006c       $pdata$0$?AssignCopy@CString@WTL@@IEAAXHPEBD@Z 000000014004706c     Enterdlg.obj
 0004:00000078       $pdata$1$?AssignCopy@CString@WTL@@IEAAXHPEBD@Z 0000000140047078     Enterdlg.obj
 0004:00000084       $pdata$2$?AssignCopy@CString@WTL@@IEAAXHPEBD@Z 0000000140047084     Enterdlg.obj
 0004:00000090       $pdata$?_ProcessWindowMessage@CDialog@@UEAAHPEAUHWND__@@I_K_JAEA_J@Z 0000000140047090     Enterdlg.obj
 0004:0000009c       $pdata$?OnCmdMsg@CDialog@@UEAAHIHPEAXPEAUAFX_CMDHANDLERINFO@@@Z 000000014004709c     Enterdlg.obj
 0004:000000a8       $pdata$??_GCNewTypeDlg@@UEAAPEAXI@Z 00000001400470a8     Viewex.obj
 0004:000000a8       $pdata$??_GCDialog@@UEAAPEAXI@Z 00000001400470a8     Enterdlg.obj
 0004:000000a8       $pdata$??_GCWnd@@UEAAPEAXI@Z 00000001400470a8     Enterdlg.obj
 0004:000000b4       $pdata$?PreTranslateMessage@CDialog@@UEAAHPEAUtagMSG@@@Z 00000001400470b4     Enterdlg.obj
 0004:000000c0       $pdata$?OnOK@CDialog@@UEAAXXZ 00000001400470c0     Enterdlg.obj
 0004:000000cc       $pdata$?OnCancel@CDialog@@UEAAXXZ 00000001400470cc     Enterdlg.obj
 0004:000000d8       $pdata$?CreateIndirect@CDialog@@UEAAHPEAXPEAVCWnd@@PEAUHINSTANCE__@@@Z 00000001400470d8     Enterdlg.obj
 0004:000000e4       $pdata$?classHandleFuncCDialog@CDialog@@SAPEAXPEAX0@Z 00000001400470e4     Enterdlg.obj
 0004:000000f0       $pdata$?WindowProc@CWnd@@UEAA_JI_K_J@Z 00000001400470f0     Enterdlg.obj
 0004:000000fc       $pdata$?_AfxTopChildWindowFromPoint@CWnd@@SAPEAUHWND__@@PEAU2@UtagPOINT@@@Z 00000001400470fc     Enterdlg.obj
 0004:00000108       $pdata$?OnToolHitTest@CWnd@@UEBA_JVCPoint@WTL@@PEAUtagTOOLINFOA@@@Z 0000000140047108     Enterdlg.obj
 0004:00000114       $pdata$0$?OnToolHitTest@CWnd@@UEBA_JVCPoint@WTL@@PEAUtagTOOLINFOA@@@Z 0000000140047114     Enterdlg.obj
 0004:00000120       $pdata$1$?OnToolHitTest@CWnd@@UEBA_JVCPoint@WTL@@PEAUtagTOOLINFOA@@@Z 0000000140047120     Enterdlg.obj
 0004:0000012c       $pdata$?GetParent@CWnd@@QEAAPEAV1@XZ 000000014004712c     Enterdlg.obj
 0004:00000138       $pdata$3$?GetParent@CWnd@@QEAAPEAV1@XZ 0000000140047138     Enterdlg.obj
 0004:00000144       $pdata$4$?GetParent@CWnd@@QEAAPEAV1@XZ 0000000140047144     Enterdlg.obj
 0004:00000150       $pdata$5$?GetParent@CWnd@@QEAAPEAV1@XZ 0000000140047150     Enterdlg.obj
 0004:0000015c       $pdata$6$?GetParent@CWnd@@QEAAPEAV1@XZ 000000014004715c     Enterdlg.obj
 0004:00000168       $pdata$7$?GetParent@CWnd@@QEAAPEAV1@XZ 0000000140047168     Enterdlg.obj
 0004:00000174       $pdata$8$?GetParent@CWnd@@QEAAPEAV1@XZ 0000000140047174     Enterdlg.obj
 0004:00000180       $pdata$?Enable@CCmdUI@@UEAAXH@Z 0000000140047180     Enterdlg.obj
 0004:0000018c       $pdata$0$?Enable@CCmdUI@@UEAAXH@Z 000000014004718c     Enterdlg.obj
 0004:00000198       $pdata$1$?Enable@CCmdUI@@UEAAXH@Z 0000000140047198     Enterdlg.obj
 0004:000001a4       $pdata$?SetCheck@CCmdUI@@UEAAXH@Z 00000001400471a4     Enterdlg.obj
 0004:000001b0       $pdata$?SetRadio@CCmdUI@@UEAAXH@Z 00000001400471b0     Enterdlg.obj
 0004:000001bc       $pdata$?AfxSetWindowText@CAfx@@SAXPEAUHWND__@@PEBD@Z 00000001400471bc     Enterdlg.obj
 0004:000001c8       $pdata$?SetText@CCmdUI@@UEAAXPEBD@Z 00000001400471c8     Enterdlg.obj
 0004:000001d4       $pdata$?OnCommand@CWnd@@UEAAH_K_J@Z 00000001400471d4     Enterdlg.obj
 0004:000001e0       $pdata$??_GCDCMTL@@UEAAPEAXI@Z 00000001400471e0     Enterdlg.obj
 0004:000001ec       $pdata$?SaveDC@CDCMTL@@UEAAHXZ 00000001400471ec     Enterdlg.obj
 0004:000001f8       $pdata$?RestoreDC@CDCMTL@@UEAAHH@Z 00000001400471f8     Enterdlg.obj
 0004:00000204       $pdata$?RemoveHandle@?$CHandleList@PEAUHDC__@@VCDCMTL@@PEAUHWND__@@@@QEAAPEAUHDC__@@QEAU2@@Z 0000000140047204     Enterdlg.obj
 0004:00000204       $pdata$?RemoveHandle@?$CHandleList@PEAXVCGdiObject@@PEAUHWND__@@@@QEAAPEAXQEAX@Z 0000000140047204     Inputvw.obj
 0004:00000204       $pdata$?RemoveHandle@?$CHandleList@PEAUHMENU__@@VCMenuMTL@@PEAUHWND__@@@@QEAAPEAUHMENU__@@QEAU2@@Z 0000000140047204     Enterdlg.obj
 0004:00000210       $pdata$??1CDCMTL@@UEAA@XZ  0000000140047210     Enterdlg.obj
 0004:0000021c       $pdata$?UnsubclassWindow@CWMHnd@@QEAAPEAUHWND__@@XZ 000000014004721c     Enterdlg.obj
 0004:00000228       $pdata$?OnNcDestroy@CWnd@@QEAAXXZ 0000000140047228     Enterdlg.obj
 0004:00000234       $pdata$?_ProcessWindowMessage@CWnd@@UEAAHPEAUHWND__@@I_K_JAEA_J@Z 0000000140047234     Enterdlg.obj
 0004:00000240       $pdata$?OnWndMsg@CWnd@@UEAAHI_K_JPEA_J@Z 0000000140047240     Enterdlg.obj
 0004:0000024c       $pdata$?ReflectChildNotify@CWnd@@QEAAHI_K_JPEA_J@Z 000000014004724c     Enterdlg.obj
 0004:00000258       $pdata$0$?ReflectChildNotify@CWnd@@QEAAHI_K_JPEA_J@Z 0000000140047258     Enterdlg.obj
 0004:00000264       $pdata$1$?ReflectChildNotify@CWnd@@QEAAHI_K_JPEA_J@Z 0000000140047264     Enterdlg.obj
 0004:00000270       $pdata$?OnNotify@CWnd@@UEAAH_K_JPEA_J@Z 0000000140047270     Enterdlg.obj
 0004:0000027c       $pdata$?Create@CWnd@@UEAAHPEBD0KAEBUtagRECT@@PEAV1@IPEAUCCreateContext@@@Z 000000014004727c     Enterdlg.obj
 0004:00000288       $pdata$?CreateEx@CWnd@@UEAAHKPEBD0KHHHHPEAUHWND__@@PEAUHMENU__@@PEAX@Z 0000000140047288     Enterdlg.obj
 0004:00000294       $pdata$1$?CreateEx@CWnd@@UEAAHKPEBD0KHHHHPEAUHWND__@@PEAUHMENU__@@PEAX@Z 0000000140047294     Enterdlg.obj
 0004:000002a0       $pdata$2$?CreateEx@CWnd@@UEAAHKPEBD0KHHHHPEAUHWND__@@PEAUHMENU__@@PEAX@Z 00000001400472a0     Enterdlg.obj
 0004:000002ac       $pdata$?PreCreateWindow@CWnd@@UEAAHAEAUtagCREATESTRUCTA@@@Z 00000001400472ac     Enterdlg.obj
 0004:000002b8       $pdata$??1CWnd@@UEAA@XZ    00000001400472b8     Enterdlg.obj
 0004:000002c4       $pdata$?classHandleFuncCWnd@CWnd@@SAPEAXPEAX0@Z 00000001400472c4     Enterdlg.obj
 0004:000002d0       $pdata$?GetActiveWindow@CWnd@@SAPEAV1@XZ 00000001400472d0     Enterdlg.obj
 0004:000002dc       $pdata$3$?GetActiveWindow@CWnd@@SAPEAV1@XZ 00000001400472dc     Enterdlg.obj
 0004:000002e8       $pdata$4$?GetActiveWindow@CWnd@@SAPEAV1@XZ 00000001400472e8     Enterdlg.obj
 0004:000002f4       $pdata$5$?GetActiveWindow@CWnd@@SAPEAV1@XZ 00000001400472f4     Enterdlg.obj
 0004:00000300       $pdata$6$?GetActiveWindow@CWnd@@SAPEAV1@XZ 0000000140047300     Enterdlg.obj
 0004:0000030c       $pdata$7$?GetActiveWindow@CWnd@@SAPEAV1@XZ 000000014004730c     Enterdlg.obj
 0004:00000318       $pdata$8$?GetActiveWindow@CWnd@@SAPEAV1@XZ 0000000140047318     Enterdlg.obj
 0004:00000324       $pdata$?AllocBuffer@CString@WTL@@IEAAHH@Z 0000000140047324     Enterdlg.obj
 0004:00000330       $pdata$?ConcatCopy@CString@WTL@@IEAAHHPEBDH0@Z 0000000140047330     Enterdlg.obj
 0004:0000033c       $pdata$0$?ConcatCopy@CString@WTL@@IEAAHHPEBDH0@Z 000000014004733c     Enterdlg.obj
 0004:00000348       $pdata$1$?ConcatCopy@CString@WTL@@IEAAHHPEBDH0@Z 0000000140047348     Enterdlg.obj
 0004:00000354       $pdata$2$?ConcatCopy@CString@WTL@@IEAAHHPEBDH0@Z 0000000140047354     Enterdlg.obj
 0004:00000360       $pdata$3$?ConcatCopy@CString@WTL@@IEAAHHPEBDH0@Z 0000000140047360     Enterdlg.obj
 0004:0000036c       $pdata$?memcpy_x@SecureHelper@WTL@@YAXPEAX_KPEBX1@Z 000000014004736c     Enterdlg.obj
 0004:00000378       $pdata$?ConcatInPlace@CString@WTL@@IEAAXHPEBD@Z 0000000140047378     Enterdlg.obj
 0004:00000384       $pdata$?AfxEndDeferRegisterClass@CAfx@@SAHJ@Z 0000000140047384     Enterdlg.obj
 0004:00000390       $pdata$2$?AfxEndDeferRegisterClass@CAfx@@SAHJ@Z 0000000140047390     Enterdlg.obj
 0004:0000039c       $pdata$3$?AfxEndDeferRegisterClass@CAfx@@SAHJ@Z 000000014004739c     Enterdlg.obj
 0004:000003a8       $pdata$4$?AfxEndDeferRegisterClass@CAfx@@SAHJ@Z 00000001400473a8     Enterdlg.obj
 0004:000003b4       $pdata$5$?AfxEndDeferRegisterClass@CAfx@@SAHJ@Z 00000001400473b4     Enterdlg.obj
 0004:000003c0       $pdata$?AtlThrowImpl@ATL@@YAXJ@Z 00000001400473c0     Enterdlg.obj
 0004:000003cc       $pdata$?AtlWinModuleExtractCreateWndData@ATL@@YAPEAXPEAU_ATL_WIN_MODULE70@1@@Z 00000001400473cc     Enterdlg.obj
 0004:000003d8       $pdata$?AtlWinModuleTerm@ATL@@YAJPEAU_ATL_WIN_MODULE70@1@PEAUHINSTANCE__@@@Z 00000001400473d8     Enterdlg.obj
 0004:000003e4       $pdata$2$?AtlWinModuleTerm@ATL@@YAJPEAU_ATL_WIN_MODULE70@1@PEAUHINSTANCE__@@@Z 00000001400473e4     Enterdlg.obj
 0004:000003f0       $pdata$3$?AtlWinModuleTerm@ATL@@YAJPEAU_ATL_WIN_MODULE70@1@PEAUHINSTANCE__@@@Z 00000001400473f0     Enterdlg.obj
 0004:000003fc       $pdata$4$?AtlWinModuleTerm@ATL@@YAJPEAU_ATL_WIN_MODULE70@1@PEAUHINSTANCE__@@@Z 00000001400473fc     Enterdlg.obj
 0004:00000408       $pdata$??0CAtlWinModule@ATL@@QEAA@XZ 0000000140047408     Enterdlg.obj
 0004:00000414       $pdata$?Init@CDynamicStdCallThunk@ATL@@QEAAH_KPEAX@Z 0000000140047414     Enterdlg.obj
 0004:00000420       $pdata$?AfxWindowProc@CWMHnd@@SA_JPEAUHWND__@@I_K_J@Z 0000000140047420     Enterdlg.obj
 0004:0000042c       $pdata$?OnCmdMsg@CCmdTarget@@UEAAHIHPEAXPEAUAFX_CMDHANDLERINFO@@@Z 000000014004742c     Enterdlg.obj
 0004:00000438       $pdata$0$?OnCmdMsg@CCmdTarget@@UEAAHIHPEAXPEAUAFX_CMDHANDLERINFO@@@Z 0000000140047438     Enterdlg.obj
 0004:00000444       $pdata$1$?OnCmdMsg@CCmdTarget@@UEAAHIHPEAXPEAUAFX_CMDHANDLERINFO@@@Z 0000000140047444     Enterdlg.obj
 0004:00000450       $pdata$??_GCWMHnd@@UEAAPEAXI@Z 0000000140047450     Enterdlg.obj
 0004:0000045c       $pdata$?CalcWindowRect@CWMHnd@@UEAAXPEAUtagRECT@@I@Z 000000014004745c     Enterdlg.obj
 0004:00000468       $pdata$?FromHandle@?$CHandleList@PEAUHMENU__@@VCMenuMTL@@PEAUHWND__@@@@QEAAPEAVCMenuMTL@@QEAUHMENU__@@PEAV2@QEAUHWND__@@Q6APEAXPEAX3@Z@Z 0000000140047468     Enterdlg.obj
 0004:00000474       $pdata$1$?FromHandle@?$CHandleList@PEAUHMENU__@@VCMenuMTL@@PEAUHWND__@@@@QEAAPEAVCMenuMTL@@QEAUHMENU__@@PEAV2@QEAUHWND__@@Q6APEAXPEAX3@Z@Z 0000000140047474     Enterdlg.obj
 0004:00000480       $pdata$2$?FromHandle@?$CHandleList@PEAUHMENU__@@VCMenuMTL@@PEAUHWND__@@@@QEAAPEAVCMenuMTL@@QEAUHMENU__@@PEAV2@QEAUHWND__@@Q6APEAXPEAX3@Z@Z 0000000140047480     Enterdlg.obj
 0004:0000048c       $pdata$3$?FromHandle@?$CHandleList@PEAUHMENU__@@VCMenuMTL@@PEAUHWND__@@@@QEAAPEAVCMenuMTL@@QEAUHMENU__@@PEAV2@QEAUHWND__@@Q6APEAXPEAX3@Z@Z 000000014004748c     Enterdlg.obj
 0004:00000498       $pdata$??_GCMenuMTL@@UEAAPEAXI@Z 0000000140047498     Enterdlg.obj
 0004:000004a4       $pdata$??1?$CMenuT@$00@WTL@@QEAA@XZ 00000001400474a4     Enterdlg.obj
 0004:000004b0       $pdata$??1CMenuMTL@@UEAA@XZ 00000001400474b0     Enterdlg.obj
 0004:000004bc       $pdata$?classHandleFuncCMenuMTL@CMenuMTL@@SAPEAXPEAX0@Z 00000001400474bc     Enterdlg.obj
 0004:000004c8       $pdata$?GetMenu@CWMHnd@@UEBAPEAVCMenuMTL@@XZ 00000001400474c8     Enterdlg.obj
 0004:000004d4       $pdata$?OnCancel@CCommonDialog@@UEAAXXZ 00000001400474d4     Maindoc.obj
 0004:000004d4       $pdata$?OnInitDialog@CWMHnd@@UEAAHXZ 00000001400474d4     Enterdlg.obj
 0004:000004e0       $pdata$?RemoveHandle@?$CHandleHashList@PEAUHWND__@@VCWMHnd@@PEAU1@$0BB@@@QEAAPEAUHWND__@@QEAU2@@Z 00000001400474e0     Enterdlg.obj
 0004:000004ec       $pdata$?RemoveOwner@?$CHandleHashList@PEAUHWND__@@VCWMHnd@@PEAU1@$0BB@@@QEAAHQEAUHWND__@@@Z 00000001400474ec     Enterdlg.obj
 0004:000004f8       $pdata$?RemoveOwner@?$CHandleList@PEAUHMENU__@@VCMenuMTL@@PEAUHWND__@@@@QEAAHQEAUHWND__@@@Z 00000001400474f8     Enterdlg.obj
 0004:000004f8       $pdata$?RemoveOwner@?$CHandleList@PEAXVCGdiObject@@PEAUHWND__@@@@QEAAHQEAUHWND__@@@Z 00000001400474f8     Enterdlg.obj
 0004:000004f8       $pdata$?RemoveOwner@?$CHandleList@PEAXXPEAUHWND__@@@@QEAAHQEAUHWND__@@@Z 00000001400474f8     Enterdlg.obj
 0004:000004f8       $pdata$?RemoveOwner@?$CHandleList@PEAUHDC__@@VCDCMTL@@PEAUHWND__@@@@QEAAHQEAUHWND__@@@Z 00000001400474f8     Enterdlg.obj
 0004:00000504       $pdata$1$?RemoveOwner@?$CHandleList@PEAXVCGdiObject@@PEAUHWND__@@@@QEAAHQEAUHWND__@@@Z 0000000140047504     Enterdlg.obj
 0004:00000504       $pdata$1$?RemoveOwner@?$CHandleList@PEAUHDC__@@VCDCMTL@@PEAUHWND__@@@@QEAAHQEAUHWND__@@@Z 0000000140047504     Enterdlg.obj
 0004:00000504       $pdata$1$?RemoveOwner@?$CHandleList@PEAXXPEAUHWND__@@@@QEAAHQEAUHWND__@@@Z 0000000140047504     Enterdlg.obj
 0004:00000504       $pdata$1$?RemoveOwner@?$CHandleList@PEAUHMENU__@@VCMenuMTL@@PEAUHWND__@@@@QEAAHQEAUHWND__@@@Z 0000000140047504     Enterdlg.obj
 0004:00000510       $pdata$2$?RemoveOwner@?$CHandleList@PEAXVCGdiObject@@PEAUHWND__@@@@QEAAHQEAUHWND__@@@Z 0000000140047510     Enterdlg.obj
 0004:00000510       $pdata$2$?RemoveOwner@?$CHandleList@PEAUHMENU__@@VCMenuMTL@@PEAUHWND__@@@@QEAAHQEAUHWND__@@@Z 0000000140047510     Enterdlg.obj
 0004:00000510       $pdata$2$?RemoveOwner@?$CHandleList@PEAUHDC__@@VCDCMTL@@PEAUHWND__@@@@QEAAHQEAUHWND__@@@Z 0000000140047510     Enterdlg.obj
 0004:00000510       $pdata$2$?RemoveOwner@?$CHandleList@PEAXXPEAUHWND__@@@@QEAAHQEAUHWND__@@@Z 0000000140047510     Enterdlg.obj
 0004:0000051c       $pdata$?RemoveHandleWnd@CModuleThreadState@@QEAAPEAUHWND__@@PEAU2@@Z 000000014004751c     Enterdlg.obj
 0004:00000528       $pdata$?classHandleFuncCWMHnd@CWMHnd@@SAPEAXPEAX0@Z 0000000140047528     Enterdlg.obj
 0004:00000534       $pdata$?SubclassWindow@CWMHnd@@QEAAHPEAUHWND__@@PEAUtagCREATESTRUCTA@@@Z 0000000140047534     Enterdlg.obj
 0004:00000540       $pdata$0$?SubclassWindow@CWMHnd@@QEAAHPEAUHWND__@@PEAUtagCREATESTRUCTA@@@Z 0000000140047540     Enterdlg.obj
 0004:0000054c       $pdata$1$?SubclassWindow@CWMHnd@@QEAAHPEAUHWND__@@PEAUtagCREATESTRUCTA@@@Z 000000014004754c     Enterdlg.obj
 0004:00000558       $pdata$?CbtFilterHook@CWnd@@SA_JH_K_J@Z 0000000140047558     Enterdlg.obj
 0004:00000564       $pdata$?HookWindowCreate@CWnd@@SAHPEAV1@G@Z 0000000140047564     Enterdlg.obj
 0004:00000570       $pdata$?CenterWindow@CWindow@ATL@@QEAAHPEAUHWND__@@@Z 0000000140047570     Enterdlg.obj
 0004:0000057c       $pdata$?DefWindowProcA@CWMHnd@@UEAA_JI_K_J@Z 000000014004757c     Enterdlg.obj
 0004:00000588       $pdata$?SendMessageToDescendants@CWnd@@QEAAXPEAUHWND__@@I_K_JHH@Z 0000000140047588     Enterdlg.obj
 0004:00000594       $pdata$0$?SendMessageToDescendants@CWnd@@QEAAXPEAUHWND__@@I_K_JHH@Z 0000000140047594     Enterdlg.obj
 0004:000005a0       $pdata$1$?SendMessageToDescendants@CWnd@@QEAAXPEAUHWND__@@I_K_JHH@Z 00000001400475a0     Enterdlg.obj
 0004:000005ac       $pdata$?ExecuteDlgInit@CWnd@@QEAAHPEAX@Z 00000001400475ac     Enterdlg.obj
 0004:000005b8       $pdata$?ExecuteDlgInit@CWnd@@QEAAHPEBD@Z 00000001400475b8     Enterdlg.obj
 0004:000005c4       $pdata$?OnInitDialog@CDialog@@UEAAHXZ 00000001400475c4     Enterdlg.obj
 0004:000005d0       $pdata$?AfxDlgProc@CWnd@@SA_JPEAUHWND__@@I_K_J@Z 00000001400475d0     Enterdlg.obj
 0004:000005dc       $pdata$0$?AfxDlgProc@CWnd@@SA_JPEAUHWND__@@I_K_J@Z 00000001400475dc     Enterdlg.obj
 0004:000005e8       $pdata$2$?AfxDlgProc@CWnd@@SA_JPEAUHWND__@@I_K_J@Z 00000001400475e8     Enterdlg.obj
 0004:000005f4       $pdata$3$?AfxDlgProc@CWnd@@SA_JPEAUHWND__@@I_K_J@Z 00000001400475f4     Enterdlg.obj
 0004:00000600       $pdata$?CreateDlgIndirect@CWnd@@QEAAHPEBUDLGTEMPLATE@@PEAV1@PEAUHINSTANCE__@@@Z 0000000140047600     Enterdlg.obj
 0004:0000060c       $pdata$?CreateDlg@CWnd@@QEAAHPEBDPEAV1@@Z 000000014004760c     Enterdlg.obj
 0004:00000618       $pdata$?Create@CDialog@@UEAAHPEBDPEAVCWnd@@@Z 0000000140047618     Enterdlg.obj
 0004:00000624       $pdata$?FromHandle@?$CHandleHashList@PEAUHWND__@@VCWMHnd@@PEAU1@$0BB@@@QEAAPEAVCWMHnd@@QEAUHWND__@@PEAV2@0Q6APEAXPEAX2@Z@Z 0000000140047624     Enterdlg.obj
 0004:00000630       $pdata$1$?FromHandle@?$CHandleHashList@PEAUHWND__@@VCWMHnd@@PEAU1@$0BB@@@QEAAPEAVCWMHnd@@QEAUHWND__@@PEAV2@0Q6APEAXPEAX2@Z@Z 0000000140047630     Enterdlg.obj
 0004:0000063c       $pdata$2$?FromHandle@?$CHandleHashList@PEAUHWND__@@VCWMHnd@@PEAU1@$0BB@@@QEAAPEAVCWMHnd@@QEAUHWND__@@PEAV2@0Q6APEAXPEAX2@Z@Z 000000014004763c     Enterdlg.obj
 0004:00000648       $pdata$3$?FromHandle@?$CHandleHashList@PEAUHWND__@@VCWMHnd@@PEAU1@$0BB@@@QEAAPEAVCWMHnd@@QEAUHWND__@@PEAV2@0Q6APEAXPEAX2@Z@Z 0000000140047648     Enterdlg.obj
 0004:00000654       $pdata$4$?FromHandle@?$CHandleHashList@PEAUHWND__@@VCWMHnd@@PEAU1@$0BB@@@QEAAPEAVCWMHnd@@QEAUHWND__@@PEAV2@0Q6APEAXPEAX2@Z@Z 0000000140047654     Enterdlg.obj
 0004:00000660       $pdata$5$?FromHandle@?$CHandleHashList@PEAUHWND__@@VCWMHnd@@PEAU1@$0BB@@@QEAAPEAVCWMHnd@@QEAUHWND__@@PEAV2@0Q6APEAXPEAX2@Z@Z 0000000140047660     Enterdlg.obj
 0004:0000066c       $pdata$??1?$CList@PEAUHWND__@@PEAU1@@@QEAA@XZ 000000014004766c     Splitter.obj
 0004:0000066c       $pdata$??1?$CList@PEAXPEAX@@QEAA@XZ 000000014004766c     Inputvw.obj
 0004:0000066c       $pdata$??1?$CList@PEAUCRuntimeClass@@AEBQEAU1@@@QEAA@XZ 000000014004766c     Enterdlg.obj
 0004:0000066c       $pdata$??1?$CList@PEAVCFrameWnd@@AEBQEAV1@@@QEAA@XZ 000000014004766c     Viewex.obj
 0004:00000678       $pdata$0$??1?$CList@PEAVCFrameWnd@@AEBQEAV1@@@QEAA@XZ 0000000140047678     Viewex.obj
 0004:00000678       $pdata$0$??1?$CList@PEAXPEAX@@QEAA@XZ 0000000140047678     Inputvw.obj
 0004:00000678       $pdata$0$??1?$CList@PEAUCRuntimeClass@@AEBQEAU1@@@QEAA@XZ 0000000140047678     Enterdlg.obj
 0004:00000678       $pdata$0$??1?$CList@PEAUHWND__@@PEAU1@@@QEAA@XZ 0000000140047678     Splitter.obj
 0004:00000684       $pdata$1$??1?$CList@PEAUCRuntimeClass@@AEBQEAU1@@@QEAA@XZ 0000000140047684     Enterdlg.obj
 0004:00000684       $pdata$1$??1?$CList@PEAVCFrameWnd@@AEBQEAV1@@@QEAA@XZ 0000000140047684     Viewex.obj
 0004:00000684       $pdata$1$??1?$CList@PEAXPEAX@@QEAA@XZ 0000000140047684     Inputvw.obj
 0004:00000684       $pdata$1$??1?$CList@PEAUHWND__@@PEAU1@@@QEAA@XZ 0000000140047684     Splitter.obj
 0004:00000690       $pdata$??1CModuleState@@QEAA@XZ 0000000140047690     Enterdlg.obj
 0004:0000069c       $pdata$?AfxGetModuleState@@YAPEAVCModuleState@@XZ 000000014004769c     Enterdlg.obj
 0004:000006a8       $pdata$?PreTranslateMessage@CWnd@@UEAAHPEAUtagMSG@@@Z 00000001400476a8     Enterdlg.obj
 0004:000006b4       $pdata$?RunModalLoop@CWnd@@QEAAHK@Z 00000001400476b4     Enterdlg.obj
 0004:000006c0       $pdata$?DoModal@CDialog@@UEAA_JXZ 00000001400476c0     Enterdlg.obj
 0004:000006cc       $pdata$3$?DoModal@CDialog@@UEAA_JXZ 00000001400476cc     Enterdlg.obj
 0004:000006d8       $pdata$5$?DoModal@CDialog@@UEAA_JXZ 00000001400476d8     Enterdlg.obj
 0004:000006e4       $pdata$6$?DoModal@CDialog@@UEAA_JXZ 00000001400476e4     Enterdlg.obj
 0004:000006f0       $pdata$7$?DoModal@CDialog@@UEAA_JXZ 00000001400476f0     Enterdlg.obj
 0004:000006fc       $pdata$8$?DoModal@CDialog@@UEAA_JXZ 00000001400476fc     Enterdlg.obj
 0004:00000708       $pdata$?CreateObject@CInputView@@SAPEAVCObject@@XZ 0000000140047708     Inputvw.obj
 0004:00000714       $pdata$??0CInputView@@IEAA@XZ 0000000140047714     Inputvw.obj
 0004:00000720       $pdata$??_GCInputView@@MEAAPEAXI@Z 0000000140047720     Inputvw.obj
 0004:0000072c       $pdata$?OnUpdate@CInputView@@MEAAXPEAVCView@@_JPEAVCObject@@@Z 000000014004772c     Inputvw.obj
 0004:00000738       $pdata$?DoDataExchange@CInputView@@MEAAXPEAVCDataExchange@@@Z 0000000140047738     Inputvw.obj
 0004:00000744       $pdata$?_ProcessWindowMessage@CInputView@@UEAAHPEAUHWND__@@I_K_JAEA_J@Z 0000000140047744     Inputvw.obj
 0004:00000750       $pdata$?OnDataChange@CInputView@@IEAAXXZ 0000000140047750     Inputvw.obj
 0004:0000075c       $pdata$?UpdateAllViews@CDocument@@QEAAXPEAVCView@@_JPEAVCObject@@@Z 000000014004775c     Inputvw.obj
 0004:00000768       $pdata$?DDX_Radio@@YAXPEAVCDataExchange@@HAEAH@Z 0000000140047768     Inputvw.obj
 0004:00000774       $pdata$??4CString@WTL@@QEAAAEAV01@AEBV01@@Z 0000000140047774     Inputvw.obj
 0004:00000780       $pdata$??0_AUX_DATA@@QEAA@XZ 0000000140047780     Inputvw.obj
 0004:0000078c       $pdata$??0CScrollView@@QEAA@XZ 000000014004778c     Inputvw.obj
 0004:00000798       $pdata$??_GCScrollView@@UEAAPEAXI@Z 0000000140047798     Inputvw.obj
 0004:000007a4       $pdata$??1CScrollView@@UEAA@XZ 00000001400477a4     Inputvw.obj
 0004:000007b0       $pdata$?SetScaleToFitSize@CScrollView@@QEAAXUtagSIZE@@@Z 00000001400477b0     Inputvw.obj
 0004:000007bc       $pdata$?OnHScroll@CScrollView@@QEAAXIIPEAVCScrollBarMTL@@@Z 00000001400477bc     Inputvw.obj
 0004:000007c8       $pdata$?DoMouseWheel@CScrollView@@QEAAHIFVCPoint@WTL@@@Z 00000001400477c8     Inputvw.obj
 0004:000007d4       $pdata$?OnVScroll@CScrollView@@QEAAXIIPEAVCScrollBarMTL@@@Z 00000001400477d4     Inputvw.obj
 0004:000007e0       $pdata$?AfxRegisterWndClass@CAfx@@SAPEBDIPEAUHICON__@@PEAUHBRUSH__@@0@Z 00000001400477e0     Inputvw.obj
 0004:000007ec       $pdata$??_GCBrushMTL@@UEAAPEAXI@Z 00000001400477ec     Simpvw.obj
 0004:000007ec       $pdata$??_GCRgnMTL@@UEAAPEAXI@Z 00000001400477ec     Inputvw.obj
 0004:000007f8       $pdata$??1?$CBrushT@$00@WTL@@QEAA@XZ 00000001400477f8     Simpvw.obj
 0004:000007f8       $pdata$??1?$CRgnT@$00@WTL@@QEAA@XZ 00000001400477f8     Inputvw.obj
 0004:00000804       $pdata$??1CRgnMTL@@UEAA@XZ 0000000140047804     Inputvw.obj
 0004:00000810       $pdata$?SetCapture@CWnd@@QEAAPEAV1@XZ 0000000140047810     Inputvw.obj
 0004:0000081c       $pdata$3$?SetCapture@CWnd@@QEAAPEAV1@XZ 000000014004781c     Inputvw.obj
 0004:00000828       $pdata$4$?SetCapture@CWnd@@QEAAPEAV1@XZ 0000000140047828     Inputvw.obj
 0004:00000834       $pdata$5$?SetCapture@CWnd@@QEAAPEAV1@XZ 0000000140047834     Inputvw.obj
 0004:00000840       $pdata$6$?SetCapture@CWnd@@QEAAPEAV1@XZ 0000000140047840     Inputvw.obj
 0004:0000084c       $pdata$7$?SetCapture@CWnd@@QEAAPEAV1@XZ 000000014004784c     Inputvw.obj
 0004:00000858       $pdata$8$?SetCapture@CWnd@@QEAAPEAV1@XZ 0000000140047858     Inputvw.obj
 0004:00000864       $pdata$?Create@_AFX_MOUSEANCHORWND@@QEAAHPEAVCScrollView@@@Z 0000000140047864     Inputvw.obj
 0004:00000870       $pdata$?OnPaint@_AFX_MOUSEANCHORWND@@QEAAXXZ 0000000140047870     Inputvw.obj
 0004:0000087c       $pdata$?OnTimer@_AFX_MOUSEANCHORWND@@QEAAX_K@Z 000000014004787c     Inputvw.obj
 0004:00000888       $pdata$1$?OnTimer@_AFX_MOUSEANCHORWND@@QEAAX_K@Z 0000000140047888     Inputvw.obj
 0004:00000894       $pdata$2$?OnTimer@_AFX_MOUSEANCHORWND@@QEAAX_K@Z 0000000140047894     Inputvw.obj
 0004:000008a0       $pdata$3$?OnTimer@_AFX_MOUSEANCHORWND@@QEAAX_K@Z 00000001400478a0     Inputvw.obj
 0004:000008ac       $pdata$?_ProcessWindowMessage@_AFX_MOUSEANCHORWND@@UEAAHPEAUHWND__@@I_K_JAEA_J@Z 00000001400478ac     Inputvw.obj
 0004:000008b8       $pdata$??_G_AFX_MOUSEANCHORWND@@UEAAPEAXI@Z 00000001400478b8     Inputvw.obj
 0004:000008c4       $pdata$?WindowProc@_AFX_MOUSEANCHORWND@@UEAA_JI_K_J@Z 00000001400478c4     Inputvw.obj
 0004:000008d0       $pdata$?HandleMButtonDown@CScrollView@@QEAA_J_K_J@Z 00000001400478d0     Inputvw.obj
 0004:000008dc       $pdata$?_ProcessWindowMessage@CScrollView@@UEAAHPEAUHWND__@@I_K_JAEA_J@Z 00000001400478dc     Inputvw.obj
 0004:000008e8       $pdata$?_ProcessWindowMessage@CFormView@@UEAAHPEAUHWND__@@I_K_JAEA_J@Z 00000001400478e8     Inputvw.obj
 0004:000008f4       $pdata$?AddView@CDocument@@QEAAXPEAVCView@@@Z 00000001400478f4     Inputvw.obj
 0004:00000900       $pdata$?OnDestroy@CView@@QEAAXXZ 0000000140047900     Inputvw.obj
 0004:0000090c       $pdata$0$?OnDestroy@CView@@QEAAXXZ 000000014004790c     Inputvw.obj
 0004:00000918       $pdata$1$?OnDestroy@CView@@QEAAXXZ 0000000140047918     Inputvw.obj
 0004:00000924       $pdata$?OnMouseActivate@CView@@QEAAHPEAVCWnd@@II@Z 0000000140047924     Inputvw.obj
 0004:00000930       $pdata$0$?OnMouseActivate@CView@@QEAAHPEAVCWnd@@II@Z 0000000140047930     Inputvw.obj
 0004:0000093c       $pdata$1$?OnMouseActivate@CView@@QEAAHPEAVCWnd@@II@Z 000000014004793c     Inputvw.obj
 0004:00000948       $pdata$2$?OnMouseActivate@CView@@QEAAHPEAVCWnd@@II@Z 0000000140047948     Inputvw.obj
 0004:00000954       $pdata$4$?OnMouseActivate@CView@@QEAAHPEAVCWnd@@II@Z 0000000140047954     Inputvw.obj
 0004:00000960       $pdata$5$?OnMouseActivate@CView@@QEAAHPEAVCWnd@@II@Z 0000000140047960     Inputvw.obj
 0004:0000096c       $pdata$??_GCPaintDCMTL@@UEAAPEAXI@Z 000000014004796c     Inputvw.obj
 0004:00000978       $pdata$??1CPaintDCMTL@@UEAA@XZ 0000000140047978     Inputvw.obj
 0004:00000984       $pdata$?OnPaint@CView@@QEAAXXZ 0000000140047984     Inputvw.obj
 0004:00000990       $pdata$?OnPrintClient@CView@@QEAA_JPEAVCDCMTL@@I@Z 0000000140047990     Inputvw.obj
 0004:0000099c       $pdata$?_ProcessWindowMessage@CView@@UEAAHPEAUHWND__@@I_K_JAEA_J@Z 000000014004799c     Inputvw.obj
 0004:000009a8       $pdata$?OnCmdMsg@CView@@UEAAHIHPEAXPEAUAFX_CMDHANDLERINFO@@@Z 00000001400479a8     Inputvw.obj
 0004:000009b4       $pdata$??_GCView@@UEAAPEAXI@Z 00000001400479b4     Inputvw.obj
 0004:000009b4       $pdata$??_GCColorView@@UEAAPEAXI@Z 00000001400479b4     Simpvw.obj
 0004:000009b4       $pdata$??_GCTextView@@UEAAPEAXI@Z 00000001400479b4     Simpvw.obj
 0004:000009c0       $pdata$?EnsureParentFrame@CWnd@@QEAAPEAVCFrameWnd@@XZ 00000001400479c0     Inputvw.obj
 0004:000009c0       $pdata$?GetParentFrame@CWnd@@QEAAPEAVCFrameWnd@@XZ 00000001400479c0     Inputvw.obj
 0004:000009cc       $pdata$0$?EnsureParentFrame@CWnd@@QEAAPEAVCFrameWnd@@XZ 00000001400479cc     Inputvw.obj
 0004:000009cc       $pdata$0$?GetParentFrame@CWnd@@QEAAPEAVCFrameWnd@@XZ 00000001400479cc     Inputvw.obj
 0004:000009d8       $pdata$2$?EnsureParentFrame@CWnd@@QEAAPEAVCFrameWnd@@XZ 00000001400479d8     Inputvw.obj
 0004:000009d8       $pdata$2$?GetParentFrame@CWnd@@QEAAPEAVCFrameWnd@@XZ 00000001400479d8     Inputvw.obj
 0004:000009e4       $pdata$3$?GetParentFrame@CWnd@@QEAAPEAVCFrameWnd@@XZ 00000001400479e4     Inputvw.obj
 0004:000009e4       $pdata$3$?EnsureParentFrame@CWnd@@QEAAPEAVCFrameWnd@@XZ 00000001400479e4     Inputvw.obj
 0004:000009f0       $pdata$??1CDocument@@QEAA@XZ 00000001400479f0     Inputvw.obj
 0004:000009fc       $pdata$?OnCloseDocument@CDocument@@QEAAXXZ 00000001400479fc     Inputvw.obj
 0004:00000a08       $pdata$0$?OnCloseDocument@CDocument@@QEAAXXZ 0000000140047a08     Inputvw.obj
 0004:00000a14       $pdata$1$?OnCloseDocument@CDocument@@QEAAXXZ 0000000140047a14     Inputvw.obj
 0004:00000a20       $pdata$2$?OnCloseDocument@CDocument@@QEAAXXZ 0000000140047a20     Inputvw.obj
 0004:00000a2c       $pdata$3$?OnCloseDocument@CDocument@@QEAAXXZ 0000000140047a2c     Inputvw.obj
 0004:00000a38       $pdata$?UpdateFrameCounts@CDocument@@QEAAXXZ 0000000140047a38     Inputvw.obj
 0004:00000a44       $pdata$?RemoveView@CDocument@@QEAAXPEAVCView@@@Z 0000000140047a44     Inputvw.obj
 0004:00000a50       $pdata$??1CView@@UEAA@XZ   0000000140047a50     Inputvw.obj
 0004:00000a5c       $pdata$?GetTopLevelFrame@CWnd@@QEAAPEAVCFrameWnd@@XZ 0000000140047a5c     Inputvw.obj
 0004:00000a68       $pdata$0$?GetTopLevelFrame@CWnd@@QEAAPEAVCFrameWnd@@XZ 0000000140047a68     Inputvw.obj
 0004:00000a74       $pdata$1$?GetTopLevelFrame@CWnd@@QEAAPEAVCFrameWnd@@XZ 0000000140047a74     Inputvw.obj
 0004:00000a80       $pdata$2$?GetTopLevelFrame@CWnd@@QEAAPEAVCFrameWnd@@XZ 0000000140047a80     Inputvw.obj
 0004:00000a8c       $pdata$3$?GetTopLevelFrame@CWnd@@QEAAPEAVCFrameWnd@@XZ 0000000140047a8c     Inputvw.obj
 0004:00000a98       $pdata$?PreTranslateMessage@CFormView@@UEAAHPEAUtagMSG@@@Z 0000000140047a98     Inputvw.obj
 0004:00000aa4       $pdata$??_GCWindowDCMTL@@UEAAPEAXI@Z 0000000140047aa4     Inputvw.obj
 0004:00000ab0       $pdata$??1CWindowDCMTL@@UEAA@XZ 0000000140047ab0     Inputvw.obj
 0004:00000abc       $pdata$?GetScrollBarState@CScrollView@@QEAAXVCSize@WTL@@AEAV23@1AEAVCPoint@3@H@Z 0000000140047abc     Inputvw.obj
 0004:00000ac8       $pdata$?ScrollToDevicePosition@CScrollView@@QEAAXUtagPOINT@@@Z 0000000140047ac8     Inputvw.obj
 0004:00000ad4       $pdata$?EnableScrollBarCtrl@CWMHnd@@QEAAXHH@Z 0000000140047ad4     Inputvw.obj
 0004:00000ae0       $pdata$?UpdateBars@CScrollView@@QEAAXXZ 0000000140047ae0     Inputvw.obj
 0004:00000aec       $pdata$5$?UpdateBars@CScrollView@@QEAAXXZ 0000000140047aec     Inputvw.obj
 0004:00000af8       $pdata$6$?UpdateBars@CScrollView@@QEAAXXZ 0000000140047af8     Inputvw.obj
 0004:00000b04       $pdata$?SetScrollSizes@CScrollView@@QEAAXHUtagSIZE@@AEBU2@1@Z 0000000140047b04     Inputvw.obj
 0004:00000b10       $pdata$?Create@CFormView@@UEAAHPEBD0KAEBUtagRECT@@PEAVCWnd@@IPEAUCCreateContext@@@Z 0000000140047b10     Inputvw.obj
 0004:00000b1c       $pdata$0$?Create@CFormView@@UEAAHPEBD0KAEBUtagRECT@@PEAVCWnd@@IPEAUCCreateContext@@@Z 0000000140047b1c     Inputvw.obj
 0004:00000b28       $pdata$1$?Create@CFormView@@UEAAHPEBD0KAEBUtagRECT@@PEAVCWnd@@IPEAUCCreateContext@@@Z 0000000140047b28     Inputvw.obj
 0004:00000b34       $pdata$?PreCreateWindow@CView@@UEAAHAEAUtagCREATESTRUCTA@@@Z 0000000140047b34     Inputvw.obj
 0004:00000b40       $pdata$?OnActivateFrame@CFormView@@UEAAXIPEAVCFrameWnd@@@Z 0000000140047b40     Inputvw.obj
 0004:00000b4c       $pdata$0$?OnActivateFrame@CFormView@@UEAAXIPEAVCFrameWnd@@@Z 0000000140047b4c     Inputvw.obj
 0004:00000b58       $pdata$1$?OnActivateFrame@CFormView@@UEAAXIPEAVCFrameWnd@@@Z 0000000140047b58     Inputvw.obj
 0004:00000b64       $pdata$?OnActivateView@CFormView@@UEAAXHPEAVCView@@0@Z 0000000140047b64     Inputvw.obj
 0004:00000b70       $pdata$?SetActiveView@CFrameWnd@@QEAAXPEAVCView@@H@Z 0000000140047b70     Inputvw.obj
 0004:00000b7c       $pdata$?GetOwner@CWnd@@QEAAPEAV1@XZ 0000000140047b7c     Inputvw.obj
 0004:00000b88       $pdata$2$?GetOwner@CWnd@@QEAAPEAV1@XZ 0000000140047b88     Inputvw.obj
 0004:00000b94       $pdata$4$?GetOwner@CWnd@@QEAAPEAV1@XZ 0000000140047b94     Inputvw.obj
 0004:00000ba0       $pdata$5$?GetOwner@CWnd@@QEAAPEAV1@XZ 0000000140047ba0     Inputvw.obj
 0004:00000bac       $pdata$6$?GetOwner@CWnd@@QEAAPEAV1@XZ 0000000140047bac     Inputvw.obj
 0004:00000bb8       $pdata$7$?GetOwner@CWnd@@QEAAPEAV1@XZ 0000000140047bb8     Inputvw.obj
 0004:00000bc4       $pdata$8$?GetOwner@CWnd@@QEAAPEAV1@XZ 0000000140047bc4     Inputvw.obj
 0004:00000bd0       $pdata$9$?GetOwner@CWnd@@QEAAPEAV1@XZ 0000000140047bd0     Inputvw.obj
 0004:00000bdc       $pdata$10$?GetOwner@CWnd@@QEAAPEAV1@XZ 0000000140047bdc     Inputvw.obj
 0004:00000be8       $pdata$?GetTopLevelParent@CWnd@@QEAAPEAV1@XZ 0000000140047be8     Inputvw.obj
 0004:00000bf4       $pdata$0$?GetTopLevelParent@CWnd@@QEAAPEAV1@XZ 0000000140047bf4     Inputvw.obj
 0004:00000c00       $pdata$2$?GetTopLevelParent@CWnd@@QEAAPEAV1@XZ 0000000140047c00     Inputvw.obj
 0004:00000c0c       $pdata$4$?GetTopLevelParent@CWnd@@QEAAPEAV1@XZ 0000000140047c0c     Inputvw.obj
 0004:00000c18       $pdata$5$?GetTopLevelParent@CWnd@@QEAAPEAV1@XZ 0000000140047c18     Inputvw.obj
 0004:00000c24       $pdata$6$?GetTopLevelParent@CWnd@@QEAAPEAV1@XZ 0000000140047c24     Inputvw.obj
 0004:00000c30       $pdata$7$?GetTopLevelParent@CWnd@@QEAAPEAV1@XZ 0000000140047c30     Inputvw.obj
 0004:00000c3c       $pdata$8$?GetTopLevelParent@CWnd@@QEAAPEAV1@XZ 0000000140047c3c     Inputvw.obj
 0004:00000c48       $pdata$9$?GetTopLevelParent@CWnd@@QEAAPEAV1@XZ 0000000140047c48     Inputvw.obj
 0004:00000c54       $pdata$10$?GetTopLevelParent@CWnd@@QEAAPEAV1@XZ 0000000140047c54     Inputvw.obj
 0004:00000c60       $pdata$11$?GetTopLevelParent@CWnd@@QEAAPEAV1@XZ 0000000140047c60     Inputvw.obj
 0004:00000c6c       $pdata$?GetForegroundWindow@CWnd@@SAPEAV1@XZ 0000000140047c6c     Inputvw.obj
 0004:00000c78       $pdata$3$?GetForegroundWindow@CWnd@@SAPEAV1@XZ 0000000140047c78     Inputvw.obj
 0004:00000c84       $pdata$4$?GetForegroundWindow@CWnd@@SAPEAV1@XZ 0000000140047c84     Inputvw.obj
 0004:00000c90       $pdata$5$?GetForegroundWindow@CWnd@@SAPEAV1@XZ 0000000140047c90     Inputvw.obj
 0004:00000c9c       $pdata$6$?GetForegroundWindow@CWnd@@SAPEAV1@XZ 0000000140047c9c     Inputvw.obj
 0004:00000ca8       $pdata$7$?GetForegroundWindow@CWnd@@SAPEAV1@XZ 0000000140047ca8     Inputvw.obj
 0004:00000cb4       $pdata$8$?GetForegroundWindow@CWnd@@SAPEAV1@XZ 0000000140047cb4     Inputvw.obj
 0004:00000cc0       $pdata$?GetLastActivePopup@CWnd@@QEAAPEAV1@XZ 0000000140047cc0     Inputvw.obj
 0004:00000ccc       $pdata$3$?GetLastActivePopup@CWnd@@QEAAPEAV1@XZ 0000000140047ccc     Inputvw.obj
 0004:00000cd8       $pdata$4$?GetLastActivePopup@CWnd@@QEAAPEAV1@XZ 0000000140047cd8     Inputvw.obj
 0004:00000ce4       $pdata$5$?GetLastActivePopup@CWnd@@QEAAPEAV1@XZ 0000000140047ce4     Inputvw.obj
 0004:00000cf0       $pdata$6$?GetLastActivePopup@CWnd@@QEAAPEAV1@XZ 0000000140047cf0     Inputvw.obj
 0004:00000cfc       $pdata$7$?GetLastActivePopup@CWnd@@QEAAPEAV1@XZ 0000000140047cfc     Inputvw.obj
 0004:00000d08       $pdata$8$?GetLastActivePopup@CWnd@@QEAAPEAV1@XZ 0000000140047d08     Inputvw.obj
 0004:00000d14       $pdata$?OnActivateView@CView@@UEAAXHPEAV1@0@Z 0000000140047d14     Inputvw.obj
 0004:00000d20       $pdata$0$?OnActivateView@CView@@UEAAXHPEAV1@0@Z 0000000140047d20     Inputvw.obj
 0004:00000d2c       $pdata$1$?OnActivateView@CView@@UEAAXHPEAV1@0@Z 0000000140047d2c     Inputvw.obj
 0004:00000d38       $pdata$?OnEndPrintPreview@CView@@UEAAXPEAVCDCMTL@@PEAUCPrintInfo@@UtagPOINT@@PEAVCPreviewView@@@Z 0000000140047d38     Inputvw.obj
 0004:00000d44       $pdata$?OnInitialUpdate@CFormView@@UEAAXXZ 0000000140047d44     Inputvw.obj
 0004:00000d50       $pdata$?OnPrepareDC@CScrollView@@UEAAXPEAVCDCMTL@@PEAUCPrintInfo@@@Z 0000000140047d50     Inputvw.obj
 0004:00000d5c       $pdata$?OnScroll@CScrollView@@UEAAHIIH@Z 0000000140047d5c     Inputvw.obj
 0004:00000d68       $pdata$?GetScrollLimit@CWMHnd@@QEAAHH@Z 0000000140047d68     Inputvw.obj
 0004:00000d74       $pdata$?ScrollWindow@CWMHnd@@QEAAXHHPEBUtagRECT@@0@Z 0000000140047d74     Inputvw.obj
 0004:00000d80       $pdata$0$?ScrollWindow@CWMHnd@@QEAAXHHPEBUtagRECT@@0@Z 0000000140047d80     Inputvw.obj
 0004:00000d8c       $pdata$1$?ScrollWindow@CWMHnd@@QEAAXHHPEBUtagRECT@@0@Z 0000000140047d8c     Inputvw.obj
 0004:00000d98       $pdata$?OnScrollBy@CScrollView@@UEAAHVCSize@WTL@@H@Z 0000000140047d98     Inputvw.obj
 0004:00000da4       $pdata$?CCalcWindowRect@CScrollView@@UEAAXPEAUtagRECT@@I@Z 0000000140047da4     Inputvw.obj
 0004:00000db0       $pdata$0$?CCalcWindowRect@CScrollView@@UEAAXPEAUtagRECT@@I@Z 0000000140047db0     Inputvw.obj
 0004:00000dbc       $pdata$3$?CCalcWindowRect@CScrollView@@UEAAXPEAUtagRECT@@I@Z 0000000140047dbc     Inputvw.obj
 0004:00000dc8       $pdata$4$?CCalcWindowRect@CScrollView@@UEAAXPEAUtagRECT@@I@Z 0000000140047dc8     Inputvw.obj
 0004:00000dd4       $pdata$5$?CCalcWindowRect@CScrollView@@UEAAXPEAUtagRECT@@I@Z 0000000140047dd4     Inputvw.obj
 0004:00000de0       $pdata$?CreateObject@CMainDoc@@SAPEAVCObject@@XZ 0000000140047de0     Maindoc.obj
 0004:00000dec       $pdata$?_ProcessWindowMessage@CMainDoc@@UEAAHPEAUHWND__@@I_K_JAEA_J@Z 0000000140047dec     Maindoc.obj
 0004:00000df8       $pdata$??_GCMainDoc@@UEAAPEAXI@Z 0000000140047df8     Maindoc.obj
 0004:00000e04       $pdata$?OnNewDocument@CMainDoc@@MEAAHXZ 0000000140047e04     Maindoc.obj
 0004:00000e10       $pdata$?OnChangeData@CMainDoc@@IEAAXXZ 0000000140047e10     Maindoc.obj
 0004:00000e1c       $pdata$?OnOpenDocument@CDocument@@UEAAHPEBD@Z 0000000140047e1c     Maindoc.obj
 0004:00000e28       $pdata$?OnCmdMsg@CDocument@@UEAAHIHPEAXPEAUAFX_CMDHANDLERINFO@@@Z 0000000140047e28     Maindoc.obj
 0004:00000e34       $pdata$?AfxFormatStrings@CAfx@@SAXAEAVCString@WTL@@PEBDPEBQEBDH@Z 0000000140047e34     Maindoc.obj
 0004:00000e40       $pdata$2$?AfxFormatStrings@CAfx@@SAXAEAVCString@WTL@@PEBDPEBQEBDH@Z 0000000140047e40     Maindoc.obj
 0004:00000e4c       $pdata$3$?AfxFormatStrings@CAfx@@SAXAEAVCString@WTL@@PEBDPEBQEBDH@Z 0000000140047e4c     Maindoc.obj
 0004:00000e58       $pdata$4$?AfxFormatStrings@CAfx@@SAXAEAVCString@WTL@@PEBDPEBQEBDH@Z 0000000140047e58     Maindoc.obj
 0004:00000e64       $pdata$5$?AfxFormatStrings@CAfx@@SAXAEAVCString@WTL@@PEBDPEBQEBDH@Z 0000000140047e64     Maindoc.obj
 0004:00000e70       $pdata$?ShowAppMessageBox@CWinApp@@SAHPEAV1@PEBDII@Z 0000000140047e70     Maindoc.obj
 0004:00000e7c       $pdata$?SaveModified@CDocument@@UEAAHXZ 0000000140047e7c     Maindoc.obj
 0004:00000e88       $pdata$?DoFileSave@CDocument@@QEAAHXZ 0000000140047e88     Maindoc.obj
 0004:00000e94       $pdata$?OnFileSave@CDocument@@QEAAXXZ 0000000140047e94     Maindoc.obj
 0004:00000ea0       $pdata$?_AfxCommDlgProc@CCommonDialog@@SA_KPEAUHWND__@@I_K_J@Z 0000000140047ea0     Maindoc.obj
 0004:00000eac       $pdata$1$?_AfxCommDlgProc@CCommonDialog@@SA_KPEAUHWND__@@I_K_J@Z 0000000140047eac     Maindoc.obj
 0004:00000eb8       $pdata$3$?_AfxCommDlgProc@CCommonDialog@@SA_KPEAUHWND__@@I_K_J@Z 0000000140047eb8     Maindoc.obj
 0004:00000ec4       $pdata$5$?_AfxCommDlgProc@CCommonDialog@@SA_KPEAUHWND__@@I_K_J@Z 0000000140047ec4     Maindoc.obj
 0004:00000ed0       $pdata$6$?_AfxCommDlgProc@CCommonDialog@@SA_KPEAUHWND__@@I_K_J@Z 0000000140047ed0     Maindoc.obj
 0004:00000edc       $pdata$??0CFileDialogMTL@@QEAA@HPEBD0K0PEAVCWnd@@KH@Z 0000000140047edc     Maindoc.obj
 0004:00000ee8       $pdata$??_GCFileDialogMTL@@UEAAPEAXI@Z 0000000140047ee8     Maindoc.obj
 0004:00000ef4       $pdata$?OnNotify@CFileDialogMTL@@UEAAH_K_JPEA_J@Z 0000000140047ef4     Maindoc.obj
 0004:00000f00       $pdata$?OnOK@CCommonDialog@@UEAAXXZ 0000000140047f00     Maindoc.obj
 0004:00000f0c       $pdata$?OnInitDone@CFileDialogMTL@@UEAAXXZ 0000000140047f0c     Maindoc.obj
 0004:00000f18       $pdata$??1CFileDialogMTL@@UEAA@XZ 0000000140047f18     Maindoc.obj
 0004:00000f24       $pdata$?Tokenize@CAfx@@SA?AVCString@WTL@@AEAV23@PEADAEAH@Z 0000000140047f24     Maindoc.obj
 0004:00000f30       $pdata$?Tokenize@@YA?AVCString@WTL@@AEAV12@PEADAEAH@Z 0000000140047f30     Maindoc.obj
 0004:00000f3c       $pdata$?AllocCopy@CString@WTL@@IEBAHAEAV12@HHH@Z 0000000140047f3c     Maindoc.obj
 0004:00000f48       $pdata$?Mid@CString@WTL@@QEBA?AV12@HH@Z 0000000140047f48     Maindoc.obj
 0004:00000f54       $pdata$?Mid@CString@WTL@@QEBA?AV12@H@Z 0000000140047f54     Maindoc.obj
 0004:00000f60       $pdata$?_AfxAppendFilterSuffix@@YAXAEAVCString@WTL@@AEAUtagOFNA@@PEAVCDocTemplate@@PEAV12@@Z 0000000140047f60     Maindoc.obj
 0004:00000f6c       $pdata$??0CStringW@@QEAA@PEBD@Z 0000000140047f6c     Maindoc.obj
 0004:00000f78       $pdata$??4CStringW@@QEAAAEAVCString@WTL@@PEBD@Z 0000000140047f78     Maindoc.obj
 0004:00000f84       $pdata$?ApplyOFNToShellDialog@CFileDialogMTL@@QEAAXXZ 0000000140047f84     Maindoc.obj
 0004:00000f90       $pdata$??0CString@WTL@@QEAA@PEB_W@Z 0000000140047f90     Maindoc.obj
 0004:00000f9c       $pdata$0$??0CString@WTL@@QEAA@PEB_W@Z 0000000140047f9c     Maindoc.obj
 0004:00000fa8       $pdata$1$??0CString@WTL@@QEAA@PEB_W@Z 0000000140047fa8     Maindoc.obj
 0004:00000fb4       $pdata$??4CString@WTL@@QEAAAEAV01@PEB_W@Z 0000000140047fb4     Maindoc.obj
 0004:00000fc0       $pdata$?GetPathName@CFileDialogMTL@@QEAA?AVCString@WTL@@XZ 0000000140047fc0     Maindoc.obj
 0004:00000fcc       $pdata$?UpdateOFNFromShellDialog@CFileDialogMTL@@UEAAXXZ 0000000140047fcc     Maindoc.obj
 0004:00000fd8       $pdata$?DoModal@CFileDialogMTL@@UEAA_JXZ 0000000140047fd8     Maindoc.obj
 0004:00000fe4       $pdata$?DoPromptFileName@CDocManager@@QEAAHAEAVCString@WTL@@IKHPEAVCDocTemplate@@@Z 0000000140047fe4     Maindoc.obj
 0004:00000ff0       $pdata$?GetFile@CDocument@@QEAAPEAVCFile@@PEBDIPEAVCFileException@@@Z 0000000140047ff0     Maindoc.obj
 0004:00000ffc       $pdata$??0CArchive@@QEAA@PEAVCFile@@IHPEAX@Z 0000000140047ffc     Maindoc.obj
 0004:00001008       $pdata$??1CWaitCursor@@QEAA@XZ 0000000140048008     Maindoc.obj
 0004:00001014       $pdata$?Abort@CFile@@UEAAXXZ 0000000140048014     Maindoc.obj
 0004:00001020       $pdata$?AfxThrowInvalidArgException@@YAXXZ 0000000140048020     Maindoc.obj
 0004:0000102c       $pdata$??0CTime@@QEAA@AEBU_FILETIME@@H@Z 000000014004802c     Maindoc.obj
 0004:00001038       $pdata$?GetStatus@CFile@@QEBAHAEAUCFileStatus@@@Z 0000000140048038     Maindoc.obj
 0004:00001044       $pdata$?LoadStringA@CString@WTL@@QEAAHI@Z 0000000140048044     Maindoc.obj
 0004:00001050       $pdata$1$?LoadStringA@CString@WTL@@QEAAHI@Z 0000000140048050     Maindoc.obj
 0004:0000105c       $pdata$2$?LoadStringA@CString@WTL@@QEAAHI@Z 000000014004805c     Maindoc.obj
 0004:00001068       $pdata$??0CString@WTL@@QEAA@PEBD@Z 0000000140048068     Maindoc.obj
 0004:00001074       $pdata$?GetFilePath@CFile@@UEBA?AVCString@WTL@@XZ 0000000140048074     Maindoc.obj
 0004:00001080       $pdata$?GetLength@CFile@@UEBA_KXZ 0000000140048080     Maindoc.obj
 0004:0000108c       $pdata$?Open@CFile@@UEAAHPEBDIPEAVCFileException@@@Z 000000014004808c     Maindoc.obj
 0004:00001098       $pdata$?Write@CFile@@UEAAXPEBXI@Z 0000000140048098     Maindoc.obj
 0004:000010a4       $pdata$?Seek@CFile@@UEAA_K_JI@Z 00000001400480a4     Maindoc.obj
 0004:000010b0       $pdata$?Empty@CString@WTL@@QEAAXXZ 00000001400480b0     Maindoc.obj
 0004:000010bc       $pdata$?Close@CFile@@UEAAXXZ 00000001400480bc     Maindoc.obj
 0004:000010c8       $pdata$??_GCFile@@QEAAPEAXI@Z 00000001400480c8     Maindoc.obj
 0004:000010d4       $pdata$?ReleaseFile@CDocument@@UEAAXPEAVCFile@@H@Z 00000001400480d4     Maindoc.obj
 0004:000010e0       $pdata$?OnSaveDocument@CDocument@@UEAAHPEBD@Z 00000001400480e0     Maindoc.obj
 0004:000010ec       $pdata$?_AfxFullPath2@CAfx@@SAHPEADPEBDPEAVCFileException@@@Z 00000001400480ec     Maindoc.obj
 0004:000010f8       $pdata$?AfxGetFileTitle@CAfx@@SAIPEBDPEADI@Z 00000001400480f8     Maindoc.obj
 0004:00001104       $pdata$?SetTitle@CDocument@@UEAAXPEBD@Z 0000000140048104     Maindoc.obj
 0004:00001110       $pdata$?SetPathName@CDocument@@UEAAXPEBDH@Z 0000000140048110     Maindoc.obj
 0004:0000111c       $pdata$?DoSave@CDocument@@UEAAHPEBDH@Z 000000014004811c     Maindoc.obj
 0004:00001128       $pdata$?_ProcessWindowMessage@CDocument@@UEAAHPEAUHWND__@@I_K_JAEA_J@Z 0000000140048128     Maindoc.obj
 0004:00001134       $pdata$??0CFileException@@QEAA@HJPEBD@Z 0000000140048134     Maindoc.obj
 0004:00001140       $pdata$?ThrowOsError@CFileException@@SAXJPEBD@Z 0000000140048140     Maindoc.obj
 0004:0000114c       $pdata$?Read@CFile@@UEAAIPEAXI@Z 000000014004814c     Maindoc.obj
 0004:00001158       $pdata$?AfxThrowMemoryException@@YAXXZ 0000000140048158     Maindoc.obj
 0004:00001164       $pdata$?AfxClassInit@@YAXPEAUCRuntimeClass@@@Z 0000000140048164     Maindoc.obj
 0004:00001170       $pdata$?CreateObject@CTextView@@SAPEAVCObject@@XZ 0000000140048170     Simpvw.obj
 0004:0000117c       $pdata$?_ProcessWindowMessage@CColorView@@UEAAHPEAUHWND__@@I_K_JAEA_J@Z 000000014004817c     Simpvw.obj
 0004:0000117c       $pdata$?_ProcessWindowMessage@CTextView@@UEAAHPEAUHWND__@@I_K_JAEA_J@Z 000000014004817c     Simpvw.obj
 0004:00001188       $pdata$?OnDraw@CTextView@@UEAAXPEAVCDCMTL@@@Z 0000000140048188     Simpvw.obj
 0004:00001194       $pdata$?CreateObject@CColorView@@SAPEAVCObject@@XZ 0000000140048194     Simpvw.obj
 0004:000011a0       $pdata$?OnDraw@CColorView@@UEAAXPEAVCDCMTL@@@Z 00000001400481a0     Simpvw.obj
 0004:000011ac       $pdata$?CreateObject@CSplitterFrame@@SAPEAVCObject@@XZ 00000001400481ac     Splitter.obj
 0004:000011b8       $pdata$??_GCSplitterFrame@@UEAAPEAXI@Z 00000001400481b8     Splitter.obj
 0004:000011c4       $pdata$??1CSplitterFrame@@UEAA@XZ 00000001400481c4     Splitter.obj
 0004:000011d0       $pdata$?OnCreateClient@CSplitterFrame@@UEAAHPEAUtagCREATESTRUCTA@@PEAUCCreateContext@@@Z 00000001400481d0     Splitter.obj
 0004:000011dc       $pdata$?CreateObject@C3WaySplitterFrame@@SAPEAVCObject@@XZ 00000001400481dc     Splitter.obj
 0004:000011e8       $pdata$??0C3WaySplitterFrame@@IEAA@XZ 00000001400481e8     Splitter.obj
 0004:000011f4       $pdata$??_GC3WaySplitterFrame@@UEAAPEAXI@Z 00000001400481f4     Splitter.obj
 0004:00001200       $pdata$??1C3WaySplitterFrame@@UEAA@XZ 0000000140048200     Splitter.obj
 0004:0000120c       $pdata$?OnCreateClient@C3WaySplitterFrame@@UEAAHPEAUtagCREATESTRUCTA@@PEAUCCreateContext@@@Z 000000014004820c     Splitter.obj
 0004:00001218       $pdata$??_GCSplitterWnd@@UEAAPEAXI@Z 0000000140048218     Splitter.obj
 0004:00001218       $pdata$??_GCViewExSplitWnd@@UEAAPEAXI@Z 0000000140048218     Splitter.obj
 0004:00001224       $pdata$??1CViewExSplitWnd@@UEAA@XZ 0000000140048224     Splitter.obj
 0004:00001230       $pdata$?GetActivePane@CViewExSplitWnd@@UEAAPEAVCWnd@@PEAH0@Z 0000000140048230     Splitter.obj
 0004:0000123c       $pdata$?OnHScroll@CSplitterWnd@@QEAAXIIPEAVCScrollBarMTL@@@Z 000000014004823c     Splitter.obj
 0004:00001248       $pdata$?OnKeyDown@CSplitterWnd@@QEAAXIII@Z 0000000140048248     Splitter.obj
 0004:00001254       $pdata$?OnLButtonDblClk@CSplitterWnd@@QEAAXIVCPoint@WTL@@@Z 0000000140048254     Splitter.obj
 0004:00001260       $pdata$0$?OnLButtonDblClk@CSplitterWnd@@QEAAXIVCPoint@WTL@@@Z 0000000140048260     Splitter.obj
 0004:0000126c       $pdata$1$?OnLButtonDblClk@CSplitterWnd@@QEAAXIVCPoint@WTL@@@Z 000000014004826c     Splitter.obj
 0004:00001278       $pdata$?GetCapture@CWnd@@SAPEAV1@XZ 0000000140048278     Splitter.obj
 0004:00001284       $pdata$3$?GetCapture@CWnd@@SAPEAV1@XZ 0000000140048284     Splitter.obj
 0004:00001290       $pdata$4$?GetCapture@CWnd@@SAPEAV1@XZ 0000000140048290     Splitter.obj
 0004:0000129c       $pdata$5$?GetCapture@CWnd@@SAPEAV1@XZ 000000014004829c     Splitter.obj
 0004:000012a8       $pdata$6$?GetCapture@CWnd@@SAPEAV1@XZ 00000001400482a8     Splitter.obj
 0004:000012b4       $pdata$7$?GetCapture@CWnd@@SAPEAV1@XZ 00000001400482b4     Splitter.obj
 0004:000012c0       $pdata$8$?GetCapture@CWnd@@SAPEAV1@XZ 00000001400482c0     Splitter.obj
 0004:000012cc       $pdata$?OnMouseMove@CSplitterWnd@@QEAAXIVCPoint@WTL@@@Z 00000001400482cc     Splitter.obj
 0004:000012d8       $pdata$0$?OnMouseMove@CSplitterWnd@@QEAAXIVCPoint@WTL@@@Z 00000001400482d8     Splitter.obj
 0004:000012e4       $pdata$1$?OnMouseMove@CSplitterWnd@@QEAAXIVCPoint@WTL@@@Z 00000001400482e4     Splitter.obj
 0004:000012f0       $pdata$?OnMouseWheel@CSplitterWnd@@QEAAHIFVCPoint@WTL@@@Z 00000001400482f0     Splitter.obj
 0004:000012fc       $pdata$?OnNcCreate@CSplitterWnd@@QEAAHPEAUtagCREATESTRUCTA@@@Z 00000001400482fc     Splitter.obj
 0004:00001308       $pdata$?OnPaint@CSplitterWnd@@QEAAXXZ 0000000140048308     Splitter.obj
 0004:00001314       $pdata$?OnSysCommand@CSplitterWnd@@QEAAXI_J@Z 0000000140048314     Splitter.obj
 0004:00001320       $pdata$?OnVScroll@CSplitterWnd@@QEAAXIIPEAVCScrollBarMTL@@@Z 0000000140048320     Splitter.obj
 0004:0000132c       $pdata$?_ProcessWindowMessage@CSplitterWnd@@UEAAHPEAUHWND__@@I_K_JAEA_J@Z 000000014004832c     Splitter.obj
 0004:00001338       $pdata$?OnCommand@CSplitterWnd@@UEAAH_K_J@Z 0000000140048338     Splitter.obj
 0004:00001344       $pdata$?OnNotify@CSplitterWnd@@UEAAH_K_JPEA_J@Z 0000000140048344     Splitter.obj
 0004:00001350       $pdata$?OnDraw@CSplitterWnd@@UEAAXPEAVCDCMTL@@@Z 0000000140048350     Splitter.obj
 0004:0000135c       $pdata$?CanActivateNext@CSplitterWnd@@UEAAHH@Z 000000014004835c     Splitter.obj
 0004:00001368       $pdata$?Create@CSplitterWnd@@UEAAHPEAVCWnd@@HHUtagSIZE@@PEAUCCreateContext@@KI@Z 0000000140048368     Splitter.obj
 0004:00001374       $pdata$?AfxThrowResourceException@@YAXXZ 0000000140048374     Splitter.obj
 0004:00001380       $pdata$?SetScrollStyle@CSplitterWnd@@QEAAXK@Z 0000000140048380     Splitter.obj
 0004:0000138c       $pdata$0$?SetScrollStyle@CSplitterWnd@@QEAAXK@Z 000000014004838c     Splitter.obj
 0004:00001398       $pdata$2$?SetScrollStyle@CSplitterWnd@@QEAAXK@Z 0000000140048398     Splitter.obj
 0004:000013a4       $pdata$3$?SetScrollStyle@CSplitterWnd@@QEAAXK@Z 00000001400483a4     Splitter.obj
 0004:000013b0       $pdata$4$?SetScrollStyle@CSplitterWnd@@QEAAXK@Z 00000001400483b0     Splitter.obj
 0004:000013bc       $pdata$?CreateCommon@CSplitterWnd@@QEAAHPEAVCWnd@@UtagSIZE@@KI@Z 00000001400483bc     Splitter.obj
 0004:000013c8       $pdata$?CreateStatic@CSplitterWnd@@UEAAHPEAVCWnd@@HHKI@Z 00000001400483c8     Splitter.obj
 0004:000013d4       $pdata$?DoKeyboardSplit@CSplitterWnd@@UEAAHXZ 00000001400483d4     Splitter.obj
 0004:000013e0       $pdata$?DoScroll@CSplitterWnd@@UEAAHPEAVCView@@IH@Z 00000001400483e0     Splitter.obj
 0004:000013ec       $pdata$0$?DoScroll@CSplitterWnd@@UEAAHPEAVCView@@IH@Z 00000001400483ec     Splitter.obj
 0004:000013f8       $pdata$2$?DoScroll@CSplitterWnd@@UEAAHPEAVCView@@IH@Z 00000001400483f8     Splitter.obj
 0004:00001404       $pdata$3$?DoScroll@CSplitterWnd@@UEAAHPEAVCView@@IH@Z 0000000140048404     Splitter.obj
 0004:00001410       $pdata$4$?DoScroll@CSplitterWnd@@UEAAHPEAVCView@@IH@Z 0000000140048410     Splitter.obj
 0004:0000141c       $pdata$?DoScrollBy@CSplitterWnd@@UEAAHPEAVCView@@VCSize@WTL@@H@Z 000000014004841c     Splitter.obj
 0004:00001428       $pdata$2$?DoScrollBy@CSplitterWnd@@UEAAHPEAVCView@@VCSize@WTL@@H@Z 0000000140048428     Splitter.obj
 0004:00001434       $pdata$3$?DoScrollBy@CSplitterWnd@@UEAAHPEAVCView@@VCSize@WTL@@H@Z 0000000140048434     Splitter.obj
 0004:00001440       $pdata$?HitTest@CSplitterWnd@@UEBAHVCPoint@WTL@@@Z 0000000140048440     Splitter.obj
 0004:0000144c       $pdata$1$?HitTest@CSplitterWnd@@UEBAHVCPoint@WTL@@@Z 000000014004844c     Splitter.obj
 0004:00001458       $pdata$2$?HitTest@CSplitterWnd@@UEBAHVCPoint@WTL@@@Z 0000000140048458     Splitter.obj
 0004:00001464       $pdata$3$?HitTest@CSplitterWnd@@UEBAHVCPoint@WTL@@@Z 0000000140048464     Splitter.obj
 0004:00001470       $pdata$4$?HitTest@CSplitterWnd@@UEBAHVCPoint@WTL@@@Z 0000000140048470     Splitter.obj
 0004:0000147c       $pdata$?GetHitRect@CSplitterWnd@@UEAAXHAEAVCRect@WTL@@@Z 000000014004847c     Splitter.obj
 0004:00001488       $pdata$3$?GetHitRect@CSplitterWnd@@UEAAXHAEAVCRect@WTL@@@Z 0000000140048488     Splitter.obj
 0004:00001494       $pdata$4$?GetHitRect@CSplitterWnd@@UEAAXHAEAVCRect@WTL@@@Z 0000000140048494     Splitter.obj
 0004:000014a0       $pdata$?SetSplitCursor@CSplitterWnd@@UEAAXH@Z 00000001400484a0     Splitter.obj
 0004:000014ac       $pdata$?StartTracking@CSplitterWnd@@UEAAXH@Z 00000001400484ac     Splitter.obj
 0004:000014b8       $pdata$3$?StartTracking@CSplitterWnd@@UEAAXH@Z 00000001400484b8     Splitter.obj
 0004:000014c4       $pdata$4$?StartTracking@CSplitterWnd@@UEAAXH@Z 00000001400484c4     Splitter.obj
 0004:000014d0       $pdata$5$?StartTracking@CSplitterWnd@@UEAAXH@Z 00000001400484d0     Splitter.obj
 0004:000014dc       $pdata$?FromHandle@?$CHandleList@PEAUHDC__@@VCDCMTL@@PEAUHWND__@@@@QEAAPEAVCDCMTL@@QEAUHDC__@@PEAV2@QEAUHWND__@@Q6APEAXPEAX3@Z@Z 00000001400484dc     Splitter.obj
 0004:000014e8       $pdata$1$?FromHandle@?$CHandleList@PEAUHDC__@@VCDCMTL@@PEAUHWND__@@@@QEAAPEAVCDCMTL@@QEAUHDC__@@PEAV2@QEAUHWND__@@Q6APEAXPEAX3@Z@Z 00000001400484e8     Splitter.obj
 0004:000014f4       $pdata$2$?FromHandle@?$CHandleList@PEAUHDC__@@VCDCMTL@@PEAUHWND__@@@@QEAAPEAVCDCMTL@@QEAUHDC__@@PEAV2@QEAUHWND__@@Q6APEAXPEAX3@Z@Z 00000001400484f4     Splitter.obj
 0004:00001500       $pdata$3$?FromHandle@?$CHandleList@PEAUHDC__@@VCDCMTL@@PEAUHWND__@@@@QEAAPEAVCDCMTL@@QEAUHDC__@@PEAV2@QEAUHWND__@@Q6APEAXPEAX3@Z@Z 0000000140048500     Splitter.obj
 0004:0000150c       $pdata$?classHandleFuncCDCMTL@CDCMTL@@SAPEAXPEAX0@Z 000000014004850c     Splitter.obj
 0004:00001518       $pdata$?HalftoneBrush@CAfx@@SAPEAUHBRUSH__@@H@Z 0000000140048518     Splitter.obj
 0004:00001524       $pdata$0$?HalftoneBrush@CAfx@@SAPEAUHBRUSH__@@H@Z 0000000140048524     Splitter.obj
 0004:00001530       $pdata$1$?HalftoneBrush@CAfx@@SAPEAUHBRUSH__@@H@Z 0000000140048530     Splitter.obj
 0004:0000153c       $pdata$?FromHandle@?$CHandleList@PEAXVCGdiObject@@PEAUHWND__@@@@QEAAPEAVCGdiObject@@QEAXPEAV2@QEAUHWND__@@Q6APEAXPEAX3@Z@Z 000000014004853c     Splitter.obj
 0004:00001548       $pdata$1$?FromHandle@?$CHandleList@PEAXVCGdiObject@@PEAUHWND__@@@@QEAAPEAVCGdiObject@@QEAXPEAV2@QEAUHWND__@@Q6APEAXPEAX3@Z@Z 0000000140048548     Splitter.obj
 0004:00001554       $pdata$2$?FromHandle@?$CHandleList@PEAXVCGdiObject@@PEAUHWND__@@@@QEAAPEAVCGdiObject@@QEAXPEAV2@QEAUHWND__@@Q6APEAXPEAX3@Z@Z 0000000140048554     Splitter.obj
 0004:00001560       $pdata$3$?FromHandle@?$CHandleList@PEAXVCGdiObject@@PEAUHWND__@@@@QEAAPEAVCGdiObject@@QEAXPEAV2@QEAUHWND__@@Q6APEAXPEAX3@Z@Z 0000000140048560     Splitter.obj
 0004:0000156c       $pdata$?classHandleFuncCBrushMTL@CBrushMTL@@SAPEAXPEAX0@Z 000000014004856c     Splitter.obj
 0004:00001578       $pdata$?OnInvertTracker@CSplitterWnd@@UEAAXAEBVCRect@WTL@@@Z 0000000140048578     Splitter.obj
 0004:00001584       $pdata$?SplitRow@CSplitterWnd@@UEAAHH@Z 0000000140048584     Splitter.obj
 0004:00001590       $pdata$2$?SplitRow@CSplitterWnd@@UEAAHH@Z 0000000140048590     Splitter.obj
 0004:0000159c       $pdata$4$?SplitRow@CSplitterWnd@@UEAAHH@Z 000000014004859c     Splitter.obj
 0004:000015a8       $pdata$?CreateScrollBarCtrl@CSplitterWnd@@UEAAHKI@Z 00000001400485a8     Splitter.obj
 0004:000015b4       $pdata$?CreateView@CSplitterWnd@@UEAAHHHPEAUCRuntimeClass@@UtagSIZE@@PEAUCCreateContext@@@Z 00000001400485b4     Splitter.obj
 0004:000015c0       $pdata$?SplitColumn@CSplitterWnd@@UEAAHH@Z 00000001400485c0     Splitter.obj
 0004:000015cc       $pdata$2$?SplitColumn@CSplitterWnd@@UEAAHH@Z 00000001400485cc     Splitter.obj
 0004:000015d8       $pdata$4$?SplitColumn@CSplitterWnd@@UEAAHH@Z 00000001400485d8     Splitter.obj
 0004:000015e4       $pdata$?StopTracking@CSplitterWnd@@UEAAXH@Z 00000001400485e4     Splitter.obj
 0004:000015f0       $pdata$2$?StopTracking@CSplitterWnd@@UEAAXH@Z 00000001400485f0     Splitter.obj
 0004:000015fc       $pdata$3$?StopTracking@CSplitterWnd@@UEAAXH@Z 00000001400485fc     Splitter.obj
 0004:00001608       $pdata$4$?StopTracking@CSplitterWnd@@UEAAXH@Z 0000000140048608     Splitter.obj
 0004:00001614       $pdata$?DeleteColumn@CSplitterWnd@@UEAAXH@Z 0000000140048614     Splitter.obj
 0004:00001620       $pdata$1$?DeleteColumn@CSplitterWnd@@UEAAXH@Z 0000000140048620     Splitter.obj
 0004:0000162c       $pdata$6$?DeleteColumn@CSplitterWnd@@UEAAXH@Z 000000014004862c     Splitter.obj
 0004:00001638       $pdata$7$?DeleteColumn@CSplitterWnd@@UEAAXH@Z 0000000140048638     Splitter.obj
 0004:00001644       $pdata$8$?DeleteColumn@CSplitterWnd@@UEAAXH@Z 0000000140048644     Splitter.obj
 0004:00001650       $pdata$?TrackColumnSize@CSplitterWnd@@UEAAXHH@Z 0000000140048650     Splitter.obj
 0004:0000165c       $pdata$?GetFocus@CWnd@@SAPEAV1@XZ 000000014004865c     Splitter.obj
 0004:00001668       $pdata$3$?GetFocus@CWnd@@SAPEAV1@XZ 0000000140048668     Splitter.obj
 0004:00001674       $pdata$4$?GetFocus@CWnd@@SAPEAV1@XZ 0000000140048674     Splitter.obj
 0004:00001680       $pdata$5$?GetFocus@CWnd@@SAPEAV1@XZ 0000000140048680     Splitter.obj
 0004:0000168c       $pdata$6$?GetFocus@CWnd@@SAPEAV1@XZ 000000014004868c     Splitter.obj
 0004:00001698       $pdata$7$?GetFocus@CWnd@@SAPEAV1@XZ 0000000140048698     Splitter.obj
 0004:000016a4       $pdata$8$?GetFocus@CWnd@@SAPEAV1@XZ 00000001400486a4     Splitter.obj
 0004:000016b0       $pdata$?IsChildPane@CSplitterWnd@@QEAAHPEAVCWnd@@PEAH1@Z 00000001400486b0     Splitter.obj
 0004:000016bc       $pdata$?GetActivePane@CSplitterWnd@@UEAAPEAVCWnd@@PEAH0@Z 00000001400486bc     Splitter.obj
 0004:000016c8       $pdata$?SetActivePane@CSplitterWnd@@UEAAXHHPEAVCWnd@@@Z 00000001400486c8     Splitter.obj
 0004:000016d4       $pdata$?ActivateNext@CSplitterWnd@@UEAAXH@Z 00000001400486d4     Splitter.obj
 0004:000016e0       $pdata$?DeleteView@CSplitterWnd@@UEAAXHH@Z 00000001400486e0     Splitter.obj
 0004:000016ec       $pdata$?GetInsideRect@CSplitterWnd@@UEBAXAEAVCRect@WTL@@@Z 00000001400486ec     Splitter.obj
 0004:000016f8       $pdata$?_AfxLayoutRowCol@CSplitterWnd@@QEAAXPEAUCRowColInfo@1@HHH@Z 00000001400486f8     Splitter.obj
 0004:00001704       $pdata$?GetSizingParent@CSplitterWnd@@QEAAPEAVCWnd@@XZ 0000000140048704     Splitter.obj
 0004:00001710       $pdata$?GetDlgItem@CWnd@@QEAAPEAV1@H@Z 0000000140048710     Splitter.obj
 0004:0000171c       $pdata$3$?GetDlgItem@CWnd@@QEAAPEAV1@H@Z 000000014004871c     Splitter.obj
 0004:00001728       $pdata$4$?GetDlgItem@CWnd@@QEAAPEAV1@H@Z 0000000140048728     Splitter.obj
 0004:00001734       $pdata$5$?GetDlgItem@CWnd@@QEAAPEAV1@H@Z 0000000140048734     Splitter.obj
 0004:00001740       $pdata$6$?GetDlgItem@CWnd@@QEAAPEAV1@H@Z 0000000140048740     Splitter.obj
 0004:0000174c       $pdata$7$?GetDlgItem@CWnd@@QEAAPEAV1@H@Z 000000014004874c     Splitter.obj
 0004:00001758       $pdata$8$?GetDlgItem@CWnd@@QEAAPEAV1@H@Z 0000000140048758     Splitter.obj
 0004:00001764       $pdata$?_AfxDeferClientPos@CSplitterWnd@@QEAAXPEAUAFX_SIZEPARENTPARAMS@@PEAVCWnd@@HHHHH@Z 0000000140048764     Splitter.obj
 0004:00001770       $pdata$0$?_AfxDeferClientPos@CSplitterWnd@@QEAAXPEAUAFX_SIZEPARENTPARAMS@@PEAVCWnd@@HHHHH@Z 0000000140048770     Splitter.obj
 0004:0000177c       $pdata$4$?_AfxDeferClientPos@CSplitterWnd@@QEAAXPEAUAFX_SIZEPARENTPARAMS@@PEAVCWnd@@HHHHH@Z 000000014004877c     Splitter.obj
 0004:00001788       $pdata$5$?_AfxDeferClientPos@CSplitterWnd@@QEAAXPEAUAFX_SIZEPARENTPARAMS@@PEAVCWnd@@HHHHH@Z 0000000140048788     Splitter.obj
 0004:00001794       $pdata$6$?_AfxDeferClientPos@CSplitterWnd@@QEAAXPEAUAFX_SIZEPARENTPARAMS@@PEAVCWnd@@HHHHH@Z 0000000140048794     Splitter.obj
 0004:000017a0       $pdata$7$?_AfxDeferClientPos@CSplitterWnd@@QEAAXPEAUAFX_SIZEPARENTPARAMS@@PEAVCWnd@@HHHHH@Z 00000001400487a0     Splitter.obj
 0004:000017ac       $pdata$8$?_AfxDeferClientPos@CSplitterWnd@@QEAAXPEAUAFX_SIZEPARENTPARAMS@@PEAVCWnd@@HHHHH@Z 00000001400487ac     Splitter.obj
 0004:000017b8       $pdata$?FillSolidRect@?$CDCT@$00@WTL@@QEAAXHHHHK@Z 00000001400487b8     Splitter.obj
 0004:000017c4       $pdata$?Draw3dRect@?$CDCT@$00@WTL@@QEAAXHHHHKK@Z 00000001400487c4     Splitter.obj
 0004:000017d0       $pdata$?OnDrawSplitter@CSplitterWnd@@UEAAXPEAVCDCMTL@@W4ESplitType@1@AEBVCRect@WTL@@@Z 00000001400487d0     Splitter.obj
 0004:000017dc       $pdata$0$?OnDrawSplitter@CSplitterWnd@@UEAAXPEAVCDCMTL@@W4ESplitType@1@AEBVCRect@WTL@@@Z 00000001400487dc     Splitter.obj
 0004:000017e8       $pdata$1$?OnDrawSplitter@CSplitterWnd@@UEAAXPEAVCDCMTL@@W4ESplitType@1@AEBVCRect@WTL@@@Z 00000001400487e8     Splitter.obj
 0004:000017f4       $pdata$?DrawAllSplitBars@CSplitterWnd@@UEAAXPEAVCDCMTL@@HH@Z 00000001400487f4     Splitter.obj
 0004:00001800       $pdata$?RecalcLayout@CSplitterWnd@@UEAAXXZ 0000000140048800     Splitter.obj
 0004:0000180c       $pdata$5$?RecalcLayout@CSplitterWnd@@UEAAXXZ 000000014004880c     Splitter.obj
 0004:00001818       $pdata$6$?RecalcLayout@CSplitterWnd@@UEAAXXZ 0000000140048818     Splitter.obj
 0004:00001824       $pdata$?DeleteRow@CSplitterWnd@@UEAAXH@Z 0000000140048824     Splitter.obj
 0004:00001830       $pdata$1$?DeleteRow@CSplitterWnd@@UEAAXH@Z 0000000140048830     Splitter.obj
 0004:0000183c       $pdata$5$?DeleteRow@CSplitterWnd@@UEAAXH@Z 000000014004883c     Splitter.obj
 0004:00001848       $pdata$6$?DeleteRow@CSplitterWnd@@UEAAXH@Z 0000000140048848     Splitter.obj
 0004:00001854       $pdata$7$?DeleteRow@CSplitterWnd@@UEAAXH@Z 0000000140048854     Splitter.obj
 0004:00001860       $pdata$?TrackRowSize@CSplitterWnd@@UEAAXHH@Z 0000000140048860     Splitter.obj
 0004:0000186c       $pdata$??0CSplitterWnd@@QEAA@XZ 000000014004886c     Splitter.obj
 0004:00001878       $pdata$?AddFrameWnd@CFrameWnd@@QEAAXXZ 0000000140048878     Splitter.obj
 0004:00001884       $pdata$??0CFrameWnd@@QEAA@XZ 0000000140048884     Splitter.obj
 0004:00001890       $pdata$?OnUpdateFrameMenu@CMDIChildWnd@@QEAAXHPEAVCWnd@@PEAUHMENU__@@@Z 0000000140048890     Splitter.obj
 0004:0000189c       $pdata$?OnMDIActivate@CMDIChildWnd@@QEAAXHPEAVCWnd@@0@Z 000000014004889c     Splitter.obj
 0004:000018a8       $pdata$?UpdateClientEdge@CMDIChildWnd@@QEAAHPEAUtagRECT@@@Z 00000001400488a8     Splitter.obj
 0004:000018b4       $pdata$0$?UpdateClientEdge@CMDIChildWnd@@QEAAHPEAUtagRECT@@@Z 00000001400488b4     Splitter.obj
 0004:000018c0       $pdata$1$?UpdateClientEdge@CMDIChildWnd@@QEAAHPEAUtagRECT@@@Z 00000001400488c0     Splitter.obj
 0004:000018cc       $pdata$?OnWindowPosChanging@CMDIChildWnd@@QEAAXPEAUtagWINDOWPOS@@@Z 00000001400488cc     Splitter.obj
 0004:000018d8       $pdata$0$?OnWindowPosChanging@CMDIChildWnd@@QEAAXPEAUtagWINDOWPOS@@@Z 00000001400488d8     Splitter.obj
 0004:000018e4       $pdata$1$?OnWindowPosChanging@CMDIChildWnd@@QEAAXPEAUtagWINDOWPOS@@@Z 00000001400488e4     Splitter.obj
 0004:000018f0       $pdata$?_ProcessWindowMessage@CMDIChildWnd@@UEAAHPEAUHWND__@@I_K_JAEA_J@Z 00000001400488f0     Splitter.obj
 0004:000018fc       $pdata$0$?_ProcessWindowMessage@CMDIChildWnd@@UEAAHPEAUHWND__@@I_K_JAEA_J@Z 00000001400488fc     Splitter.obj
 0004:00001908       $pdata$7$?_ProcessWindowMessage@CMDIChildWnd@@UEAAHPEAUHWND__@@I_K_JAEA_J@Z 0000000140048908     Splitter.obj
 0004:00001914       $pdata$9$?_ProcessWindowMessage@CMDIChildWnd@@UEAAHPEAUHWND__@@I_K_JAEA_J@Z 0000000140048914     Splitter.obj
 0004:00001920       $pdata$11$?_ProcessWindowMessage@CMDIChildWnd@@UEAAHPEAUHWND__@@I_K_JAEA_J@Z 0000000140048920     Splitter.obj
 0004:0000192c       $pdata$13$?_ProcessWindowMessage@CMDIChildWnd@@UEAAHPEAUHWND__@@I_K_JAEA_J@Z 000000014004892c     Splitter.obj
 0004:00001938       $pdata$15$?_ProcessWindowMessage@CMDIChildWnd@@UEAAHPEAUHWND__@@I_K_JAEA_J@Z 0000000140048938     Splitter.obj
 0004:00001944       $pdata$17$?_ProcessWindowMessage@CMDIChildWnd@@UEAAHPEAUHWND__@@I_K_JAEA_J@Z 0000000140048944     Splitter.obj
 0004:00001950       $pdata$19$?_ProcessWindowMessage@CMDIChildWnd@@UEAAHPEAUHWND__@@I_K_JAEA_J@Z 0000000140048950     Splitter.obj
 0004:0000195c       $pdata$21$?_ProcessWindowMessage@CMDIChildWnd@@UEAAHPEAUHWND__@@I_K_JAEA_J@Z 000000014004895c     Splitter.obj
 0004:00001968       $pdata$??_GCFrameWnd@@UEAAPEAXI@Z 0000000140048968     Splitter.obj
 0004:00001968       $pdata$??_GCMDIChildWnd@@UEAAPEAXI@Z 0000000140048968     Splitter.obj
 0004:00001968       $pdata$??_GCMDIFrameWnd@@UEAAPEAXI@Z 0000000140048968     Stdafx.obj
 0004:00001974       $pdata$?DestroyWindow@CMDIChildWnd@@UEAAHXZ 0000000140048974     Splitter.obj
 0004:00001980       $pdata$?PreTranslateMessage@CMDIChildWnd@@UEAAHPEAUtagMSG@@@Z 0000000140048980     Splitter.obj
 0004:0000198c       $pdata$0$?PreTranslateMessage@CMDIChildWnd@@UEAAHPEAUtagMSG@@@Z 000000014004898c     Splitter.obj
 0004:00001998       $pdata$2$?PreTranslateMessage@CMDIChildWnd@@UEAAHPEAUtagMSG@@@Z 0000000140048998     Splitter.obj
 0004:000019a4       $pdata$3$?PreTranslateMessage@CMDIChildWnd@@UEAAHPEAUtagMSG@@@Z 00000001400489a4     Splitter.obj
 0004:000019b0       $pdata$?OnUpdateFrameTitle@CMDIChildWnd@@UEAAXH@Z 00000001400489b0     Splitter.obj
 0004:000019bc       $pdata$?MDIGetActive@CMDIFrameWnd@@QEBAPEAVCMDIChildWnd@@PEAH@Z 00000001400489bc     Splitter.obj
 0004:000019c8       $pdata$3$?MDIGetActive@CMDIFrameWnd@@QEBAPEAVCMDIChildWnd@@PEAH@Z 00000001400489c8     Splitter.obj
 0004:000019d4       $pdata$4$?MDIGetActive@CMDIFrameWnd@@QEBAPEAVCMDIChildWnd@@PEAH@Z 00000001400489d4     Splitter.obj
 0004:000019e0       $pdata$5$?MDIGetActive@CMDIFrameWnd@@QEBAPEAVCMDIChildWnd@@PEAH@Z 00000001400489e0     Splitter.obj
 0004:000019ec       $pdata$6$?MDIGetActive@CMDIFrameWnd@@QEBAPEAVCMDIChildWnd@@PEAH@Z 00000001400489ec     Splitter.obj
 0004:000019f8       $pdata$7$?MDIGetActive@CMDIFrameWnd@@QEBAPEAVCMDIChildWnd@@PEAH@Z 00000001400489f8     Splitter.obj
 0004:00001a04       $pdata$8$?MDIGetActive@CMDIFrameWnd@@QEBAPEAVCMDIChildWnd@@PEAH@Z 0000000140048a04     Splitter.obj
 0004:00001a10       $pdata$9$?MDIGetActive@CMDIFrameWnd@@QEBAPEAVCMDIChildWnd@@PEAH@Z 0000000140048a10     Splitter.obj
 0004:00001a1c       $pdata$10$?MDIGetActive@CMDIFrameWnd@@QEBAPEAVCMDIChildWnd@@PEAH@Z 0000000140048a1c     Splitter.obj
 0004:00001a28       $pdata$?GetMDIFrame@CMDIChildWnd@@QEAAPEAVCMDIFrameWnd@@XZ 0000000140048a28     Splitter.obj
 0004:00001a34       $pdata$3$?GetMDIFrame@CMDIChildWnd@@QEAAPEAVCMDIFrameWnd@@XZ 0000000140048a34     Splitter.obj
 0004:00001a40       $pdata$4$?GetMDIFrame@CMDIChildWnd@@QEAAPEAVCMDIFrameWnd@@XZ 0000000140048a40     Splitter.obj
 0004:00001a4c       $pdata$5$?GetMDIFrame@CMDIChildWnd@@QEAAPEAVCMDIFrameWnd@@XZ 0000000140048a4c     Splitter.obj
 0004:00001a58       $pdata$6$?GetMDIFrame@CMDIChildWnd@@QEAAPEAVCMDIFrameWnd@@XZ 0000000140048a58     Splitter.obj
 0004:00001a64       $pdata$7$?GetMDIFrame@CMDIChildWnd@@QEAAPEAVCMDIFrameWnd@@XZ 0000000140048a64     Splitter.obj
 0004:00001a70       $pdata$8$?GetMDIFrame@CMDIChildWnd@@QEAAPEAVCMDIFrameWnd@@XZ 0000000140048a70     Splitter.obj
 0004:00001a7c       $pdata$?ActivateFrame@CMDIChildWnd@@UEAAXH@Z 0000000140048a7c     Splitter.obj
 0004:00001a88       $pdata$?LoadFrame@CMDIChildWnd@@UEAAHIKPEAVCWnd@@PEAUCCreateContext@@@Z 0000000140048a88     Splitter.obj
 0004:00001a94       $pdata$?PreCreateWindow@CMDIChildWnd@@UEAAHAEAUtagCREATESTRUCTA@@@Z 0000000140048a94     Splitter.obj
 0004:00001a94       $pdata$?PreCreateWindow@CFrameWnd@@UEAAHAEAUtagCREATESTRUCTA@@@Z 0000000140048a94     Splitter.obj
 0004:00001aa0       $pdata$?CanCloseFrame@CDocument@@QEAAHPEAVCFrameWnd@@@Z 0000000140048aa0     Splitter.obj
 0004:00001aac       $pdata$?SaveAllModified@CDocManager@@QEAAHXZ 0000000140048aac     Splitter.obj
 0004:00001ab8       $pdata$?CloseAllDocuments@CDocTemplate@@QEAAXH@Z 0000000140048ab8     Splitter.obj
 0004:00001ac4       $pdata$3$?CloseAllDocuments@CDocTemplate@@QEAAXH@Z 0000000140048ac4     Splitter.obj
 0004:00001ad0       $pdata$4$?CloseAllDocuments@CDocTemplate@@QEAAXH@Z 0000000140048ad0     Splitter.obj
 0004:00001adc       $pdata$?OnClose@CFrameWnd@@QEAAXXZ 0000000140048adc     Splitter.obj
 0004:00001ae8       $pdata$2$?OnClose@CFrameWnd@@QEAAXXZ 0000000140048ae8     Splitter.obj
 0004:00001af4       $pdata$3$?OnClose@CFrameWnd@@QEAAXXZ 0000000140048af4     Splitter.obj
 0004:00001b00       $pdata$?OnCreateHelper@CFrameWnd@@QEAAHPEAUtagCREATESTRUCTA@@PEAUCCreateContext@@@Z 0000000140048b00     Splitter.obj
 0004:00001b0c       $pdata$?DestroyDockBars@CFrameWnd@@QEAAXXZ 0000000140048b0c     Splitter.obj
 0004:00001b18       $pdata$?OnDestroy@CFrameWnd@@QEAAXXZ 0000000140048b18     Splitter.obj
 0004:00001b24       $pdata$0$?OnDestroy@CFrameWnd@@QEAAXXZ 0000000140048b24     Splitter.obj
 0004:00001b30       $pdata$1$?OnDestroy@CFrameWnd@@QEAAXXZ 0000000140048b30     Splitter.obj
 0004:00001b3c       $pdata$?SetActiveWindow@CWnd@@QEAAPEAV1@XZ 0000000140048b3c     Splitter.obj
 0004:00001b48       $pdata$3$?SetActiveWindow@CWnd@@QEAAPEAV1@XZ 0000000140048b48     Splitter.obj
 0004:00001b54       $pdata$4$?SetActiveWindow@CWnd@@QEAAPEAV1@XZ 0000000140048b54     Splitter.obj
 0004:00001b60       $pdata$5$?SetActiveWindow@CWnd@@QEAAPEAV1@XZ 0000000140048b60     Splitter.obj
 0004:00001b6c       $pdata$6$?SetActiveWindow@CWnd@@QEAAPEAV1@XZ 0000000140048b6c     Splitter.obj
 0004:00001b78       $pdata$7$?SetActiveWindow@CWnd@@QEAAPEAV1@XZ 0000000140048b78     Splitter.obj
 0004:00001b84       $pdata$8$?SetActiveWindow@CWnd@@QEAAPEAV1@XZ 0000000140048b84     Splitter.obj
 0004:00001b90       $pdata$?OnDropFiles@CFrameWnd@@QEAAXPEAUHDROP__@@@Z 0000000140048b90     Splitter.obj
 0004:00001b9c       $pdata$?OnIdle@CCmdUI@@QEAAHPEAVCCmdTarget@@H@Z 0000000140048b9c     Splitter.obj
 0004:00001ba8       $pdata$?OnInitMenuPopup@CFrameWnd@@QEAAXPEAVCMenuMTL@@IH@Z 0000000140048ba8     Splitter.obj
 0004:00001bb4       $pdata$2$?OnInitMenuPopup@CFrameWnd@@QEAAXPEAVCMenuMTL@@IH@Z 0000000140048bb4     Splitter.obj
 0004:00001bc0       $pdata$3$?OnInitMenuPopup@CFrameWnd@@QEAAXPEAVCMenuMTL@@IH@Z 0000000140048bc0     Splitter.obj
 0004:00001bcc       $pdata$4$?OnInitMenuPopup@CFrameWnd@@QEAAXPEAVCMenuMTL@@IH@Z 0000000140048bcc     Splitter.obj
 0004:00001bd8       $pdata$5$?OnInitMenuPopup@CFrameWnd@@QEAAXPEAVCMenuMTL@@IH@Z 0000000140048bd8     Splitter.obj
 0004:00001be4       $pdata$6$?OnInitMenuPopup@CFrameWnd@@QEAAXPEAVCMenuMTL@@IH@Z 0000000140048be4     Splitter.obj
 0004:00001bf0       $pdata$?SetMenuBarState@CFrameWnd@@QEAAHK@Z 0000000140048bf0     Splitter.obj
 0004:00001bfc       $pdata$?OnMenuSelect@CFrameWnd@@QEAAXIIPEAUHMENU__@@@Z 0000000140048bfc     Splitter.obj
 0004:00001c08       $pdata$?OnSize@CFrameWnd@@QEAAXIHH@Z 0000000140048c08     Splitter.obj
 0004:00001c14       $pdata$?GetDescendantWindow@CWnd@@QEAAPEAV1@PEAUHWND__@@HH@Z 0000000140048c14     Splitter.obj
 0004:00001c20       $pdata$?_AtlGetStringResourceImage@CAfx@@SAPEBUATLSTRINGRESOURCEIMAGE@ATL@@PEAUHINSTANCE__@@PEAUHRSRC__@@I@Z 0000000140048c20     Splitter.obj
 0004:00001c2c       $pdata$?AfxLoadString@CAfx@@SAHIPEADI@Z 0000000140048c2c     Splitter.obj
 0004:00001c38       $pdata$?OnSetMessageString@CFrameWnd@@QEAA_J_K_J@Z 0000000140048c38     Splitter.obj
 0004:00001c44       $pdata$?OnIdleUpdateCmdUI@CFrameWnd@@QEAAXXZ 0000000140048c44     Splitter.obj
 0004:00001c50       $pdata$?_ProcessWindowMessage@CFrameWnd@@UEAAHPEAUHWND__@@I_K_JAEA_J@Z 0000000140048c50     Splitter.obj
 0004:00001c5c       $pdata$?OnCmdMsg@CFrameWnd@@UEAAHIHPEAXPEAUAFX_CMDHANDLERINFO@@@Z 0000000140048c5c     Splitter.obj
 0004:00001c68       $pdata$?PreTranslateMessage@CFrameWnd@@UEAAHPEAUtagMSG@@@Z 0000000140048c68     Splitter.obj
 0004:00001c74       $pdata$?CreateView@CFrameWnd@@QEAAPEAVCWnd@@PEAUCCreateContext@@I@Z 0000000140048c74     Splitter.obj
 0004:00001c80       $pdata$0$?CreateView@CFrameWnd@@QEAAPEAVCWnd@@PEAUCCreateContext@@I@Z 0000000140048c80     Splitter.obj
 0004:00001c8c       $pdata$1$?CreateView@CFrameWnd@@QEAAPEAVCWnd@@PEAUCCreateContext@@I@Z 0000000140048c8c     Splitter.obj
 0004:00001c98       $pdata$2$?CreateView@CFrameWnd@@QEAAPEAVCWnd@@PEAUCCreateContext@@I@Z 0000000140048c98     Splitter.obj
 0004:00001ca4       $pdata$3$?CreateView@CFrameWnd@@QEAAPEAVCWnd@@PEAUCCreateContext@@I@Z 0000000140048ca4     Splitter.obj
 0004:00001cb0       $pdata$?OnCreateClient@CFrameWnd@@UEAAHPEAUtagCREATESTRUCTA@@PEAUCCreateContext@@@Z 0000000140048cb0     Splitter.obj
 0004:00001cbc       $pdata$?ShowControlBar@CFrameWnd@@QEAAXPEAVCControlBar@@HH@Z 0000000140048cbc     Splitter.obj
 0004:00001cc8       $pdata$?AfxIsDescendant@CFrameWnd@@SAHPEAUHWND__@@0@Z 0000000140048cc8     Splitter.obj
 0004:00001cd4       $pdata$?ShowOwnedWindows@CFrameWnd@@QEAAXH@Z 0000000140048cd4     Splitter.obj
 0004:00001ce0       $pdata$4$?ShowOwnedWindows@CFrameWnd@@QEAAXH@Z 0000000140048ce0     Splitter.obj
 0004:00001cec       $pdata$5$?ShowOwnedWindows@CFrameWnd@@QEAAXH@Z 0000000140048cec     Splitter.obj
 0004:00001cf8       $pdata$?OnSetPreviewMode@CFrameWnd@@UEAAXHPEAUCPrintPreviewState@@@Z 0000000140048cf8     Splitter.obj
 0004:00001d04       $pdata$2$?OnSetPreviewMode@CFrameWnd@@UEAAXHPEAUCPrintPreviewState@@@Z 0000000140048d04     Splitter.obj
 0004:00001d10       $pdata$4$?OnSetPreviewMode@CFrameWnd@@UEAAXHPEAUCPrintPreviewState@@@Z 0000000140048d10     Splitter.obj
 0004:00001d1c       $pdata$5$?OnSetPreviewMode@CFrameWnd@@UEAAXHPEAUCPrintPreviewState@@@Z 0000000140048d1c     Splitter.obj
 0004:00001d28       $pdata$6$?OnSetPreviewMode@CFrameWnd@@UEAAXHPEAUCPrintPreviewState@@@Z 0000000140048d28     Splitter.obj
 0004:00001d34       $pdata$?UpdateFrameTitleForDocument@CFrameWnd@@QEAAXPEBD@Z 0000000140048d34     Splitter.obj
 0004:00001d40       $pdata$?OnUpdateFrameTitle@CFrameWnd@@UEAAXH@Z 0000000140048d40     Splitter.obj
 0004:00001d4c       $pdata$?ActivateFrame@CFrameWnd@@UEAAXH@Z 0000000140048d4c     Splitter.obj
 0004:00001d58       $pdata$?GetDefaultAccelerator@CFrameWnd@@UEAAPEAUHACCEL__@@XZ 0000000140048d58     Splitter.obj
 0004:00001d64       $pdata$?AfxExtractSubString@CAfx@@SAHAEAVCString@WTL@@PEBDHD@Z 0000000140048d64     Splitter.obj
 0004:00001d70       $pdata$?GetIconWndClass@CFrameWnd@@QEAAPEBDKI@Z 0000000140048d70     Splitter.obj
 0004:00001d7c       $pdata$?Create@CFrameWnd@@UEAAHPEBD0KAEBUtagRECT@@PEAVCWnd@@0KPEAUCCreateContext@@@Z 0000000140048d7c     Splitter.obj
 0004:00001d88       $pdata$0$?Create@CFrameWnd@@UEAAHPEBD0KAEBUtagRECT@@PEAVCWnd@@0KPEAUCCreateContext@@@Z 0000000140048d88     Splitter.obj
 0004:00001d94       $pdata$1$?Create@CFrameWnd@@UEAAHPEBD0KAEBUtagRECT@@PEAVCWnd@@0KPEAUCCreateContext@@@Z 0000000140048d94     Splitter.obj
 0004:00001da0       $pdata$?LoadFrame@CFrameWnd@@UEAAHIKPEAVCWnd@@PEAUCCreateContext@@@Z 0000000140048da0     Splitter.obj
 0004:00001dac       $pdata$?AfxRepositionWindow@CAfx@@SAXPEAUAFX_SIZEPARENTPARAMS@@PEAUHWND__@@PEBUtagRECT@@@Z 0000000140048dac     Splitter.obj
 0004:00001db8       $pdata$?RepositionBars@CWnd@@QEAAXIIIIPEAUtagRECT@@PEBU2@H@Z 0000000140048db8     Splitter.obj
 0004:00001dc4       $pdata$?RecalcLayout@CFrameWnd@@UEAAXH@Z 0000000140048dc4     Splitter.obj
 0004:00001dd0       $pdata$?RemoveFrameWnd@CFrameWnd@@QEAAXXZ 0000000140048dd0     Splitter.obj
 0004:00001ddc       $pdata$??1CFrameWnd@@UEAA@XZ 0000000140048ddc     Splitter.obj
 0004:00001de8       $pdata$?Create@CMDIChildWnd@@UEAAHPEBD0KAEBUtagRECT@@PEAVCMDIFrameWnd@@PEAUCCreateContext@@@Z 0000000140048de8     Splitter.obj
 0004:00001df4       $pdata$?DefWindowProcA@CMDIFrameWnd@@UEAA_JI_K_J@Z 0000000140048df4     Stdafx.obj
 0004:00001e00       $pdata$?OnCreateClient@CMDIFrameWnd@@UEAAHPEAUtagCREATESTRUCTA@@PEAUCCreateContext@@@Z 0000000140048e00     Stdafx.obj
 0004:00001e0c       $pdata$0$?OnCreateClient@CMDIFrameWnd@@UEAAHPEAUtagCREATESTRUCTA@@PEAUCCreateContext@@@Z 0000000140048e0c     Stdafx.obj
 0004:00001e18       $pdata$1$?OnCreateClient@CMDIFrameWnd@@UEAAHPEAUtagCREATESTRUCTA@@PEAUCCreateContext@@@Z 0000000140048e18     Stdafx.obj
 0004:00001e24       $pdata$?OnIdleUpdateCmdUI@CMDIFrameWnd@@QEAAXXZ 0000000140048e24     Stdafx.obj
 0004:00001e30       $pdata$?OnMDIWindowCmd@CMDIFrameWnd@@QEAAHI@Z 0000000140048e30     Stdafx.obj
 0004:00001e3c       $pdata$?OnUpdateMDIWindowCmd@CMDIFrameWnd@@QEAAXPEAVCCmdUI@@@Z 0000000140048e3c     Stdafx.obj
 0004:00001e48       $pdata$?CreateClient@CMDIFrameWnd@@UEAAHPEAUtagCREATESTRUCTA@@PEAVCMenuMTL@@@Z 0000000140048e48     Stdafx.obj
 0004:00001e54       $pdata$2$?CreateClient@CMDIFrameWnd@@UEAAHPEAUtagCREATESTRUCTA@@PEAVCMenuMTL@@@Z 0000000140048e54     Stdafx.obj
 0004:00001e60       $pdata$3$?CreateClient@CMDIFrameWnd@@UEAAHPEAUtagCREATESTRUCTA@@PEAVCMenuMTL@@@Z 0000000140048e60     Stdafx.obj
 0004:00001e6c       $pdata$4$?CreateClient@CMDIFrameWnd@@UEAAHPEAUtagCREATESTRUCTA@@PEAVCMenuMTL@@@Z 0000000140048e6c     Stdafx.obj
 0004:00001e78       $pdata$5$?CreateClient@CMDIFrameWnd@@UEAAHPEAUtagCREATESTRUCTA@@PEAVCMenuMTL@@@Z 0000000140048e78     Stdafx.obj
 0004:00001e84       $pdata$?DelayUpdateFrameMenu@CMDIFrameWnd@@UEAAXPEAUHMENU__@@@Z 0000000140048e84     Stdafx.obj
 0004:00001e90       $pdata$?GetActiveFrame@CMDIFrameWnd@@UEAAPEAVCFrameWnd@@XZ 0000000140048e90     Stdafx.obj
 0004:00001e9c       $pdata$?GetWindowMenuPopup@CMDIFrameWnd@@UEAAPEAUHMENU__@@PEAU2@@Z 0000000140048e9c     Stdafx.obj
 0004:00001ea8       $pdata$3$?GetWindowMenuPopup@CMDIFrameWnd@@UEAAPEAUHMENU__@@PEAU2@@Z 0000000140048ea8     Stdafx.obj
 0004:00001eb4       $pdata$5$?GetWindowMenuPopup@CMDIFrameWnd@@UEAAPEAUHMENU__@@PEAU2@@Z 0000000140048eb4     Stdafx.obj
 0004:00001ec0       $pdata$?LoadFrame@CMDIFrameWnd@@UEAAHIKPEAVCWnd@@PEAUCCreateContext@@@Z 0000000140048ec0     Stdafx.obj
 0004:00001ecc       $pdata$?PreCreateWindow@CMDIFrameWnd@@UEAAHAEAUtagCREATESTRUCTA@@@Z 0000000140048ecc     Stdafx.obj
 0004:00001ed8       $pdata$?_ProcessWindowMessage@CMDIFrameWnd@@UEAAHPEAUHWND__@@I_K_JAEA_J@Z 0000000140048ed8     Stdafx.obj
 0004:00001ee4       $pdata$?OnCommand@CMDIFrameWnd@@UEAAH_K_J@Z 0000000140048ee4     Stdafx.obj
 0004:00001ef0       $pdata$?OnCmdMsg@CMDIFrameWnd@@UEAAHIHPEAXPEAUAFX_CMDHANDLERINFO@@@Z 0000000140048ef0     Stdafx.obj
 0004:00001efc       $pdata$?OnWindowNew@CMDIFrameWnd@@QEAAXXZ 0000000140048efc     Stdafx.obj
 0004:00001f08       $pdata$?PreTranslateMessage@CMDIFrameWnd@@UEAAHPEAUtagMSG@@@Z 0000000140048f08     Stdafx.obj
 0004:00001f14       $pdata$?SetCurrentHandles@CWinApp@@QEAAXXZ 0000000140048f14     Stdafx.obj
 0004:00001f20       $pdata$4$?SetCurrentHandles@CWinApp@@QEAAXXZ 0000000140048f20     Stdafx.obj
 0004:00001f2c       $pdata$5$?SetCurrentHandles@CWinApp@@QEAAXXZ 0000000140048f2c     Stdafx.obj
 0004:00001f38       $pdata$?AfxMessageBox@@YAHIII@Z 0000000140048f38     Stdafx.obj
 0004:00001f44       $pdata$?CreateObject@CWnd@@SAPEAVCObject@@XZ 0000000140048f44     Stdafx.obj
 0004:00001f50       $pdata$?CreateObject@CFrameWnd@@SAPEAVCObject@@XZ 0000000140048f50     Stdafx.obj
 0004:00001f5c       $pdata$?CreateObject@CMDIFrameWnd@@SAPEAVCObject@@XZ 0000000140048f5c     Stdafx.obj
 0004:00001f68       $pdata$?CreateObject@CMDIChildWnd@@SAPEAVCObject@@XZ 0000000140048f68     Stdafx.obj
 0004:00001f74       $pdata$WinMain             0000000140048f74     Stdafx.obj
 0004:00001f80       $pdata$?_ProcessWindowMessage@CViewExApp@@UEAAHPEAUHWND__@@I_K_JAEA_J@Z 0000000140048f80     Viewex.obj
 0004:00001f8c       $pdata$?InitInstance@CViewExApp@@UEAAHXZ 0000000140048f8c     Viewex.obj
 0004:00001f98       $pdata$?OnAppAbout@CViewExApp@@QEAAXXZ 0000000140048f98     Viewex.obj
 0004:00001fa4       $pdata$?AddDocument@CMultiDocTemplate@@UEAAXPEAVCDocument@@@Z 0000000140048fa4     Viewex.obj
 0004:00001fb0       $pdata$?CreateNewDocument@CDocTemplate@@UEAAPEAVCDocument@@XZ 0000000140048fb0     Viewex.obj
 0004:00001fbc       $pdata$0$?CreateNewDocument@CDocTemplate@@UEAAPEAVCDocument@@XZ 0000000140048fbc     Viewex.obj
 0004:00001fc8       $pdata$2$?CreateNewDocument@CDocTemplate@@UEAAPEAVCDocument@@XZ 0000000140048fc8     Viewex.obj
 0004:00001fd4       $pdata$?CreateNewFrame@CDocTemplate@@UEAAPEAVCFrameWnd@@PEAVCDocument@@PEAV2@@Z 0000000140048fd4     Viewex.obj
 0004:00001fe0       $pdata$0$?CreateNewFrame@CDocTemplate@@UEAAPEAVCFrameWnd@@PEAVCDocument@@PEAV2@@Z 0000000140048fe0     Viewex.obj
 0004:00001fec       $pdata$2$?CreateNewFrame@CDocTemplate@@UEAAPEAVCFrameWnd@@PEAVCDocument@@PEAV2@@Z 0000000140048fec     Viewex.obj
 0004:00001ff8       $pdata$?InitialUpdateFrame@CFrameWnd@@QEAAXPEAVCDocument@@H@Z 0000000140048ff8     Viewex.obj
 0004:00002004       $pdata$0$?InitialUpdateFrame@CFrameWnd@@QEAAXPEAVCDocument@@H@Z 0000000140049004     Viewex.obj
 0004:00002010       $pdata$1$?InitialUpdateFrame@CFrameWnd@@QEAAXPEAVCDocument@@H@Z 0000000140049010     Viewex.obj
 0004:0000201c       $pdata$2$?InitialUpdateFrame@CFrameWnd@@QEAAXPEAVCDocument@@H@Z 000000014004901c     Viewex.obj
 0004:00002028       $pdata$3$?InitialUpdateFrame@CFrameWnd@@QEAAXPEAVCDocument@@H@Z 0000000140049028     Viewex.obj
 0004:00002034       $pdata$4$?InitialUpdateFrame@CFrameWnd@@QEAAXPEAVCDocument@@H@Z 0000000140049034     Viewex.obj
 0004:00002040       $pdata$5$?InitialUpdateFrame@CFrameWnd@@QEAAXPEAVCDocument@@H@Z 0000000140049040     Viewex.obj
 0004:0000204c       $pdata$?OpenDocumentFile@CMultiDocTemplate@@UEAAPEAVCDocument@@PEBDHH@Z 000000014004904c     Viewex.obj
 0004:00002058       $pdata$?RemoveDocument@CMultiDocTemplate@@UEAAXPEAVCDocument@@@Z 0000000140049058     Viewex.obj
 0004:00002064       $pdata$??_GCMultiDocTemplate@@UEAAPEAXI@Z 0000000140049064     Viewex.obj
 0004:00002070       $pdata$??1CMultiDocTemplate@@UEAA@XZ 0000000140049070     Viewex.obj
 0004:0000207c       $pdata$0$??1CMultiDocTemplate@@UEAA@XZ 000000014004907c     Viewex.obj
 0004:00002088       $pdata$1$??1CMultiDocTemplate@@UEAA@XZ 0000000140049088     Viewex.obj
 0004:00002094       $pdata$?SetDefaultTitle@CMultiDocTemplate@@UEAAXPEAVCDocument@@@Z 0000000140049094     Viewex.obj
 0004:000020a0       $pdata$?LoadTemplate@CMultiDocTemplate@@UEAAXXZ 00000001400490a0     Viewex.obj
 0004:000020ac       $pdata$0$?LoadTemplate@CMultiDocTemplate@@UEAAXXZ 00000001400490ac     Viewex.obj
 0004:000020b8       $pdata$1$?LoadTemplate@CMultiDocTemplate@@UEAAXXZ 00000001400490b8     Viewex.obj
 0004:000020c4       $pdata$?AddDocTemplate@CWinApp@@QEAAXPEAVCDocTemplate@@@Z 00000001400490c4     Viewex.obj
 0004:000020d0       $pdata$??1CCommandLineInfo@@QEAA@XZ 00000001400490d0     Viewex.obj
 0004:000020dc       $pdata$??1CWinApp@@QEAA@XZ 00000001400490dc     Viewex.obj
 0004:000020e8       $pdata$??0CModuleThreadState@@QEAA@XZ 00000001400490e8     Viewex.obj
 0004:000020f4       $pdata$??1CModuleThreadState@@QEAA@XZ 00000001400490f4     Viewex.obj
 0004:00002100       $pdata$?OnIdle@CWinApp@@UEAAHH@Z 0000000140049100     Viewex.obj
 0004:0000210c       $pdata$?Run@CWinApp@@UEAAHXZ 000000014004910c     Viewex.obj
 0004:00002118       $pdata$??0CWinApp@@QEAA@XZ 0000000140049118     Viewex.obj
 0004:00002124       $pdata$?_ProcessWindowMessage@CWinApp@@UEAAHPEAUHWND__@@I_K_JAEA_J@Z 0000000140049124     Viewex.obj
 0004:00002130       $pdata$?AfxStringFromCLSID@CAfx@@SA?AVCString@WTL@@AEBU_GUID@@@Z 0000000140049130     Viewex.obj
 0004:0000213c       $pdata$?AfxStringFromCLSID@@YA?AVCString@WTL@@AEBU_GUID@@@Z 000000014004913c     Viewex.obj
 0004:00002148       $pdata$?AfxGetInProcServer@CAfx@@SAHPEBDAEAVCString@WTL@@@Z 0000000140049148     Viewex.obj
 0004:00002154       $pdata$?GetClassObject@AFX_COM@@QEAAJAEBU_GUID@@0PEAPEAX@Z 0000000140049154     Viewex.obj
 0004:00002160       $pdata$?AfxResolveShortcut@@YAHPEAVCWMHnd@@PEBDPEADH@Z 0000000140049160     Viewex.obj
 0004:0000216c       $pdata$?AfxComparePath@CAfx@@SAHPEBD0@Z 000000014004916c     Viewex.obj
 0004:00002178       $pdata$0$?AfxComparePath@CAfx@@SAHPEBD0@Z 0000000140049178     Viewex.obj
 0004:00002184       $pdata$1$?AfxComparePath@CAfx@@SAHPEBD0@Z 0000000140049184     Viewex.obj
 0004:00002190       $pdata$2$?AfxComparePath@CAfx@@SAHPEBD0@Z 0000000140049190     Viewex.obj
 0004:0000219c       $pdata$?MatchDocType@CDocTemplate@@UEAA?AW4Confidence@1@PEBDAEAPEAVCDocument@@@Z 000000014004919c     Viewex.obj
 0004:000021a8       $pdata$?OpenDocumentFile@CDocManager@@QEAAPEAVCDocument@@PEBDH@Z 00000001400491a8     Viewex.obj
 0004:000021b4       $pdata$3$?OpenDocumentFile@CDocManager@@QEAAPEAVCDocument@@PEBDH@Z 00000001400491b4     Viewex.obj
 0004:000021c0       $pdata$4$?OpenDocumentFile@CDocManager@@QEAAPEAVCDocument@@PEBDH@Z 00000001400491c0     Viewex.obj
 0004:000021cc       $pdata$?OnFileOpen@CDocManager@@UEAAXXZ 00000001400491cc     Viewex.obj
 0004:000021d8       $pdata$?_ProcessWindowMessage@CNewTypeDlg@@UEAAHPEAUHWND__@@I_K_JAEA_J@Z 00000001400491d8     Viewex.obj
 0004:000021e4       $pdata$?OnInitDialog@CNewTypeDlg@@UEAAHXZ 00000001400491e4     Viewex.obj
 0004:000021f0       $pdata$?OnOK@CNewTypeDlg@@UEAAXXZ 00000001400491f0     Viewex.obj
 0004:000021fc       $pdata$?WalkPreTranslateTree@CWnd@@SAHPEAUHWND__@@PEAUtagMSG@@@Z 00000001400491fc     Viewex.obj
 0004:00002208       $pdata$?PreTranslateMessage@CWinApp@@UEAAHPEAUtagMSG@@@Z 0000000140049208     Viewex.obj
 0004:00002214       $pdata$0$?PreTranslateMessage@CWinApp@@UEAAHPEAUtagMSG@@@Z 0000000140049214     Viewex.obj
 0004:00002220       $pdata$1$?PreTranslateMessage@CWinApp@@UEAAHPEAUtagMSG@@@Z 0000000140049220     Viewex.obj
 0004:0000222c       $pdata$?PumpMessage@CWinApp@@UEAAHXZ 000000014004922c     Viewex.obj
 0004:00002238       $pdata$?OnFileNew@CDocManager@@UEAAXXZ 0000000140049238     Viewex.obj
 0004:00002244       $pdata$?__AllocStdCallThunk@ATL@@YAPEAXXZ 0000000140049244     atls:atlthunk.obj
 0004:00002250       $pdata$?__InitializeThunkPool@@YAHXZ 0000000140049250     atls:atlthunk.obj
 0004:0000225c       $pdata$??0CAtlBaseModule@ATL@@QEAA@XZ 000000014004925c     atls:atlbase.obj
 0004:00002268       $pdata$??1CAtlBaseModule@ATL@@QEAA@XZ 0000000140049268     atls:atlbase.obj
 0004:00002280       $pdata$__onexitinit        0000000140049280     LIBCMT:onexit.obj
 0004:0000228c       $pdata$_onexit             000000014004928c     LIBCMT:onexit.obj
 0004:00002298       $pdata$atexit              0000000140049298     LIBCMT:onexit.obj
 0004:000022a4       $pdata$??0bad_alloc@std@@QEAA@AEBV01@@Z 00000001400492a4     LIBCMT:new.obj
 0004:000022b0       $pdata$??2@YAPEAX_K@Z      00000001400492b0     LIBCMT:new.obj
 0004:000022bc       $pdata$??_Gbad_alloc@std@@UEAAPEAXI@Z 00000001400492bc     LIBCMT:new.obj
 0004:000022c8       $pdata$??8type_info@@QEBA_NAEBV0@@Z 00000001400492c8     LIBCMT:typinfo.obj
 0004:000022d4       $pdata$??_Gtype_info@@UEAAPEAXI@Z 00000001400492d4     LIBCMT:typinfo.obj
 0004:000022e0       $pdata$free                00000001400492e0     LIBCMT:free.obj
 0004:000022ec       $pdata$memcpy_s            00000001400492ec     LIBCMT:memcpy_s.obj
 0004:000022f8       $pdata$??0_LocaleUpdate@@QEAA@PEAUlocaleinfo_struct@@@Z 00000001400492f8     LIBCMT:mbscmp.obj
 0004:00002304       $pdata$_mbscmp_l           0000000140049304     LIBCMT:mbscmp.obj
 0004:0000231c       $pdata$__raise_securityfailure 000000014004931c     LIBCMT:gs_report.obj
 0004:00002328       $pdata$__report_gsfailure  0000000140049328     LIBCMT:gs_report.obj
 0004:00002334       $pdata$__report_rangecheckfailure 0000000140049334     LIBCMT:gs_report.obj
 0004:00002340       $pdata$__report_securityfailure 0000000140049340     LIBCMT:gs_report.obj
 0004:0000234c       $pdata$_make__time64_t     000000014004934c     LIBCMT:mktime64.obj
 0004:00002358       $pdata$_mbscspn_l          0000000140049358     LIBCMT:mbscspn.obj
 0004:00002364       $pdata$_mbsspn_l           0000000140049364     LIBCMT:mbsspn.obj
 0004:00002370       $pdata$_mbschr_l           0000000140049370     LIBCMT:mbschr.obj
 0004:0000237c       $pdata$_mbspbrk_l          000000014004937c     LIBCMT:mbspbrk.obj
 0004:00002388       $pdata$?x_ismbbtype_l@@YAHPEAUlocaleinfo_struct@@IHH@Z 0000000140049388     LIBCMT:ismbbyte.obj
 0004:00002394       $pdata$_strdup             0000000140049394     LIBCMT:strdup.obj
 0004:000023a0       $pdata$_mbsinc             00000001400493a0     LIBCMT:mbsinc.obj
 0004:000023ac       $pdata$_mbsrchr_l          00000001400493ac     LIBCMT:mbsrchr.obj
 0004:000023b8       $pdata$WinMainCRTStartup   00000001400493b8     LIBCMT:wincrt0.obj
 0004:000023c4       $pdata$__tmainCRTStartup   00000001400493c4     LIBCMT:wincrt0.obj
 0004:000023d0       $pdata$fast_error_exit     00000001400493d0     LIBCMT:wincrt0.obj
 0004:000023dc       $pdata$_recalloc           00000001400493dc     LIBCMT:recalloc.obj
 0004:000023f4       $pdata$__crtCorExitProcess 00000001400493f4     LIBCMT:crt0dat.obj
 0004:00002400       $pdata$__crtExitProcess    0000000140049400     LIBCMT:crt0dat.obj
 0004:0000240c       $pdata$_amsg_exit          000000014004940c     LIBCMT:crt0dat.obj
 0004:00002418       $pdata$_cinit              0000000140049418     LIBCMT:crt0dat.obj
 0004:00002424       $pdata$_init_pointers      0000000140049424     LIBCMT:crt0dat.obj
 0004:00002430       $pdata$_initterm           0000000140049430     LIBCMT:crt0dat.obj
 0004:0000243c       $pdata$_initterm_e         000000014004943c     LIBCMT:crt0dat.obj
 0004:00002448       $pdata$doexit              0000000140049448     LIBCMT:crt0dat.obj
 0004:00002454       $pdata$_msize              0000000140049454     LIBCMT:msize.obj
 0004:00002460       $pdata$_calloc_crt         0000000140049460     LIBCMT:crtheap.obj
 0004:0000246c       $pdata$_malloc_crt         000000014004946c     LIBCMT:crtheap.obj
 0004:00002478       $pdata$_realloc_crt        0000000140049478     LIBCMT:crtheap.obj
 0004:00002484       $pdata$_recalloc_crt       0000000140049484     LIBCMT:crtheap.obj
 0004:00002490       $pdata$__C_specific_handler 0000000140049490     LIBCMT:chandler.obj
 0004:0000249c       $pdata$malloc              000000014004949c     LIBCMT:malloc.obj
 0004:000024a8       $pdata$??0exception@std@@QEAA@AEBQEBD@Z 00000001400494a8     LIBCMT:stdexcpt.obj
 0004:000024b4       $pdata$??0exception@std@@QEAA@AEBV01@@Z 00000001400494b4     LIBCMT:stdexcpt.obj
 0004:000024c0       $pdata$??4exception@std@@QEAAAEAV01@AEBV01@@Z 00000001400494c0     LIBCMT:stdexcpt.obj
 0004:000024cc       $pdata$??_Gexception@std@@UEAAPEAXI@Z 00000001400494cc     LIBCMT:stdexcpt.obj
 0004:000024d8       $pdata$?_Copy_str@exception@std@@AEAAXPEBD@Z 00000001400494d8     LIBCMT:stdexcpt.obj
 0004:000024e4       $pdata$?_Tidy@exception@std@@AEAAXXZ 00000001400494e4     LIBCMT:stdexcpt.obj
 0004:000024f0       $pdata$_callnewh           00000001400494f0     LIBCMT:handler.obj
 0004:000024fc       $pdata$_CxxThrowException  00000001400494fc     LIBCMT:throw.obj
 0004:00002514       $pdata$?_Type_info_dtor@type_info@@CAXPEAV1@@Z 0000000140049514     LIBCMT:typname.obj
 0004:00002520       $pdata$__doserrno          0000000140049520     LIBCMT:dosmap.obj
 0004:0000252c       $pdata$_dosmaperr          000000014004952c     LIBCMT:dosmap.obj
 0004:00002538       $pdata$_errno              0000000140049538     LIBCMT:dosmap.obj
 0004:00002544       $pdata$_heap_init          0000000140049544     LIBCMT:heapinit.obj
 0004:00002550       $pdata$_call_reportfault   0000000140049550     LIBCMT:invarg.obj
 0004:0000255c       $pdata$_invalid_parameter  000000014004955c     LIBCMT:invarg.obj
 0004:00002568       $pdata$_invalid_parameter_noinfo 0000000140049568     LIBCMT:invarg.obj
 0004:00002574       $pdata$_invoke_watson      0000000140049574     LIBCMT:invarg.obj
 0004:00002580       $pdata$__freetlocinfo      0000000140049580     LIBCMT:localref.obj
 0004:0000258c       $pdata$__updatetlocinfo    000000014004958c     LIBCMT:localref.obj
 0004:00002598       $pdata$_updatetlocinfoEx_nolock 0000000140049598     LIBCMT:localref.obj
 0004:000025a4       $pdata$__initmbctable      00000001400495a4     LIBCMT:mbctype.obj
 0004:000025b0       $pdata$?getSystemCP@@YAHH@Z 00000001400495b0     LIBCMT:mbctype.obj
 0004:000025bc       $pdata$?setSBCS@@YAXPEAUthreadmbcinfostruct@@@Z 00000001400495bc     LIBCMT:mbctype.obj
 0004:000025c8       $pdata$?setSBUpLow@@YAXPEAUthreadmbcinfostruct@@@Z 00000001400495c8     LIBCMT:mbctype.obj
 0004:000025d4       $pdata$__updatetmbcinfo    00000001400495d4     LIBCMT:mbctype.obj
 0004:000025e0       $pdata$_setmbcp            00000001400495e0     LIBCMT:mbctype.obj
 0004:000025ec       $pdata$_setmbcp_nolock     00000001400495ec     LIBCMT:mbctype.obj
 0004:000025f8       $pdata$_freefls            00000001400495f8     LIBCMT:tidtable.obj
 0004:00002604       $pdata$_getptd             0000000140049604     LIBCMT:tidtable.obj
 0004:00002610       $pdata$_getptd_noexit      0000000140049610     LIBCMT:tidtable.obj
 0004:0000261c       $pdata$_initptd            000000014004961c     LIBCMT:tidtable.obj
 0004:00002628       $pdata$_mtinit             0000000140049628     LIBCMT:tidtable.obj
 0004:00002634       $pdata$_mtterm             0000000140049634     LIBCMT:tidtable.obj
 0004:00002640       $pdata$__isa_available_init 0000000140049640     LIBCMT:cpu_disp.obj
 0004:0000264c       $pdata$__crtCaptureCurrentContext 000000014004964c     LIBCMT:winapisupp.obj
 0004:00002658       $pdata$__crtCapturePreviousContext 0000000140049658     LIBCMT:winapisupp.obj
 0004:00002664       $pdata$__crtGetShowWindowMode 0000000140049664     LIBCMT:winapisupp.obj
 0004:00002670       $pdata$__crtInitializeCriticalSectionEx 0000000140049670     LIBCMT:winapisupp.obj
 0004:0000267c       $pdata$__crtIsPackagedApp  000000014004967c     LIBCMT:winapisupp.obj
 0004:00002688       $pdata$__crtLoadWinApiPointers 0000000140049688     LIBCMT:winapisupp.obj
 0004:00002694       $pdata$__crtTerminateProcess 0000000140049694     LIBCMT:winapisupp.obj
 0004:000026a0       $pdata$__crtUnhandledException 00000001400496a0     LIBCMT:winapisupp.obj
 0004:000026ac       $pdata$_get_daylight       00000001400496ac     LIBCMT:timeset.obj
 0004:000026b8       $pdata$_get_dstbias        00000001400496b8     LIBCMT:timeset.obj
 0004:000026c4       $pdata$_get_timezone       00000001400496c4     LIBCMT:timeset.obj
 0004:000026d0       $pdata$_gmtime64_s         00000001400496d0     LIBCMT:gmtime64.obj
 0004:000026dc       $pdata$_localtime64_s      00000001400496dc     LIBCMT:loctim64.obj
 0004:000026e8       $pdata$__tzset             00000001400496e8     LIBCMT:tzset.obj
 0004:000026f4       $pdata$_isindst            00000001400496f4     LIBCMT:tzset.obj
 0004:00002700       $pdata$_isindst_nolock     0000000140049700     LIBCMT:tzset.obj
 0004:0000270c       $pdata$_tzset_nolock       000000014004970c     LIBCMT:tzset.obj
 0004:00002718       $pdata$cvtdate             0000000140049718     LIBCMT:tzset.obj
 0004:00002724       $pdata$__GSHandlerCheck    0000000140049724     LIBCMT:gshandler.obj
 0004:00002730       $pdata$__GSHandlerCheckCommon 0000000140049730     LIBCMT:gshandler.obj
 0004:0000273c       $pdata$strcspn             000000014004973c     LIBCMT:strcspn.obj
 0004:00002748       $pdata$strspn              0000000140049748     LIBCMT:strspn.obj
 0004:00002754       $pdata$strchr              0000000140049754     LIBCMT:strchr.obj
 0004:00002760       $pdata$strpbrk             0000000140049760     LIBCMT:strpbrk.obj
 0004:0000276c       $pdata$?_inconsistency@@YAXXZ 000000014004976c     LIBCMT:hooks.obj
 0004:00002778       $pdata$?terminate@@YAXXZ   0000000140049778     LIBCMT:hooks.obj
 0004:00002784       $pdata$_initp_eh_hooks     0000000140049784     LIBCMT:hooks.obj
 0004:00002790       $pdata$abort               0000000140049790     LIBCMT:abort.obj
 0004:0000279c       $pdata$strcpy_s            000000014004979c     LIBCMT:strcpy_s.obj
 0004:000027b4       $pdata$strrchr             00000001400497b4     LIBCMT:strrchr.obj
 0004:000027c0       $pdata$?__CxxUnhandledExceptionFilter@@YAJPEAU_EXCEPTION_POINTERS@@@Z 00000001400497c0     LIBCMT:unhandld.obj
 0004:000027cc       $pdata$__CxxSetUnhandledExceptionFilter 00000001400497cc     LIBCMT:unhandld.obj
 0004:000027d8       $pdata$_XcptFilter         00000001400497d8     LIBCMT:winxfltr.obj
 0004:000027e4       $pdata$_ioinit             00000001400497e4     LIBCMT:ioinit.obj
 0004:000027f0       $pdata$_setargv            00000001400497f0     LIBCMT:stdargv.obj
 0004:000027fc       $pdata$parse_cmdline       00000001400497fc     LIBCMT:stdargv.obj
 0004:00002808       $pdata$_setenvp            0000000140049808     LIBCMT:stdenvp.obj
 0004:00002814       $pdata$_FF_MSGBANNER       0000000140049814     LIBCMT:crt0msg.obj
 0004:00002820       $pdata$_NMSG_WRITE         0000000140049820     LIBCMT:crt0msg.obj
 0004:0000282c       $pdata$_set_error_mode     000000014004982c     LIBCMT:errmode.obj
 0004:00002838       $pdata$__security_init_cookie 0000000140049838     LIBCMT:gs_support.obj
 0004:00002844       $pdata$_RTC_Initialize     0000000140049844     LIBCMT:initsect.obj
 0004:00002850       $pdata$_RTC_Terminate      0000000140049850     LIBCMT:initsect.obj
 0004:0000285c       $pdata$__crtGetEnvironmentStringsA 000000014004985c     LIBCMT:a_env.obj
 0004:00002868       $pdata$_wincmdln           0000000140049868     LIBCMT:wincmdln.obj
 0004:00002874       $pdata$realloc             0000000140049874     LIBCMT:realloc.obj
 0004:00002880       $pdata$_lock               0000000140049880     LIBCMT:mlock.obj
 0004:0000288c       $pdata$_mtdeletelocks      000000014004988c     LIBCMT:mlock.obj
 0004:00002898       $pdata$_mtinitlocknum      0000000140049898     LIBCMT:mlock.obj
 0004:000028a4       $pdata$_mtinitlocks        00000001400498a4     LIBCMT:mlock.obj
 0004:000028b0       $pdata$_IsNonwritableInCurrentImage 00000001400498b0     LIBCMT:pesect.obj
 0004:000028bc       $pdata$_initp_misc_cfltcvt_tab 00000001400498bc     LIBCMT:cmiscdat.obj
 0004:000028c8       $pdata$raise               00000001400498c8     LIBCMT:winsig.obj
 0004:000028d4       $pdata$_calloc_impl        00000001400498d4     LIBCMT:calloc_impl.obj
 0004:00002910       $pdata$__free_lconv_mon    0000000140049910     LIBCMT:initmon.obj
 0004:0000291c       $pdata$__free_lconv_num    000000014004991c     LIBCMT:initnum.obj
 0004:00002928       $pdata$__free_lc_time      0000000140049928     LIBCMT:inittime.obj
 0004:00002934       $pdata$?__crtLCMapStringA_stat@@YAHPEAUlocaleinfo_struct@@PEB_WKPEBDHPEADHHH@Z 0000000140049934     LIBCMT:a_map.obj
 0004:00002940       $pdata$__crtLCMapStringA   0000000140049940     LIBCMT:a_map.obj
 0004:0000294c       $pdata$?__crtGetStringTypeA_stat@@YAHPEAUlocaleinfo_struct@@KPEBDHPEAGHH@Z 000000014004994c     LIBCMT:a_str.obj
 0004:00002958       $pdata$__crtGetStringTypeA 0000000140049958     LIBCMT:a_str.obj
 0004:00002964       $pdata$strncpy_s           0000000140049964     LIBCMT:strncpy_s.obj
 0004:00002970       $pdata$_getenv_helper_nolock 0000000140049970     LIBCMT:getenv.obj
 0004:0000297c       $pdata$___lc_codepage_func 000000014004997c     LIBCMT:initctyp.obj
 0004:00002988       $pdata$GetTableIndexFromLocaleName 0000000140049988     LIBCMT:winapinls.obj
 0004:00002994       $pdata$__crtCompareStringEx 0000000140049994     LIBCMT:winapinls.obj
 0004:000029a0       $pdata$__crtDownlevelLocaleNameToLCID 00000001400499a0     LIBCMT:winapinls.obj
 0004:000029ac       $pdata$__crtLCMapStringEx  00000001400499ac     LIBCMT:winapinls.obj
 0004:000029b8       $pdata$__initstdio         00000001400499b8     LIBCMT:_file.obj
 0004:000029c4       $pdata$__endstdio          00000001400499c4     LIBCMT:_file.obj
 0004:000029d0       $pdata$_lock_file          00000001400499d0     LIBCMT:_file.obj
 0004:000029dc       $pdata$_lock_file2         00000001400499dc     LIBCMT:_file.obj
 0004:000029e8       $pdata$wcscat_s            00000001400499e8     LIBCMT:wcscat_s.obj
 0004:000029f4       $pdata$wcscpy_s            00000001400499f4     LIBCMT:wcscpy_s.obj
 0004:00002a00       $pdata$wcsncpy_s           0000000140049a00     LIBCMT:wcsncpy_s.obj
 0004:00002a0c       $pdata$__crtMessageBoxW    0000000140049a0c     LIBCMT:crtmboxw.obj
 0004:00002a18       $pdata$_fileno             0000000140049a18     LIBCMT:fileno.obj
 0004:00002a24       $pdata$_isatty             0000000140049a24     LIBCMT:isatty.obj
 0004:00002a30       $pdata$_fflush_nolock      0000000140049a30     LIBCMT:fflush.obj
 0004:00002a3c       $pdata$_flush              0000000140049a3c     LIBCMT:fflush.obj
 0004:00002a48       $pdata$flsall              0000000140049a48     LIBCMT:fflush.obj
 0004:00002a54       $pdata$_locterm            0000000140049a54     LIBCMT:wsetloca.obj
 0004:00002a6c       $pdata$?strtoxl@@YAKPEAUlocaleinfo_struct@@PEBDPEAPEBDHH@Z 0000000140049a6c     LIBCMT:strtol.obj
 0004:00002a78       $pdata$strtol              0000000140049a78     LIBCMT:strtol.obj
 0004:00002a84       $pdata$__wtomb_environ     0000000140049a84     LIBCMT:wtombenv.obj
 0004:00002a90       $pdata$_mbsnbicoll_l       0000000140049a90     LIBCMT:mbsnbico.obj
 0004:00002a9c       $pdata$_fcloseall          0000000140049a9c     LIBCMT:closeall.obj
 0004:00002aa8       $pdata$_commit             0000000140049aa8     LIBCMT:commit.obj
 0004:00002ab4       $pdata$_write              0000000140049ab4     LIBCMT:write.obj
 0004:00002ac0       $pdata$_write_nolock       0000000140049ac0     LIBCMT:write.obj
 0004:00002ad8       $pdata$_isctype_l          0000000140049ad8     LIBCMT:isctype.obj
 0004:00002ae4       $pdata$__crt_atoflt_l      0000000140049ae4     LIBCMT:atodbl.obj
 0004:00002af0       $pdata$_atodbl_l           0000000140049af0     LIBCMT:atodbl.obj
 0004:00002afc       $pdata$__crtsetenv         0000000140049afc     LIBCMT:setenv.obj
 0004:00002b08       $pdata$_strnicoll_l        0000000140049b08     LIBCMT:strnicol.obj
 0004:00002b14       $pdata$?__crtCompareStringA_stat@@YAHPEAUlocaleinfo_struct@@PEB_WKPEBDH2HH@Z 0000000140049b14     LIBCMT:a_cmp.obj
 0004:00002b20       $pdata$__crtCompareStringA 0000000140049b20     LIBCMT:a_cmp.obj
 0004:00002b2c       $pdata$_fclose_nolock      0000000140049b2c     LIBCMT:fclose.obj
 0004:00002b38       $pdata$fclose              0000000140049b38     LIBCMT:fclose.obj
 0004:00002b44       $pdata$__lock_fhandle      0000000140049b44     LIBCMT:osfinfo.obj
 0004:00002b50       $pdata$_free_osfhnd        0000000140049b50     LIBCMT:osfinfo.obj
 0004:00002b5c       $pdata$_get_osfhandle      0000000140049b5c     LIBCMT:osfinfo.obj
 0004:00002b68       $pdata$_isleadbyte_l       0000000140049b68     LIBCMT:_wctype.obj
 0004:00002b74       $pdata$isleadbyte          0000000140049b74     LIBCMT:_wctype.obj
 0004:00002b80       $pdata$_lseeki64_nolock    0000000140049b80     LIBCMT:lseeki64.obj
 0004:00002b8c       $pdata$_mbtowc_l           0000000140049b8c     LIBCMT:mbtowc.obj
 0004:00002b98       $pdata$_putwch_nolock      0000000140049b98     LIBCMT:putwch.obj
 0004:00002ba4       $pdata$_ld12tod            0000000140049ba4     LIBCMT:intrncvt.obj
 0004:00002bb0       $pdata$_ld12tof            0000000140049bb0     LIBCMT:intrncvt.obj
 0004:00002bbc       $pdata$__strgtold12_l      0000000140049bbc     LIBCMT:strgtold.obj
 0004:00002bc8       $pdata$_cfltcvt            0000000140049bc8     LIBCMT:cvt.obj
 0004:00002bd4       $pdata$_cfltcvt_l          0000000140049bd4     LIBCMT:cvt.obj
 0004:00002be0       $pdata$_cftoa_l            0000000140049be0     LIBCMT:cvt.obj
 0004:00002bec       $pdata$_cftoe2_l           0000000140049bec     LIBCMT:cvt.obj
 0004:00002bf8       $pdata$_cftoe_l            0000000140049bf8     LIBCMT:cvt.obj
 0004:00002c04       $pdata$_cftof2_l           0000000140049c04     LIBCMT:cvt.obj
 0004:00002c10       $pdata$_cftof_l            0000000140049c10     LIBCMT:cvt.obj
 0004:00002c1c       $pdata$_cftog_l            0000000140049c1c     LIBCMT:cvt.obj
 0004:00002c28       $pdata$_cropzeros_l        0000000140049c28     LIBCMT:cvt.obj
 0004:00002c34       $pdata$_fassign_l          0000000140049c34     LIBCMT:cvt.obj
 0004:00002c40       $pdata$_forcdecpt_l        0000000140049c40     LIBCMT:cvt.obj
 0004:00002c4c       $pdata$_strnicmp_l         0000000140049c4c     LIBCMT:strnicmp.obj
 0004:00002c58       $pdata$_close              0000000140049c58     LIBCMT:close.obj
 0004:00002c64       $pdata$_close_nolock       0000000140049c64     LIBCMT:close.obj
 0004:00002c70       $pdata$_freebuf            0000000140049c70     LIBCMT:_freebuf.obj
 0004:00002c7c       $pdata$__termconout        0000000140049c7c     LIBCMT:initcon.obj
 0004:00002c88       $pdata$__initconout        0000000140049c88     LIBCMT:initcon.obj
 0004:00002c94       $pdata$__mtold12           0000000140049c94     LIBCMT:mantold.obj
 0004:00002ca0       $pdata$isdigit             0000000140049ca0     LIBCMT:_ctype.obj
 0004:00002cac       $pdata$_tolower_l          0000000140049cac     LIBCMT:tolower.obj
 0004:00002cb8       $pdata$_fptostr            0000000140049cb8     LIBCMT:_fptostr.obj
 0004:00002cc4       $pdata$__dtold             0000000140049cc4     LIBCMT:cfout.obj
 0004:00002cd0       $pdata$_fltout2            0000000140049cd0     LIBCMT:cfout.obj
 0004:00002cdc       $pdata$$I10_OUTPUT         0000000140049cdc     LIBCMT:x10fout.obj
 0004:00002ce8       $pdata$?_GetEstablisherFrame@@YAPEA_KPEA_KPEAU_xDISPATCHER_CONTEXT@@PEBU_s_FuncInfo@@0@Z 0000000140049ce8     LIBCMT:trnsctrl.obj
 0004:00002cf4       $pdata$?_GetRangeOfTrysToCheck@@YAPEBU_s_TryBlockMapEntry@@PEA_KPEBU_s_FuncInfo@@HHPEAI2PEAU_xDISPATCHER_CONTEXT@@@Z 0000000140049cf4     LIBCMT:trnsctrl.obj
 0004:00002d00       $pdata$?__FrameUnwindToEmptyState@@YAXPEA_KPEAU_xDISPATCHER_CONTEXT@@PEBU_s_FuncInfo@@@Z 0000000140049d00     LIBCMT:trnsctrl.obj
 0004:00002d0c       $pdata$?__SehTransFilter@@YAHPEAU_EXCEPTION_POINTERS@@PEAUEHExceptionRecord@@PEA_KPEAU_CONTEXT@@PEAU_xDISPATCHER_CONTEXT@@PEBU_s_FuncInfo@@PEAH@Z 0000000140049d0c     LIBCMT:trnsctrl.obj
 0004:00002d18       $pdata$_CallSETranslator   0000000140049d18     LIBCMT:trnsctrl.obj
 0004:00002d24       $pdata$_CreateFrameInfo    0000000140049d24     LIBCMT:trnsctrl.obj
 0004:00002d30       $pdata$_FindAndUnlinkFrame 0000000140049d30     LIBCMT:trnsctrl.obj
 0004:00002d3c       $pdata$_GetImageBase       0000000140049d3c     LIBCMT:trnsctrl.obj
 0004:00002d48       $pdata$_GetThrowImageBase  0000000140049d48     LIBCMT:trnsctrl.obj
 0004:00002d54       $pdata$_IsExceptionObjectToBeDestroyed 0000000140049d54     LIBCMT:trnsctrl.obj
 0004:00002d60       $pdata$_SetImageBase       0000000140049d60     LIBCMT:trnsctrl.obj
 0004:00002d6c       $pdata$_SetThrowImageBase  0000000140049d6c     LIBCMT:trnsctrl.obj
 0004:00002d78       $pdata$_UnwindNestedFrames 0000000140049d78     LIBCMT:trnsctrl.obj
 0004:00002d84       $pdata$__CxxFrameHandler3  0000000140049d84     LIBCMT:trnsctrl.obj
 0004:00002d90       $pdata$__GSHandlerCheck_EH 0000000140049d90     LIBCMT:gshandlereh.obj
 0004:00002d9c       $pdata$__DestructExceptionObject 0000000140049d9c     LIBCMT:frame.obj
 0004:00002da8       $pdata$??0bad_exception@std@@QEAA@AEBV01@@Z 0000000140049da8     LIBCMT:frame.obj
 0004:00002db4       $pdata$??_Gbad_exception@std@@UEAAPEAXI@Z 0000000140049db4     LIBCMT:frame.obj
 0004:00002dc0       $pdata$?CatchIt@@YAXPEAUEHExceptionRecord@@PEA_KPEAU_CONTEXT@@PEAU_xDISPATCHER_CONTEXT@@PEBU_s_FuncInfo@@PEBU_s_HandlerType@@PEBU_s_CatchableType@@PEBU_s_TryBlockMapEntry@@H1EE@Z 0000000140049dc0     LIBCMT:frame.obj
 0004:00002dcc       $pdata$?FindHandler@@YAXPEAUEHExceptionRecord@@PEA_KPEAU_CONTEXT@@PEAU_xDISPATCHER_CONTEXT@@PEBU_s_FuncInfo@@EH1@Z 0000000140049dcc     LIBCMT:frame.obj
 0004:00002dd8       $pdata$?FindHandlerForForeignException@@YAXPEAUEHExceptionRecord@@PEA_KPEAU_CONTEXT@@PEAU_xDISPATCHER_CONTEXT@@PEBU_s_FuncInfo@@HH1@Z 0000000140049dd8     LIBCMT:frame.obj
 0004:00002de4       $pdata$?IsInExceptionSpec@@YAEPEAUEHExceptionRecord@@PEBU_s_ESTypeList@@@Z 0000000140049de4     LIBCMT:frame.obj
 0004:00002df0       $pdata$__BuildCatchObject  0000000140049df0     LIBCMT:frame.obj
 0004:00002dfc       $pdata$__BuildCatchObjectHelper 0000000140049dfc     LIBCMT:frame.obj
 0004:00002e08       $pdata$__CxxCallCatchBlock 0000000140049e08     LIBCMT:frame.obj
 0004:00002e14       $pdata$__FrameUnwindFilter 0000000140049e14     LIBCMT:frame.obj
 0004:00002e20       $pdata$__FrameUnwindToState 0000000140049e20     LIBCMT:frame.obj
 0004:00002e2c       $pdata$__InternalCxxFrameHandler 0000000140049e2c     LIBCMT:frame.obj
 0004:00002e38       $pdata$__TypeMatch         0000000140049e38     LIBCMT:frame.obj
 0004:00002e44       $pdata$?__GetCurrentState@@YAHPEA_KPEAU_xDISPATCHER_CONTEXT@@PEBU_s_FuncInfo@@@Z 0000000140049e44     LIBCMT:ehstate.obj
 0004:00002e50       $pdata$?__GetUnwindTryBlock@@YAHPEA_KPEAU_xDISPATCHER_CONTEXT@@PEBU_s_FuncInfo@@@Z 0000000140049e50     LIBCMT:ehstate.obj
 0004:00002e5c       $pdata$?__SetUnwindTryBlock@@YAXPEA_KPEAU_xDISPATCHER_CONTEXT@@PEBU_s_FuncInfo@@H@Z 0000000140049e5c     LIBCMT:ehstate.obj
 0004:00002e68       $pdata$?__StateFromIp@@YAHPEBU_s_FuncInfo@@PEAU_xDISPATCHER_CONTEXT@@_J@Z 0000000140049e68     LIBCMT:ehstate.obj
 0004:00002e80       $pdata$?catch$0@?0??AllocBuffer@CString@WTL@@IEAAHH@Z@4HA 0000000140049e80     Enterdlg.obj
 0004:00002e8c       $pdata$?catch$0@?0??OnOpenDocument@CDocument@@UEAAHPEBD@Z@4HA 0000000140049e8c     Maindoc.obj
 0004:00002e98       $pdata$?dtor$0@?0??Mid@CString@WTL@@QEBA?AV12@HH@Z@4HA 0000000140049e98     Maindoc.obj
 0004:00002ea4       $pdata$?catch$0@?0??CreateCommon@CSplitterWnd@@QEAAHPEAVCWnd@@UtagSIZE@@KI@Z@4HA 0000000140049ea4     Splitter.obj
 0004:00002eb0       $pdata$?catch$0@?0??CreateView@CSplitterWnd@@UEAAHHHPEAUCRuntimeClass@@UtagSIZE@@PEAUCCreateContext@@@Z@4HA 0000000140049eb0     Splitter.obj
 0004:00002ebc       $pdata$_onexit$fin$0       0000000140049ebc     LIBCMT:onexit.obj
 0004:00002ec8       $pdata$__tmainCRTStartup$filt$0 0000000140049ec8     LIBCMT:wincrt0.obj
 0004:00002ed4       $pdata$doexit$fin$0        0000000140049ed4     LIBCMT:crt0dat.obj
 0004:00002ee0       $pdata$?fin$0@?0??_Type_info_dtor@type_info@@CAXPEAV1@@Z@4HA 0000000140049ee0     LIBCMT:typname.obj
 0004:00002eec       $pdata$__updatetmbcinfo$fin$0 0000000140049eec     LIBCMT:mbctype.obj
 0004:00002eec       $pdata$_setmbcp$fin$0      0000000140049eec     LIBCMT:mbctype.obj
 0004:00002ef8       $pdata$_initptd$fin$1      0000000140049ef8     LIBCMT:tidtable.obj
 0004:00002ef8       $pdata$_freefls$fin$1      0000000140049ef8     LIBCMT:tidtable.obj
 0004:00002f04       $pdata$_freefls$fin$0      0000000140049f04     LIBCMT:tidtable.obj
 0004:00002f04       $pdata$_initptd$fin$0      0000000140049f04     LIBCMT:tidtable.obj
 0004:00002f10       $pdata$_isindst$fin$0      0000000140049f10     LIBCMT:tzset.obj
 0004:00002f10       $pdata$__tzset$fin$0       0000000140049f10     LIBCMT:tzset.obj
 0004:00002f1c       $pdata$_tzset_nolock$fin$0 0000000140049f1c     LIBCMT:tzset.obj
 0004:00002f28       $pdata$_ioinit$fin$0       0000000140049f28     LIBCMT:ioinit.obj
 0004:00002f34       $pdata$_mtinitlocknum$fin$0 0000000140049f34     LIBCMT:mlock.obj
 0004:00002f40       $pdata$_IsNonwritableInCurrentImage$filt$0 0000000140049f40     LIBCMT:pesect.obj
 0004:00002f4c       $pdata$raise$fin$0         0000000140049f4c     LIBCMT:winsig.obj
 0004:00002f58       $pdata$flsall$fin$0        0000000140049f58     LIBCMT:fflush.obj
 0004:00002f64       $pdata$flsall$fin$1        0000000140049f64     LIBCMT:fflush.obj
 0004:00002f70       $pdata$__updatetlocinfo$fin$0 0000000140049f70     LIBCMT:wsetloca.obj
 0004:00002f70       $pdata$_locterm$fin$0      0000000140049f70     LIBCMT:wsetloca.obj
 0004:00002f7c       $pdata$_fcloseall$fin$0    0000000140049f7c     LIBCMT:closeall.obj
 0004:00002f88       $pdata$_close$fin$0        0000000140049f88     LIBCMT:commit.obj
 0004:00002f88       $pdata$_commit$fin$0       0000000140049f88     LIBCMT:commit.obj
 0004:00002f94       $pdata$_write$fin$0        0000000140049f94     LIBCMT:write.obj
 0004:00002fa0       $pdata$fclose$fin$0        0000000140049fa0     LIBCMT:fclose.obj
 0004:00002fac       $pdata$__lock_fhandle$fin$0 0000000140049fac     LIBCMT:osfinfo.obj
 0004:00002fb8       $pdata$_CallSETranslator$filt$0 0000000140049fb8     LIBCMT:trnsctrl.obj
 0004:00002fc4       $pdata$__CxxCallCatchBlock$filt$0 0000000140049fc4     LIBCMT:frame.obj
 0004:00002fd0       $pdata$__CxxCallCatchBlock$fin$1 0000000140049fd0     LIBCMT:frame.obj
 0004:00002fdc       $pdata$__DestructExceptionObject$filt$0 0000000140049fdc     LIBCMT:frame.obj
 0004:00002fe8       $pdata$__FrameUnwindToState$filt$0 0000000140049fe8     LIBCMT:frame.obj
 0004:00002ff4       $pdata$__FrameUnwindToState$fin$1 0000000140049ff4     LIBCMT:frame.obj
 0004:00003000       $pdata$??__F_AtlWinModule@ATL@@YAXXZ 000000014004a000     Enterdlg.obj
 0004:0000300c       $pdata$??__F?wndTop@CWMHnd@@2V1@B@@YAXXZ 000000014004a00c     Stdafx.obj
 0004:00003018       $pdata$??__F?wndBottom@CWMHnd@@2V1@B@@YAXXZ 000000014004a018     Stdafx.obj
 0004:00003024       $pdata$??__F?wndTopMost@CWMHnd@@2V1@B@@YAXXZ 000000014004a024     Stdafx.obj
 0004:00003030       $pdata$??__F?wndNoTopMost@CWMHnd@@2V1@B@@YAXXZ 000000014004a030     Stdafx.obj
 0005:000011e0       $R000000                   000000014004c1e0     Viewex.res
 0005:000014c8       $R0002E8                   000000014004c4c8     Viewex.res
 0005:000014e0       $R000300                   000000014004c4e0     Viewex.res
 0005:00001610       $R000430                   000000014004c610     Viewex.res
 0005:00001618       $R000438                   000000014004c618     Viewex.res
 0005:00001738       $R000558                   000000014004c738     Viewex.res
 0005:00001860       $R000680                   000000014004c860     Viewex.res
 0005:00001940       $R000760                   000000014004c940     Viewex.res
 0005:00001a78       $R000898                   000000014004ca78     Viewex.res
 0005:00001b30       $R000950                   000000014004cb30     Viewex.res
 0005:00001b58       $R000978                   000000014004cb58     Viewex.res
 0005:00001c90       $R000AB0                   000000014004cc90     Viewex.res
 0005:00001d48       $R000B68                   000000014004cd48     Viewex.res
 0005:00001d70       $R000B90                   000000014004cd70     Viewex.res
 0005:00001ea8       $R000CC8                   000000014004cea8     Viewex.res
 0005:00001f60       $R000D80                   000000014004cf60     Viewex.res
 0005:00001f88       $R000DA8                   000000014004cf88     Viewex.res
 0005:000020c0       $R000EE0                   000000014004d0c0     Viewex.res
 0005:00002178       $R000F98                   000000014004d178     Viewex.res
 0005:000021a0       $R000FC0                   000000014004d1a0     Viewex.res
 0005:000022d8       $R0010F8                   000000014004d2d8     Viewex.res
 0005:00002390       $R0011B0                   000000014004d390     Viewex.res
 0005:000023b8       $R0011D8                   000000014004d3b8     Viewex.res
 0005:000025b8       $R0013D8                   000000014004d5b8     Viewex.res
 0005:00002670       $R001490                   000000014004d670     Viewex.res
 0005:00002698       $R0014B8                   000000014004d698     Viewex.res
 0005:00002898       $R0016B8                   000000014004d898     Viewex.res
 0005:00002950       $R001770                   000000014004d950     Viewex.res
 0005:00002978       $R001798                   000000014004d978     Viewex.res
 0005:00002b78       $R001998                   000000014004db78     Viewex.res
 0005:00002c30       $R001A50                   000000014004dc30     Viewex.res
 0005:00002c58       $R001A78                   000000014004dc58     Viewex.res
 0005:00002e58       $R001C78                   000000014004de58     Viewex.res
 0005:00002f10       $R001D30                   000000014004df10     Viewex.res
 0005:00002f38       $R001D58                   000000014004df38     Viewex.res
 0005:00003070       $R001E90                   000000014004e070     Viewex.res
 0005:00003128       $R001F48                   000000014004e128     Viewex.res
 0005:00003150       $R001F70                   000000014004e150     Viewex.res
 0005:00003288       $R0020A8                   000000014004e288     Viewex.res
 0005:00003340       $R002160                   000000014004e340     Viewex.res
 0005:00003368       $R002188                   000000014004e368     Viewex.res
 0005:000034a0       $R0022C0                   000000014004e4a0     Viewex.res
 0005:000034b8       $R0022D8                   000000014004e4b8     Viewex.res
 0005:000035f0       $R002410                   000000014004e5f0     Viewex.res
 0005:00003608       $R002428                   000000014004e608     Viewex.res
 0005:00003740       $R002560                   000000014004e740     Viewex.res
 0005:00003758       $R002578                   000000014004e758     Viewex.res
 0005:00003890       $R0026B0                   000000014004e890     Viewex.res
 0005:000038a8       $R0026C8                   000000014004e8a8     Viewex.res
 0005:000039e0       $R002800                   000000014004e9e0     Viewex.res
 0005:000039f8       $R002818                   000000014004e9f8     Viewex.res
 0005:00003b30       $R002950                   000000014004eb30     Viewex.res
 0005:00003b48       $R002968                   000000014004eb48     Viewex.res
 0005:00003c80       $R002AA0                   000000014004ec80     Viewex.res
 0005:00003c98       $R002AB8                   000000014004ec98     Viewex.res
 0005:00003dd0       $R002BF0                   000000014004edd0     Viewex.res
 0005:00003de8       $R002C08                   000000014004ede8     Viewex.res
 0005:00003f20       $R002D40                   000000014004ef20     Viewex.res
 0005:00003f38       $R002D58                   000000014004ef38     Viewex.res
 0005:00004070       $R002E90                   000000014004f070     Viewex.res
 0005:00004088       $R002EA8                   000000014004f088     Viewex.res
 0005:000041c0       $R002FE0                   000000014004f1c0     Viewex.res
 0005:000041d8       $R002FF8                   000000014004f1d8     Viewex.res
 0005:00004310       $R003130                   000000014004f310     Viewex.res
 0005:00004328       $R003148                   000000014004f328     Viewex.res
 0005:00004460       $R003280                   000000014004f460     Viewex.res
 0005:00004478       $R003298                   000000014004f478     Viewex.res
 0005:000045b0       $R0033D0                   000000014004f5b0     Viewex.res
 0005:000045c8       $R0033E8                   000000014004f5c8     Viewex.res
 0005:000046b0       $R0034D0                   000000014004f6b0     Viewex.res
 0005:000046e8       $R003508                   000000014004f6e8     Viewex.res
 0005:000047a0       $R0035C0                   000000014004f7a0     Viewex.res
 0005:000048e8       $R003708                   000000014004f8e8     Viewex.res
 0005:00004930       $R003750                   000000014004f930     Viewex.res
 0005:00004998       $R0037B8                   000000014004f998     Viewex.res
 0005:00004a60       $R003880                   000000014004fa60     Viewex.res
 0005:00004ae8       $R003908                   000000014004fae8     Viewex.res
 0005:00004b18       $R003938                   000000014004fb18     Viewex.res
 0005:00004ca0       $R003AC0                   000000014004fca0     Viewex.res
 0005:00005188       $R003FA8                   0000000140050188     Viewex.res
 0005:00005328       $R004148                   0000000140050328     Viewex.res
 0005:00005608       $R004428                   0000000140050608     Viewex.res
 0005:00005870       $R004690                   0000000140050870     Viewex.res
 0005:000058c0       $R0046E0                   00000001400508c0     Viewex.res
 0005:00005d68       $R004B88                   0000000140050d68     Viewex.res
 0005:00005f90       $R004DB0                   0000000140050f90     Viewex.res
 0005:00006070       $R004E90                   0000000140051070     Viewex.res
 0005:000060a0       $R004EC0                   00000001400510a0     Viewex.res
 0005:00006130       $R004F50                   0000000140051130     Viewex.res
 0005:00006670       $R005490                   0000000140051670     Viewex.res
