 propdlg

 Timestamp is 595b135f (Tue Jul 04 13:02:39 2017)

 Preferred load address is 0000000140000000

 Start         Length     Name                   Class
 0001:00000000 0000011cH .text$di                CODE
 0001:00000120 0003c618H .text$mn                CODE
 0001:0003c740 000015acH .text$x                 CODE
 0001:0003dcf0 00000108H .text$yd                CODE
 0002:00000000 00000b30H .idata$5                DATA
 0002:00000b30 00000008H .CRT$XCA                DATA
 0002:00000b38 00000008H .CRT$XCL                DATA
 0002:00000b40 00000038H .CRT$XCU                DATA
 0002:00000b78 00000008H .CRT$XCZ                DATA
 0002:00000b80 00000008H .CRT$XIA                DATA
 0002:00000b88 00000020H .CRT$XIC                DATA
 0002:00000ba8 00000008H .CRT$XIY                DATA
 0002:00000bb0 00000008H .CRT$XIZ                DATA
 0002:00000bb8 00000008H .CRT$XPA                DATA
 0002:00000bc0 00000010H .CRT$XPX                DATA
 0002:00000bd0 00000008H .CRT$XPXA               DATA
 0002:00000bd8 00000008H .CRT$XPZ                DATA
 0002:00000be0 00000008H .CRT$XTA                DATA
 0002:00000be8 00000008H .CRT$XTZ                DATA
 0002:00000bf0 0000a4a0H .rdata                  DATA
 0002:0000b090 000001ecH .rdata$r                DATA
 0002:0000b280 00000008H .rtc$IAA                DATA
 0002:0000b288 00000008H .rtc$IZZ                DATA
 0002:0000b290 00000008H .rtc$TAA                DATA
 0002:0000b298 00000008H .rtc$TZZ                DATA
 0002:0000b2a0 000060e8H .xdata                  DATA
 0002:00011388 00000274H .xdata$x                DATA
 0002:00011600 00000000H ATL$__a                 DATA
 0002:00011600 00000000H ATL$__z                 DATA
 0002:00011600 00000000H .edata                  DATA
 0002:00011600 000000c8H .idata$2                DATA
 0002:000116c8 00000014H .idata$3                DATA
 0002:000116e0 00000b30H .idata$4                DATA
 0002:00012210 000017c2H .idata$6                DATA
 0003:00000000 000017f0H .data                   DATA
 0003:000017f0 00000158H .data$r                 DATA
 0003:00001960 00002a78H .bss                    DATA
 0004:00000000 00003ca8H .pdata                  DATA
 0005:00000000 000016a8H .rsrc$01                DATA
 0005:000016b0 00007b70H .rsrc$02                DATA

  Address         Publics by Value              Rva+Base               Lib:Object

 0000:00000000       __guard_fids_count         0000000000000000     <absolute>
 0000:00000000       ___safe_se_handler_count   0000000000000000     <absolute>
 0000:00000000       __guard_flags              0000000000000000     <absolute>
 0000:00000000       __guard_fids_table         0000000000000000     <absolute>
 0000:00000000       ___safe_se_handler_table   0000000000000000     <absolute>
 0000:00000000       __ImageBase                0000000140000000     <linker-defined>
 0001:00000120       ??_GCPropertyPageMTL@@UEAAPEAXI@Z 0000000140001120 f i Colorpge.obj
 0001:00000120       ??_GCColorPage@@UEAAPEAXI@Z 0000000140001120 f i Colorpge.obj
 0001:00000120       ??_ECColorPage@@UEAAPEAXI@Z 0000000140001120 f i * CIL library *:* CIL module *
 0001:00000120       ??_GCStylePage@@UEAAPEAXI@Z 0000000140001120 f i Stylepge.obj
 0001:00000120       ??_ECPropertyPageMTL@@UEAAPEAXI@Z 0000000140001120 f i * CIL library *:* CIL module *
 0001:00000120       ??_ECStylePage@@UEAAPEAXI@Z 0000000140001120 f i * CIL library *:* CIL module *
 0001:00000150       ??1CStylePage@@UEAA@XZ     0000000140001150 f i Propsht.obj
 0001:00000150       ??1CColorPage@@UEAA@XZ     0000000140001150 f i Colorpge.obj
 0001:00000160       ?DoDataExchange@CColorPage@@MEAAXPEAVCDataExchange@@@Z 0000000140001160 f   Colorpge.obj
 0001:00000180       ?OnColorClicked@CColorPage@@IEAAXI@Z 0000000140001180 f   Colorpge.obj
 0001:00000180       ?OnStyleClicked@CStylePage@@IEAAXI@Z 0000000140001180 f   Stylepge.obj
 0001:00000370       ?_ProcessWindowMessage@CColorPage@@UEAAHPEAUHWND__@@I_K_JAEA_J@Z 0000000140001370 f i Colorpge.obj
 0001:000003b0       ?DDX_Radio@@YAXPEAVCDataExchange@@HAEAH@Z 00000001400013b0 f i Colorpge.obj
 0001:00000490       ??1CPropertyPageMTL@@UEAA@XZ 0000000140001490 f i Colorpge.obj
 0001:000005a0       ?OnCtlColor@CPropertySheetMTL@@QEAAPEAUHBRUSH__@@PEAVCDCMTL@@PEAVCWnd@@I@Z 00000001400015a0 f i Propsht.obj
 0001:000005a0       ?OnCtlColor@CPropertyPageMTL@@QEAAPEAUHBRUSH__@@PEAVCDCMTL@@PEAVCWnd@@I@Z 00000001400015a0 f i Colorpge.obj
 0001:00000660       ?_ProcessWindowMessage@CPropertyPageMTL@@UEAAHPEAUHWND__@@I_K_JAEA_J@Z 0000000140001660 f i Colorpge.obj
 0001:000007d0       ?PreTranslateMessage@CWnd@@UEAAHPEAUtagMSG@@@Z 00000001400017d0 f i Colorpge.obj
 0001:000007d0       ?PreTranslateMessage@CPropertyPageMTL@@UEAAHPEAUtagMSG@@@Z 00000001400017d0 f i Colorpge.obj
 0001:00000810       ?MapWizardResult@CPropertyPageMTL@@QEAA_J_J@Z 0000000140001810 f i Colorpge.obj
 0001:00000890       ?OnNotify@CPropertyPageMTL@@UEAAH_K_JPEA_J@Z 0000000140001890 f i Colorpge.obj
 0001:00000b00       ?GetSafeOwner_@CWnd@@SAPEAUHWND__@@PEAU2@PEAPEAU2@@Z 0000000140001b00 f i Colorpge.obj
 0001:00000c24       ??_9CDialog@@$BPA@AA       0000000140001c24 f i Colorpge.obj
 0001:00000c30       ??_9CDialog@@$BPI@AA       0000000140001c30 f i Colorpge.obj
 0001:00000c40       ?_ProcessWindowMessage@CCommonDialog@@UEAAHPEAUHWND__@@I_K_JAEA_J@Z 0000000140001c40 f i Propdlg.obj
 0001:00000c40       ?_ProcessWindowMessage@CDialog@@UEAAHPEAUHWND__@@I_K_JAEA_J@Z 0000000140001c40 f i Colorpge.obj
 0001:00000c40       ?_ProcessWindowMessage@CAboutDlg@@UEAAHPEAUHWND__@@I_K_JAEA_J@Z 0000000140001c40 f i Propdlg.obj
 0001:00000cb0       ?OnCmdMsg@CPropertySheetMTL@@UEAAHIHPEAXPEAUAFX_CMDHANDLERINFO@@@Z 0000000140001cb0 f i Propsht.obj
 0001:00000cb0       ?OnCmdMsg@CDialog@@UEAAHIHPEAXPEAUAFX_CMDHANDLERINFO@@@Z 0000000140001cb0 f i Colorpge.obj
 0001:00000da0       ??_GCShapePreviewWnd@@UEAAPEAXI@Z 0000000140001da0 f i Preview.obj
 0001:00000da0       ??_G_AFX_MOUSEANCHORWND@@UEAAPEAXI@Z 0000000140001da0 f i Stdafx.obj
 0001:00000da0       ??_ECDialog@@UEAAPEAXI@Z   0000000140001da0 f i * CIL library *:* CIL module *
 0001:00000da0       ??_ECAboutDlg@@UEAAPEAXI@Z 0000000140001da0 f i * CIL library *:* CIL module *
 0001:00000da0       ??_ECWnd@@UEAAPEAXI@Z      0000000140001da0 f i * CIL library *:* CIL module *
 0001:00000da0       ??_GCPrintingDialog@@UEAAPEAXI@Z 0000000140001da0 f i Shapesvw.obj
 0001:00000da0       ??_GCNewTypeDlg@@UEAAPEAXI@Z 0000000140001da0 f i Propdlg.obj
 0001:00000da0       ??_GCAboutDlg@@UEAAPEAXI@Z 0000000140001da0 f i Propdlg.obj
 0001:00000da0       ??_GCWnd@@UEAAPEAXI@Z      0000000140001da0 f i Colorpge.obj
 0001:00000da0       ??_E_AFX_MOUSEANCHORWND@@UEAAPEAXI@Z 0000000140001da0 f i * CIL library *:* CIL module *
 0001:00000da0       ??_ECShapePreviewWnd@@UEAAPEAXI@Z 0000000140001da0 f i * CIL library *:* CIL module *
 0001:00000da0       ??_ECPrintingDialog@@UEAAPEAXI@Z 0000000140001da0 f i * CIL library *:* CIL module *
 0001:00000da0       ??_ECNewTypeDlg@@UEAAPEAXI@Z 0000000140001da0 f i * CIL library *:* CIL module *
 0001:00000da0       ??_GCDialog@@UEAAPEAXI@Z   0000000140001da0 f i Colorpge.obj
 0001:00000e10       ?PreTranslateMessage@CDialog@@UEAAHPEAUtagMSG@@@Z 0000000140001e10 f i Colorpge.obj
 0001:00000f20       ?OnOK@CDialog@@UEAAXXZ     0000000140001f20 f i Colorpge.obj
 0001:00000fb0       ?OnCancel@CDialog@@UEAAXXZ 0000000140001fb0 f i Colorpge.obj
 0001:00000ff0       ?Create@CDialog@@UEAAHIPEAVCWnd@@@Z 0000000140001ff0 f i Colorpge.obj
 0001:00001000       ?CreateIndirect@CDialog@@UEAAHPEAXPEAVCWnd@@PEAUHINSTANCE__@@@Z 0000000140002000 f i Colorpge.obj
 0001:000010a0       ??1CCommonDialog@@UEAA@XZ  00000001400020a0 f i Propdlg.obj
 0001:000010a0       ??1CNewTypeDlg@@UEAA@XZ    00000001400020a0 f i Propdlg.obj
 0001:000010a0       ??1CShapePreviewWnd@@UEAA@XZ 00000001400020a0 f i Preview.obj
 0001:000010a0       ??1CWnd@@UEAA@XZ           00000001400020a0 f i Colorpge.obj
 0001:000010a0       ??1CAboutDlg@@UEAA@XZ      00000001400020a0 f i Propdlg.obj
 0001:000010a0       ??1CDialog@@UEAA@XZ        00000001400020a0 f i Colorpge.obj
 0001:000010a0       ??1CPrintingDialog@@UEAA@XZ 00000001400020a0 f i Shapesvw.obj
 0001:000010f0       ?classHandleFuncCDialog@CDialog@@SAPEAXPEAX0@Z 00000001400020f0 f i Colorpge.obj
 0001:00001190       ?CreateDlgIndirect@CWnd@@QEAAHPEBUDLGTEMPLATE@@PEAV1@PEAUHINSTANCE__@@@Z 0000000140002190 f i Colorpge.obj
 0001:00001270       ?CreateDlg@CWnd@@QEAAHPEB_WPEAV1@@Z 0000000140002270 f i Colorpge.obj
 0001:00001310       ?Create@CDialog@@UEAAHPEB_WPEAVCWnd@@@Z 0000000140002310 f i Colorpge.obj
 0001:00001380       ?IsIdleMessage@CWinApp@@SAHPEAUtagMSG@@@Z 0000000140002380 f i Colorpge.obj
 0001:000013b0       ?RunModalLoop@CWnd@@QEAAHK@Z 00000001400023b0 f i Colorpge.obj
 0001:00001570       ?DoModal@CDialog@@UEAA_JXZ 0000000140002570 f i Colorpge.obj
 0001:00001750       ?OnBarStyleChange@CControlBar@@UEAAXKK@Z 0000000140002750 f i Mainfrm.obj
 0001:00001750       ?OnShowMenuBar@CFrameWnd@@UEAAXXZ 0000000140002750 f i Mainfrm.obj
 0001:00001750       ?OnDocumentEvent@CDocument@@UEAAXW4DocumentEvent@1@@Z 0000000140002750 f i Shapedoc.obj
 0001:00001750       ?PostNcDestroy@CWMHnd@@UEAAXXZ 0000000140002750 f i Colorpge.obj
 0001:00001750       ?OnBeginPrinting@CShapesView@@MEAAXPEAVCDCMTL@@PEAUCPrintInfo@@@Z 0000000140002750 f i Shapesvw.obj
 0001:00001750       ?SetCheck@CTestCmdUI@@UEAAXH@Z 0000000140002750 f i Colorpge.obj
 0001:00001750       ?RegisterShellFileTypes@CDocManager@@UEAAXH@Z 0000000140002750 f i Propdlg.obj
 0001:00001750       ?OnEndPrinting@CView@@UEAAXPEAVCDCMTL@@PEAUCPrintInfo@@@Z 0000000140002750 f i Shapesvw.obj
 0001:00001750       ?OnFolderChange@CFileDialogMTL@@UEAAXXZ 0000000140002750 f i Propdlg.obj
 0001:00001750       ?DoDataExchange@CWMHnd@@UEAAXPEAVCDataExchange@@@Z 0000000140002750 f i Colorpge.obj
 0001:00001750       ?OnFinalMessage@?$CWindowImplBaseT@VCWindow@ATL@@V?$CWinTraits@$0FGAAAAAA@$0A@@2@@ATL@@UEAAXPEAUHWND__@@@Z 0000000140002750 f i Propdlg.obj
 0001:00001750       ?OnHideMenuBar@CFrameWnd@@UEAAXXZ 0000000140002750 f i Mainfrm.obj
 0001:00001750       ?DeleteContents@CDocument@@UEAAXXZ 0000000140002750 f i Shapedoc.obj
 0001:00001750       ?SetText@CTestCmdUI@@UEAAXPEB_W@Z 0000000140002750 f i Colorpge.obj
 0001:00001750       ?OnEndPrinting@CShapesView@@MEAAXPEAVCDCMTL@@PEAUCPrintInfo@@@Z 0000000140002750 f i Shapesvw.obj
 0001:00001750       ?SetRadio@CTestCmdUI@@UEAAXH@Z 0000000140002750 f i Colorpge.obj
 0001:00001750       ?OnActivateFrame@CView@@UEAAXIPEAVCFrameWnd@@@Z 0000000140002750 f i Shapesvw.obj
 0001:00001750       ?PreCloseFrame@CDocument@@UEAAXPEAVCFrameWnd@@@Z 0000000140002750 f i Shapedoc.obj
 0001:00001750       ?OnOK@CPropertyPageMTL@@UEAAXXZ 0000000140002750 f i Colorpge.obj
 0001:00001750       ?OnTypeChange@CFileDialogMTL@@UEAAXXZ 0000000140002750 f i Propdlg.obj
 0001:00001750       ?OnCancel@CPropertyPageMTL@@UEAAXXZ 0000000140002750 f i Colorpge.obj
 0001:00001750       ?DoDataExchange@CAboutDlg@@MEAAXPEAVCDataExchange@@@Z 0000000140002750 f i Propdlg.obj
 0001:00001750       ?SetText@CToolCmdUI@@UEAAXPEB_W@Z 0000000140002750 f i Mainfrm.obj
 0001:00001750       ?OnBeginPrinting@CView@@UEAAXPEAVCDCMTL@@PEAUCPrintInfo@@@Z 0000000140002750 f i Shapesvw.obj
 0001:00001750       ?OnFileNameChange@CFileDialogMTL@@UEAAXXZ 0000000140002750 f i Propdlg.obj
 0001:00001750       ?Serialize@CObject@@UEAAXAEAVCArchive@@@Z 0000000140002750 f i Colorpge.obj
 0001:00001750       ?OnLBSelChangedNotify@CFileDialogMTL@@UEAAXIII@Z 0000000140002750 f i Propdlg.obj
 0001:00001750       ?OnDraw@CView@@UEAAXPEAVCDCMTL@@@Z 0000000140002750 f i Shapesvw.obj
 0001:00001760       ?OnApply@CPropertyPageMTL@@UEAAHXZ 0000000140002760 f i Colorpge.obj
 0001:00001780       ?OnKillActive@CPropertyPageMTL@@UEAAHXZ 0000000140002780 f i Colorpge.obj
 0001:000017e0       ?InitInstance@CWinApp@@UEAAHXZ 00000001400027e0 f i Propdlg.obj
 0001:000017e0       ?OnPreparePrinting@CView@@UEAAHPEAUCPrintInfo@@@Z 00000001400027e0 f i Shapesvw.obj
 0001:000017e0       ?IsFrameWnd@CFrameWnd@@UEAAHXZ 00000001400027e0 f i Mainfrm.obj
 0001:000017e0       ?OnQueryCancel@CPropertyPageMTL@@UEAAHXZ 00000001400027e0 f i Colorpge.obj
 0001:000017f0       ?OnReset@CPropertyPageMTL@@UEAAXXZ 00000001400027f0 f i Colorpge.obj
 0001:00001800       ?OnSetActive@CPropertyPageMTL@@UEAAHXZ 0000000140002800 f i Colorpge.obj
 0001:00001870       ?OnScroll@CView@@UEAAHIIH@Z 0000000140002870 f i Shapesvw.obj
 0001:00001870       ?OnScrollBy@CView@@UEAAHVCSize@WTL@@H@Z 0000000140002870 f i Shapesvw.obj
 0001:00001870       ?OnFileNameOK@CFileDialogMTL@@UEAAHXZ 0000000140002870 f i Propdlg.obj
 0001:00001870       ?_ProcessWindowMessage@CCmdTarget@@UEAAHPEAUHWND__@@I_K_JAEA_J@Z 0000000140002870 f i Colorpge.obj
 0001:00001870       ?GetScrollBarCtrl@CWMHnd@@UEBAPEAVCScrollBarMTL@@H@Z 0000000140002870 f i Colorpge.obj
 0001:00001870       ?OnWizardBack@CPropertyPageMTL@@UEAA_JXZ 0000000140002870 f i Colorpge.obj
 0001:00001870       ?OnWizardNext@CPropertyPageMTL@@UEAA_JXZ 0000000140002870 f i Colorpge.obj
 0001:00001870       ?GetEventSinkMap@CCmdTarget@@UEBAPEBUAFX_EVENTSINKMAP@@XZ 0000000140002870 f i Colorpge.obj
 0001:00001870       ?OnShareViolation@CFileDialogMTL@@UEAAIPEB_W@Z 0000000140002870 f i Propdlg.obj
 0001:00001870       ?IsDockBar@CControlBar@@UEBAHXZ 0000000140002870 f i Mainfrm.obj
 0001:00001870       ?IsTabbedMDIChild@CMDIChildWnd@@UEAAHXZ 0000000140002870 f i Stdafx.obj
 0001:00001870       ?IsFrameWnd@CWMHnd@@UEAAHXZ 0000000140002870 f i Colorpge.obj
 0001:00001870       ?GetDefaultAccelerator@CDocument@@UEAAPEAUHACCEL__@@XZ 0000000140002870 f i Shapedoc.obj
 0001:00001870       ?_ProcessWindowMessage@CPrintDialogMTL@@UEAAHPEAUHWND__@@I_K_JAEA_J@Z 0000000140002870 f i Propdlg.obj
 0001:00001880       ?OnWizardFinish@CPropertyPageMTL@@UEAAHXZ 0000000140002880 f i Colorpge.obj
 0001:00001920       ?OnWizardFinishEx@CPropertyPageMTL@@UEAAPEAUHWND__@@XZ 0000000140002920 f i Colorpge.obj
 0001:00001940       ?GetParentSheet@CPropertyPageMTL@@UEAAPEAVCPropertySheetMTL@@XZ 0000000140002940 f i Colorpge.obj
 0001:00001980       ?AfxThrowMemoryException@@YAXXZ 0000000140002980 f i Colorpge.obj
 0001:00001a20       ?CenterWindow@CWindow@ATL@@QEAAHPEAUHWND__@@@Z 0000000140002a20 f i Colorpge.obj
 0001:00001c00       ?AfxCallWndProc@CWnd@@QEAA_JPEAV1@I_K_J@Z 0000000140002c00 f i Colorpge.obj
 0001:00001c90       ?SendMessageToDescendants@CWnd@@QEAAXPEAUHWND__@@I_K_JHH@Z 0000000140002c90 f i Colorpge.obj
 0001:00001da0       ?ExecuteDlgInit@CWnd@@QEAAHPEAX@Z 0000000140002da0 f i Colorpge.obj
 0001:00001eb0       ?ExecuteDlgInit@CWnd@@QEAAHPEB_W@Z 0000000140002eb0 f i Colorpge.obj
 0001:00001f50       ?OnInitDialog@CDialog@@UEAAHXZ 0000000140002f50 f i Colorpge.obj
 0001:00002000       ?AfxDlgProc@CWnd@@SA_JPEAUHWND__@@I_K_J@Z 0000000140003000 f i Colorpge.obj
 0001:000020a0       ?AfxPropPageCallback@CPropertyPageMTL@@SAIPEAUHWND__@@IPEAU_PROPSHEETPAGEW@@@Z 00000001400030a0 f i Colorpge.obj
 0001:00002120       ?AssignCopy@CString@WTL@@IEAAXHPEB_W@Z 0000000140003120 f i Colorpge.obj
 0001:000021d0       ?GetBuffer@CString@WTL@@QEAAPEA_WH@Z 00000001400031d0 f i Colorpge.obj
 0001:00002270       ?CopyBeforeWrite@CString@WTL@@IEAAXXZ 0000000140003270 f i Colorpge.obj
 0001:00002300       ?LoadStringW@CString@WTL@@QEAAHI@Z 0000000140003300 f i Colorpge.obj
 0001:00002540       ?CalcWindowRect@CWMHnd@@UEAAXPEAUtagRECT@@I@Z 0000000140003540 f i Colorpge.obj
 0001:000025b0       ?FromHandle@?$CHandleList@PEAXVCGdiObject@@PEAUHWND__@@@@QEAAPEAVCGdiObject@@QEAXPEAV2@QEAUHWND__@@Q6APEAXPEAX3@Z@Z 00000001400035b0 f i Preview.obj
 0001:000025b0       ?FromHandle@?$CHandleList@PEAUHDC__@@VCDCMTL@@PEAUHWND__@@@@QEAAPEAVCDCMTL@@QEAUHDC__@@PEAV2@QEAUHWND__@@Q6APEAXPEAX3@Z@Z 00000001400035b0 f i Shapesvw.obj
 0001:000025b0       ?FromHandle@?$CHandleList@PEAUHMENU__@@VCMenuMTL@@PEAUHWND__@@@@QEAAPEAVCMenuMTL@@QEAUHMENU__@@PEAV2@QEAUHWND__@@Q6APEAXPEAX3@Z@Z 00000001400035b0 f i Colorpge.obj
 0001:00002690       ?FromHandleMenu@CWinApp@@QEAAPEAVCMenuMTL@@PEAUHMENU__@@PEAV2@PEAUHWND__@@P6APEAXPEAX3@Z@Z 0000000140003690 f i Colorpge.obj
 0001:000026b0       ??_ECMenuMTL@@UEAAPEAXI@Z  00000001400036b0 f i * CIL library *:* CIL module *
 0001:000026b0       ??_GCMenuMTL@@UEAAPEAXI@Z  00000001400036b0 f i Colorpge.obj
 0001:00002720       ?RemoveHandle@?$CHandleList@PEAUHDC__@@VCDCMTL@@PEAUHWND__@@@@QEAAPEAUHDC__@@QEAU2@@Z 0000000140003720 f i Colorpge.obj
 0001:00002720       ?RemoveHandle@?$CHandleList@PEAXVCGdiObject@@PEAUHWND__@@@@QEAAPEAXQEAX@Z 0000000140003720 f i Preview.obj
 0001:00002720       ?RemoveHandle@?$CHandleList@PEAUHMENU__@@VCMenuMTL@@PEAUHWND__@@@@QEAAPEAUHMENU__@@QEAU2@@Z 0000000140003720 f i Colorpge.obj
 0001:000027a0       ?RemoveHandleMenu@CWinApp@@QEAAPEAUHMENU__@@PEAU2@@Z 00000001400037a0 f i Colorpge.obj
 0001:000027c0       ??1CMenuMTL@@UEAA@XZ       00000001400037c0 f i Colorpge.obj
 0001:00002810       ?classHandleFuncCMenuMTL@CMenuMTL@@SAPEAXPEAX0@Z 0000000140003810 f i Colorpge.obj
 0001:00002870       ?GetMenu@CWMHnd@@UEBAPEAVCMenuMTL@@XZ 0000000140003870 f i Colorpge.obj
 0001:000028b0       ?SetMenu@CWMHnd@@UEAAHPEAVCMenuMTL@@@Z 00000001400038b0 f i Colorpge.obj
 0001:000028d0       ?OnInitDialog@CWMHnd@@UEAAHXZ 00000001400038d0 f i Colorpge.obj
 0001:000028d0       ?OnCancel@CCommonDialog@@UEAAXXZ 00000001400038d0 f i Propdlg.obj
 0001:00002900       ?_AfxTopChildWindowFromPoint@CWnd@@SAPEAUHWND__@@PEAU2@UtagPOINT@@@Z 0000000140003900 f i Colorpge.obj
 0001:000029f0       ?OnToolHitTest@CWnd@@UEBA_JVCPoint@WTL@@PEAUtagTOOLINFOW@@@Z 00000001400039f0 f i Colorpge.obj
 0001:00002aa0       ?Create@CWnd@@UEAAHPEB_W0KAEBUtagRECT@@PEAV1@IPEAUCCreateContext@@@Z 0000000140003aa0 f i Colorpge.obj
 0001:00002b60       ?Init@CDynamicStdCallThunk@ATL@@QEAAH_KPEAX@Z 0000000140003b60 f i Colorpge.obj
 0001:00002bf0       ?GetParent@CWnd@@QEAAPEAV1@XZ 0000000140003bf0 f i Colorpge.obj
 0001:00002c30       ?EnableWindow@CWMHnd@@UEAAXH@Z 0000000140003c30 f i Colorpge.obj
 0001:00002c50       ?Enable@CCmdUI@@UEAAXH@Z   0000000140003c50 f i Colorpge.obj
 0001:00002d30       ?SetCheck@CCmdUI@@UEAAXH@Z 0000000140003d30 f i Colorpge.obj
 0001:00002dc0       ?SetRadio@CCmdUI@@UEAAXH@Z 0000000140003dc0 f i Colorpge.obj
 0001:00002e20       ?AfxSetWindowText@CAfx@@SAXPEAUHWND__@@PEB_W@Z 0000000140003e20 f i Colorpge.obj
 0001:00002ec0       ?SetText@CCmdUI@@UEAAXPEB_W@Z 0000000140003ec0 f i Colorpge.obj
 0001:00002f40       ?Enable@CTestCmdUI@@UEAAXH@Z 0000000140003f40 f i Colorpge.obj
 0001:00002f50       ?OnCommand@CWnd@@UEAAH_K_J@Z 0000000140003f50 f i Colorpge.obj
 0001:00003050       ?ReflectLastMsg@CWnd@@SAHPEAUHWND__@@PEA_J@Z 0000000140004050 f i Colorpge.obj
 0001:000030c0       ?OnNotify@CWnd@@UEAAH_K_JPEA_J@Z 00000001400040c0 f i Colorpge.obj
 0001:00003170       ?ReflectChildNotify@CWnd@@QEAAHI_K_JPEA_J@Z 0000000140004170 f i Colorpge.obj
 0001:000032b0       ?OnChildNotify@CWnd@@UEAAHI_K_JPEA_J@Z 00000001400042b0 f i Colorpge.obj
 0001:000032c0       ??_GCDCMTL@@UEAAPEAXI@Z    00000001400042c0 f i Colorpge.obj
 0001:000032c0       ??_ECDCMTL@@UEAAPEAXI@Z    00000001400042c0 f i * CIL library *:* CIL module *
 0001:00003330       ?SetAttribDC@CDCMTL@@UEAAXPEAUHDC__@@@Z 0000000140004330 f i Colorpge.obj
 0001:00003340       ?ReleaseAttribDC@CDCMTL@@UEAAXXZ 0000000140004340 f i Colorpge.obj
 0001:00003350       ?SaveDC@CDCMTL@@UEAAHXZ    0000000140004350 f i Colorpge.obj
 0001:000033a0       ?RestoreDC@CDCMTL@@UEAAHH@Z 00000001400043a0 f i Colorpge.obj
 0001:00003400       ?TextOutW@CDCMTL@@UEAAHHHPEB_WH@Z 0000000140004400 f i Colorpge.obj
 0001:00003410       ?RemoveHandleDC@CWinApp@@QEAAPEAUHDC__@@PEAU2@@Z 0000000140004410 f i Colorpge.obj
 0001:00003430       ??1CDCMTL@@UEAA@XZ         0000000140004430 f i Colorpge.obj
 0001:00003490       ?GetCurrentMessage@CCmdTarget@@UEBAPEBU_ATL_MSG@ATL@@XZ 0000000140004490 f i Colorpge.obj
 0001:000034a0       ?AfxUnsubclassWindow@CWnd@@QEAAPEAUHWND__@@XZ 00000001400044a0 f i Colorpge.obj
 0001:00003520       ?OnNcDestroy@CWnd@@QEAAXXZ 0000000140004520 f i Colorpge.obj
 0001:00003600       ?_ProcessWindowMessage@CWnd@@UEAAHPEAUHWND__@@I_K_JAEA_J@Z 0000000140004600 f i Colorpge.obj
 0001:000037f0       ?OnWndMsg@CWnd@@UEAAHI_K_JPEA_J@Z 00000001400047f0 f i Colorpge.obj
 0001:00003890       ?DefWindowProcW@CWnd@@UEAA_JI_K_J@Z 0000000140004890 f i Colorpge.obj
 0001:000038c0       ?WindowProc@CWnd@@UEAA_JI_K_J@Z 00000001400048c0 f i Colorpge.obj
 0001:00003930       ?AfxWindowProc@CWnd@@SA_JPEAUHWND__@@I_K_J@Z 0000000140004930 f i Colorpge.obj
 0001:000039a0       ?FromHandle@?$CHandleHashList@PEAUHWND__@@VCWMHnd@@PEAU1@$0BB@@@QEAAPEAVCWMHnd@@QEAUHWND__@@PEAV2@0Q6APEAXPEAX2@Z@Z 00000001400049a0 f i Colorpge.obj
 0001:00003ae0       ?FromHandleWnd@CWinApp@@QEAAPEAVCWMHnd@@PEAUHWND__@@PEAV2@0P6APEAXPEAX2@Z@Z 0000000140004ae0 f i Colorpge.obj
 0001:00003b00       ?AfxSubclassWindow@CWnd@@QEAAHPEAUHWND__@@PEAUtagCREATESTRUCTW@@@Z 0000000140004b00 f i Colorpge.obj
 0001:00003c00       ?CbtFilterHook@CWnd@@SA_JH_K_J@Z 0000000140004c00 f i Colorpge.obj
 0001:00003ca0       ?CreateEx@CWnd@@UEAAHKPEB_W0KHHHHPEAUHWND__@@PEAUHMENU__@@PEAX@Z 0000000140004ca0 f i Colorpge.obj
 0001:00003e40       ??0CString@WTL@@QEAA@XZ    0000000140004e40 f i Colorpge.obj
 0001:00003e50       ??1?$CList@PEAVCFrameWnd@@AEBQEAV1@@@QEAA@XZ 0000000140004e50 f i Propdlg.obj
 0001:00003e50       ??1?$CList@PEAUHWND__@@PEAU1@@@QEAA@XZ 0000000140004e50 f i Mainfrm.obj
 0001:00003e50       ??1?$CList@PEAXPEAX@@QEAA@XZ 0000000140004e50 f i Mainfrm.obj
 0001:00003e50       ??1?$CList@PEAUCRuntimeClass@@AEBQEAU1@@@QEAA@XZ 0000000140004e50 f i Colorpge.obj
 0001:00003e90       ??1CString@WTL@@QEAA@XZ    0000000140004e90 f i Colorpge.obj
 0001:00003e90       ??1CStringW@@QEAA@XZ       0000000140004e90 f i Propdlg.obj
 0001:00003ec0       ??1CModuleState@@QEAA@XZ   0000000140004ec0 f i Colorpge.obj
 0001:00003f50       ?_GetCModuleState@CWinApp@@SAPEAVCModuleState@@XZ 0000000140004f50 f i Colorpge.obj
 0001:00003fc0       ?AllocBuffer@CString@WTL@@IEAAHH@Z 0000000140004fc0 f i Colorpge.obj
 0001:00004050       ?ConcatCopy@CString@WTL@@IEAAHHPEB_WH0@Z 0000000140005050 f i Colorpge.obj
 0001:00004110       ?ConcatInPlace@CString@WTL@@IEAAXHPEB_W@Z 0000000140005110 f i Colorpge.obj
 0001:000041d0       ??YCString@WTL@@QEAAAEAV01@_W@Z 00000001400051d0 f i Colorpge.obj
 0001:00004280       ?_AfxRegisterClass@CAfx@@SAHPEAUtagWNDCLASSW@@@Z 0000000140005280 f i Colorpge.obj
 0001:00004310       ?_AfxEndDeferRegisterClass@CAfx@@SAHJ@Z 0000000140005310 f i Colorpge.obj
 0001:00004650       ?PreCreateWindow@CWnd@@UEAAHAEAUtagCREATESTRUCTW@@@Z 0000000140005650 f i Colorpge.obj
 0001:000046a0       ?ContinueModal@CWnd@@UEAAHXZ 00000001400056a0 f i Colorpge.obj
 0001:000046b0       ?EndModalLoop@CWnd@@UEAAXH@Z 00000001400056b0 f i Colorpge.obj
 0001:000046e0       ??1CWMHnd@@UEAA@XZ         00000001400056e0 f i Colorpge.obj
 0001:000046f0       ??1CWndProcThunk@ATL@@QEAA@XZ 00000001400056f0 f i Colorpge.obj
 0001:00004700       ?RemoveHandle@?$CHandleHashList@PEAUHWND__@@VCWMHnd@@PEAU1@$0BB@@@QEAAPEAUHWND__@@QEAU2@@Z 0000000140005700 f i Colorpge.obj
 0001:000047c0       ?RemoveOwner@?$CHandleHashList@PEAUHWND__@@VCWMHnd@@PEAU1@$0BB@@@QEAAHQEAUHWND__@@@Z 00000001400057c0 f i Colorpge.obj
 0001:00004880       ?RemoveOwner@?$CHandleList@PEAXVCGdiObject@@PEAUHWND__@@@@QEAAHQEAUHWND__@@@Z 0000000140005880 f i Colorpge.obj
 0001:00004880       ?RemoveOwner@?$CHandleList@PEAXXPEAUHWND__@@@@QEAAHQEAUHWND__@@@Z 0000000140005880 f i Colorpge.obj
 0001:00004880       ?RemoveOwner@?$CHandleList@PEAUHMENU__@@VCMenuMTL@@PEAUHWND__@@@@QEAAHQEAUHWND__@@@Z 0000000140005880 f i Colorpge.obj
 0001:00004880       ?RemoveOwner@?$CHandleList@PEAUHDC__@@VCDCMTL@@PEAUHWND__@@@@QEAAHQEAUHWND__@@@Z 0000000140005880 f i Colorpge.obj
 0001:00004910       ?RemoveHandleWnd@CWinApp@@QEAAPEAUHWND__@@PEAU2@@Z 0000000140005910 f i Colorpge.obj
 0001:000049b0       ?DestroyWindow@CWnd@@UEAAHXZ 00000001400059b0 f i Colorpge.obj
 0001:000049d0       ?CWndDestruct@CWnd@@QEAAXXZ 00000001400059d0 f i Colorpge.obj
 0001:00004a50       ?classHandleFuncCWnd@CWnd@@SAPEAXPEAX0@Z 0000000140005a50 f i Colorpge.obj
 0001:00004ad0       ?OnCmdMsg@CCmdTarget@@UEAAHIHPEAXPEAUAFX_CMDHANDLERINFO@@@Z 0000000140005ad0 f i Colorpge.obj
 0001:00004c10       ?AfxHelpEnabled@@YAHXZ     0000000140005c10 f i Colorpge.obj
 0001:00004cc0       ?CommonConstruct@CPropertyPageMTL@@QEAAXPEB_WI@Z 0000000140005cc0 f i Colorpge.obj
 0001:00004d70       ??0CPropertyPageMTL@@QEAA@IIK@Z 0000000140005d70 f i Colorpge.obj
 0001:00004e50       ?GetRuntimeClass@CMainFrame@@UEBAPEAUCRuntimeClass@@XZ 0000000140005e50 f   Mainfrm.obj
 0001:00004e60       ?_ProcessWindowMessage@CMainFrame@@UEAAHPEAUHWND__@@I_K_JAEA_J@Z 0000000140005e60 f i Mainfrm.obj
 0001:00004f90       ??0CMainFrame@@QEAA@XZ     0000000140005f90 f   Mainfrm.obj
 0001:00005020       ??_ECMainFrame@@UEAAPEAXI@Z 0000000140006020 f i * CIL library *:* CIL module *
 0001:00005020       ??_GCMainFrame@@UEAAPEAXI@Z 0000000140006020 f i Mainfrm.obj
 0001:00005050       ??1CMainFrame@@UEAA@XZ     0000000140006050 f   Mainfrm.obj
 0001:00005120       ?OnCreate@CMainFrame@@QEAAHPEAUtagCREATESTRUCTW@@@Z 0000000140006120 f   Mainfrm.obj
 0001:00005200       ?OnMiniFramePropertySheet@CMainFrame@@QEAAXXZ 0000000140006200 f   Mainfrm.obj
 0001:00005410       ?AllocElements@CStatusBar@@QEAAHHH@Z 0000000140006410 f i Mainfrm.obj
 0001:000054f0       ?SetIndicators@CStatusBar@@QEAAHPEBIH@Z 00000001400064f0 f i Mainfrm.obj
 0001:00005720       ?SetButtons@CToolBar@@QEAAHPEBIH@Z 0000000140006720 f i Mainfrm.obj
 0001:00005850       ?AfxLoadSysColorBitmap@@YAPEAUHBITMAP__@@PEAUHINSTANCE__@@PEAUHRSRC__@@H@Z 0000000140006850 f i Mainfrm.obj
 0001:00005ab0       ?AddReplaceBitmap@CToolBar@@QEAAHPEAUHBITMAP__@@@Z 0000000140006ab0 f i Mainfrm.obj
 0001:00005ba0       ?LoadBitmapW@CToolBar@@QEAAHPEB_W@Z 0000000140006ba0 f i Mainfrm.obj
 0001:00005c30       ?OnPaint@CToolBar@@QEAAXXZ 0000000140006c30 f i Mainfrm.obj
 0001:00005cc0       ?OnSetBitmapSize@CToolBar@@QEAA_J_K_J@Z 0000000140006cc0 f i Mainfrm.obj
 0001:00005cd0       ?OnSetSizeHelper@CToolBar@@QEAA_JAEAVCSize@WTL@@_J@Z 0000000140006cd0 f i Mainfrm.obj
 0001:00005e00       ?OnSetButtonSize@CToolBar@@QEAA_J_K_J@Z 0000000140006e00 f i Mainfrm.obj
 0001:00005e10       ?OnPreserveSizingPolicyHelper@CToolBar@@QEAA_J_K_J@Z 0000000140006e10 f i Mainfrm.obj
 0001:00005fe0       ?OnPreserveZeroBorderHelper@CToolBar@@QEAA_J_K_J@Z 0000000140006fe0 f i Mainfrm.obj
 0001:000060f0       ?_ProcessWindowMessage@CToolBar@@UEAAHPEAUHWND__@@I_K_JAEA_J@Z 00000001400070f0 f i Mainfrm.obj
 0001:000063d0       ??_ECToolBar@@UEAAPEAXI@Z  00000001400073d0 f i * CIL library *:* CIL module *
 0001:000063d0       ??_ECControlBar@@UEAAPEAXI@Z 00000001400073d0 f i * CIL library *:* CIL module *
 0001:000063d0       ??_GCStatusBar@@UEAAPEAXI@Z 00000001400073d0 f i Mainfrm.obj
 0001:000063d0       ??_GCToolBar@@UEAAPEAXI@Z  00000001400073d0 f i Mainfrm.obj
 0001:000063d0       ??_ECStatusBar@@UEAAPEAXI@Z 00000001400073d0 f i * CIL library *:* CIL module *
 0001:000063d0       ??_GCControlBar@@UEAAPEAXI@Z 00000001400073d0 f i Mainfrm.obj
 0001:00006450       ?OnToolHitTest@CToolBar@@UEBA_JVCPoint@WTL@@PEAUtagTOOLINFOW@@@Z 0000000140007450 f i Mainfrm.obj
 0001:00006580       ?OnBarStyleChange@CToolBar@@UEAAXKK@Z 0000000140007580 f i Mainfrm.obj
 0001:000065d0       ?Enable@CToolCmdUI@@UEAAXH@Z 00000001400075d0 f i Mainfrm.obj
 0001:00006650       ?SetButtonStyle@CToolBar@@QEAAXHI@Z 0000000140007650 f i Mainfrm.obj
 0001:000066d0       ?SetCheck@CToolCmdUI@@UEAAXH@Z 00000001400076d0 f i Mainfrm.obj
 0001:00006760       ?OnUpdateCmdUI@CToolBar@@UEAAXPEAVCFrameWnd@@H@Z 0000000140007760 f i Mainfrm.obj
 0001:000068f0       ?WrapToolBar@CToolBar@@QEAAHPEAU_TBBUTTON@@HH@Z 00000001400078f0 f i Mainfrm.obj
 0001:00006a10       ?SizeToolBar@CToolBar@@QEAAXPEAU_TBBUTTON@@HHH@Z 0000000140007a10 f i Mainfrm.obj
 0001:00006be0       ?CalcSize@CToolBar@@QEAA?AVCSize@WTL@@PEAU_TBBUTTON@@H@Z 0000000140007be0 f i Mainfrm.obj
 0001:00006d40       ?_SetButton@CToolBar@@QEAAXHPEAU_TBBUTTON@@@Z 0000000140007d40 f i Mainfrm.obj
 0001:00006f30       ?CalcDynamicLayout@CToolBar@@UEAA?AVCSize@WTL@@HK@Z 0000000140007f30 f i Mainfrm.obj
 0001:00006f90       ?CalcLayout@CToolBar@@QEAA?AVCSize@WTL@@KH@Z 0000000140007f90 f i Mainfrm.obj
 0001:00007620       ?CalcFixedLayout@CToolBar@@UEAA?AVCSize@WTL@@HH@Z 0000000140008620 f i Mainfrm.obj
 0001:00007660       ?Create@CToolBar@@UEAAHPEAVCWnd@@KI@Z 0000000140008660 f i Mainfrm.obj
 0001:000076b0       ?_AfxGetDropDownWidth@CToolBar@@SAHXZ 00000001400086b0 f i Mainfrm.obj
 0001:000077b0       ?SetSizes@CToolBar@@QEAAXUtagSIZE@@0@Z 00000001400087b0 f i Mainfrm.obj
 0001:00007850       ?CreateEx@CToolBar@@UEAAHPEAVCWnd@@KKVCRect@WTL@@I@Z 0000000140008850 f i Mainfrm.obj
 0001:00007990       ??0CToolBar@@QEAA@XZ       0000000140008990 f i Mainfrm.obj
 0001:00007a20       ??1CControlBar@@UEAA@XZ    0000000140008a20 f i Mainfrm.obj
 0001:00007a20       ??1CStatusBar@@UEAA@XZ     0000000140008a20 f i Mainfrm.obj
 0001:00007a80       ??0_AUX_DATA@@QEAA@XZ      0000000140008a80 f i Mainfrm.obj
 0001:00007b90       ?_GetAfxData@CAfx@@SAAEBU_AUX_DATA@@XZ 0000000140008b90 f i Mainfrm.obj
 0001:00007bc0       ??0CControlBar@@QEAA@XZ    0000000140008bc0 f i Mainfrm.obj
 0001:00007c70       ?OnGetText@CStatusBar@@QEAAHHPEA_W@Z 0000000140008c70 f i Mainfrm.obj
 0001:00007d00       ?OnNcCalcSize@CStatusBar@@QEAAXHPEAUtagNCCALCSIZE_PARAMS@@@Z 0000000140008d00 f i Mainfrm.obj
 0001:00007dc0       ??_GCClientDCMTL@@UEAAPEAXI@Z 0000000140008dc0 f i Mainfrm.obj
 0001:00007dc0       ??_ECClientDCMTL@@UEAAPEAXI@Z 0000000140008dc0 f i * CIL library *:* CIL module *
 0001:00007dc0       ??_ECWindowDCMTL@@UEAAPEAXI@Z 0000000140008dc0 f i * CIL library *:* CIL module *
 0001:00007dc0       ??_GCWindowDCMTL@@UEAAPEAXI@Z 0000000140008dc0 f i Mainfrm.obj
 0001:00007e40       ?DrawBorders@CControlBar@@QEAAXPEAVCDCMTL@@AEAVCRect@WTL@@@Z 0000000140008e40 f i Mainfrm.obj
 0001:00008250       ?FillSolidRect@?$CDCT@$00@WTL@@QEAAXHHHHK@Z 0000000140009250 f i Mainfrm.obj
 0001:000082e0       ?Draw3dRect@?$CDCT@$00@WTL@@QEAAXHHHHKK@Z 00000001400092e0 f i Mainfrm.obj
 0001:000084d0       ?DrawNonThemedGripper@CControlBar@@QEAAHPEAVCDCMTL@@AEBVCRect@WTL@@@Z 00000001400094d0 f i Mainfrm.obj
 0001:00008590       ?EraseNonClient@CControlBar@@QEAAXXZ 0000000140009590 f i Mainfrm.obj
 0001:000087b0       ?OnSetText@CStatusBar@@QEAAHPEB_W@Z 00000001400097b0 f i Mainfrm.obj
 0001:000088c0       ?OnSetMinHeight@CStatusBar@@QEAA_J_K_J@Z 00000001400098c0 f i Mainfrm.obj
 0001:00008900       ?_ProcessWindowMessage@CStatusBar@@UEAAHPEAUHWND__@@I_K_JAEA_J@Z 0000000140009900 f i Mainfrm.obj
 0001:00008b20       ?OnCreate@CControlBar@@QEAAHPEAUtagCREATESTRUCTW@@@Z 0000000140009b20 f i Mainfrm.obj
 0001:00008c20       ?OnDestroy@CControlBar@@QEAAXXZ 0000000140009c20 f i Mainfrm.obj
 0001:00008ca0       ?OnLButtonDown@CControlBar@@QEAAXIVCPoint@WTL@@@Z 0000000140009ca0 f i Mainfrm.obj
 0001:00008d20       ?ReDockControlBar@CDockBar@@QEAAXPEAVCControlBar@@PEBUtagRECT@@@Z 0000000140009d20 f i Mainfrm.obj
 0001:00009110       ?ReDockControlBar@CFrameWnd@@QEAAXPEAVCControlBar@@PEAVCDockBar@@PEBUtagRECT@@@Z 000000014000a110 f i Mainfrm.obj
 0001:00009240       ?ToggleDocking@CDockContext@@QEAAXXZ 000000014000a240 f i Mainfrm.obj
 0001:000093d0       ?OnTimer@CControlBar@@QEAAX_K@Z 000000014000a3d0 f i Mainfrm.obj
 0001:000095e0       ?RecalcDelayShow@CControlBar@@QEAAKPEAUAFX_SIZEPARENTPARAMS@@@Z 000000014000a5e0 f i Mainfrm.obj
 0001:000096b0       ?OnSizeParent@CControlBar@@QEAA_J_K_J@Z 000000014000a6b0 f i Mainfrm.obj
 0001:00009830       ?OnIdleUpdateCmdUI@CControlBar@@QEAA_J_K_J@Z 000000014000a830 f i Mainfrm.obj
 0001:00009970       ?OnInitialUpdate@CControlBar@@QEAAXXZ 000000014000a970 f i Mainfrm.obj
 0001:00009980       ?_ProcessWindowMessage@CControlBar@@UEAAHPEAUHWND__@@I_K_JAEA_J@Z 000000014000a980 f i Mainfrm.obj
 0001:00009b00       ?RemoveControlBar@CFrameWnd@@QEAAXPEAVCControlBar@@@Z 000000014000ab00 f i Mainfrm.obj
 0001:00009b80       ?CreateEx@CMiniFrameWnd@@UEAAHKPEB_W0KAEBUtagRECT@@PEAVCWnd@@I@Z 000000014000ab80 f i Mainfrm.obj
 0001:00009c90       ?Create@CDockBar@@QEAAHPEAVCWnd@@KI@Z 000000014000ac90 f i Mainfrm.obj
 0001:00009d60       ?Create@CMiniDockFrameWnd@@QEAAHPEAVCWnd@@K@Z 000000014000ad60 f i Mainfrm.obj
 0001:00009fe0       ?GetParentOwner@CWnd@@QEAAPEAV1@XZ 000000014000afe0 f i Mainfrm.obj
 0001:0000a070       ?Create@CToolTipCtrlMTL@@QEAAHPEAVCWnd@@K@Z 000000014000b070 f i Mainfrm.obj
 0001:0000a130       ??_ECToolTipCtrlMTL@@UEAAPEAXI@Z 000000014000b130 f i * CIL library *:* CIL module *
 0001:0000a130       ??_GCToolTipCtrlMTL@@UEAAPEAXI@Z 000000014000b130 f i Mainfrm.obj
 0001:0000a1c0       ?_AfxRelayToolTipMessage@CWnd@@SAXPEAVCToolTipCtrlMTL@@PEAUtagMSG@@@Z 000000014000b1c0 f i Mainfrm.obj
 0001:0000a270       ?FilterToolTipMessage@CWnd@@QEAAXPEAUtagMSG@@@Z 000000014000b270 f i Mainfrm.obj
 0001:0000a880       ?_FilterToolTipMessage@CWnd@@SAXPEAUtagMSG@@PEAV1@@Z 000000014000b880 f i Mainfrm.obj
 0001:0000a890       ?_EnableToolTips@CWnd@@QEAAHHI@Z 000000014000b890 f i Mainfrm.obj
 0001:0000a9e0       ?InsertAt@?$CArray@PEAXAEBQEAX@@QEAAX_JAEBQEAX0@Z 000000014000b9e0 f i Mainfrm.obj
 0001:0000aa70       ?Insert@CDockBar@@QEAAHPEAVCControlBar@@VCRect@WTL@@VCPoint@4@@Z 000000014000ba70 f i Mainfrm.obj
 0001:0000ade0       ?SetSize@?$CArray@PEAXAEBQEAX@@QEAAX_J0@Z 000000014000bde0 f i Mainfrm.obj
 0001:0000af30       ?DockControlBar@CDockBar@@QEAAXPEAVCControlBar@@PEBUtagRECT@@@Z 000000014000bf30 f i Mainfrm.obj
 0001:0000b280       ?FloatControlBar@CFrameWnd@@QEAAXPEAVCControlBar@@VCPoint@WTL@@K@Z 000000014000c280 f i Mainfrm.obj
 0001:0000b480       ?RemoveAt@?$CArray@PEAXAEBQEAX@@QEAAX_J0@Z 000000014000c480 f i Mainfrm.obj
 0001:0000b4c0       ?RemovePlaceHolder@CDockBar@@QEAAXPEAVCControlBar@@@Z 000000014000c4c0 f i Mainfrm.obj
 0001:0000b5a0       ?RemoveControlBar@CDockBar@@QEAAHPEAVCControlBar@@HH@Z 000000014000c5a0 f i Mainfrm.obj
 0001:0000b7f0       ?CControlBarDestruct@CControlBar@@QEAAXXZ 000000014000c7f0 f i Mainfrm.obj
 0001:0000b880       ?PostNcDestroy@CControlBar@@UEAAXXZ 000000014000c880 f i Mainfrm.obj
 0001:0000b8a0       ?PreTranslateMessage@CControlBar@@UEAAHPEAUtagMSG@@@Z 000000014000c8a0 f i Mainfrm.obj
 0001:0000bba0       ?WindowProc@CControlBar@@UEAA_JI_K_J@Z 000000014000cba0 f i Mainfrm.obj
 0001:0000bd10       ?PreCreateWindow@CControlBar@@UEAAHAEAUtagCREATESTRUCTW@@@Z 000000014000cd10 f i Mainfrm.obj
 0001:0000bdc0       ?PreCreateWindow@CStatusBar@@UEAAHAEAUtagCREATESTRUCTW@@@Z 000000014000cdc0 f i Mainfrm.obj
 0001:0000bdf0       ?OnBarStyleChange@CStatusBar@@UEAAXKK@Z 000000014000cdf0 f i Mainfrm.obj
 0001:0000be30       ?Enable@CStatusCmdUI@@UEAAXH@Z 000000014000ce30 f i Mainfrm.obj
 0001:0000be70       ??1?$CArray@PEAXAEBQEAX@@QEAA@XZ 000000014000ce70 f i Propsht.obj
 0001:0000be70       ??1?$CArray@HAEBH@@QEAA@XZ 000000014000ce70 f i Mainfrm.obj
 0001:0000beb0       ?SetSize@?$CArray@W4LoadArrayObjType@CArchive@@AEBW412@@@QEAAX_J0@Z 000000014000ceb0 f i Shapedoc.obj
 0001:0000beb0       ?SetSize@?$CArray@HAEBH@@QEAAX_J0@Z 000000014000ceb0 f i Mainfrm.obj
 0001:0000c000       ?UpdateAllPanes@CStatusBar@@QEAAXHH@Z 000000014000d000 f i Mainfrm.obj
 0001:0000c3b0       ?SetPaneStyle@CStatusBar@@QEAAXHI@Z 000000014000d3b0 f i Mainfrm.obj
 0001:0000c4c0       ?SetCheck@CStatusCmdUI@@UEAAXH@Z 000000014000d4c0 f i Mainfrm.obj
 0001:0000c4f0       ?SetPaneText@CStatusBar@@QEAAHHPEB_WH@Z 000000014000d4f0 f i Mainfrm.obj
 0001:0000c5e0       ?SetText@CStatusCmdUI@@UEAAXPEB_W@Z 000000014000d5e0 f i Mainfrm.obj
 0001:0000c600       ?UpdateDialogControls@CWnd@@QEAAXPEAVCCmdTarget@@H@Z 000000014000d600 f i Mainfrm.obj
 0001:0000c8a0       ?OnUpdateCmdUI@CStatusBar@@UEAAXPEAVCFrameWnd@@H@Z 000000014000d8a0 f i Mainfrm.obj
 0001:0000c9e0       ?CalcFixedLayout@CControlBar@@UEAA?AVCSize@WTL@@HH@Z 000000014000d9e0 f i Mainfrm.obj
 0001:0000ca20       ?CalcDynamicLayout@CControlBar@@UEAA?AVCSize@WTL@@HK@Z 000000014000da20 f i Mainfrm.obj
 0001:0000ca50       ??1CClientDCMTL@@UEAA@XZ   000000014000da50 f i Mainfrm.obj
 0001:0000cac0       ?CalcInsideRect@CControlBar@@QEBAXAEAVCRect@WTL@@H@Z 000000014000dac0 f i Mainfrm.obj
 0001:0000cb80       ?CalcFixedLayout@CStatusBar@@UEAA?AVCSize@WTL@@HH@Z 000000014000db80 f i Mainfrm.obj
 0001:0000cd30       ?ResetTimer@CControlBar@@QEAAX_KI@Z 000000014000dd30 f i Mainfrm.obj
 0001:0000cd90       ?SetStatusText@CControlBar@@UEAAH_J@Z 000000014000dd90 f i Mainfrm.obj
 0001:0000ced0       ?Create@CStatusBar@@UEAAHPEAVCWnd@@KI@Z 000000014000ded0 f i Mainfrm.obj
 0001:0000cef0       ?CreateEx@CStatusBar@@UEAAHPEAVCWnd@@KKI@Z 000000014000def0 f i Mainfrm.obj
 0001:0000cfe0       ??1CMDIFrameWnd@@UEAA@XZ   000000014000dfe0 f i Mainfrm.obj
 0001:0000cff0       ?AddFrameWnd@CFrameWnd@@QEAAXXZ 000000014000dff0 f i Mainfrm.obj
 0001:0000d070       ??0CFrameWnd@@QEAA@XZ      000000014000e070 f i Mainfrm.obj
 0001:0000d160       ?OnCmdMsg@CMDIFrameWnd@@UEAAHIHPEAXPEAUAFX_CMDHANDLERINFO@@@Z 000000014000e160 f i Mainfrm.obj
 0001:0000d240       ??_ECFrameWnd@@UEAAPEAXI@Z 000000014000e240 f i * CIL library *:* CIL module *
 0001:0000d240       ??_GCMDIFrameWnd@@UEAAPEAXI@Z 000000014000e240 f i Mainfrm.obj
 0001:0000d240       ??_ECMDIChildWnd@@UEAAPEAXI@Z 000000014000e240 f i * CIL library *:* CIL module *
 0001:0000d240       ??_GCFrameWnd@@UEAAPEAXI@Z 000000014000e240 f i Mainfrm.obj
 0001:0000d240       ??_ECMDIFrameWnd@@UEAAPEAXI@Z 000000014000e240 f i * CIL library *:* CIL module *
 0001:0000d240       ??_GCMDIChildWnd@@UEAAPEAXI@Z 000000014000e240 f i Stdafx.obj
 0001:0000d270       ?PreTranslateMessage@CMDIFrameWnd@@UEAAHPEAUtagMSG@@@Z 000000014000e270 f i Mainfrm.obj
 0001:0000d390       ?DefWindowProcW@CMDIFrameWnd@@UEAA_JI_K_J@Z 000000014000e390 f i Mainfrm.obj
 0001:0000d3c0       ?OnCommand@CMDIFrameWnd@@UEAAH_K_J@Z 000000014000e3c0 f i Mainfrm.obj
 0001:0000d4c0       ?PreCreateWindow@CMDIFrameWnd@@UEAAHAEAUtagCREATESTRUCTW@@@Z 000000014000e4c0 f i Mainfrm.obj
 0001:0000d4f0       ?OnCreateClient@CMDIFrameWnd@@UEAAHPEAUtagCREATESTRUCTW@@PEAUCCreateContext@@@Z 000000014000e4f0 f i Mainfrm.obj
 0001:0000d580       ?GetActiveFrame@CMDIFrameWnd@@UEAAPEAVCFrameWnd@@XZ 000000014000e580 f i Mainfrm.obj
 0001:0000d610       ?LoadFrame@CMDIFrameWnd@@UEAAHIKPEAVCWnd@@PEAUCCreateContext@@@Z 000000014000e610 f i Mainfrm.obj
 0001:0000d650       ?CreateClient@CMDIFrameWnd@@UEAAHPEAUtagCREATESTRUCTW@@PEAVCMenuMTL@@@Z 000000014000e650 f i Mainfrm.obj
 0001:0000d7b0       ?DelayUpdateFrameMenu@CMDIFrameWnd@@UEAAXPEAUHMENU__@@@Z 000000014000e7b0 f i Mainfrm.obj
 0001:0000d7d0       ?GetWindowMenuPopup@CMDIFrameWnd@@UEAAPEAUHMENU__@@PEAU2@@Z 000000014000e7d0 f i Mainfrm.obj
 0001:0000d890       ?OnIdleUpdateCmdUI@CMDIFrameWnd@@QEAAXXZ 000000014000e890 f i Mainfrm.obj
 0001:0000d8c0       ?AfxRegisterWndClass@CAfx@@SAPEB_WIPEAUHICON__@@PEAUHBRUSH__@@0@Z 000000014000e8c0 f i Mainfrm.obj
 0001:0000d9d0       ?GetIconWndClass@CFrameWnd@@QEAAPEB_WKI@Z 000000014000e9d0 f i Mainfrm.obj
 0001:0000da90       ?OnCmdMsg@CFrameWnd@@UEAAHIHPEAXPEAUAFX_CMDHANDLERINFO@@@Z 000000014000ea90 f i Mainfrm.obj
 0001:0000db40       ?PreTranslateMessage@CFrameWnd@@UEAAHPEAUtagMSG@@@Z 000000014000eb40 f i Mainfrm.obj
 0001:0000dbc0       ?PreCreateWindow@CFrameWnd@@UEAAHAEAUtagCREATESTRUCTW@@@Z 000000014000ebc0 f i Mainfrm.obj
 0001:0000dbc0       ?PreCreateWindow@CMDIChildWnd@@UEAAHAEAUtagCREATESTRUCTW@@@Z 000000014000ebc0 f i Stdafx.obj
 0001:0000dc10       ?AfxIsDescendant@CFrameWnd@@SAHPEAUHWND__@@0@Z 000000014000ec10 f i Mainfrm.obj
 0001:0000dcf0       ?ShowOwnedWindows@CFrameWnd@@QEAAXH@Z 000000014000ecf0 f i Mainfrm.obj
 0001:0000de10       ?OnSetPreviewMode@CFrameWnd@@UEAAXHPEAUCPrintPreviewState@@@Z 000000014000ee10 f i Mainfrm.obj
 0001:0000e240       ?GetActiveFrame@CFrameWnd@@UEAAPEAV1@XZ 000000014000f240 f i Mainfrm.obj
 0001:0000e250       ?GetDefaultAccelerator@CFrameWnd@@UEAAPEAUHACCEL__@@XZ 000000014000f250 f i Mainfrm.obj
 0001:0000e290       ?RemoveFrameWnd@CFrameWnd@@QEAAXXZ 000000014000f290 f i Mainfrm.obj
 0001:0000e320       ?CFrameWndDestruct@CFrameWnd@@QEAAXXZ 000000014000f320 f i Mainfrm.obj
 0001:0000e330       ??1CFrameWnd@@UEAA@XZ      000000014000f330 f i Mainfrm.obj
 0001:0000e3f0       ?PostNcDestroy@_AFX_MOUSEANCHORWND@@UEAAXXZ 000000014000f3f0 f i Stdafx.obj
 0001:0000e3f0       ?PostNcDestroy@CView@@UEAAXXZ 000000014000f3f0 f i Shapesvw.obj
 0001:0000e3f0       ?PostNcDestroy@CFrameWnd@@UEAAXXZ 000000014000f3f0 f i Mainfrm.obj
 0001:0000e3f0       ?PostNcDestroy@CModelessShapePropSheet@@UEAAXXZ 000000014000f3f0 f i Propsht2.obj
 0001:0000e410       ?Create@CFrameWnd@@UEAAHPEB_W0KAEBUtagRECT@@PEAVCWnd@@0KPEAUCCreateContext@@@Z 000000014000f410 f i Mainfrm.obj
 0001:0000e550       ?LoadFrame@CFrameWnd@@UEAAHIKPEAVCWnd@@PEAUCCreateContext@@@Z 000000014000f550 f i Mainfrm.obj
 0001:0000e890       ?IsTopParentActive@CWnd@@QEAAHXZ 000000014000f890 f i Mainfrm.obj
 0001:0000e920       ?OnWindowNew@CMDIFrameWnd@@QEAAXXZ 000000014000f920 f i Mainfrm.obj
 0001:0000eab0       ?OnUpdateMDIWindowCmd@CMDIFrameWnd@@QEAAXPEAVCCmdUI@@@Z 000000014000fab0 f i Mainfrm.obj
 0001:0000eb50       ?OnMDIWindowCmd@CMDIFrameWnd@@QEAAHI@Z 000000014000fb50 f i Mainfrm.obj
 0001:0000ebb0       ?CanCloseFrame@CDocument@@QEAAHPEAVCFrameWnd@@@Z 000000014000fbb0 f i Mainfrm.obj
 0001:0000ecb0       ?SaveAllModified@CDocManager@@QEAAHXZ 000000014000fcb0 f i Mainfrm.obj
 0001:0000ed40       ?CloseAllDocuments@CDocTemplate@@QEAAXH@Z 000000014000fd40 f i Mainfrm.obj
 0001:0000ee30       ?OnCloseDocument@CDocument@@QEAAXXZ 000000014000fe30 f i Mainfrm.obj
 0001:0000eee0       ?OnClose@CFrameWnd@@QEAAXXZ 000000014000fee0 f i Mainfrm.obj
 0001:0000f070       ?CreateView@CFrameWnd@@QEAAPEAVCWnd@@PEAUCCreateContext@@I@Z 0000000140010070 f i Mainfrm.obj
 0001:0000f180       ?OnCreateClient@CFrameWnd@@UEAAHPEAUtagCREATESTRUCTW@@PEAUCCreateContext@@@Z 0000000140010180 f i Mainfrm.obj
 0001:0000f1b0       ?OnCreateHelper@CFrameWnd@@QEAAHPEAUtagCREATESTRUCTW@@PEAUCCreateContext@@@Z 00000001400101b0 f i Mainfrm.obj
 0001:0000f250       ?DestroyWindow@CControlBar@@UEAAHXZ 0000000140010250 f i Mainfrm.obj
 0001:0000f2d0       ?DestroyDockBars@CFrameWnd@@QEAAXXZ 00000001400102d0 f i Mainfrm.obj
 0001:0000f520       ?OnDestroy@CFrameWnd@@QEAAXXZ 0000000140010520 f i Mainfrm.obj
 0001:0000f5b0       ?ActivateFrame@CFrameWnd@@UEAAXH@Z 00000001400105b0 f i Mainfrm.obj
 0001:0000f660       ?ShowAppMessageBox@CWinApp@@SAHPEAV1@PEB_WII@Z 0000000140010660 f i Mainfrm.obj
 0001:0000f720       ?AfxMessageBox@@YAHIII@Z   0000000140010720 f i Mainfrm.obj
 0001:0000f790       ?OnDropFiles@CFrameWnd@@QEAAXPEAUHDROP__@@@Z 0000000140010790 f i Mainfrm.obj
 0001:0000f850       ?GetOwner@CWnd@@QEAAPEAV1@XZ 0000000140010850 f i Mainfrm.obj
 0001:0000f890       ?GetTopLevelParent@CWnd@@QEAAPEAV1@XZ 0000000140010890 f i Mainfrm.obj
 0001:0000f990       ?OnIdle@CCmdUI@@QEAAHPEAVCCmdTarget@@H@Z 0000000140010990 f i Mainfrm.obj
 0001:0000fa50       ?OnInitMenuPopup@CFrameWnd@@QEAAXPEAVCMenuMTL@@IH@Z 0000000140010a50 f i Mainfrm.obj
 0001:0000fcf0       ?GetTopLevelFrame@CWnd@@QEAAPEAVCFrameWnd@@XZ 0000000140010cf0 f i Mainfrm.obj
 0001:0000fde0       ?SetMenuBarState@CFrameWnd@@QEAAHK@Z 0000000140010de0 f i Mainfrm.obj
 0001:0000fe40       ?OnMenuSelect@CFrameWnd@@QEAAXIIPEAUHMENU__@@@Z 0000000140010e40 f i Mainfrm.obj
 0001:00010010       ?OnSize@CFrameWnd@@QEAAXIHH@Z 0000000140011010 f i Mainfrm.obj
 0001:00010060       ?OnPopMessageString@CFrameWnd@@QEAA_J_K_J@Z 0000000140011060 f i Mainfrm.obj
 0001:00010080       ?GetDescendantWindow@CWnd@@QEAAPEAV1@PEAUHWND__@@HH@Z 0000000140011080 f i Mainfrm.obj
 0001:00010180       ?OnSetMessageString@CFrameWnd@@QEAA_J_K_J@Z 0000000140011180 f i Mainfrm.obj
 0001:000103d0       ?OnUpdateFrameMenu@CFrameWnd@@UEAAXPEAUHMENU__@@@Z 00000001400113d0 f i Mainfrm.obj
 0001:00010400       ?UpdateFrameTitleForDocument@CFrameWnd@@QEAAXPEB_W@Z 0000000140011400 f i Mainfrm.obj
 0001:00010a80       ?OnUpdateFrameTitle@CFrameWnd@@UEAAXH@Z 0000000140011a80 f i Mainfrm.obj
 0001:00010af0       ?OnIdleUpdateCmdUI@CFrameWnd@@QEAAXXZ 0000000140011af0 f i Mainfrm.obj
 0001:00010b90       ?OnUpdateControlBarMenu@CFrameWnd@@QEAAXPEAVCCmdUI@@@Z 0000000140011b90 f i Mainfrm.obj
 0001:00010be0       ?GetControlBar@CFrameWnd@@QEAAPEAVCControlBar@@I@Z 0000000140011be0 f i Mainfrm.obj
 0001:00010c50       ?GetParentFrame@CWnd@@QEAAPEAVCFrameWnd@@XZ 0000000140011c50 f i Mainfrm.obj
 0001:00010d10       ?IsVisible@CControlBar@@UEBAHXZ 0000000140011d10 f i Mainfrm.obj
 0001:00010d50       ?AfxRepositionWindow@CAfx@@SAXPEAUAFX_SIZEPARENTPARAMS@@PEAUHWND__@@PEBUtagRECT@@@Z 0000000140011d50 f i Mainfrm.obj
 0001:00010e50       ?RepositionBars@CWnd@@QEAAXIIIIPEAUtagRECT@@PEBU2@H@Z 0000000140011e50 f i Mainfrm.obj
 0001:00011030       ?RecalcLayout@CFrameWnd@@UEAAXH@Z 0000000140012030 f i Mainfrm.obj
 0001:00011160       ?ShowControlBar@CFrameWnd@@QEAAXPEAVCControlBar@@HH@Z 0000000140012160 f i Mainfrm.obj
 0001:00011370       ?OnBarCheck@CFrameWnd@@QEAAHI@Z 0000000140012370 f i Mainfrm.obj
 0001:000113c0       ?_AtlGetStringResourceImage@CAfx@@SAPEBUATLSTRINGRESOURCEIMAGE@ATL@@PEAUHINSTANCE__@@PEAUHRSRC__@@I@Z 00000001400123c0 f i Mainfrm.obj
 0001:00011460       ?AfxLoadString@CAfx@@SAHIPEA_WI@Z 0000000140012460 f i Mainfrm.obj
 0001:00011510       ?Empty@CString@WTL@@QEAAXXZ 0000000140012510 f i Mainfrm.obj
 0001:00011590       ?AfxExtractSubString@CAfx@@SAHAEAVCString@WTL@@PEB_WH_W@Z 0000000140012590 f i Mainfrm.obj
 0001:000116a0       ?OnToolTipText@CFrameWnd@@QEAAHIPEAUtagNMHDR@@PEA_J@Z 00000001400126a0 f i Mainfrm.obj
 0001:00011ac0       ?OnUpdateKeyIndicator@CFrameWnd@@QEAAXPEAVCCmdUI@@@Z 0000000140012ac0 f i Mainfrm.obj
 0001:00011b30       ?_ProcessWindowMessage@CFrameWnd@@UEAAHPEAUHWND__@@I_K_JAEA_J@Z 0000000140012b30 f i Mainfrm.obj
 0001:00012150       ?_ProcessWindowMessage@CMDIFrameWnd@@UEAAHPEAUHWND__@@I_K_JAEA_J@Z 0000000140013150 f i Mainfrm.obj
 0001:00012420       ?_ProcessWindowMessage@CShapePropSheetFrame@@UEAAHPEAUHWND__@@I_K_JAEA_J@Z 0000000140013420 f i Minifrm.obj
 0001:00012580       ??_GCShapePropSheetFrame@@UEAAPEAXI@Z 0000000140013580 f i Minifrm.obj
 0001:00012580       ??_ECShapePropSheetFrame@@UEAAPEAXI@Z 0000000140013580 f i * CIL library *:* CIL module *
 0001:00012580       ??_ECMiniFrameWnd@@UEAAPEAXI@Z 0000000140013580 f i * CIL library *:* CIL module *
 0001:00012580       ??_GCMiniFrameWnd@@UEAAPEAXI@Z 0000000140013580 f i Minifrm.obj
 0001:000125b0       ?OnCreate@CShapePropSheetFrame@@IEAAHPEAUtagCREATESTRUCTW@@@Z 00000001400135b0 f   Minifrm.obj
 0001:00012700       ??1CMiniFrameWnd@@UEAA@XZ  0000000140013700 f i Minifrm.obj
 0001:00012770       ?PreCreateWindow@CMiniFrameWnd@@UEAAHAEAUtagCREATESTRUCTW@@@Z 0000000140013770 f i Minifrm.obj
 0001:000127e0       ?Create@CMiniFrameWnd@@UEAAHPEB_W0KAEBUtagRECT@@PEAVCWnd@@I@Z 00000001400137e0 f i Minifrm.obj
 0001:00012820       ?OnGetMinMaxInfo@CMiniFrameWnd@@QEAAXPEAUtagMINMAXINFO@@@Z 0000000140013820 f i Minifrm.obj
 0001:000128b0       ?OnNcCreate@CMiniFrameWnd@@QEAAHPEAUtagCREATESTRUCTW@@@Z 00000001400138b0 f i Minifrm.obj
 0001:000129d0       ?OnNcHitTest@CMiniFrameWnd@@QEAA_JVCPoint@WTL@@@Z 00000001400139d0 f i Minifrm.obj
 0001:00012b40       ?HandleFloatingSysCommand@CWnd@@QEAAHI_J@Z 0000000140013b40 f i Minifrm.obj
 0001:00012c80       ?OnSysCommand@CMiniFrameWnd@@QEAAXI_J@Z 0000000140013c80 f i Minifrm.obj
 0001:00012d30       ?OnFloatStatus@CMiniFrameWnd@@QEAA_J_K_J@Z 0000000140013d30 f i Minifrm.obj
 0001:00012e70       ?OnQueryCenterWnd@CMiniFrameWnd@@QEAA_J_K_J@Z 0000000140013e70 f i Minifrm.obj
 0001:00012eb0       ?_ProcessWindowMessage@CMiniFrameWnd@@UEAAHPEAUHWND__@@I_K_JAEA_J@Z 0000000140013eb0 f i Minifrm.obj
 0001:00013040       ?_ProcessWindowMessage@CShapePreviewWnd@@UEAAHPEAUHWND__@@I_K_JAEA_J@Z 0000000140014040 f i Preview.obj
 0001:00013120       ?OnPaint@CShapePreviewWnd@@AEAAXXZ 0000000140014120 f   Preview.obj
 0001:00013270       ?OnEraseBkgnd@CShapePreviewWnd@@AEAAHPEAVCDCMTL@@@Z 0000000140014270 f   Preview.obj
 0001:00013350       ??_ECBrushMTL@@UEAAPEAXI@Z 0000000140014350 f i * CIL library *:* CIL module *
 0001:00013350       ??_GCBrushMTL@@UEAAPEAXI@Z 0000000140014350 f i Preview.obj
 0001:00013350       ??_GCRgnMTL@@UEAAPEAXI@Z   0000000140014350 f i Stdafx.obj
 0001:00013350       ??_GCPenMTL@@UEAAPEAXI@Z   0000000140014350 f i Shapeobj.obj
 0001:00013350       ??_ECBitmapMTL@@UEAAPEAXI@Z 0000000140014350 f i * CIL library *:* CIL module *
 0001:00013350       ??_GCBitmapMTL@@UEAAPEAXI@Z 0000000140014350 f i Stdafx.obj
 0001:00013350       ??_ECRgnMTL@@UEAAPEAXI@Z   0000000140014350 f i * CIL library *:* CIL module *
 0001:00013350       ??_ECPenMTL@@UEAAPEAXI@Z   0000000140014350 f i * CIL library *:* CIL module *
 0001:000133c0       ?RemoveHandleGdiobj@CWinApp@@QEAAPEAXPEAX@Z 00000001400143c0 f i Preview.obj
 0001:000133e0       ??1CRgnMTL@@UEAA@XZ        00000001400143e0 f i Stdafx.obj
 0001:000133e0       ??1CBrushMTL@@UEAA@XZ      00000001400143e0 f i Preview.obj
 0001:000133e0       ??1CPenMTL@@UEAA@XZ        00000001400143e0 f i Shapeobj.obj
 0001:00013430       ?classHandleFuncCBitmapMTL@CBitmapMTL@@SAPEAXPEAX0@Z 0000000140014430 f i Stdafx.obj
 0001:00013430       ?classHandleFuncCBrushMTL@CBrushMTL@@SAPEAXPEAX0@Z 0000000140014430 f i Preview.obj
 0001:00013490       ?FromHandleGdiobj@CWinApp@@QEAAPEAVCGdiObject@@PEAXPEAV2@PEAUHWND__@@P6APEAX00@Z@Z 0000000140014490 f i Preview.obj
 0001:000134b0       ??1CPaintDCMTL@@UEAA@XZ    00000001400144b0 f i Preview.obj
 0001:00013520       ??_GCPaintDCMTL@@UEAAPEAXI@Z 0000000140014520 f i Preview.obj
 0001:00013520       ??_ECPaintDCMTL@@UEAAPEAXI@Z 0000000140014520 f i * CIL library *:* CIL module *
 0001:000135a0       ?_ProcessWindowMessage@CPropDlgApp@@UEAAHPEAUHWND__@@I_K_JAEA_J@Z 00000001400145a0 f i Propdlg.obj
 0001:00013660       ?InitInstance@CPropDlgApp@@UEAAHXZ 0000000140014660 f   Propdlg.obj
 0001:000138c0       ?OnAppAbout@CPropDlgApp@@QEAAXXZ 00000001400148c0 f   Propdlg.obj
 0001:00013960       ??HWTL@@YA?AVCString@0@AEBV10@PEB_W@Z 0000000140014960 f i Propdlg.obj
 0001:000139e0       ?AfxDelRegTreeHelper@CAfx@@SAJPEAUHKEY__@@AEBVCString@WTL@@PEAVCAtlTransactionManager@ATL@@@Z 00000001400149e0 f i Propdlg.obj
 0001:00013c90       ?Unregister@CWinApp@@QEAAHXZ 0000000140014c90 f i Propdlg.obj
 0001:00013ed0       ?ProcessShellCommand@CWinApp@@QEAAHAEAVCCommandLineInfo@@@Z 0000000140014ed0 f i Propdlg.obj
 0001:00014080       ?ParseParam@CCommandLineInfo@@UEAAXPEB_WHH@Z 0000000140015080 f i Propdlg.obj
 0001:00014150       ?EnableShellOpen@CWinApp@@QEAAXXZ 0000000140015150 f i Propdlg.obj
 0001:000143e0       ?GetFirstDocTemplatePosition@CDocManager@@UEBAPEAU__POSITION@@XZ 00000001400153e0 f i Propdlg.obj
 0001:000143f0       ?GetNextDoc@CMultiDocTemplate@@UEBAPEAVCDocument@@AEAPEAU__POSITION@@@Z 00000001400153f0 f i Propdlg.obj
 0001:000143f0       ?GetNextDocTemplate@CDocManager@@UEBAPEAVCDocTemplate@@AEAPEAU__POSITION@@@Z 00000001400153f0 f i Propdlg.obj
 0001:00014400       ?AddDocTemplate@CWinApp@@QEAAXPEAVCDocTemplate@@@Z 0000000140015400 f i Propdlg.obj
 0001:000144c0       ??0CDocTemplate@@QEAA@IPEAUCRuntimeClass@@00@Z 00000001400154c0 f i Propdlg.obj
 0001:00014550       ??1CDocTemplate@@QEAA@XZ   0000000140015550 f i Propdlg.obj
 0001:00014580       ?AddDocument@CMultiDocTemplate@@UEAAXPEAVCDocument@@@Z 0000000140015580 f i Propdlg.obj
 0001:000145f0       ?GetFirstDocPosition@CMultiDocTemplate@@UEBAPEAU__POSITION@@XZ 00000001400155f0 f i Propdlg.obj
 0001:00014600       ?CreateNewDocument@CDocTemplate@@UEAAPEAVCDocument@@XZ 0000000140015600 f i Propdlg.obj
 0001:00014660       ?OnCmdMsg@CDocTemplate@@UEAAHIHPEAXPEAUAFX_CMDHANDLERINFO@@@Z 0000000140015660 f i Propdlg.obj
 0001:00014670       ?CreateNewFrame@CDocTemplate@@UEAAPEAVCFrameWnd@@PEAVCDocument@@PEAV2@@Z 0000000140015670 f i Propdlg.obj
 0001:00014720       ??1CWaitCursor@@QEAA@XZ    0000000140015720 f i Propdlg.obj
 0001:00014780       ?SetActiveView@CFrameWnd@@QEAAXPEAVCView@@H@Z 0000000140015780 f i Propdlg.obj
 0001:00014820       ?InitialUpdateFrame@CFrameWnd@@QEAAXPEAVCDocument@@H@Z 0000000140015820 f i Propdlg.obj
 0001:00014a80       ?InitialUpdateFrame@CDocTemplate@@UEAAXPEAVCFrameWnd@@PEAVCDocument@@H@Z 0000000140015a80 f i Propdlg.obj
 0001:00014aa0       ?OpenDocumentFile@CMultiDocTemplate@@UEAAPEAVCDocument@@PEB_WHH@Z 0000000140015aa0 f i Propdlg.obj
 0001:00014cb0       ?OpenDocumentFile@CMultiDocTemplate@@UEAAPEAVCDocument@@PEB_WH@Z 0000000140015cb0 f i Propdlg.obj
 0001:00014cc0       ?RemoveDocument@CMultiDocTemplate@@UEAAXPEAVCDocument@@@Z 0000000140015cc0 f i Propdlg.obj
 0001:00014d40       ??_ECMultiDocTemplate@@UEAAPEAXI@Z 0000000140015d40 f i * CIL library *:* CIL module *
 0001:00014d40       ??_GCMultiDocTemplate@@UEAAPEAXI@Z 0000000140015d40 f i Propdlg.obj
 0001:00014d70       ??1CMultiDocTemplate@@UEAA@XZ 0000000140015d70 f i Propdlg.obj
 0001:00014e10       ?UpdateFrameCounts@CDocument@@QEAAXXZ 0000000140015e10 f i Propdlg.obj
 0001:00014f60       ?SetDefaultTitle@CMultiDocTemplate@@UEAAXPEAVCDocument@@@Z 0000000140015f60 f i Propdlg.obj
 0001:00015190       ?LoadTemplate@CMultiDocTemplate@@UEAAXXZ 0000000140016190 f i Propdlg.obj
 0001:00015200       ??0CRecentFileList@@QEAA@IPEB_W0HH@Z 0000000140016200 f i Propdlg.obj
 0001:00015320       ??_ECRecentFileList@@UEAAPEAXI@Z 0000000140016320 f i * CIL library *:* CIL module *
 0001:00015320       ??_GCRecentFileList@@UEAAPEAXI@Z 0000000140016320 f i Propdlg.obj
 0001:00015350       ?Add@CRecentFileList@@UEAAXPEB_W@Z 0000000140016350 f i Propdlg.obj
 0001:00015560       ?GetProfileStringW@CWinApp@@QEAA?AVCString@WTL@@PEB_W00@Z 0000000140016560 f i Propdlg.obj
 0001:00015640       ?ReadList@CRecentFileList@@UEAAXXZ 0000000140016640 f i Propdlg.obj
 0001:00015820       ??1CRecentFileList@@UEAA@XZ 0000000140016820 f i Propdlg.obj
 0001:000158f0       ??1CCommandLineInfo@@QEAA@XZ 00000001400168f0 f i Propdlg.obj
 0001:000159b0       ??1CWinApp@@QEAA@XZ        00000001400169b0 f i Propdlg.obj
 0001:00015b60       ??1CWinThread@@QEAA@XZ     0000000140016b60 f i Propdlg.obj
 0001:00015b80       ??0CModuleThreadState@@QEAA@XZ 0000000140016b80 f i Propdlg.obj
 0001:00015c00       ??1CModuleThreadState@@QEAA@XZ 0000000140016c00 f i Propdlg.obj
 0001:00015c60       ?OnIdle@CWinApp@@UEAAHH@Z  0000000140016c60 f i Propdlg.obj
 0001:00016000       ?WriteList@CRecentFileList@@UEAAXXZ 0000000140017000 f i Propdlg.obj
 0001:000160e0       ?ExitInstance@CWinApp@@UEAAHXZ 00000001400170e0 f i Propdlg.obj
 0001:00016160       ?Run@CWinApp@@UEAAHXZ      0000000140017160 f i Propdlg.obj
 0001:00016240       ??1?$CHandleHashList@PEAUHWND__@@VCWMHnd@@PEAU1@$0BB@@@QEAA@XZ 0000000140017240 f i Propdlg.obj
 0001:00016250       ??0CWinApp@@QEAA@XZ        0000000140017250 f i Propdlg.obj
 0001:00016370       ?OnAppExit@CWinApp@@QEAAXXZ 0000000140017370 f i Propdlg.obj
 0001:00016390       ?GetMenuStringW@CMenuMTL@@QEBAHIAEAVCString@WTL@@I@Z 0000000140017390 f i Propdlg.obj
 0001:000164b0       ?AfxGetFileTitle@CAfx@@SAIPEB_WPEA_WI@Z 00000001400174b0 f i Propdlg.obj
 0001:00016550       ?_AfxAbbreviateName@CAfx@@SAXPEA_WHH@Z 0000000140017550 f i Propdlg.obj
 0001:00016690       ?GetDisplayName@CRecentFileList@@UEBAHAEAVCString@WTL@@HPEB_WHH@Z 0000000140017690 f i Propdlg.obj
 0001:000168a0       ??HWTL@@YA?AVCString@0@AEBV10@0@Z 00000001400178a0 f i Propdlg.obj
 0001:00016900       ?UpdateMenu@CRecentFileList@@UEAAXPEAVCCmdUI@@@Z 0000000140017900 f i Propdlg.obj
 0001:00016dd0       ?OnUpdateRecentFileMenu@CWinApp@@QEAAXPEAVCCmdUI@@@Z 0000000140017dd0 f i Propdlg.obj
 0001:00016e00       ?Remove@CRecentFileList@@UEAAXH@Z 0000000140017e00 f i Propdlg.obj
 0001:00016fe0       ?OnOpenRecentFile@CWinApp@@QEAAHI@Z 0000000140017fe0 f i Propdlg.obj
 0001:00017050       ?_ProcessWindowMessage@CWinApp@@UEAAHPEAUHWND__@@I_K_JAEA_J@Z 0000000140018050 f i Propdlg.obj
 0001:00017140       ?GetDriverName@CPrintDialogMTL@@QEBA?AVCString@WTL@@XZ 0000000140018140 f i Propdlg.obj
 0001:00017190       ?GetDeviceName@CPrintDialogMTL@@QEBA?AVCString@WTL@@XZ 0000000140018190 f i Propdlg.obj
 0001:000171e0       ?GetPortName@CPrintDialogMTL@@QEBA?AVCString@WTL@@XZ 00000001400181e0 f i Propdlg.obj
 0001:00017230       ?AtlWinModuleExtractCreateWndData@ATL@@YAPEAXPEAU_ATL_WIN_MODULE70@1@@Z 0000000140018230 f i Propdlg.obj
 0001:000172b0       ?HookProc@CCommonDialogImplBase@WTL@@SA_KPEAUHWND__@@I_K_J@Z 00000001400182b0 f i Propdlg.obj
 0001:00017390       ?_WindowProc@CCommonWnd@@UEAAHPEAUHWND__@@I_K_JAEA_J@Z 0000000140018390 f i Propdlg.obj
 0001:00017400       ??_GCPrintDialog@WTL@@UEAAPEAXI@Z 0000000140018400 f i Propdlg.obj
 0001:00017400       ??_ECPrintDialog@WTL@@UEAAPEAXI@Z 0000000140018400 f i * CIL library *:* CIL module *
 0001:00017440       ?OnPrintSetup@?$CPrintDialogImpl@VCPrintDialog@WTL@@@WTL@@QEAA_JGGPEAUHWND__@@AEAH@Z 0000000140018440 f i Propdlg.obj
 0001:00017540       ?ProcessWindowMessage@?$CPrintDialogImpl@VCPrintDialog@WTL@@@WTL@@UEAAHPEAUHWND__@@I_K_JAEA_JK@Z 0000000140018540 f i Propdlg.obj
 0001:00017590       ??_GCPrintDialogMTL@@UEAAPEAXI@Z 0000000140018590 f i Propdlg.obj
 0001:00017590       ??_ECPrintDialogMTL@@UEAAPEAXI@Z 0000000140018590 f i * CIL library *:* CIL module *
 0001:000175cc       ??_ECPrintDialogMTL@@W7EAAPEAXI@Z 00000001400185cc f i Propdlg.obj
 0001:000175e0       ?WindowProc@?$CWindowImplBaseT@VCWindow@ATL@@V?$CWinTraits@$0FGAAAAAA@$0A@@2@@ATL@@SA_JPEAUHWND__@@I_K_J@Z 00000001400185e0 f i Propdlg.obj
 0001:00017760       ?GetWindowProc@?$CWindowImplBaseT@VCWindow@ATL@@V?$CWinTraits@$0FGAAAAAA@$0A@@2@@ATL@@UEAAP6A_JPEAUHWND__@@I_K_J@ZXZ 0000000140018760 f i Propdlg.obj
 0001:00017770       ??1CPrintDialogMTL@@UEAA@XZ 0000000140018770 f i Propdlg.obj
 0001:00017780       ?UpdatePrinterSelection@CWinApp@@QEAAXH@Z 0000000140018780 f i Propdlg.obj
 0001:00017be0       ?AfxGlobalFree@@YAXPEAX@Z  0000000140018be0 f i Propdlg.obj
 0001:00017c30       ?AtlWinModuleTerm@ATL@@YAJPEAU_ATL_WIN_MODULE70@1@PEAUHINSTANCE__@@@Z 0000000140018c30 f i Propdlg.obj
 0001:00017d10       ?_AtlInitializeCriticalSectionEx@ATL@@YAHPEAU_RTL_CRITICAL_SECTION@@KK@Z 0000000140018d10 f i Propdlg.obj
 0001:00017d20       ??0CAtlWinModule@ATL@@QEAA@XZ 0000000140018d20 f i Propdlg.obj
 0001:00017dc0       ?DoModal@?$CPrintDialogImpl@VCPrintDialog@WTL@@@WTL@@QEAA_JPEAUHWND__@@@Z 0000000140018dc0 f i Propdlg.obj
 0001:00017e80       ?DoPrintDialog@CWinApp@@QEAA_JPEAVCPrintDialogMTL@@@Z 0000000140018e80 f i Propdlg.obj
 0001:00017ff0       ?OnFilePrintSetup@CWinApp@@QEAAXXZ 0000000140018ff0 f i Propdlg.obj
 0001:00018100       ?_AfxCommDlgProc@CCommonDialog@@SA_KPEAUHWND__@@I_K_J@Z 0000000140019100 f i Propdlg.obj
 0001:00018340       ??0CFileDialogMTL@@QEAA@HPEB_W0K0PEAVCWnd@@KH@Z 0000000140019340 f i Propdlg.obj
 0001:000185f0       ??_GCFileDialogMTL@@UEAAPEAXI@Z 00000001400195f0 f i Propdlg.obj
 0001:000185f0       ??_ECFileDialogMTL@@UEAAPEAXI@Z 00000001400195f0 f i * CIL library *:* CIL module *
 0001:00018620       ?OnNotify@CFileDialogMTL@@UEAAH_K_JPEA_J@Z 0000000140019620 f i Propdlg.obj
 0001:000187c0       ?OnOK@CCommonDialog@@UEAAXXZ 00000001400197c0 f i Propdlg.obj
 0001:00018840       ?OnInitDone@CFileDialogMTL@@UEAAXXZ 0000000140019840 f i Propdlg.obj
 0001:00018880       ??1CFileDialogMTL@@UEAA@XZ 0000000140019880 f i Propdlg.obj
 0001:00018940       ?Tokenize@CAfx@@SA?AVCString@WTL@@AEAV23@PEA_WAEAH@Z 0000000140019940 f i Propdlg.obj
 0001:00018a10       ?Tokenize@@YA?AVCString@WTL@@AEAV12@PEA_WAEAH@Z 0000000140019a10 f i Propdlg.obj
 0001:00018a30       ?AllocCopy@CString@WTL@@IEBAHAEAV12@HHH@Z 0000000140019a30 f i Propdlg.obj
 0001:00018ac0       ?Mid@CString@WTL@@QEBA?AV12@HH@Z 0000000140019ac0 f i Propdlg.obj
 0001:00018b40       ?Mid@CString@WTL@@QEBA?AV12@H@Z 0000000140019b40 f i Propdlg.obj
 0001:00018b70       ?_AfxAppendFilterSuffix@@YAXAEAVCString@WTL@@AEAUtagOFNW@@PEAVCDocTemplate@@PEAV12@@Z 0000000140019b70 f i Propdlg.obj
 0001:00018d90       ?ApplyOFNToShellDialog@CFileDialogMTL@@QEAAXXZ 0000000140019d90 f i Propdlg.obj
 0001:00019930       ??4CString@WTL@@QEAAAEAV01@AEBV01@@Z 000000014001a930 f i Propdlg.obj
 0001:000199c0       ?GetPathName@CFileDialogMTL@@QEAA?AVCString@WTL@@XZ 000000014001a9c0 f i Propdlg.obj
 0001:00019ee0       ?UpdateOFNFromShellDialog@CFileDialogMTL@@UEAAXXZ 000000014001aee0 f i Propdlg.obj
 0001:0001a830       ?DoModal@CFileDialogMTL@@UEAA_JXZ 000000014001b830 f i Propdlg.obj
 0001:0001a980       ?DoPromptFileName@CDocManager@@QEAAHAEAVCString@WTL@@IKHPEAVCDocTemplate@@@Z 000000014001b980 f i Propdlg.obj
 0001:0001aec0       ?_AfxFullPath2@CAfx@@SAHPEA_WPEB_WPEAVCFileException@@@Z 000000014001bec0 f i Propdlg.obj
 0001:0001b170       ?AfxStringFromCLSID@CAfx@@SA?AVCString@WTL@@AEBU_GUID@@@Z 000000014001c170 f i Propdlg.obj
 0001:0001b2c0       ?AfxStringFromCLSID@@YA?AVCString@WTL@@AEBU_GUID@@@Z 000000014001c2c0 f i Propdlg.obj
 0001:0001b2e0       ?AfxGetInProcServer@CAfx@@SAHPEB_WAEAVCString@WTL@@@Z 000000014001c2e0 f i Propdlg.obj
 0001:0001b440       ?GetClassObject@AFX_COM@@QEAAJAEBU_GUID@@0PEAPEAX@Z 000000014001c440 f i Propdlg.obj
 0001:0001b550       ??0CString@WTL@@QEAA@PEB_W@Z 000000014001c550 f i Propdlg.obj
 0001:0001b600       ?AfxResolveShortcut@@YAHPEAVCWMHnd@@PEB_WPEA_WH@Z 000000014001c600 f i Propdlg.obj
 0001:0001b7f0       ?AfxComparePath@CAfx@@SAHPEB_W0@Z 000000014001c7f0 f i Propdlg.obj
 0001:0001b920       ?MatchDocType@CDocTemplate@@UEAA?AW4Confidence@1@PEB_WAEAPEAVCDocument@@@Z 000000014001c920 f i Propdlg.obj
 0001:0001ba30       ?OpenDocumentFile@CDocManager@@QEAAPEAVCDocument@@PEB_WH@Z 000000014001ca30 f i Propdlg.obj
 0001:0001bc60       ?OpenDocumentFile@CWinApp@@UEAAPEAVCDocument@@PEB_W@Z 000000014001cc60 f i Propdlg.obj
 0001:0001bc70       ?OnFileOpen@CDocManager@@UEAAXXZ 000000014001cc70 f i Propdlg.obj
 0001:0001bcf0       ?OnFileOpen@CWinApp@@UEAAXXZ 000000014001ccf0 f i Propdlg.obj
 0001:0001bd00       ?_ProcessWindowMessage@CNewTypeDlg@@UEAAHPEAUHWND__@@I_K_JAEA_J@Z 000000014001cd00 f i Propdlg.obj
 0001:0001bd80       ?GetDocString@CDocTemplate@@UEBAHAEAVCString@WTL@@W4DocStringIndex@1@@Z 000000014001cd80 f i Propdlg.obj
 0001:0001bd90       ?OnInitDialog@CNewTypeDlg@@UEAAHXZ 000000014001cd90 f i Propdlg.obj
 0001:0001bfd0       ?OnOK@CNewTypeDlg@@UEAAXXZ 000000014001cfd0 f i Propdlg.obj
 0001:0001c080       ?WalkPreTranslateTree@CWnd@@SAHPEAUHWND__@@PEAUtagMSG@@@Z 000000014001d080 f i Propdlg.obj
 0001:0001c120       ?PreTranslateMessage@CWinApp@@UEAAHPEAUtagMSG@@@Z 000000014001d120 f i Propdlg.obj
 0001:0001c1e0       ?PumpMessage@CWinApp@@UEAAHXZ 000000014001d1e0 f i Propdlg.obj
 0001:0001c260       ?OnFileNew@CDocManager@@UEAAXXZ 000000014001d260 f i Propdlg.obj
 0001:0001c380       ?OnFileNew@CWinApp@@UEAAXXZ 000000014001d380 f i Propdlg.obj
 0001:0001c3a0       ?GetRuntimeClass@CModalShapePropSheet@@UEBAPEAUCRuntimeClass@@XZ 000000014001d3a0 f   Propsht.obj
 0001:0001c3b0       ?_ProcessWindowMessage@CModalShapePropSheet@@UEAAHPEAUHWND__@@I_K_JAEA_J@Z 000000014001d3b0 f i Propsht.obj
 0001:0001c410       ??0CModalShapePropSheet@@QEAA@PEAVCWnd@@@Z 000000014001d410 f   Propsht.obj
 0001:0001c510       ??_GCModalShapePropSheet@@UEAAPEAXI@Z 000000014001d510 f i Propsht.obj
 0001:0001c510       ??_ECModalShapePropSheet@@UEAAPEAXI@Z 000000014001d510 f i * CIL library *:* CIL module *
 0001:0001c540       ??1CModalShapePropSheet@@UEAA@XZ 000000014001d540 f i Propsht.obj
 0001:0001c5d0       ?OnInitDialog@CModalShapePropSheet@@UEAAHXZ 000000014001d5d0 f   Propsht.obj
 0001:0001c6c0       ?SetShapePropsFromSheet@CModelessShapePropSheet@@QEAAXPEAVCShape@@@Z 000000014001d6c0 f   Propsht2.obj
 0001:0001c6c0       ?SetShapePropsFromSheet@CModalShapePropSheet@@QEAAXPEAVCShape@@@Z 000000014001d6c0 f   Propsht.obj
 0001:0001c760       ?OnApplyNow@CModalShapePropSheet@@IEAAXXZ 000000014001d760 f   Propsht.obj
 0001:0001c880       ?AddPage@CPropertySheetMTL@@QEAAXPEAVCPropertyPageMTL@@@Z 000000014001d880 f i Propsht.obj
 0001:0001ca20       ??1CPropertySheetMTL@@UEAA@XZ 000000014001da20 f i Propsht.obj
 0001:0001cae0       ??_GCPropertySheetMTL@@UEAAPEAXI@Z 000000014001dae0 f i Propsht.obj
 0001:0001cae0       ??_ECPropertySheetMTL@@UEAAPEAXI@Z 000000014001dae0 f i * CIL library *:* CIL module *
 0001:0001cb10       ?PreTranslateMessage@CPropertySheetMTL@@UEAAHPEAUtagMSG@@@Z 000000014001db10 f i Propsht.obj
 0001:0001cc60       ?OnCommand@CPropertySheetMTL@@UEAAH_K_J@Z 000000014001dc60 f i Propsht.obj
 0001:0001cd10       ?AfxPropSheetCallback@CPropertySheetMTL@@SAHPEAUHWND__@@I_J@Z 000000014001dd10 f i Propsht.obj
 0001:0001cda0       ?Create@CPropertySheetMTL@@UEAAHPEAVCWnd@@KK@Z 000000014001dda0 f i Propsht.obj
 0001:0001cf20       ?AfxThrowResourceException@@YAXXZ 000000014001df20 f i Propsht.obj
 0001:0001cfc0       ?FontEnumProc@CPropertyPageMTL@@SAHPEBUtagLOGFONTW@@PEBUtagTEXTMETRICW@@K_J@Z 000000014001dfc0 f i Propsht.obj
 0001:0001cfd0       ?IsFontInstalled@CPropertyPageMTL@@SAHPEB_W@Z 000000014001dfd0 f i Propsht.obj
 0001:0001d070       ?AfxGetPropSheetFont@CPropertyPageMTL@@SAHAEAVCString@WTL@@AEAGH@Z 000000014001e070 f i Propsht.obj
 0001:0001d220       ?GetFont@CDialogTemplate@@SAHPEBUDLGTEMPLATE@@AEAVCString@WTL@@AEAG@Z 000000014001e220 f i Propsht.obj
 0001:0001d2e0       ?GetTemplateSize@CDialogTemplate@@QEAAIPEBUDLGTEMPLATE@@@Z 000000014001e2e0 f i Propsht.obj
 0001:0001d460       ?GetFontSizeField@CDialogTemplate@@SAPEAEPEBUDLGTEMPLATE@@@Z 000000014001e460 f i Propsht.obj
 0001:0001d4c0       ?SetFont@CDialogTemplate@@QEAAHPEB_WG@Z 000000014001e4c0 f i Propsht.obj
 0001:0001d630       ?_AfxChangePropPageFont@CPropertyPageMTL@@SAPEAUDLGTEMPLATE@@PEBU2@H@Z 000000014001e630 f i Propsht.obj
 0001:0001d8e0       ?PreProcessPageTemplate@CPropertyPageMTL@@QEAAXAEAU_PROPSHEETPAGEW@@H@Z 000000014001e8e0 f i Propsht.obj
 0001:0001d9b0       ?BuildPropPageArray@CPropertySheetMTL@@UEAAXXZ 000000014001e9b0 f i Propsht.obj
 0001:0001db10       ?ContinueModal@CPropertySheetMTL@@UEAAHXZ 000000014001eb10 f i Propsht.obj
 0001:0001db50       ?DoModal@CPropertySheetMTL@@UEAA_JXZ 000000014001eb50 f i Propsht.obj
 0001:0001dda0       ??0CPropertySheetMTL@@QEAA@IPEAVCWnd@@I@Z 000000014001eda0 f i Propsht.obj
 0001:0001de90       ?OnInitDialog@CPropertySheetMTL@@UEAAHXZ 000000014001ee90 f i Propsht.obj
 0001:0001e1f0       ?HandleInitDialog@CPropertySheetMTL@@QEAA_J_K_J@Z 000000014001f1f0 f i Propsht.obj
 0001:0001e210       ?OnKickIdle@CPropertySheetMTL@@QEAA_J_K_J@Z 000000014001f210 f i Propsht.obj
 0001:0001e2b0       ?OnSetDefID@CPropertySheetMTL@@QEAA_J_K_J@Z 000000014001f2b0 f i Propsht.obj
 0001:0001e3d0       ?_ProcessWindowMessage@CPropertySheetMTL@@UEAAHPEAUHWND__@@I_K_JAEA_J@Z 000000014001f3d0 f i Propsht.obj
 0001:0001e650       ?GetRuntimeClass@CModelessShapePropSheet@@UEBAPEAUCRuntimeClass@@XZ 000000014001f650 f   Propsht2.obj
 0001:0001e660       ?_ProcessWindowMessage@CModelessShapePropSheet@@UEAAHPEAUHWND__@@I_K_JAEA_J@Z 000000014001f660 f i Propsht2.obj
 0001:0001e670       ??0CModelessShapePropSheet@@QEAA@PEAVCWnd@@@Z 000000014001f670 f   Propsht2.obj
 0001:0001e730       ??_ECModelessShapePropSheet@@UEAAPEAXI@Z 000000014001f730 f i * CIL library *:* CIL module *
 0001:0001e730       ??_GCModelessShapePropSheet@@UEAAPEAXI@Z 000000014001f730 f i Propsht2.obj
 0001:0001e790       ?SetSheetPropsFromShape@CModelessShapePropSheet@@QEAAXPEAVCShape@@@Z 000000014001f790 f   Propsht2.obj
 0001:0001e8c0       ?CreateObject@CShapesDoc@@SAPEAVCObject@@XZ 000000014001f8c0 f   Shapedoc.obj
 0001:0001e940       ?GetRuntimeClass@CShapesDoc@@UEBAPEAUCRuntimeClass@@XZ 000000014001f940 f   Shapedoc.obj
 0001:0001e950       ?_ProcessWindowMessage@CShapesDoc@@UEAAHPEAUHWND__@@I_K_JAEA_J@Z 000000014001f950 f i Shapedoc.obj
 0001:0001e960       ??_GCShapesDoc@@UEAAPEAXI@Z 000000014001f960 f i Shapedoc.obj
 0001:0001e960       ??_ECShapesDoc@@UEAAPEAXI@Z 000000014001f960 f i * CIL library *:* CIL module *
 0001:0001e990       ??1CShapesDoc@@UEAA@XZ     000000014001f990 f   Shapedoc.obj
 0001:0001ea10       ?OnNewDocument@CShapesDoc@@MEAAHXZ 000000014001fa10 f   Shapedoc.obj
 0001:0001ea90       ?AddShape@CShapesDoc@@QEAAXPEAVCShape@@@Z 000000014001fa90 f   Shapedoc.obj
 0001:0001eb60       ?Serialize@CShapesDoc@@UEAAXAEAVCArchive@@@Z 000000014001fb60 f   Shapedoc.obj
 0001:0001eb70       ?Serialize@?$CTypedPtrList@V?$CList@PEAVCObject@@AEBQEAV1@@@PEAVCShape@@@@QEAAXAEAVCArchive@@@Z 000000014001fb70 f i Shapedoc.obj
 0001:0001ec50       ?OnOpenDocument@CDocument@@UEAAHPEB_W@Z 000000014001fc50 f i Shapedoc.obj
 0001:0001ef00       ?OnCmdMsg@CDocument@@UEAAHIHPEAXPEAUAFX_CMDHANDLERINFO@@@Z 000000014001ff00 f i Shapedoc.obj
 0001:0001ef80       ?Read@CArchive@@QEAAIPEAXI@Z 000000014001ff80 f i Shapedoc.obj
 0001:0001f0d0       ?Load@CRuntimeClass@@SAPEAU1@AEAVCArchive@@PEAI@Z 00000001400200d0 f i Shapedoc.obj
 0001:0001f1c0       ?ReadClass@CArchive@@QEAAPEAUCRuntimeClass@@PEBU2@PEAIPEAK@Z 00000001400201c0 f i Shapedoc.obj
 0001:0001f480       ?ReadObject@CArchive@@QEAAPEAVCObject@@PEBUCRuntimeClass@@@Z 0000000140020480 f i Shapedoc.obj
 0001:0001f650       ?FillBuffer@CArchive@@QEAAXI@Z 0000000140020650 f i Shapedoc.obj
 0001:0001f720       ?ReadCount@CArchive@@QEAA_KXZ 0000000140020720 f i Shapedoc.obj
 0001:0001f7d0       ?AfxThrowNotSupportedException@@YAXXZ 00000001400207d0 f i Shapedoc.obj
 0001:0001f870       ?EnsureSchemaMapExists@CArchive@@QEAAXPEAPEAV?$CArray@W4LoadArrayObjType@CArchive@@AEBW412@@@@Z 0000000140020870 f i Shapedoc.obj
 0001:0001f960       ?InsertAt@?$CArray@W4LoadArrayObjType@CArchive@@AEBW412@@@QEAAX_JAEBW4LoadArrayObjType@CArchive@@0@Z 0000000140020960 f i Shapedoc.obj
 0001:0001f9e0       ?MapObject@CArchive@@QEAAXPEBVCObject@@@Z 00000001400209e0 f i Shapedoc.obj
 0001:0001fb10       ?Write@CArchive@@QEAAXPEBXI@Z 0000000140020b10 f i Shapedoc.obj
 0001:0001fbd0       ?Store@CRuntimeClass@@QEBAXAEAVCArchive@@@Z 0000000140020bd0 f i Shapedoc.obj
 0001:0001fc70       ?WriteClass@CArchive@@QEAAXPEBUCRuntimeClass@@@Z 0000000140020c70 f i Shapedoc.obj
 0001:0001fd90       ?AfxThrowArchiveException@CArchive@@SAXHPEB_W@Z 0000000140020d90 f i Shapedoc.obj
 0001:0001fe20       ?FindData@?$CMapList@PEAXPEAXV?$CPair@PEAXPEAX@@$0A@@@QEAAAEAV?$CPair@PEAXPEAX@@QEAXH@Z 0000000140020e20 f i Shapedoc.obj
 0001:0001fee0       ?WriteObject@CArchive@@QEAAXPEBVCObject@@@Z 0000000140020ee0 f i Shapedoc.obj
 0001:00020000       ??6CArchive@@QEAAAEAV0@G@Z 0000000140021000 f i Shapedoc.obj
 0001:00020040       ??6CArchive@@QEAAAEAV0@K@Z 0000000140021040 f i Shapedoc.obj
 0001:00020080       ?WriteCount@CArchive@@QEAAX_K@Z 0000000140021080 f i Shapedoc.obj
 0001:00020170       ?UpdateAllViews@CDocument@@QEAAXPEAVCView@@_JPEAVCObject@@@Z 0000000140021170 f i Shapedoc.obj
 0001:000201d0       ?AfxFormatStrings@CAfx@@SAXAEAVCString@WTL@@PEB_WPEBQEB_WH@Z 00000001400211d0 f i Shapedoc.obj
 0001:00020360       ?SaveModified@CDocument@@UEAAHXZ 0000000140021360 f i Shapedoc.obj
 0001:000207b0       ?CDocumentDestruct@CDocument@@QEAAXXZ 00000001400217b0 f i Shapedoc.obj
 0001:00020830       ??1CDocument@@UEAA@XZ      0000000140021830 f i Shapedoc.obj
 0001:000208e0       ?DoFileSave@CDocument@@QEAAHXZ 00000001400218e0 f i Shapedoc.obj
 0001:00020930       ?OnFileSave@CDocument@@QEAAXXZ 0000000140021930 f i Shapedoc.obj
 0001:00020970       ?GetFile@CDocument@@QEAAPEAVCFile@@PEB_WIPEAVCFileException@@@Z 0000000140021970 f i Shapedoc.obj
 0001:00020a10       ??0CArchive@@QEAA@PEAVCFile@@IHPEAX@Z 0000000140021a10 f i Shapedoc.obj
 0001:00020af0       ??1CArchive@@QEAA@XZ       0000000140021af0 f i Shapedoc.obj
 0001:00020b20       ?Flush@CArchive@@QEAAXXZ   0000000140021b20 f i Shapedoc.obj
 0001:00020b90       ?Abort@CFile@@UEAAXXZ      0000000140021b90 f i Shapedoc.obj
 0001:00020bc0       ?AfxThrowInvalidArgException@@YAXXZ 0000000140021bc0 f i Shapedoc.obj
 0001:00020c60       ??0CTime@@QEAA@AEBU_FILETIME@@H@Z 0000000140021c60 f i Shapedoc.obj
 0001:00020d30       ?GetStatus@CFile@@QEBAHAEAUCFileStatus@@@Z 0000000140021d30 f i Shapedoc.obj
 0001:00020ec0       ?GetFilePath@CFile@@UEBA?AVCString@WTL@@XZ 0000000140021ec0 f i Shapedoc.obj
 0001:00020f80       ?GetLength@CFile@@UEBA_KXZ 0000000140021f80 f i Shapedoc.obj
 0001:00020fd0       ?Open@CFile@@UEAAHPEB_WIPEAVCFileException@@@Z 0000000140021fd0 f i Shapedoc.obj
 0001:00021200       ?Read@CFile@@UEAAIPEAXI@Z  0000000140022200 f i Shapedoc.obj
 0001:00021250       ?Write@CFile@@UEAAXPEBXI@Z 0000000140022250 f i Shapedoc.obj
 0001:00021340       ?Seek@CFile@@UEAA_K_JI@Z   0000000140022340 f i Shapedoc.obj
 0001:000213a0       ??0CFileException@@QEAA@HJPEB_W@Z 00000001400223a0 f i Shapedoc.obj
 0001:00021420       ?OsErrorToException@CFileException@@SAHJ@Z 0000000140022420 f i Shapedoc.obj
 0001:000215d0       ?ThrowOsError@CFileException@@SAXJPEB_W@Z 00000001400225d0 f i Shapedoc.obj
 0001:00021640       ?Close@CFile@@UEAAXXZ      0000000140022640 f i Shapedoc.obj
 0001:000216f0       ??_GCFile@@QEAAPEAXI@Z     00000001400226f0 f i Shapedoc.obj
 0001:00021760       ?ReleaseFile@CDocument@@UEAAXPEAVCFile@@H@Z 0000000140022760 f i Shapedoc.obj
 0001:000217a0       ?SetModifiedFlag@CDocument@@UEAAXH@Z 00000001400227a0 f i Shapedoc.obj
 0001:000217b0       ?OnSaveDocument@CDocument@@UEAAHPEB_W@Z 00000001400227b0 f i Shapedoc.obj
 0001:000219c0       ?GetFirstViewPosition@CDocument@@UEBAPEAU__POSITION@@XZ 00000001400229c0 f i Shapedoc.obj
 0001:000219d0       ?GetNextView@CDocument@@UEBAPEAVCView@@AEAPEAU__POSITION@@@Z 00000001400229d0 f i Shapedoc.obj
 0001:000219f0       ?SetTitle@CDocument@@UEAAXPEB_W@Z 00000001400229f0 f i Shapedoc.obj
 0001:00021a40       ?SetPathName@CDocument@@UEAAXPEB_WH@Z 0000000140022a40 f i Shapedoc.obj
 0001:00021ba0       ?DoSave@CDocument@@UEAAHPEB_WH@Z 0000000140022ba0 f i Shapedoc.obj
 0001:00022160       ?_ProcessWindowMessage@CDocument@@UEAAHPEAUHWND__@@I_K_JAEA_J@Z 0000000140023160 f i Shapedoc.obj
 0001:00022210       ?CreateObject@CShape@@SAPEAVCObject@@XZ 0000000140023210 f   Shapeobj.obj
 0001:00022250       ?GetRuntimeClass@CShape@@UEBAPEAUCRuntimeClass@@XZ 0000000140023250 f   Shapeobj.obj
 0001:00022260       ?Draw@CShape@@QEAAXPEAVCDCMTL@@H@Z 0000000140023260 f   Shapeobj.obj
 0001:000224d0       ?Serialize@CShape@@UEAAXAEAVCArchive@@@Z 00000001400234d0 f   Shapeobj.obj
 0001:000225f0       ?SelectObject@CDCMTL@@QEAAPEAVCPenMTL@@PEAV2@@Z 00000001400235f0 f i Shapeobj.obj
 0001:000225f0       ?SelectObject@CDCMTL@@QEAAPEAVCBrushMTL@@PEAV2@@Z 00000001400235f0 f i Shapeobj.obj
 0001:00022680       ??_GCGdiObject@@UEAAPEAXI@Z 0000000140023680 f i Shapeobj.obj
 0001:00022680       ??_ECGdiObject@@UEAAPEAXI@Z 0000000140023680 f i * CIL library *:* CIL module *
 0001:000226f0       ?classHandleFuncCGdiObject@CGdiObject@@SAPEAXPEAX0@Z 00000001400236f0 f i Shapeobj.obj
 0001:00022750       ?CreateObject@CShapesView@@SAPEAVCObject@@XZ 0000000140023750 f   Shapesvw.obj
 0001:000227b0       ?GetRuntimeClass@CShapesView@@UEBAPEAUCRuntimeClass@@XZ 00000001400237b0 f   Shapesvw.obj
 0001:000227c0       ?_ProcessWindowMessage@CShapesView@@UEAAHPEAUHWND__@@I_K_JAEA_J@Z 00000001400237c0 f i Shapesvw.obj
 0001:00022a60       ??_GCView@@UEAAPEAXI@Z     0000000140023a60 f i Shapesvw.obj
 0001:00022a60       ??_GCShapesView@@UEAAPEAXI@Z 0000000140023a60 f i Shapesvw.obj
 0001:00022a60       ??_ECShapesView@@UEAAPEAXI@Z 0000000140023a60 f i * CIL library *:* CIL module *
 0001:00022a60       ??_ECView@@UEAAPEAXI@Z     0000000140023a60 f i * CIL library *:* CIL module *
 0001:00022ae0       ?OnDraw@CShapesView@@UEAAXPEAVCDCMTL@@@Z 0000000140023ae0 f   Shapesvw.obj
 0001:00022bd0       ?OnPreparePrinting@CShapesView@@MEAAHPEAUCPrintInfo@@@Z 0000000140023bd0 f   Shapesvw.obj
 0001:00022be0       ?OnLButtonDown@CShapesView@@IEAAXIVCPoint@WTL@@@Z 0000000140023be0 f   Shapesvw.obj
 0001:00022e10       ?OnSimplePropertySheet@CShapesView@@IEAAXXZ 0000000140023e10 f   Shapesvw.obj
 0001:00022f50       ?OnPropertySheetWithPreview@CShapesView@@IEAAXXZ 0000000140023f50 f   Shapesvw.obj
 0001:00023010       ?OnUpdatePropertySheetWithPreview@CShapesView@@IEAAXPEAVCCmdUI@@@Z 0000000140024010 f   Shapesvw.obj
 0001:000230b0       ?OnChangeObjectProps@CShapesView@@IEAA_J_K_J@Z 00000001400240b0 f   Shapesvw.obj
 0001:000231a0       ?OnKeyDown@CShapesView@@IEAAXIII@Z 00000001400241a0 f   Shapesvw.obj
 0001:000232e0       ?DoPreparePrinting@CView@@QEAAHPEAUCPrintInfo@@@Z 00000001400242e0 f i Shapesvw.obj
 0001:00023480       ?_AfxPreviewCloseProc@CPrintPreviewState@@SAHPEAVCFrameWnd@@@Z 0000000140024480 f i Shapesvw.obj
 0001:000234d0       ??_GCDialogBar@@UEAAPEAXI@Z 00000001400244d0 f i Shapesvw.obj
 0001:000234d0       ??_ECDialogBar@@UEAAPEAXI@Z 00000001400244d0 f i * CIL library *:* CIL module *
 0001:00023500       ?OnUpdateCmdUI@CDialogBar@@UEAAXPEAVCFrameWnd@@H@Z 0000000140024500 f i Shapesvw.obj
 0001:00023510       ?CalcFixedLayout@CDialogBar@@UEAA?AVCSize@WTL@@HH@Z 0000000140024510 f i Shapesvw.obj
 0001:00023560       ?Create@CDialogBar@@UEAAHPEAVCWnd@@PEB_WII@Z 0000000140024560 f i Shapesvw.obj
 0001:00023720       ?Create@CDialogBar@@UEAAHPEAVCWnd@@III@Z 0000000140024720 f i Shapesvw.obj
 0001:00023730       ??1CDialogBar@@UEAA@XZ     0000000140024730 f i Shapesvw.obj
 0001:000237a0       ?AddView@CDocument@@QEAAXPEAVCView@@@Z 00000001400247a0 f i Shapesvw.obj
 0001:00023840       ?OnDestroy@CView@@QEAAXXZ  0000000140024840 f i Shapesvw.obj
 0001:000238d0       ?OnMouseActivate@CView@@QEAAHPEAVCWnd@@II@Z 00000001400248d0 f i Shapesvw.obj
 0001:000239a0       ?OnPaint@CView@@QEAAXXZ    00000001400249a0 f i Shapesvw.obj
 0001:00023a90       ?GetSafeHdc@CDCMTL@@QEBAPEAUHDC__@@XZ 0000000140024a90 f i Shapesvw.obj
 0001:00023aa0       ??_9CView@@$BBCA@AA        0000000140024aa0 f i Shapesvw.obj
 0001:00023ab0       ?_ProcessWindowMessage@CView@@UEAAHPEAUHWND__@@I_K_JAEA_J@Z 0000000140024ab0 f i Shapesvw.obj
 0001:00023cc0       ?OnCmdMsg@CView@@UEAAHIHPEAXPEAUAFX_CMDHANDLERINFO@@@Z 0000000140024cc0 f i Shapesvw.obj
 0001:00023d40       ?PreCreateWindow@CView@@UEAAHAEAUtagCREATESTRUCTW@@@Z 0000000140024d40 f i Shapesvw.obj
 0001:00023d90       ?OnInitialUpdate@CView@@UEAAXXZ 0000000140024d90 f i Shapesvw.obj
 0001:00023db0       ?OnUpdate@CView@@UEAAXPEAV1@_JPEAVCObject@@@Z 0000000140024db0 f i Shapesvw.obj
 0001:00023dd0       ?RemoveView@CDocument@@QEAAXPEAVCView@@@Z 0000000140024dd0 f i Shapesvw.obj
 0001:00023e80       ?CViewDestruct@CView@@QEAAXXZ 0000000140024e80 f i Shapesvw.obj
 0001:00023ea0       ??1CView@@UEAA@XZ          0000000140024ea0 f i Shapesvw.obj
 0001:00023f00       ??1CPreviewDC@@UEAA@XZ     0000000140024f00 f i Shapesvw.obj
 0001:00023f80       ??_ECPreviewDC@@UEAAPEAXI@Z 0000000140024f80 f i * CIL library *:* CIL module *
 0001:00023f80       ??_GCPreviewDC@@UEAAPEAXI@Z 0000000140024f80 f i Shapesvw.obj
 0001:00023fb0       ?SaveDC@CPreviewDC@@UEAAHXZ 0000000140024fb0 f i Shapesvw.obj
 0001:00024030       ?SelectStockObject@CPreviewDC@@QEAAPEAVCGdiObject@@H@Z 0000000140025030 f i Shapesvw.obj
 0001:000240b0       ?MirrorFont@CPreviewDC@@QEAAXXZ 00000001400250b0 f i Shapesvw.obj
 0001:000242b0       ?RestoreDC@CPreviewDC@@UEAAHH@Z 00000001400252b0 f i Shapesvw.obj
 0001:00024310       ??1?$CAlloc@_WAEB_W@@QEAA@XZ 0000000140025310 f i Shapesvw.obj
 0001:00024310       ??1?$CAlloc@HAEBH@@QEAA@XZ 0000000140025310 f i Shapesvw.obj
 0001:00024350       ?ComputeDeltas@CPreviewDC@@QEAA?AVCSize@WTL@@AEAHPEB_WAEAIHIPEAHHPEA_W30@Z 0000000140025350 f i Shapesvw.obj
 0001:00024610       ?ExtTextOutW@CPreviewDC@@QEAAHHHIPEBUtagRECT@@PEB_WIPEAH@Z 0000000140025610 f i Shapesvw.obj
 0001:000247c0       ?TextOutW@CPreviewDC@@UEAAHHHPEB_WH@Z 00000001400257c0 f i Shapesvw.obj
 0001:000247e0       ??0CPreviewDC@@QEAA@XZ     00000001400257e0 f i Shapesvw.obj
 0001:00024860       ?GetScrollBarState@CScrollView@@QEAAXVCSize@WTL@@AEAV23@1AEAVCPoint@3@H@Z 0000000140025860 f i Shapesvw.obj
 0001:00024a00       ?ScrollWindow@CWMHnd@@QEAAXHHPEBUtagRECT@@0@Z 0000000140025a00 f i Shapesvw.obj
 0001:00024b30       ?ScrollToDevicePosition@CScrollView@@QEAAXUtagPOINT@@@Z 0000000140025b30 f i Shapesvw.obj
 0001:00024c40       ?EnableScrollBarCtrl@CWMHnd@@QEAAXHH@Z 0000000140025c40 f i Shapesvw.obj
 0001:00024cc0       ?UpdateBars@CScrollView@@QEAAXXZ 0000000140025cc0 f i Shapesvw.obj
 0001:000250a0       ?SetScrollSizes@CScrollView@@QEAAXHUtagSIZE@@AEBU2@1@Z 00000001400260a0 f i Shapesvw.obj
 0001:00025280       ?SetCurrentPage@CPreviewView@@QEAAXIH@Z 0000000140026280 f i Shapesvw.obj
 0001:00025380       ?SetPrintView@CPreviewView@@QEAAHPEAVCView@@@Z 0000000140026380 f i Shapesvw.obj
 0001:00025670       ?OnEndPrintPreview@CView@@UEAAXPEAVCDCMTL@@PEAUCPrintInfo@@UtagPOINT@@PEAVCPreviewView@@@Z 0000000140026670 f i Shapesvw.obj
 0001:00025820       ?OnPreviewClose@CPreviewView@@QEAAXXZ 0000000140026820 f i Shapesvw.obj
 0001:000258f0       ?OnActivateView@CView@@UEAAXHPEAV1@0@Z 00000001400268f0 f i Shapesvw.obj
 0001:00025920       ?DoPrintPreview@CView@@QEAAHIPEAV1@PEAUCRuntimeClass@@PEAUCPrintPreviewState@@@Z 0000000140026920 f i Shapesvw.obj
 0001:00025c20       ?OnFilePrintPreview@CView@@QEAAXXZ 0000000140026c20 f i Shapesvw.obj
 0001:00025cb0       ??0CPrintInfo@@QEAA@XZ     0000000140026cb0 f i Shapesvw.obj
 0001:00025df0       ??1CPrintInfo@@QEAA@XZ     0000000140026df0 f i Shapesvw.obj
 0001:00025e80       ?FromHandleDC@CWinApp@@QEAAPEAVCDCMTL@@PEAUHDC__@@PEAV2@PEAUHWND__@@P6APEAXPEAX3@Z@Z 0000000140026e80 f i Shapesvw.obj
 0001:00025ea0       ?classHandleFuncCDCMTL@CDCMTL@@SAPEAXPEAX0@Z 0000000140026ea0 f i Shapesvw.obj
 0001:00025f20       ?Attach@?$CHandleWrapper@VCDCMTL@@PEAUHDC__@@V?$CDCT@$00@WTL@@@@QEAAHPEAUHDC__@@@Z 0000000140026f20 f i Shapesvw.obj
 0001:00025f90       ?OnInitDialog@CPrintingDialog@@UEAAHXZ 0000000140026f90 f i Shapesvw.obj
 0001:00025fe0       ?OnCancel@CPrintingDialog@@UEAAXXZ 0000000140026fe0 f i Shapesvw.obj
 0001:00026030       ?OnPrepareDC@CView@@UEAAXPEAVCDCMTL@@PEAUCPrintInfo@@@Z 0000000140027030 f i Shapesvw.obj
 0001:00026060       ?OnPrint@CView@@UEAAXPEAVCDCMTL@@PEAUCPrintInfo@@@Z 0000000140027060 f i Shapesvw.obj
 0001:00026070       ?_AfxAbortProc@CPrintingDialog@@SAHPEAUHDC__@@H@Z 0000000140027070 f i Shapesvw.obj
 0001:000260e0       ?OnFilePrint@CView@@QEAAXXZ 00000001400270e0 f i Shapesvw.obj
 0001:00027020       ?_AfxMultMultDivDiv@CPreviewDC@@SAJHHHHH@Z 0000000140028020 f i Stdafx.obj
 0001:000270e0       ?ClipToPage@CPreviewDC@@QEAAXXZ 00000001400280e0 f i Stdafx.obj
 0001:00027220       ?MirrorMappingMode@CPreviewDC@@QEAAXH@Z 0000000140028220 f i Stdafx.obj
 0001:00027380       ?MirrorViewportOrg@CPreviewDC@@QEAAXXZ 0000000140028380 f i Stdafx.obj
 0001:00027490       ??1CImage@@UEAA@XZ         0000000140028490 f i Stdafx.obj
 0001:00027500       ?CreateEx@CImage@@QEAAHHHHKPEBKK@Z 0000000140028500 f i Stdafx.obj
 0001:00027600       ?UpdateBitmapInfo@CImage@@QEAAXW4DIBOrientation@1@@Z 0000000140028600 f i Stdafx.obj
 0001:00027700       ??_GCImage@@UEAAPEAXI@Z    0000000140028700 f i Stdafx.obj
 0001:00027700       ??_ECImage@@UEAAPEAXI@Z    0000000140028700 f i * CIL library *:* CIL module *
 0001:00027730       ?GetScrollLimit@CWMHnd@@QEAAHH@Z 0000000140028730 f i Stdafx.obj
 0001:00027800       ?OnPaint@_AFX_MOUSEANCHORWND@@QEAAXXZ 0000000140028800 f i Stdafx.obj
 0001:00027920       ?WindowProc@_AFX_MOUSEANCHORWND@@UEAA_JI_K_J@Z 0000000140028920 f i Stdafx.obj
 0001:00027a30       ?_ProcessWindowMessage@_AFX_MOUSEANCHORWND@@UEAAHPEAUHWND__@@I_K_JAEA_J@Z 0000000140028a30 f i Stdafx.obj
 0001:00027a70       ??0CScrollView@@QEAA@XZ    0000000140028a70 f i Stdafx.obj
 0001:00027b10       ??1CScrollView@@UEAA@XZ    0000000140028b10 f i Stdafx.obj
 0001:00027ba0       ?OnHScroll@CScrollView@@QEAAXIIPEAVCScrollBarMTL@@@Z 0000000140028ba0 f i Stdafx.obj
 0001:00027c40       ?OnMouseWheel@CScrollView@@QEAAHIFVCPoint@WTL@@@Z 0000000140028c40 f i Stdafx.obj
 0001:00027cd0       ?OnPrepareDC@CScrollView@@UEAAXPEAVCDCMTL@@PEAUCPrintInfo@@@Z 0000000140028cd0 f i Stdafx.obj
 0001:00027f30       ?OnPrintClient@CScrollView@@QEAA_JPEAVCDCMTL@@I@Z 0000000140028f30 f i Stdafx.obj
 0001:00028260       ?OnScroll@CScrollView@@UEAAHIIH@Z 0000000140029260 f i Stdafx.obj
 0001:00028400       ?OnScrollBy@CScrollView@@UEAAHVCSize@WTL@@H@Z 0000000140029400 f i Stdafx.obj
 0001:000285f0       ?OnVScroll@CScrollView@@QEAAXIIPEAVCScrollBarMTL@@@Z 00000001400295f0 f i Stdafx.obj
 0001:000286a0       ?CCalcWindowRect@CScrollView@@UEAAXPEAUtagRECT@@I@Z 00000001400296a0 f i Stdafx.obj
 0001:000287e0       ?CenterOnPoint@CScrollView@@QEAAXVCPoint@WTL@@@Z 00000001400297e0 f i Stdafx.obj
 0001:00028910       ?DoMouseWheel@CScrollView@@QEAAHIFVCPoint@WTL@@@Z 0000000140029910 f i Stdafx.obj
 0001:00028ac0       ?GetWheelScrollDistance@CScrollView@@UEAA?AVCSize@WTL@@V23@HH@Z 0000000140029ac0 f i Stdafx.obj
 0001:00028b20       ?HandleMButtonDown@CScrollView@@QEAA_J_K_J@Z 0000000140029b20 f i Stdafx.obj
 0001:00028d40       ?SetScaleToFitSize@CScrollView@@QEAAXUtagSIZE@@@Z 0000000140029d40 f i Stdafx.obj
 0001:00028e60       ??_GCScrollView@@UEAAPEAXI@Z 0000000140029e60 f i Stdafx.obj
 0001:00028e60       ??_ECScrollView@@UEAAPEAXI@Z 0000000140029e60 f i * CIL library *:* CIL module *
 0001:00028e90       ?_ProcessWindowMessage@CScrollView@@UEAAHPEAUHWND__@@I_K_JAEA_J@Z 0000000140029e90 f i Stdafx.obj
 0001:000290e0       ?Create@_AFX_MOUSEANCHORWND@@QEAAHPEAVCScrollView@@@Z 000000014002a0e0 f i Stdafx.obj
 0001:00029330       ??0CPreviewView@@QEAA@XZ   000000014002a330 f i Stdafx.obj
 0001:00029420       ??1CPreviewView@@UEAA@XZ   000000014002a420 f i Stdafx.obj
 0001:00029540       ?OnActivateView@CPreviewView@@UEAAXHPEAVCView@@0@Z 000000014002a540 f i Stdafx.obj
 0001:00029620       ?OnDraw@CPreviewView@@UEAAXPEAVCDCMTL@@@Z 000000014002a620 f i Stdafx.obj
 0001:00029e70       ?OnEraseBkgnd@CPreviewView@@QEAAHPEAVCDCMTL@@@Z 000000014002ae70 f i Stdafx.obj
 0001:00029f90       ?OnNextPage@CPreviewView@@QEAAXXZ 000000014002af90 f i Stdafx.obj
 0001:00029fb0       ?OnPrepareDC@CPreviewView@@UEAAXPEAVCDCMTL@@PEAUCPrintInfo@@@Z 000000014002afb0 f i Stdafx.obj
 0001:0002a000       ?OnPrevPage@CPreviewView@@QEAAXXZ 000000014002b000 f i Stdafx.obj
 0001:0002a020       ?OnSetCursor@CPreviewView@@QEAAHPEAVCWnd@@II@Z 000000014002b020 f i Stdafx.obj
 0001:0002a100       ?OnSize@CPreviewView@@QEAAXIHH@Z 000000014002b100 f i Stdafx.obj
 0001:0002a1e0       ?OnUpdateNextPage@CPreviewView@@QEAAXPEAVCCmdUI@@@Z 000000014002b1e0 f i Stdafx.obj
 0001:0002a220       ?OnUpdateNumPageChange@CPreviewView@@QEAAXPEAVCCmdUI@@@Z 000000014002b220 f i Stdafx.obj
 0001:0002a310       ?OnUpdatePrevPage@CPreviewView@@QEAAXPEAVCCmdUI@@@Z 000000014002b310 f i Stdafx.obj
 0001:0002a340       ?OnUpdateZoomIn@CPreviewView@@QEAAXPEAVCCmdUI@@@Z 000000014002b340 f i Stdafx.obj
 0001:0002a360       ?OnUpdateZoomOut@CPreviewView@@QEAAXPEAVCCmdUI@@@Z 000000014002b360 f i Stdafx.obj
 0001:0002a380       ?OnZoomIn@CPreviewView@@QEAAXXZ 000000014002b380 f i Stdafx.obj
 0001:0002a3b0       ?OnZoomOut@CPreviewView@@QEAAXXZ 000000014002b3b0 f i Stdafx.obj
 0001:0002a3e0       ?OnVScroll@CPreviewView@@QEAAXIIPEAVCScrollBarMTL@@@Z 000000014002b3e0 f i Stdafx.obj
 0001:0002a530       ?CalcPageDisplaySize@CPreviewView@@QEAA?AVCSize@WTL@@XZ 000000014002b530 f i Stdafx.obj
 0001:0002a680       ?CalcScaleRatio@CPreviewView@@UEAA?AVCSize@WTL@@V23@0@Z 000000014002b680 f i Stdafx.obj
 0001:0002a6e0       ?DoZoom@CPreviewView@@QEAAXIVCPoint@WTL@@@Z 000000014002b6e0 f i Stdafx.obj
 0001:0002a8c0       ?FindPageRect@CPreviewView@@QEAAHAEAVCPoint@WTL@@AEAI@Z 000000014002b8c0 f i Stdafx.obj
 0001:0002aaa0       ?PositionPage@CPreviewView@@UEAAXI@Z 000000014002baa0 f i Stdafx.obj
 0001:0002ab80       ?SetScaledSize@CPreviewView@@QEAAXI@Z 000000014002bb80 f i Stdafx.obj
 0001:0002ad20       ??_ECPreviewView@@UEAAPEAXI@Z 000000014002bd20 f i * CIL library *:* CIL module *
 0001:0002ad20       ??_GCPreviewView@@UEAAPEAXI@Z 000000014002bd20 f i Stdafx.obj
 0001:0002ad50       ?_ProcessWindowMessage@CPreviewView@@UEAAHPEAUHWND__@@I_K_JAEA_J@Z 000000014002bd50 f i Stdafx.obj
 0001:0002b2b0       ?DefWindowProcW@CMDIChildWnd@@UEAA_JI_K_J@Z 000000014002c2b0 f i Stdafx.obj
 0001:0002b2c0       ?OnMDIActivate@CMDIChildWnd@@QEAAXHPEAVCWnd@@0@Z 000000014002c2c0 f i Stdafx.obj
 0001:0002b410       ?OnMouseActivate@CMDIChildWnd@@QEAAHPEAVCWnd@@II@Z 000000014002c410 f i Stdafx.obj
 0001:0002b550       ?OnToolTipText@CMDIChildWnd@@QEAAHIPEAUtagNMHDR@@PEA_J@Z 000000014002c550 f i Stdafx.obj
 0001:0002b5b0       ?OnSize@CMDIChildWnd@@QEAAXIHH@Z 000000014002c5b0 f i Stdafx.obj
 0001:0002b650       ?OnUpdateFrameMenu@CMDIChildWnd@@QEAAXHPEAVCWnd@@PEAUHMENU__@@@Z 000000014002c650 f i Stdafx.obj
 0001:0002b720       ?OnUpdateFrameTitle@CMDIChildWnd@@UEAAXH@Z 000000014002c720 f i Stdafx.obj
 0001:0002b8c0       ?OnWindowPosChanging@CMDIChildWnd@@QEAAXPEAUtagWINDOWPOS@@@Z 000000014002c8c0 f i Stdafx.obj
 0001:0002b990       ?ActivateFrame@CMDIChildWnd@@UEAAXH@Z 000000014002c990 f i Stdafx.obj
 0001:0002bbe0       ?DestroyWindow@CMDIChildWnd@@UEAAHXZ 000000014002cbe0 f i Stdafx.obj
 0001:0002bd00       ?GetMDIFrame@CMDIChildWnd@@QEAAPEAVCMDIFrameWnd@@XZ 000000014002cd00 f i Stdafx.obj
 0001:0002bd40       ?PreTranslateMessage@CMDIChildWnd@@UEAAHPEAUtagMSG@@@Z 000000014002cd40 f i Stdafx.obj
 0001:0002bde0       ?UpdateClientEdge@CMDIChildWnd@@QEAAHPEAUtagRECT@@@Z 000000014002cde0 f i Stdafx.obj
 0001:0002bfb0       ?_ProcessWindowMessage@CMDIChildWnd@@UEAAHPEAUHWND__@@I_K_JAEA_J@Z 000000014002cfb0 f i Stdafx.obj
 0001:0002c2e0       ?LoadFrame@CMDIChildWnd@@UEAAHIKPEAVCWnd@@PEAUCCreateContext@@@Z 000000014002d2e0 f i Stdafx.obj
 0001:0002c580       ?OnTimer@_AFX_MOUSEANCHORWND@@QEAAX_K@Z 000000014002d580 f i Stdafx.obj
 0001:0002c8a0       ?SetCurrentHandles@CWinApp@@QEAAXXZ 000000014002d8a0 f i Stdafx.obj
 0001:0002cba0       ?Create@CMDIChildWnd@@UEAAHPEB_W0KAEBUtagRECT@@PEAVCMDIFrameWnd@@PEAUCCreateContext@@@Z 000000014002dba0 f i Stdafx.obj
 0001:0002cdc0       ?OnDisplayPageNumber@CPreviewView@@UEAAXII@Z 000000014002ddc0 f i Stdafx.obj
 0001:0002cea0       ?OnNumPageChange@CPreviewView@@QEAAXXZ 000000014002dea0 f i Stdafx.obj
 0001:0002cee0       ?OnPreviewPrint@CPreviewView@@QEAAXXZ 000000014002dee0 f i Stdafx.obj
 0001:0002cf30       ?GetRuntimeClass@CCmdTarget@@UEBAPEAUCRuntimeClass@@XZ 000000014002df30 f   Stdafx.obj
 0001:0002cf40       ?CreateObject@CWnd@@SAPEAVCObject@@XZ 000000014002df40 f   Stdafx.obj
 0001:0002cf90       ?GetRuntimeClass@CWnd@@UEBAPEAUCRuntimeClass@@XZ 000000014002df90 f   Stdafx.obj
 0001:0002cfa0       ?GetRuntimeClass@CDialog@@UEBAPEAUCRuntimeClass@@XZ 000000014002dfa0 f   Stdafx.obj
 0001:0002cfb0       ?CreateObject@CFrameWnd@@SAPEAVCObject@@XZ 000000014002dfb0 f   Stdafx.obj
 0001:0002cff0       ?GetRuntimeClass@CFrameWnd@@UEBAPEAUCRuntimeClass@@XZ 000000014002dff0 f   Stdafx.obj
 0001:0002d000       ?GetRuntimeClass@CView@@UEBAPEAUCRuntimeClass@@XZ 000000014002e000 f   Stdafx.obj
 0001:0002d010       ?GetRuntimeClass@CMultiDocTemplate@@UEBAPEAUCRuntimeClass@@XZ 000000014002e010 f   Stdafx.obj
 0001:0002d020       ?GetRuntimeClass@CControlBar@@UEBAPEAUCRuntimeClass@@XZ 000000014002e020 f   Stdafx.obj
 0001:0002d030       ?GetRuntimeClass@CToolBar@@UEBAPEAUCRuntimeClass@@XZ 000000014002e030 f   Stdafx.obj
 0001:0002d040       ?CreateObject@CMiniFrameWnd@@SAPEAVCObject@@XZ 000000014002e040 f   Stdafx.obj
 0001:0002d0a0       ?GetRuntimeClass@CMiniFrameWnd@@UEBAPEAUCRuntimeClass@@XZ 000000014002e0a0 f   Stdafx.obj
 0001:0002d0b0       ?CreateObject@CMDIFrameWnd@@SAPEAVCObject@@XZ 000000014002e0b0 f   Stdafx.obj
 0001:0002d100       ?GetRuntimeClass@CMDIFrameWnd@@UEBAPEAUCRuntimeClass@@XZ 000000014002e100 f   Stdafx.obj
 0001:0002d110       ?CreateObject@CMDIChildWnd@@SAPEAVCObject@@XZ 000000014002e110 f   Stdafx.obj
 0001:0002d170       ?GetRuntimeClass@CMDIChildWnd@@UEBAPEAUCRuntimeClass@@XZ 000000014002e170 f   Stdafx.obj
 0001:0002d180       ?GetRuntimeClass@CScrollView@@UEBAPEAUCRuntimeClass@@XZ 000000014002e180 f   Stdafx.obj
 0001:0002d190       ?CreateObject@CPreviewView@@SAPEAVCObject@@XZ 000000014002e190 f   Stdafx.obj
 0001:0002d1d0       ?GetRuntimeClass@CPreviewView@@UEBAPEAUCRuntimeClass@@XZ 000000014002e1d0 f   Stdafx.obj
 0001:0002d1e0       ?GetRuntimeClass@CPropertyPageMTL@@UEBAPEAUCRuntimeClass@@XZ 000000014002e1e0 f   Stdafx.obj
 0001:0002d1f0       ?GetRuntimeClass@CPropertySheetMTL@@UEBAPEAUCRuntimeClass@@XZ 000000014002e1f0 f   Stdafx.obj
 0001:0002d200       ?GetRuntimeClass@CFileDialogMTL@@UEBAPEAUCRuntimeClass@@XZ 000000014002e200 f   Stdafx.obj
 0001:0002d210       ?GetRuntimeClass@CToolTipCtrlMTL@@UEBAPEAUCRuntimeClass@@XZ 000000014002e210 f   Stdafx.obj
 0001:0002d220       wWinMain                   000000014002e220 f   Stdafx.obj
 0001:0002d2a0       ?DoDataExchange@CStylePage@@MEAAXPEAVCDataExchange@@@Z 000000014002e2a0 f   Stylepge.obj
 0001:0002d2c0       ?_ProcessWindowMessage@CStylePage@@UEAAHPEAUHWND__@@I_K_JAEA_J@Z 000000014002e2c0 f i Stylepge.obj
 0001:0002d300       ?__AllocStdCallThunk@ATL@@YAPEAXXZ 000000014002e300 f   atls:atlthunk.obj
 0001:0002d3c4       ?__FreeStdCallThunk@ATL@@YAXPEAX@Z 000000014002e3c4 f   atls:atlthunk.obj
 0001:0002d454       ??0CAtlBaseModule@ATL@@QEAA@XZ 000000014002e454 f   atls:atlbase.obj
 0001:0002d4fc       ??1CAtlBaseModule@ATL@@QEAA@XZ 000000014002e4fc f   atls:atlbase.obj
 0001:0002d6e8       wWinMainCRTStartup         000000014002e6e8 f   LIBCMT:wwincrt0.obj
 0001:0002d6fc       ??3@YAXPEAX@Z              000000014002e6fc f   LIBCMT:delete.obj
 0001:0002d704       ??_V@YAXPEAX@Z             000000014002e704 f   LIBCMT:delete2.obj
 0001:0002d70c       ??_U@YAPEAX_K@Z            000000014002e70c f   LIBCMT:new2.obj
 0001:0002d714       __onexitinit               000000014002e714 f   LIBCMT:onexit.obj
 0001:0002d758       _onexit                    000000014002e758 f   LIBCMT:onexit.obj
 0001:0002d864       atexit                     000000014002e864 f   LIBCMT:onexit.obj
 0001:0002d87c       ??0bad_alloc@std@@QEAA@AEBV01@@Z 000000014002e87c f i LIBCMT:new.obj
 0001:0002d8a0       ??1bad_alloc@std@@UEAA@XZ  000000014002e8a0 f i LIBCMT:new.obj
 0001:0002d8b0       ??2@YAPEAX_K@Z             000000014002e8b0 f   LIBCMT:new.obj
 0001:0002d91c       ??_Ebad_alloc@std@@UEAAPEAXI@Z 000000014002e91c f i LIBCMT:new.obj
 0001:0002d91c       ??_Gbad_alloc@std@@UEAAPEAXI@Z 000000014002e91c f i LIBCMT:new.obj
 0001:0002d958       ??8type_info@@QEBA_NAEBV0@@Z 000000014002e958 f   LIBCMT:typinfo.obj
 0001:0002d978       ??_Etype_info@@UEAAPEAXI@Z 000000014002e978 f i LIBCMT:typinfo.obj
 0001:0002d978       ??_Gtype_info@@UEAAPEAXI@Z 000000014002e978 f i LIBCMT:typinfo.obj
 0001:0002d9b4       malloc                     000000014002e9b4 f   LIBCMT:malloc.obj
 0001:0002da6c       free                       000000014002ea6c f   LIBCMT:free.obj
 0001:0002daac       wcschr                     000000014002eaac f   LIBCMT:wcschr.obj
 0001:0002db50       memcpy                     000000014002eb50 f   LIBCMT:memcpy.obj
 0001:0002db50       memmove                    000000014002eb50 f   LIBCMT:memcpy.obj
 0001:0002e0b8       _purecall                  000000014002f0b8 f   LIBCMT:purevirt.obj
 0001:0002e0e4       calloc                     000000014002f0e4 f   LIBCMT:calloc.obj
 0001:0002e128       wcsrchr                    000000014002f128 f   LIBCMT:wcsrchr.obj
 0001:0002e1d8       wcscspn                    000000014002f1d8 f   LIBCMT:wcscspn.obj
 0001:0002e218       wcsspn                     000000014002f218 f   LIBCMT:wcsspn.obj
 0001:0002e25c       ??_M@YAXPEAX_KHP6AX0@Z@Z   000000014002f25c f   LIBCMT:ehvecdtr.obj
 0001:0002e2bc       ?__ArrayUnwind@@YAXPEAX_KHP6AX0@Z@Z 000000014002f2bc f   LIBCMT:ehvecdtr.obj
 0001:0002e308       ??_L@YAXPEAX_KHP6AX0@Z2@Z  000000014002f308 f   LIBCMT:ehvecctr.obj
 0001:0002e370       __crtCorExitProcess        000000014002f370 f   LIBCMT:crt0dat.obj
 0001:0002e3b4       __crtExitProcess           000000014002f3b4 f   LIBCMT:crt0dat.obj
 0001:0002e3cc       _amsg_exit                 000000014002f3cc f   LIBCMT:crt0dat.obj
 0001:0002e3f4       _c_exit                    000000014002f3f4 f   LIBCMT:crt0dat.obj
 0001:0002e404       _cexit                     000000014002f404 f   LIBCMT:crt0dat.obj
 0001:0002e414       _cinit                     000000014002f414 f   LIBCMT:crt0dat.obj
 0001:0002e4ac       _exit                      000000014002f4ac f   LIBCMT:crt0dat.obj
 0001:0002e4b8       _init_pointers             000000014002f4b8 f   LIBCMT:crt0dat.obj
 0001:0002e564       _initterm_e                000000014002f564 f   LIBCMT:crt0dat.obj
 0001:0002e5a0       _lockexit                  000000014002f5a0 f   LIBCMT:crt0dat.obj
 0001:0002e5ac       _unlockexit                000000014002f5ac f   LIBCMT:crt0dat.obj
 0001:0002e750       exit                       000000014002f750 f   LIBCMT:crt0dat.obj
 0001:0002e75c       realloc                    000000014002f75c f   LIBCMT:realloc.obj
 0001:0002eae4       _mktime64                  000000014002fae4 f   LIBCMT:mktime64.obj
 0001:0002eaf0       wcspbrk                    000000014002faf0 f   LIBCMT:wcspbrk.obj
 0001:0002eb28       _wcsdup                    000000014002fb28 f   LIBCMT:wcsdup.obj
 0001:0002eba0       _recalloc                  000000014002fba0 f   LIBCMT:recalloc.obj
 0001:0002ec40       memset                     000000014002fc40 f   LIBCMT:memset.obj
 0001:0002ee6c       ?__CxxUnhandledExceptionFilter@@YAJPEAU_EXCEPTION_POINTERS@@@Z 000000014002fe6c f   LIBCMT:unhandld.obj
 0001:0002eea4       __CxxSetUnhandledExceptionFilter 000000014002fea4 f   LIBCMT:unhandld.obj
 0001:0002eebc       _XcptFilter                000000014002febc f   LIBCMT:winxfltr.obj
 0001:0002f088       _freefls                   0000000140030088 f   LIBCMT:tidtable.obj
 0001:0002f1bc       _getptd                    00000001400301bc f   LIBCMT:tidtable.obj
 0001:0002f1e0       _getptd_noexit             00000001400301e0 f   LIBCMT:tidtable.obj
 0001:0002f264       _initptd                   0000000140030264 f   LIBCMT:tidtable.obj
 0001:0002f328       _mtinit                    0000000140030328 f   LIBCMT:tidtable.obj
 0001:0002f3a8       _mtterm                    00000001400303a8 f   LIBCMT:tidtable.obj
 0001:0002f3cc       _heap_init                 00000001400303cc f   LIBCMT:heapinit.obj
 0001:0002f3ec       _ioinit                    00000001400303ec f   LIBCMT:ioinit.obj
 0001:0002f71c       _wsetargv                  000000014003071c f   LIBCMT:wstdargv.obj
 0001:0002f9a4       _wsetenvp                  00000001400309a4 f   LIBCMT:wstdenvp.obj
 0001:0002fadc       _FF_MSGBANNER              0000000140030adc f   LIBCMT:crt0msg.obj
 0001:0002fb20       _GET_RTERRMSG              0000000140030b20 f   LIBCMT:crt0msg.obj
 0001:0002fb50       _NMSG_WRITE                0000000140030b50 f   LIBCMT:crt0msg.obj
 0001:0002fdc0       __set_app_type             0000000140030dc0 f   LIBCMT:errmode.obj
 0001:0002fdc8       _set_error_mode            0000000140030dc8 f   LIBCMT:errmode.obj
 0001:0002fe08       __security_init_cookie     0000000140030e08 f   LIBCMT:gs_support.obj
 0001:0002feb4       _RTC_Initialize            0000000140030eb4 f   LIBCMT:initsect.obj
 0001:0002feec       _RTC_Terminate             0000000140030eec f   LIBCMT:initsect.obj
 0001:0002ff24       __crtGetEnvironmentStringsW 0000000140030f24 f   LIBCMT:w_env.obj
 0001:0002ffa8       __crtCaptureCurrentContext 0000000140030fa8 f   LIBCMT:winapisupp.obj
 0001:00030018       __crtCapturePreviousContext 0000000140031018 f   LIBCMT:winapisupp.obj
 0001:0003008c       __crtFlsAlloc              000000014003108c f   LIBCMT:winapisupp.obj
 0001:000300a8       __crtFlsFree               00000001400310a8 f   LIBCMT:winapisupp.obj
 0001:000300c4       __crtFlsGetValue           00000001400310c4 f   LIBCMT:winapisupp.obj
 0001:000300e0       __crtFlsSetValue           00000001400310e0 f   LIBCMT:winapisupp.obj
 0001:000300fc       __crtGetShowWindowMode     00000001400310fc f   LIBCMT:winapisupp.obj
 0001:00030128       __crtInitializeCriticalSectionEx 0000000140031128 f   LIBCMT:winapisupp.obj
 0001:00030154       __crtIsPackagedApp         0000000140031154 f   LIBCMT:winapisupp.obj
 0001:000301a0       __crtLoadWinApiPointers    00000001400311a0 f   LIBCMT:winapisupp.obj
 0001:0003059c       __crtSetUnhandledExceptionFilter 000000014003159c f   LIBCMT:winapisupp.obj
 0001:000305a4       __crtSleep                 00000001400315a4 f   LIBCMT:winapisupp.obj
 0001:000305ac       __crtTerminateProcess      00000001400315ac f   LIBCMT:winapisupp.obj
 0001:000305cc       __crtUnhandledException    00000001400315cc f   LIBCMT:winapisupp.obj
 0001:000305ec       _wwincmdln                 00000001400315ec f   LIBCMT:wwncmdln.obj
 0001:00030644       __C_specific_handler       0000000140031644 f   LIBCMT:chandler.obj
 0001:00030828       _msize                     0000000140031828 f   LIBCMT:msize.obj
 0001:00030864       _calloc_crt                0000000140031864 f   LIBCMT:crtheap.obj
 0001:000308e4       _malloc_crt                00000001400318e4 f   LIBCMT:crtheap.obj
 0001:00030960       _realloc_crt               0000000140031960 f   LIBCMT:crtheap.obj
 0001:000309e4       _recalloc_crt              00000001400319e4 f   LIBCMT:crtheap.obj
 0001:00030a68       ??0exception@std@@QEAA@AEBQEBD@Z 0000000140031a68 f   LIBCMT:stdexcpt.obj
 0001:00030a98       ??0exception@std@@QEAA@AEBQEBDH@Z 0000000140031a98 f   LIBCMT:stdexcpt.obj
 0001:00030ab4       ??0exception@std@@QEAA@AEBV01@@Z 0000000140031ab4 f   LIBCMT:stdexcpt.obj
 0001:00030ae0       ??1exception@std@@UEAA@XZ  0000000140031ae0 f   LIBCMT:stdexcpt.obj
 0001:00030af0       ??4exception@std@@QEAAAEAV01@AEBV01@@Z 0000000140031af0 f   LIBCMT:stdexcpt.obj
 0001:00030b34       ??_Eexception@std@@UEAAPEAXI@Z 0000000140031b34 f i LIBCMT:stdexcpt.obj
 0001:00030b34       ??_Gexception@std@@UEAAPEAXI@Z 0000000140031b34 f i LIBCMT:stdexcpt.obj
 0001:00030b70       ?_Copy_str@exception@std@@AEAAXPEBD@Z 0000000140031b70 f   LIBCMT:stdexcpt.obj
 0001:00030bcc       ?_Tidy@exception@std@@AEAAXXZ 0000000140031bcc f   LIBCMT:stdexcpt.obj
 0001:00030bf4       ?what@exception@std@@UEBAPEBDXZ 0000000140031bf4 f   LIBCMT:stdexcpt.obj
 0001:00030c08       _callnewh                  0000000140031c08 f   LIBCMT:handler.obj
 0001:00030c3c       _initp_heap_handler        0000000140031c3c f   LIBCMT:handler.obj
 0001:00030c44       _CxxThrowException         0000000140031c44 f   LIBCMT:throw.obj
 0001:00030d20       strcmp                     0000000140031d20 f   LIBCMT:strcmp.obj
 0001:00030d88       ?_Type_info_dtor@type_info@@CAXPEAV1@@Z 0000000140031d88 f   LIBCMT:typname.obj
 0001:00030df4       __doserrno                 0000000140031df4 f   LIBCMT:dosmap.obj
 0001:00030e14       _dosmaperr                 0000000140031e14 f   LIBCMT:dosmap.obj
 0001:00030e64       _errno                     0000000140031e64 f   LIBCMT:dosmap.obj
 0001:00030e84       _get_errno_from_oserr      0000000140031e84 f   LIBCMT:dosmap.obj
 0001:00030ed4       __isa_available_init       0000000140031ed4 f   LIBCMT:cpu_disp.obj
 0001:00031078       _set_abort_behavior        0000000140032078 f   LIBCMT:abort.obj
 0001:00031094       abort                      0000000140032094 f   LIBCMT:abort.obj
 0001:000310ec       _initp_misc_purevirt       00000001400320ec f   LIBCMT:inithelp.obj
 0001:000310f4       _calloc_impl               00000001400320f4 f   LIBCMT:calloc_impl.obj
 0001:00031190       ?_inconsistency@@YAXXZ     0000000140032190 f   LIBCMT:hooks.obj
 0001:000311b0       ?terminate@@YAXXZ          00000001400321b0 f   LIBCMT:hooks.obj
 0001:000311d0       _initp_eh_hooks            00000001400321d0 f   LIBCMT:hooks.obj
 0001:000311f0       _call_reportfault          00000001400321f0 f   LIBCMT:invarg.obj
 0001:000312e4       _initp_misc_invarg         00000001400322e4 f   LIBCMT:invarg.obj
 0001:000312ec       _invalid_parameter         00000001400322ec f   LIBCMT:invarg.obj
 0001:00031354       _invalid_parameter_noinfo  0000000140032354 f   LIBCMT:invarg.obj
 0001:00031374       _invoke_watson             0000000140032374 f   LIBCMT:invarg.obj
 0001:000313b0       _lock                      00000001400323b0 f   LIBCMT:mlock.obj
 0001:000313f4       _mtdeletelocks             00000001400323f4 f   LIBCMT:mlock.obj
 0001:0003147c       _mtinitlocknum             000000014003247c f   LIBCMT:mlock.obj
 0001:0003153c       _mtinitlocks               000000014003253c f   LIBCMT:mlock.obj
 0001:000315a0       _unlock                    00000001400325a0 f   LIBCMT:mlock.obj
 0001:000315c0       _FindPESection             00000001400325c0 f   LIBCMT:pesect.obj
 0001:00031610       _IsNonwritableInCurrentImage 0000000140032610 f   LIBCMT:pesect.obj
 0001:00031660       _ValidateImageBase         0000000140032660 f   LIBCMT:pesect.obj
 0001:00031690       _initp_misc_cfltcvt_tab    0000000140032690 f   LIBCMT:cmiscdat.obj
 0001:000316cc       __get_sigabrt              00000001400326cc f   LIBCMT:winsig.obj
 0001:000316dc       _initp_misc_winsig         00000001400326dc f   LIBCMT:winsig.obj
 0001:000316fc       raise                      00000001400326fc f   LIBCMT:winsig.obj
 0001:00031930       _initp_misc_rand_s         0000000140032930 f   LIBCMT:rand_s.obj
 0001:00031938       __initmbctable             0000000140032938 f   LIBCMT:mbctype.obj
 0001:00031960       ??0_LocaleUpdate@@QEAA@PEAUlocaleinfo_struct@@@Z 0000000140032960 f i LIBCMT:mbctype.obj
 0001:00031cfc       __updatetmbcinfo           0000000140032cfc f   LIBCMT:mbctype.obj
 0001:00031db8       _setmbcp                   0000000140032db8 f   LIBCMT:mbctype.obj
 0001:00031ffc       _setmbcp_nolock            0000000140032ffc f   LIBCMT:mbctype.obj
 0001:000322ac       __daylight                 00000001400332ac f   LIBCMT:timeset.obj
 0001:000322b4       __dstbias                  00000001400332b4 f   LIBCMT:timeset.obj
 0001:000322bc       __timezone                 00000001400332bc f   LIBCMT:timeset.obj
 0001:000322c4       __tzname                   00000001400332c4 f   LIBCMT:timeset.obj
 0001:000322cc       _get_daylight              00000001400332cc f   LIBCMT:timeset.obj
 0001:000322fc       _get_dstbias               00000001400332fc f   LIBCMT:timeset.obj
 0001:0003232c       _get_timezone              000000014003332c f   LIBCMT:timeset.obj
 0001:0003235c       _gmtime64_s                000000014003335c f   LIBCMT:gmtime64.obj
 0001:0003262c       _localtime64_s             000000014003362c f   LIBCMT:loctim64.obj
 0001:00032938       __tzset                    0000000140033938 f   LIBCMT:tzset.obj
 0001:00032974       _isindst                   0000000140033974 f   LIBCMT:tzset.obj
 0001:00033384       __GSHandlerCheck           0000000140034384 f   LIBCMT:gshandler.obj
 0001:000333a4       __GSHandlerCheckCommon     00000001400343a4 f   LIBCMT:gshandler.obj
 0001:00033420       __security_check_cookie    0000000140034420 f   LIBCMT:amdsecgs.obj
 0001:00033440       wcscpy_s                   0000000140034440 f   LIBCMT:wcscpy_s.obj
 0001:000334ac       wcslen                     00000001400344ac f   LIBCMT:wcslen.obj
 0001:000334c8       __addlocaleref             00000001400344c8 f   LIBCMT:localref.obj
 0001:00033554       __freetlocinfo             0000000140034554 f   LIBCMT:localref.obj
 0001:000336ec       __removelocaleref          00000001400346ec f   LIBCMT:localref.obj
 0001:00033790       __updatetlocinfo           0000000140034790 f   LIBCMT:localref.obj
 0001:00033808       _updatetlocinfoEx_nolock   0000000140034808 f   LIBCMT:localref.obj
 0001:00033880       _local_unwind              0000000140034880 f   LIBCMT:jmpuwind.obj
 0001:000338b0       _NLG_Notify                00000001400348b0 f   LIBCMT:jmpuwind.obj
 0001:000338d0       __NLG_Dispatch2            00000001400348d0 f   LIBCMT:jmpuwind.obj
 0001:000338e0       __NLG_Return2              00000001400348e0 f   LIBCMT:jmpuwind.obj
 0001:000338e4       __initstdio                00000001400348e4 f   LIBCMT:_file.obj
 0001:0003397c       __endstdio                 000000014003497c f   LIBCMT:_file.obj
 0001:000339ac       _lock_file                 00000001400349ac f   LIBCMT:_file.obj
 0001:00033a14       _lock_file2                0000000140034a14 f   LIBCMT:_file.obj
 0001:00033a48       _unlock_file               0000000140034a48 f   LIBCMT:_file.obj
 0001:00033a98       _unlock_file2              0000000140034a98 f   LIBCMT:_file.obj
 0001:00033ad0       strlen                     0000000140034ad0 f   LIBCMT:strlen.obj
 0001:00033b78       wcscat_s                   0000000140034b78 f   LIBCMT:wcscat_s.obj
 0001:00033c00       wcsncpy_s                  0000000140034c00 f   LIBCMT:wcsncpy_s.obj
 0001:00033ccc       __crtMessageBoxW           0000000140034ccc f   LIBCMT:crtmboxw.obj
 0001:00033f40       strcpy_s                   0000000140034f40 f   LIBCMT:strcpy_s.obj
 0001:00033fa4       strncpy_s                  0000000140034fa4 f   LIBCMT:strncpy_s.obj
 0001:00034060       GetTableIndexFromLocaleName 0000000140035060 f   LIBCMT:winapinls.obj
 0001:000340ec       __crtCompareStringEx       00000001400350ec f   LIBCMT:winapinls.obj
 0001:0003417c       __crtDownlevelLocaleNameToLCID 000000014003517c f   LIBCMT:winapinls.obj
 0001:000341b0       __crtLCMapStringEx         00000001400351b0 f   LIBCMT:winapinls.obj
 0001:00034240       __wcsnicmp_ascii           0000000140035240 f   LIBCMT:winapinls.obj
 0001:00034298       __crt_debugger_hook        0000000140035298 f   LIBCMT:dbghook.obj
 0001:000342a0       _fptrap                    00000001400352a0 f   LIBCMT:crt0fp.obj
 0001:00034598       __crtLCMapStringA          0000000140035598 f   LIBCMT:a_map.obj
 0001:000347a8       __crtGetStringTypeA        00000001400357a8 f   LIBCMT:a_str.obj
 0001:00034824       _fileno                    0000000140035824 f   LIBCMT:fileno.obj
 0001:0003484c       _isatty                    000000014003584c f   LIBCMT:isatty.obj
 0001:000348ac       _fflush_nolock             00000001400358ac f   LIBCMT:fflush.obj
 0001:000348f8       _flush                     00000001400358f8 f   LIBCMT:fflush.obj
 0001:00034974       _flushall                  0000000140035974 f   LIBCMT:fflush.obj
 0001:00034a68       atol                       0000000140035a68 f   LIBCMT:atox.obj
 0001:00034a74       _getenv_helper_nolock      0000000140035a74 f   LIBCMT:getenv.obj
 0001:00034b18       ___lc_codepage_func        0000000140035b18 f   LIBCMT:initctyp.obj
 0001:00034b50       __raise_securityfailure    0000000140035b50 f   LIBCMT:gs_report.obj
 0001:00034b9c       __report_gsfailure         0000000140035b9c f   LIBCMT:gs_report.obj
 0001:00034c70       __free_lconv_mon           0000000140035c70 f   LIBCMT:initmon.obj
 0001:00034d7c       __free_lconv_num           0000000140035d7c f   LIBCMT:initnum.obj
 0001:00034de8       __free_lc_time             0000000140035de8 f   LIBCMT:inittime.obj
 0001:000351e4       _fcloseall                 00000001400361e4 f   LIBCMT:closeall.obj
 0001:000352a0       _alloca_probe              00000001400362a0 f   LIBCMT:chkstk.obj
 0001:000352a0       __chkstk                   00000001400362a0 f   LIBCMT:chkstk.obj
 0001:000352f0       _commit                    00000001400362f0 f   LIBCMT:commit.obj
 0001:000353c8       _write                     00000001400363c8 f   LIBCMT:write.obj
 0001:000354ac       _write_nolock              00000001400364ac f   LIBCMT:write.obj
 0001:00035edc       strtol                     0000000140036edc f   LIBCMT:strtol.obj
 0001:00035f0c       __wtomb_environ            0000000140036f0c f   LIBCMT:wtombenv.obj
 0001:00036000       _mbsnbicoll                0000000140037000 f   LIBCMT:mbsnbico.obj
 0001:00036008       _mbsnbicoll_l              0000000140037008 f   LIBCMT:mbsnbico.obj
 0001:00036108       _locterm                   0000000140037108 f   LIBCMT:wsetloca.obj
 0001:00036150       _fclose_nolock             0000000140037150 f   LIBCMT:fclose.obj
 0001:000361cc       fclose                     00000001400371cc f   LIBCMT:fclose.obj
 0001:00036234       __lock_fhandle             0000000140037234 f   LIBCMT:osfinfo.obj
 0001:000362cc       _free_osfhnd               00000001400372cc f   LIBCMT:osfinfo.obj
 0001:00036378       _get_osfhandle             0000000140037378 f   LIBCMT:osfinfo.obj
 0001:000363ec       _unlock_fhandle            00000001400373ec f   LIBCMT:osfinfo.obj
 0001:00036418       _isleadbyte_l              0000000140037418 f i LIBCMT:_wctype.obj
 0001:0003645c       isleadbyte                 000000014003745c f i LIBCMT:_wctype.obj
 0001:000364a4       _lseeki64_nolock           00000001400374a4 f   LIBCMT:lseeki64.obj
 0001:00036538       _mbtowc_l                  0000000140037538 f   LIBCMT:mbtowc.obj
 0001:0003668c       mbtowc                     000000014003768c f   LIBCMT:mbtowc.obj
 0001:00036694       _putwch_nolock             0000000140037694 f   LIBCMT:putwch.obj
 0001:000366f0       _isctype_l                 00000001400376f0 f   LIBCMT:isctype.obj
 0001:000367cc       __crt_atoflt_l             00000001400377cc f   LIBCMT:atodbl.obj
 0001:0003689c       _atodbl_l                  000000014003789c f   LIBCMT:atodbl.obj
 0001:00036964       _atoflt_l                  0000000140037964 f   LIBCMT:atodbl.obj
 0001:0003696c       _fpmath                    000000014003796c f   LIBCMT:fpinit.obj
 0001:00036974       _cfltcvt_init              0000000140037974 f   LIBCMT:fpinit.obj
 0001:000369fc       __crtsetenv                00000001400379fc f   LIBCMT:setenv.obj
 0001:00036db0       _strnicoll_l               0000000140037db0 f   LIBCMT:strnicol.obj
 0001:00037218       __crtCompareStringA        0000000140038218 f   LIBCMT:a_cmp.obj
 0001:000372c0       memcmp                     00000001400382c0 f   LIBCMT:memcmp.obj
 0001:00037388       _close                     0000000140038388 f   LIBCMT:close.obj
 0001:0003744c       _close_nolock              000000014003844c f   LIBCMT:close.obj
 0001:00037508       _freebuf                   0000000140038508 f   LIBCMT:_freebuf.obj
 0001:00037540       __termconout               0000000140038540 f   LIBCMT:initcon.obj
 0001:00037560       __initconout               0000000140038560 f   LIBCMT:initcon.obj
 0001:000375a0       _ld12tod                   00000001400385a0 f   LIBCMT:intrncvt.obj
 0001:00037b58       _ld12tof                   0000000140038b58 f   LIBCMT:intrncvt.obj
 0001:00038110       __strgtold12_l             0000000140039110 f   LIBCMT:strgtold.obj
 0001:00038974       _cfltcvt                   0000000140039974 f   LIBCMT:cvt.obj
 0001:00038998       _cfltcvt_l                 0000000140039998 f   LIBCMT:cvt.obj
 0001:00038a18       _cftoa_l                   0000000140039a18 f   LIBCMT:cvt.obj
 0001:00038fc4       _cftoe_l                   0000000140039fc4 f   LIBCMT:cvt.obj
 0001:00039220       _cftof_l                   000000014003a220 f   LIBCMT:cvt.obj
 0001:000392f4       _cftog_l                   000000014003a2f4 f   LIBCMT:cvt.obj
 0001:00039428       _cropzeros                 000000014003a428 f   LIBCMT:cvt.obj
 0001:00039430       _cropzeros_l               000000014003a430 f   LIBCMT:cvt.obj
 0001:000394c8       _fassign                   000000014003a4c8 f   LIBCMT:cvt.obj
 0001:000394d0       _fassign_l                 000000014003a4d0 f   LIBCMT:cvt.obj
 0001:00039510       _forcdecpt                 000000014003a510 f   LIBCMT:cvt.obj
 0001:00039518       _forcdecpt_l               000000014003a518 f   LIBCMT:cvt.obj
 0001:00039598       _positive                  000000014003a598 f   LIBCMT:cvt.obj
 0001:000395ac       _strdup                    000000014003a5ac f   LIBCMT:strdup.obj
 0001:0003961c       _mbschr                    000000014003a61c f   LIBCMT:mbschr.obj
 0001:00039624       _mbschr_l                  000000014003a624 f   LIBCMT:mbschr.obj
 0001:000396e4       __ascii_strnicmp           000000014003a6e4 f   LIBCMT:strnicmp.obj
 0001:0003972c       _strnicmp_l                000000014003a72c f   LIBCMT:strnicmp.obj
 0001:00039808       __mtold12                  000000014003a808 f   LIBCMT:mantold.obj
 0001:00039a2c       isdigit                    000000014003aa2c f i LIBCMT:_ctype.obj
 0001:00039aa8       _tolower_l                 000000014003aaa8 f   LIBCMT:tolower.obj
 0001:00039bfc       tolower                    000000014003abfc f   LIBCMT:tolower.obj
 0001:00039c1c       strrchr                    000000014003ac1c f   LIBCMT:strrchr.obj
 0001:00039d60       _fptostr                   000000014003ad60 f   LIBCMT:_fptostr.obj
 0001:00039e2c       __dtold                    000000014003ae2c f   LIBCMT:cfout.obj
 0001:00039efc       _fltout2                   000000014003aefc f   LIBCMT:cfout.obj
 0001:00039fb4       strchr                     000000014003afb4 f   LIBCMT:strchr.obj
 0001:0003a040       $I10_OUTPUT                000000014003b040 f   LIBCMT:x10fout.obj
 0001:0003ab18       RtlUnwindEx                000000014003bb18 f   kernel32:KERNEL32.dll
 0001:0003ab1e       IsProcessorFeaturePresent  000000014003bb1e f   kernel32:KERNEL32.dll
 0001:0003ab24       ?_GetEstablisherFrame@@YAPEA_KPEA_KPEAU_xDISPATCHER_CONTEXT@@PEBU_s_FuncInfo@@0@Z 000000014003bb24 f   LIBCMT:trnsctrl.obj
 0001:0003abf0       ?_GetRangeOfTrysToCheck@@YAPEBU_s_TryBlockMapEntry@@PEA_KPEBU_s_FuncInfo@@HHPEAI2PEAU_xDISPATCHER_CONTEXT@@@Z 000000014003bbf0 f   LIBCMT:trnsctrl.obj
 0001:0003ad1c       ?__FrameUnwindToEmptyState@@YAXPEA_KPEAU_xDISPATCHER_CONTEXT@@PEBU_s_FuncInfo@@@Z 000000014003bd1c f   LIBCMT:trnsctrl.obj
 0001:0003adb0       ?__SehTransFilter@@YAHPEAU_EXCEPTION_POINTERS@@PEAUEHExceptionRecord@@PEA_KPEAU_CONTEXT@@PEAU_xDISPATCHER_CONTEXT@@PEBU_s_FuncInfo@@PEAH@Z 000000014003bdb0 f   LIBCMT:trnsctrl.obj
 0001:0003ae54       _CallSETranslator          000000014003be54 f   LIBCMT:trnsctrl.obj
 0001:0003aea8       _CreateFrameInfo           000000014003bea8 f   LIBCMT:trnsctrl.obj
 0001:0003aeec       _FindAndUnlinkFrame        000000014003beec f   LIBCMT:trnsctrl.obj
 0001:0003af4c       _GetImageBase              000000014003bf4c f   LIBCMT:trnsctrl.obj
 0001:0003af64       _GetThrowImageBase         000000014003bf64 f   LIBCMT:trnsctrl.obj
 0001:0003af7c       _IsExceptionObjectToBeDestroyed 000000014003bf7c f   LIBCMT:trnsctrl.obj
 0001:0003afb0       _SetImageBase              000000014003bfb0 f   LIBCMT:trnsctrl.obj
 0001:0003afcc       _SetThrowImageBase         000000014003bfcc f   LIBCMT:trnsctrl.obj
 0001:0003afe8       _UnwindNestedFrames        000000014003bfe8 f   LIBCMT:trnsctrl.obj
 0001:0003b10c       __CxxFrameHandler3         000000014003c10c f   LIBCMT:trnsctrl.obj
 0001:0003b194       __DestructExceptionObject  000000014003c194 f   LIBCMT:frame.obj
 0001:0003b204       ??0bad_exception@std@@QEAA@AEBV01@@Z 000000014003c204 f i LIBCMT:frame.obj
 0001:0003b228       ??1bad_exception@std@@UEAA@XZ 000000014003c228 f i LIBCMT:frame.obj
 0001:0003b238       ??_Gbad_exception@std@@UEAAPEAXI@Z 000000014003c238 f i LIBCMT:frame.obj
 0001:0003b238       ??_Ebad_exception@std@@UEAAPEAXI@Z 000000014003c238 f i LIBCMT:frame.obj
 0001:0003bb2c       __AdjustPointer            000000014003cb2c f   LIBCMT:frame.obj
 0001:0003bb50       __BuildCatchObject         000000014003cb50 f   LIBCMT:frame.obj
 0001:0003bc08       __BuildCatchObjectHelper   000000014003cc08 f   LIBCMT:frame.obj
 0001:0003be58       __CxxCallCatchBlock        000000014003ce58 f   LIBCMT:frame.obj
 0001:0003c05c       __FrameUnwindFilter        000000014003d05c f   LIBCMT:frame.obj
 0001:0003c0b0       __FrameUnwindToState       000000014003d0b0 f   LIBCMT:frame.obj
 0001:0003c244       __InternalCxxFrameHandler  000000014003d244 f   LIBCMT:frame.obj
 0001:0003c468       __TypeMatch                000000014003d468 f   LIBCMT:frame.obj
 0001:0003c598       ?__GetCurrentState@@YAHPEA_KPEAU_xDISPATCHER_CONTEXT@@PEBU_s_FuncInfo@@@Z 000000014003d598 f   LIBCMT:ehstate.obj
 0001:0003c5c0       ?__GetUnwindTryBlock@@YAHPEA_KPEAU_xDISPATCHER_CONTEXT@@PEBU_s_FuncInfo@@@Z 000000014003d5c0 f   LIBCMT:ehstate.obj
 0001:0003c5ec       ?__SetState@@YAXPEA_KPEAU_xDISPATCHER_CONTEXT@@PEBU_s_FuncInfo@@H@Z 000000014003d5ec f   LIBCMT:ehstate.obj
 0001:0003c5f8       ?__SetUnwindTryBlock@@YAXPEA_KPEAU_xDISPATCHER_CONTEXT@@PEBU_s_FuncInfo@@H@Z 000000014003d5f8 f   LIBCMT:ehstate.obj
 0001:0003c634       ?__StateFromControlPc@@YAHPEBU_s_FuncInfo@@PEAU_xDISPATCHER_CONTEXT@@@Z 000000014003d634 f   LIBCMT:ehstate.obj
 0001:0003c63c       ?__StateFromIp@@YAHPEBU_s_FuncInfo@@PEAU_xDISPATCHER_CONTEXT@@_J@Z 000000014003d63c f   LIBCMT:ehstate.obj
 0001:0003c6c8       ?_ValidateExecute@@YAHP6A_JXZ@Z 000000014003d6c8 f   LIBCMT:validate.obj
 0001:0003c6c8       ?_ValidateWrite@@YAHPEAXI@Z 000000014003d6c8 f   LIBCMT:validate.obj
 0001:0003c6c8       ?_ValidateRead@@YAHPEBXI@Z 000000014003d6c8 f   LIBCMT:validate.obj
 0001:0003c6f0       _CallSettingFrame          000000014003d6f0 f   LIBCMT:handlers.obj
 0001:0003c730       _GetNextInstrOffset        000000014003d730 f   LIBCMT:handlers.obj
 0001:0003dcf0       ??__FcModuleState@?1??_GetCModuleState@CWinApp@@SAPEAVCModuleState@@XZ@YAXXZ 000000014003ecf0 f i Colorpge.obj
 0001:0003dd60       ??__F_afxPropPageFontInfo@?1??_GetAfxPropPageFontInfo@CPropertyPageMTL@@SAAEAU_AFX_PROPPAGEFONTINFO@@XZ@YAXXZ 000000014003ed60 f i Propsht.obj
 0002:00000000       __imp_RegCloseKey          000000014003f000     advapi32:ADVAPI32.dll
 0002:00000008       __imp_RegOpenKeyExW        000000014003f008     advapi32:ADVAPI32.dll
 0002:00000010       __imp_RegQueryValueW       000000014003f010     advapi32:ADVAPI32.dll
 0002:00000018       __imp_RegDeleteKeyW        000000014003f018     advapi32:ADVAPI32.dll
 0002:00000020       __imp_RegEnumKeyW          000000014003f020     advapi32:ADVAPI32.dll
 0002:00000028       __imp_RegQueryValueExW     000000014003f028     advapi32:ADVAPI32.dll
 0002:00000030       \177ADVAPI32_NULL_THUNK_DATA 000000014003f030     advapi32:ADVAPI32.dll
 0002:00000038       __imp_PropertySheetW       000000014003f038     comctl32:COMCTL32.dll
 0002:00000040       __imp_DestroyPropertySheetPage 000000014003f040     comctl32:COMCTL32.dll
 0002:00000048       __imp_CreatePropertySheetPageW 000000014003f048     comctl32:COMCTL32.dll
 0002:00000050       __imp_InitCommonControlsEx 000000014003f050     comctl32:COMCTL32.dll
 0002:00000058       \177COMCTL32_NULL_THUNK_DATA 000000014003f058     comctl32:COMCTL32.dll
 0002:00000060       __imp_GetOpenFileNameW     000000014003f060     comdlg32:COMDLG32.dll
 0002:00000068       __imp_PrintDlgW            000000014003f068     comdlg32:COMDLG32.dll
 0002:00000070       __imp_CommDlgExtendedError 000000014003f070     comdlg32:COMDLG32.dll
 0002:00000078       __imp_GetSaveFileNameW     000000014003f078     comdlg32:COMDLG32.dll
 0002:00000080       __imp_GetFileTitleW        000000014003f080     comdlg32:COMDLG32.dll
 0002:00000088       \177COMDLG32_NULL_THUNK_DATA 000000014003f088     comdlg32:COMDLG32.dll
 0002:00000090       __imp_GetDeviceCaps        000000014003f090     gdi32:GDI32.dll
 0002:00000098       __imp_GetCharWidthW        000000014003f098     gdi32:GDI32.dll
 0002:000000a0       __imp_CreateFontW          000000014003f0a0     gdi32:GDI32.dll
 0002:000000a8       __imp_GetObjectW           000000014003f0a8     gdi32:GDI32.dll
 0002:000000b0       __imp_StretchDIBits        000000014003f0b0     gdi32:GDI32.dll
 0002:000000b8       __imp_CreateCompatibleDC   000000014003f0b8     gdi32:GDI32.dll
 0002:000000c0       __imp_CreateCompatibleBitmap 000000014003f0c0     gdi32:GDI32.dll
 0002:000000c8       __imp_GetTextExtentPoint32W 000000014003f0c8     gdi32:GDI32.dll
 0002:000000d0       __imp_EnumFontFamiliesExW  000000014003f0d0     gdi32:GDI32.dll
 0002:000000d8       __imp_CreatePen            000000014003f0d8     gdi32:GDI32.dll
 0002:000000e0       __imp_CreateSolidBrush     000000014003f0e0     gdi32:GDI32.dll
 0002:000000e8       __imp_Rectangle            000000014003f0e8     gdi32:GDI32.dll
 0002:000000f0       __imp_Ellipse              000000014003f0f0     gdi32:GDI32.dll
 0002:000000f8       __imp_RoundRect            000000014003f0f8     gdi32:GDI32.dll
 0002:00000100       __imp_AbortDoc             000000014003f100     gdi32:GDI32.dll
 0002:00000108       __imp_EndDoc               000000014003f108     gdi32:GDI32.dll
 0002:00000110       __imp_EndPage              000000014003f110     gdi32:GDI32.dll
 0002:00000118       __imp_StartPage            000000014003f118     gdi32:GDI32.dll
 0002:00000120       __imp_DPtoLP               000000014003f120     gdi32:GDI32.dll
 0002:00000128       __imp_StartDocW            000000014003f128     gdi32:GDI32.dll
 0002:00000130       __imp_SetAbortProc         000000014003f130     gdi32:GDI32.dll
 0002:00000138       __imp_CreateDCW            000000014003f138     gdi32:GDI32.dll
 0002:00000140       __imp_ExcludeClipRect      000000014003f140     gdi32:GDI32.dll
 0002:00000148       __imp_SetMapMode           000000014003f148     gdi32:GDI32.dll
 0002:00000150       __imp_MoveToEx             000000014003f150     gdi32:GDI32.dll
 0002:00000158       __imp_GetCurrentPositionEx 000000014003f158     gdi32:GDI32.dll
 0002:00000160       __imp_GetTextAlign         000000014003f160     gdi32:GDI32.dll
 0002:00000168       __imp_CreateFontIndirectW  000000014003f168     gdi32:GDI32.dll
 0002:00000170       __imp_GetViewportExtEx     000000014003f170     gdi32:GDI32.dll
 0002:00000178       __imp_GetWindowExtEx       000000014003f178     gdi32:GDI32.dll
 0002:00000180       __imp_GetTextFaceW         000000014003f180     gdi32:GDI32.dll
 0002:00000188       __imp_GetStockObject       000000014003f188     gdi32:GDI32.dll
 0002:00000190       __imp_GetClipBox           000000014003f190     gdi32:GDI32.dll
 0002:00000198       __imp_SetViewportExtEx     000000014003f198     gdi32:GDI32.dll
 0002:000001a0       __imp_Escape               000000014003f1a0     gdi32:GDI32.dll
 0002:000001a8       __imp_CreateDIBSection     000000014003f1a8     gdi32:GDI32.dll
 0002:000001b0       __imp_SetWindowExtEx       000000014003f1b0     gdi32:GDI32.dll
 0002:000001b8       __imp_LineTo               000000014003f1b8     gdi32:GDI32.dll
 0002:000001c0       __imp_SetViewportOrgEx     000000014003f1c0     gdi32:GDI32.dll
 0002:000001c8       __imp_PatBlt               000000014003f1c8     gdi32:GDI32.dll
 0002:000001d0       __imp_GetViewportOrgEx     000000014003f1d0     gdi32:GDI32.dll
 0002:000001d8       __imp_GetWindowOrgEx       000000014003f1d8     gdi32:GDI32.dll
 0002:000001e0       __imp_BitBlt               000000014003f1e0     gdi32:GDI32.dll
 0002:000001e8       __imp_SetWindowOrgEx       000000014003f1e8     gdi32:GDI32.dll
 0002:000001f0       __imp_CreateEllipticRgn    000000014003f1f0     gdi32:GDI32.dll
 0002:000001f8       __imp_GetBkColor           000000014003f1f8     gdi32:GDI32.dll
 0002:00000200       __imp_IntersectClipRect    000000014003f200     gdi32:GDI32.dll
 0002:00000208       __imp_ExtTextOutW          000000014003f208     gdi32:GDI32.dll
 0002:00000210       __imp_SetBkColor           000000014003f210     gdi32:GDI32.dll
 0002:00000218       __imp_DeleteObject         000000014003f218     gdi32:GDI32.dll
 0002:00000220       __imp_GetTextMetricsW      000000014003f220     gdi32:GDI32.dll
 0002:00000228       __imp_SelectObject         000000014003f228     gdi32:GDI32.dll
 0002:00000230       __imp_SaveDC               000000014003f230     gdi32:GDI32.dll
 0002:00000238       __imp_RestoreDC            000000014003f238     gdi32:GDI32.dll
 0002:00000240       __imp_LPtoDP               000000014003f240     gdi32:GDI32.dll
 0002:00000248       __imp_DeleteDC             000000014003f248     gdi32:GDI32.dll
 0002:00000250       __imp_TextOutW             000000014003f250     gdi32:GDI32.dll
 0002:00000258       \177GDI32_NULL_THUNK_DATA  000000014003f258     gdi32:GDI32.dll
 0002:00000260       __imp_GetConsoleCP         000000014003f260     kernel32:KERNEL32.dll
 0002:00000268       __imp_FlushFileBuffers     000000014003f268     kernel32:KERNEL32.dll
 0002:00000270       __imp_GetStringTypeW       000000014003f270     kernel32:KERNEL32.dll
 0002:00000278       __imp_LCMapStringW         000000014003f278     kernel32:KERNEL32.dll
 0002:00000280       __imp_CompareStringW       000000014003f280     kernel32:KERNEL32.dll
 0002:00000288       __imp_GetTimeZoneInformation 000000014003f288     kernel32:KERNEL32.dll
 0002:00000290       __imp_GetCPInfo            000000014003f290     kernel32:KERNEL32.dll
 0002:00000298       __imp_GetOEMCP             000000014003f298     kernel32:KERNEL32.dll
 0002:000002a0       __imp_GetACP               000000014003f2a0     kernel32:KERNEL32.dll
 0002:000002a8       __imp_IsValidCodePage      000000014003f2a8     kernel32:KERNEL32.dll
 0002:000002b0       __imp_IsProcessorFeaturePresent 000000014003f2b0     kernel32:KERNEL32.dll
 0002:000002b8       __imp_RtlPcToFileHeader    000000014003f2b8     kernel32:KERNEL32.dll
 0002:000002c0       __imp_HeapSize             000000014003f2c0     kernel32:KERNEL32.dll
 0002:000002c8       __imp_RtlUnwindEx          000000014003f2c8     kernel32:KERNEL32.dll
 0002:000002d0       __imp_TlsFree              000000014003f2d0     kernel32:KERNEL32.dll
 0002:000002d8       __imp_GetConsoleMode       000000014003f2d8     kernel32:KERNEL32.dll
 0002:000002e0       __imp_TlsGetValue          000000014003f2e0     kernel32:KERNEL32.dll
 0002:000002e8       __imp_TlsAlloc             000000014003f2e8     kernel32:KERNEL32.dll
 0002:000002f0       __imp_TerminateProcess     000000014003f2f0     kernel32:KERNEL32.dll
 0002:000002f8       __imp_Sleep                000000014003f2f8     kernel32:KERNEL32.dll
 0002:00000300       __imp_InitializeCriticalSectionAndSpinCount 000000014003f300     kernel32:KERNEL32.dll
 0002:00000308       __imp_SetUnhandledExceptionFilter 000000014003f308     kernel32:KERNEL32.dll
 0002:00000310       __imp_UnhandledExceptionFilter 000000014003f310     kernel32:KERNEL32.dll
 0002:00000318       __imp_RtlVirtualUnwind     000000014003f318     kernel32:KERNEL32.dll
 0002:00000320       __imp_RtlLookupFunctionEntry 000000014003f320     kernel32:KERNEL32.dll
 0002:00000328       __imp_RtlCaptureContext    000000014003f328     kernel32:KERNEL32.dll
 0002:00000330       __imp_FreeEnvironmentStringsW 000000014003f330     kernel32:KERNEL32.dll
 0002:00000338       __imp_GetEnvironmentStringsW 000000014003f338     kernel32:KERNEL32.dll
 0002:00000340       __imp_GetSystemTimeAsFileTime 000000014003f340     kernel32:KERNEL32.dll
 0002:00000348       __imp_GetCurrentProcessId  000000014003f348     kernel32:KERNEL32.dll
 0002:00000350       __imp_QueryPerformanceCounter 000000014003f350     kernel32:KERNEL32.dll
 0002:00000358       __imp_GetStartupInfoW      000000014003f358     kernel32:KERNEL32.dll
 0002:00000360       __imp_GetFileType          000000014003f360     kernel32:KERNEL32.dll
 0002:00000368       __imp_GetStdHandle         000000014003f368     kernel32:KERNEL32.dll
 0002:00000370       __imp_HeapReAlloc          000000014003f370     kernel32:KERNEL32.dll
 0002:00000378       __imp_MultiByteToWideChar  000000014003f378     kernel32:KERNEL32.dll
 0002:00000380       __imp_GetModuleHandleExW   000000014003f380     kernel32:KERNEL32.dll
 0002:00000388       __imp_ExitProcess          000000014003f388     kernel32:KERNEL32.dll
 0002:00000390       __imp_GetCommandLineW      000000014003f390     kernel32:KERNEL32.dll
 0002:00000398       __imp_SetStdHandle         000000014003f398     kernel32:KERNEL32.dll
 0002:000003a0       __imp_SetFilePointerEx     000000014003f3a0     kernel32:KERNEL32.dll
 0002:000003a8       __imp_WriteConsoleW        000000014003f3a8     kernel32:KERNEL32.dll
 0002:000003b0       __imp_OutputDebugStringW   000000014003f3b0     kernel32:KERNEL32.dll
 0002:000003b8       __imp_IsDebuggerPresent    000000014003f3b8     kernel32:KERNEL32.dll
 0002:000003c0       __imp_VirtualFree          000000014003f3c0     kernel32:KERNEL32.dll
 0002:000003c8       __imp_VirtualAlloc         000000014003f3c8     kernel32:KERNEL32.dll
 0002:000003d0       __imp_InterlockedPushEntrySList 000000014003f3d0     kernel32:KERNEL32.dll
 0002:000003d8       __imp_InterlockedPopEntrySList 000000014003f3d8     kernel32:KERNEL32.dll
 0002:000003e0       __imp_InitializeSListHead  000000014003f3e0     kernel32:KERNEL32.dll
 0002:000003e8       __imp_GetProcessHeap       000000014003f3e8     kernel32:KERNEL32.dll
 0002:000003f0       __imp_HeapFree             000000014003f3f0     kernel32:KERNEL32.dll
 0002:000003f8       __imp_HeapAlloc            000000014003f3f8     kernel32:KERNEL32.dll
 0002:00000400       __imp_MulDiv               000000014003f400     kernel32:KERNEL32.dll
 0002:00000408       __imp_lstrcmpA             000000014003f408     kernel32:KERNEL32.dll
 0002:00000410       __imp_lstrlenA             000000014003f410     kernel32:KERNEL32.dll
 0002:00000418       __imp_GetFileTime          000000014003f418     kernel32:KERNEL32.dll
 0002:00000420       __imp_GetFileSizeEx        000000014003f420     kernel32:KERNEL32.dll
 0002:00000428       __imp_GetFileAttributesW   000000014003f428     kernel32:KERNEL32.dll
 0002:00000430       __imp_FileTimeToLocalFileTime 000000014003f430     kernel32:KERNEL32.dll
 0002:00000438       __imp_FileTimeToSystemTime 000000014003f438     kernel32:KERNEL32.dll
 0002:00000440       __imp_GetFileSize          000000014003f440     kernel32:KERNEL32.dll
 0002:00000448       __imp_CreateFileW          000000014003f448     kernel32:KERNEL32.dll
 0002:00000450       __imp_ReadFile             000000014003f450     kernel32:KERNEL32.dll
 0002:00000458       __imp_WriteFile            000000014003f458     kernel32:KERNEL32.dll
 0002:00000460       __imp_SetFilePointer       000000014003f460     kernel32:KERNEL32.dll
 0002:00000468       __imp_DeleteFileW          000000014003f468     kernel32:KERNEL32.dll
 0002:00000470       __imp_VirtualProtect       000000014003f470     kernel32:KERNEL32.dll
 0002:00000478       __imp_GetUserDefaultUILanguage 000000014003f478     kernel32:KERNEL32.dll
 0002:00000480       __imp_FindResourceExW      000000014003f480     kernel32:KERNEL32.dll
 0002:00000488       __imp_GlobalAlloc          000000014003f488     kernel32:KERNEL32.dll
 0002:00000490       __imp_GlobalAddAtomW       000000014003f490     kernel32:KERNEL32.dll
 0002:00000498       __imp_GetPrivateProfileIntW 000000014003f498     kernel32:KERNEL32.dll
 0002:000004a0       __imp_GetPrivateProfileStringW 000000014003f4a0     kernel32:KERNEL32.dll
 0002:000004a8       __imp_GlobalDeleteAtom     000000014003f4a8     kernel32:KERNEL32.dll
 0002:000004b0       __imp_CloseHandle          000000014003f4b0     kernel32:KERNEL32.dll
 0002:000004b8       __imp_WritePrivateProfileStringW 000000014003f4b8     kernel32:KERNEL32.dll
 0002:000004c0       __imp_GetCurrentDirectoryW 000000014003f4c0     kernel32:KERNEL32.dll
 0002:000004c8       __imp_lstrcatW             000000014003f4c8     kernel32:KERNEL32.dll
 0002:000004d0       __imp_lstrcpyW             000000014003f4d0     kernel32:KERNEL32.dll
 0002:000004d8       __imp_GlobalLock           000000014003f4d8     kernel32:KERNEL32.dll
 0002:000004e0       __imp_GlobalFlags          000000014003f4e0     kernel32:KERNEL32.dll
 0002:000004e8       __imp_GlobalUnlock         000000014003f4e8     kernel32:KERNEL32.dll
 0002:000004f0       __imp_SetLastError         000000014003f4f0     kernel32:KERNEL32.dll
 0002:000004f8       __imp_LeaveCriticalSection 000000014003f4f8     kernel32:KERNEL32.dll
 0002:00000500       __imp_EnterCriticalSection 000000014003f500     kernel32:KERNEL32.dll
 0002:00000508       __imp_RaiseException       000000014003f508     kernel32:KERNEL32.dll
 0002:00000510       __imp_DeleteCriticalSection 000000014003f510     kernel32:KERNEL32.dll
 0002:00000518       __imp_InitializeCriticalSectionEx 000000014003f518     kernel32:KERNEL32.dll
 0002:00000520       __imp_GetVersionExW        000000014003f520     kernel32:KERNEL32.dll
 0002:00000528       __imp_GetModuleHandleW     000000014003f528     kernel32:KERNEL32.dll
 0002:00000530       __imp_EncodePointer        000000014003f530     kernel32:KERNEL32.dll
 0002:00000538       __imp_DecodePointer        000000014003f538     kernel32:KERNEL32.dll
 0002:00000540       __imp_GetFullPathNameW     000000014003f540     kernel32:KERNEL32.dll
 0002:00000548       __imp_GetVolumeInformationW 000000014003f548     kernel32:KERNEL32.dll
 0002:00000550       __imp_FindFirstFileW       000000014003f550     kernel32:KERNEL32.dll
 0002:00000558       __imp_FindClose            000000014003f558     kernel32:KERNEL32.dll
 0002:00000560       __imp_SetEnvironmentVariableA 000000014003f560     kernel32:KERNEL32.dll
 0002:00000568       __imp_LoadLibraryExW       000000014003f568     kernel32:KERNEL32.dll
 0002:00000570       __imp_GetProcAddress       000000014003f570     kernel32:KERNEL32.dll
 0002:00000578       __imp_GetThreadLocale      000000014003f578     kernel32:KERNEL32.dll
 0002:00000580       __imp_GetStringTypeExW     000000014003f580     kernel32:KERNEL32.dll
 0002:00000588       __imp_GetLastError         000000014003f588     kernel32:KERNEL32.dll
 0002:00000590       __imp_GetModuleFileNameW   000000014003f590     kernel32:KERNEL32.dll
 0002:00000598       __imp_SizeofResource       000000014003f598     kernel32:KERNEL32.dll
 0002:000005a0       __imp_WideCharToMultiByte  000000014003f5a0     kernel32:KERNEL32.dll
 0002:000005a8       __imp_lstrcpynW            000000014003f5a8     kernel32:KERNEL32.dll
 0002:000005b0       __imp_GlobalFree           000000014003f5b0     kernel32:KERNEL32.dll
 0002:000005b8       __imp_lstrcmpiW            000000014003f5b8     kernel32:KERNEL32.dll
 0002:000005c0       __imp_FindResourceW        000000014003f5c0     kernel32:KERNEL32.dll
 0002:000005c8       __imp_LockResource         000000014003f5c8     kernel32:KERNEL32.dll
 0002:000005d0       __imp_LoadResource         000000014003f5d0     kernel32:KERNEL32.dll
 0002:000005d8       __imp_FreeResource         000000014003f5d8     kernel32:KERNEL32.dll
 0002:000005e0       __imp_GetCurrentThreadId   000000014003f5e0     kernel32:KERNEL32.dll
 0002:000005e8       __imp_FlushInstructionCache 000000014003f5e8     kernel32:KERNEL32.dll
 0002:000005f0       __imp_GetCurrentProcess    000000014003f5f0     kernel32:KERNEL32.dll
 0002:000005f8       __imp_lstrcmpW             000000014003f5f8     kernel32:KERNEL32.dll
 0002:00000600       __imp_TlsSetValue          000000014003f600     kernel32:KERNEL32.dll
 0002:00000608       __imp_lstrlenW             000000014003f608     kernel32:KERNEL32.dll
 0002:00000610       \177KERNEL32_NULL_THUNK_DATA 000000014003f610     kernel32:KERNEL32.dll
 0002:00000618       __imp_DragAcceptFiles      000000014003f618     shell32:SHELL32.dll
 0002:00000620       __imp_SHGetFileInfoW       000000014003f620     shell32:SHELL32.dll
 0002:00000628       __imp_DragQueryFileW       000000014003f628     shell32:SHELL32.dll
 0002:00000630       __imp_DragFinish           000000014003f630     shell32:SHELL32.dll
 0002:00000638       \177SHELL32_NULL_THUNK_DATA 000000014003f638     shell32:SHELL32.dll
 0002:00000640       __imp_PathIsUNCW           000000014003f640     shlwapi:SHLWAPI.dll
 0002:00000648       __imp_PathStripToRootW     000000014003f648     shlwapi:SHLWAPI.dll
 0002:00000650       __imp_PathFindFileNameW    000000014003f650     shlwapi:SHLWAPI.dll
 0002:00000658       __imp_PathRemoveFileSpecW  000000014003f658     shlwapi:SHLWAPI.dll
 0002:00000660       __imp_PathFindExtensionW   000000014003f660     shlwapi:SHLWAPI.dll
 0002:00000668       __imp_PathRemoveExtensionW 000000014003f668     shlwapi:SHLWAPI.dll
 0002:00000670       \177SHLWAPI_NULL_THUNK_DATA 000000014003f670     shlwapi:SHLWAPI.dll
 0002:00000678       __imp_GetScrollPos         000000014003f678     user32:USER32.dll
 0002:00000680       __imp_ScrollWindow         000000014003f680     user32:USER32.dll
 0002:00000688       __imp_IntersectRect        000000014003f688     user32:USER32.dll
 0002:00000690       __imp_DestroyWindow        000000014003f690     user32:USER32.dll
 0002:00000698       __imp_PostMessageW         000000014003f698     user32:USER32.dll
 0002:000006a0       __imp_RegisterClassW       000000014003f6a0     user32:USER32.dll
 0002:000006a8       __imp_GetClassInfoW        000000014003f6a8     user32:USER32.dll
 0002:000006b0       __imp_ReleaseCapture       000000014003f6b0     user32:USER32.dll
 0002:000006b8       __imp_DefMDIChildProcW     000000014003f6b8     user32:USER32.dll
 0002:000006c0       __imp_SetWindowRgn         000000014003f6c0     user32:USER32.dll
 0002:000006c8       __imp_SetCapture           000000014003f6c8     user32:USER32.dll
 0002:000006d0       __imp_DrawIcon             000000014003f6d0     user32:USER32.dll
 0002:000006d8       __imp_GetScrollRange       000000014003f6d8     user32:USER32.dll
 0002:000006e0       __imp_GetScrollInfo        000000014003f6e0     user32:USER32.dll
 0002:000006e8       __imp_SystemParametersInfoW 000000014003f6e8     user32:USER32.dll
 0002:000006f0       __imp_RedrawWindow         000000014003f6f0     user32:USER32.dll
 0002:000006f8       __imp_GetActiveWindow      000000014003f6f8     user32:USER32.dll
 0002:00000700       __imp_DestroyCursor        000000014003f700     user32:USER32.dll
 0002:00000708       __imp_SetScrollInfo        000000014003f708     user32:USER32.dll
 0002:00000710       __imp_ShowScrollBar        000000014003f710     user32:USER32.dll
 0002:00000718       __imp_SetScrollPos         000000014003f718     user32:USER32.dll
 0002:00000720       __imp_GetWindowTextLengthW 000000014003f720     user32:USER32.dll
 0002:00000728       __imp_SetDlgItemTextW      000000014003f728     user32:USER32.dll
 0002:00000730       __imp_SetRect              000000014003f730     user32:USER32.dll
 0002:00000738       __imp_GetPropW             000000014003f738     user32:USER32.dll
 0002:00000740       __imp_RemovePropW          000000014003f740     user32:USER32.dll
 0002:00000748       __imp_GetAsyncKeyState     000000014003f748     user32:USER32.dll
 0002:00000750       __imp_SetPropW             000000014003f750     user32:USER32.dll
 0002:00000758       __imp_MapDialogRect        000000014003f758     user32:USER32.dll
 0002:00000760       __imp_SetCursor            000000014003f760     user32:USER32.dll
 0002:00000768       __imp_GetMenuStringW       000000014003f768     user32:USER32.dll
 0002:00000770       __imp_GetWindowLongPtrW    000000014003f770     user32:USER32.dll
 0002:00000778       __imp_UnregisterClassW     000000014003f778     user32:USER32.dll
 0002:00000780       __imp_RegisterWindowMessageW 000000014003f780     user32:USER32.dll
 0002:00000788       __imp_CharUpperW           000000014003f788     user32:USER32.dll
 0002:00000790       __imp_GetMessageW          000000014003f790     user32:USER32.dll
 0002:00000798       __imp_TranslateMessage     000000014003f798     user32:USER32.dll
 0002:000007a0       __imp_DispatchMessageW     000000014003f7a0     user32:USER32.dll
 0002:000007a8       __imp_FillRect             000000014003f7a8     user32:USER32.dll
 0002:000007b0       __imp_EndPaint             000000014003f7b0     user32:USER32.dll
 0002:000007b8       __imp_BeginPaint           000000014003f7b8     user32:USER32.dll
 0002:000007c0       __imp_InflateRect          000000014003f7c0     user32:USER32.dll
 0002:000007c8       __imp_SetFocus             000000014003f7c8     user32:USER32.dll
 0002:000007d0       __imp_GetSysColor          000000014003f7d0     user32:USER32.dll
 0002:000007d8       __imp_GetWindowDC          000000014003f7d8     user32:USER32.dll
 0002:000007e0       __imp_WindowFromPoint      000000014003f7e0     user32:USER32.dll
 0002:000007e8       __imp_IsChild              000000014003f7e8     user32:USER32.dll
 0002:000007f0       __imp_GetCapture           000000014003f7f0     user32:USER32.dll
 0002:000007f8       __imp_GetSystemMenu        000000014003f7f8     user32:USER32.dll
 0002:00000800       __imp_DeleteMenu           000000014003f800     user32:USER32.dll
 0002:00000808       __imp_AppendMenuW          000000014003f808     user32:USER32.dll
 0002:00000810       __imp_GetCursorPos         000000014003f810     user32:USER32.dll
 0002:00000818       __imp_SetParent            000000014003f818     user32:USER32.dll
 0002:00000820       __imp_OffsetRect           000000014003f820     user32:USER32.dll
 0002:00000828       __imp_GetDC                000000014003f828     user32:USER32.dll
 0002:00000830       __imp_ReleaseDC            000000014003f830     user32:USER32.dll
 0002:00000838       __imp_IsZoomed             000000014003f838     user32:USER32.dll
 0002:00000840       __imp_KillTimer            000000014003f840     user32:USER32.dll
 0002:00000848       __imp_SetTimer             000000014003f848     user32:USER32.dll
 0002:00000850       __imp_SetRectEmpty         000000014003f850     user32:USER32.dll
 0002:00000858       __imp_TranslateMDISysAccel 000000014003f858     user32:USER32.dll
 0002:00000860       __imp_DefFrameProcW        000000014003f860     user32:USER32.dll
 0002:00000868       __imp_DrawMenuBar          000000014003f868     user32:USER32.dll
 0002:00000870       __imp_LoadMenuW            000000014003f870     user32:USER32.dll
 0002:00000878       __imp_TranslateAcceleratorW 000000014003f878     user32:USER32.dll
 0002:00000880       __imp_InvalidateRect       000000014003f880     user32:USER32.dll
 0002:00000888       __imp_LoadAcceleratorsW    000000014003f888     user32:USER32.dll
 0002:00000890       __imp_GetForegroundWindow  000000014003f890     user32:USER32.dll
 0002:00000898       __imp_IsWindow             000000014003f898     user32:USER32.dll
 0002:000008a0       __imp_ShowOwnedPopups      000000014003f8a0     user32:USER32.dll
 0002:000008a8       __imp_SetWindowLongW       000000014003f8a8     user32:USER32.dll
 0002:000008b0       __imp_WinHelpW             000000014003f8b0     user32:USER32.dll
 0002:000008b8       __imp_GetSystemMetrics     000000014003f8b8     user32:USER32.dll
 0002:000008c0       __imp_IsWindowVisible      000000014003f8c0     user32:USER32.dll
 0002:000008c8       __imp_IsIconic             000000014003f8c8     user32:USER32.dll
 0002:000008d0       __imp_BringWindowToTop     000000014003f8d0     user32:USER32.dll
 0002:000008d8       __imp_MessageBoxW          000000014003f8d8     user32:USER32.dll
 0002:000008e0       __imp_GetSubMenu           000000014003f8e0     user32:USER32.dll
 0002:000008e8       __imp_GetMenuItemCount     000000014003f8e8     user32:USER32.dll
 0002:000008f0       __imp_GetMenuItemID        000000014003f8f0     user32:USER32.dll
 0002:000008f8       __imp_wsprintfW            000000014003f8f8     user32:USER32.dll
 0002:00000900       __imp_BeginDeferWindowPos  000000014003f900     user32:USER32.dll
 0002:00000908       __imp_CopyRect             000000014003f908     user32:USER32.dll
 0002:00000910       __imp_ScreenToClient       000000014003f910     user32:USER32.dll
 0002:00000918       __imp_EqualRect            000000014003f918     user32:USER32.dll
 0002:00000920       __imp_DeferWindowPos       000000014003f920     user32:USER32.dll
 0002:00000928       __imp_EndDeferWindowPos    000000014003f928     user32:USER32.dll
 0002:00000930       __imp_GetKeyState          000000014003f930     user32:USER32.dll
 0002:00000938       __imp_GetLastActivePopup   000000014003f938     user32:USER32.dll
 0002:00000940       __imp_LoadIconW            000000014003f940     user32:USER32.dll
 0002:00000948       __imp_LoadCursorW          000000014003f948     user32:USER32.dll
 0002:00000950       __imp_DefWindowProcW       000000014003f950     user32:USER32.dll
 0002:00000958       __imp_GetDesktopWindow     000000014003f958     user32:USER32.dll
 0002:00000960       __imp_GetClassNameW        000000014003f960     user32:USER32.dll
 0002:00000968       __imp_GetDlgItem           000000014003f968     user32:USER32.dll
 0002:00000970       __imp_IsWindowEnabled      000000014003f970     user32:USER32.dll
 0002:00000978       __imp_IsDialogMessageW     000000014003f978     user32:USER32.dll
 0002:00000980       __imp_CreateDialogIndirectParamW 000000014003f980     user32:USER32.dll
 0002:00000988       __imp_ShowWindow           000000014003f988     user32:USER32.dll
 0002:00000990       __imp_UpdateWindow         000000014003f990     user32:USER32.dll
 0002:00000998       __imp_PeekMessageW         000000014003f998     user32:USER32.dll
 0002:000009a0       __imp_SetActiveWindow      000000014003f9a0     user32:USER32.dll
 0002:000009a8       __imp_MonitorFromWindow    000000014003f9a8     user32:USER32.dll
 0002:000009b0       __imp_GetMonitorInfoW      000000014003f9b0     user32:USER32.dll
 0002:000009b8       __imp_GetClientRect        000000014003f9b8     user32:USER32.dll
 0002:000009c0       __imp_MapWindowPoints      000000014003f9c0     user32:USER32.dll
 0002:000009c8       __imp_SetWindowPos         000000014003f9c8     user32:USER32.dll
 0002:000009d0       __imp_SendDlgItemMessageA  000000014003f9d0     user32:USER32.dll
 0002:000009d8       __imp_GetTopWindow         000000014003f9d8     user32:USER32.dll
 0002:000009e0       __imp_EndDialog            000000014003f9e0     user32:USER32.dll
 0002:000009e8       __imp_LoadStringW          000000014003f9e8     user32:USER32.dll
 0002:000009f0       __imp_AdjustWindowRectEx   000000014003f9f0     user32:USER32.dll
 0002:000009f8       __imp_DestroyMenu          000000014003f9f8     user32:USER32.dll
 0002:00000a00       __imp_GetMenu              000000014003fa00     user32:USER32.dll
 0002:00000a08       __imp_SetMenu              000000014003fa08     user32:USER32.dll
 0002:00000a10       __imp_ChildWindowFromPointEx 000000014003fa10     user32:USER32.dll
 0002:00000a18       __imp_ClientToScreen       000000014003fa18     user32:USER32.dll
 0002:00000a20       __imp_GetWindow            000000014003fa20     user32:USER32.dll
 0002:00000a28       __imp_GetWindowLongW       000000014003fa28     user32:USER32.dll
 0002:00000a30       __imp_GetWindowRect        000000014003fa30     user32:USER32.dll
 0002:00000a38       __imp_PtInRect             000000014003fa38     user32:USER32.dll
 0002:00000a40       __imp_GetClassInfoExW      000000014003fa40     user32:USER32.dll
 0002:00000a48       __imp_SetWindowsHookExW    000000014003fa48     user32:USER32.dll
 0002:00000a50       __imp_GetClassLongW        000000014003fa50     user32:USER32.dll
 0002:00000a58       __imp_EnableMenuItem       000000014003fa58     user32:USER32.dll
 0002:00000a60       __imp_GetFocus             000000014003fa60     user32:USER32.dll
 0002:00000a68       __imp_GetParent            000000014003fa68     user32:USER32.dll
 0002:00000a70       __imp_EnableWindow         000000014003fa70     user32:USER32.dll
 0002:00000a78       __imp_CheckMenuItem        000000014003fa78     user32:USER32.dll
 0002:00000a80       __imp_GetMenuState         000000014003fa80     user32:USER32.dll
 0002:00000a88       __imp_ModifyMenuW          000000014003fa88     user32:USER32.dll
 0002:00000a90       __imp_GetWindowTextW       000000014003fa90     user32:USER32.dll
 0002:00000a98       __imp_SetWindowTextW       000000014003fa98     user32:USER32.dll
 0002:00000aa0       __imp_GetDlgCtrlID         000000014003faa0     user32:USER32.dll
 0002:00000aa8       __imp_PostQuitMessage      000000014003faa8     user32:USER32.dll
 0002:00000ab0       __imp_SendMessageW         000000014003fab0     user32:USER32.dll
 0002:00000ab8       __imp_CallWindowProcW      000000014003fab8     user32:USER32.dll
 0002:00000ac0       __imp_SetWindowLongPtrW    000000014003fac0     user32:USER32.dll
 0002:00000ac8       __imp_CallNextHookEx       000000014003fac8     user32:USER32.dll
 0002:00000ad0       __imp_CreateWindowExW      000000014003fad0     user32:USER32.dll
 0002:00000ad8       __imp_UnhookWindowsHookEx  000000014003fad8     user32:USER32.dll
 0002:00000ae0       __imp_InsertMenuW          000000014003fae0     user32:USER32.dll
 0002:00000ae8       \177USER32_NULL_THUNK_DATA 000000014003fae8     user32:USER32.dll
 0002:00000af0       __imp_OpenPrinterW         000000014003faf0     winspool:WINSPOOL.DRV
 0002:00000af8       __imp_GetJobW              000000014003faf8     winspool:WINSPOOL.DRV
 0002:00000b00       \177WINSPOOL_NULL_THUNK_DATA 000000014003fb00     winspool:WINSPOOL.DRV
 0002:00000b08       __imp_CoCreateInstance     000000014003fb08     ole32:ole32.dll
 0002:00000b10       __imp_CoUninitialize       000000014003fb10     ole32:ole32.dll
 0002:00000b18       __imp_CoTaskMemFree        000000014003fb18     ole32:ole32.dll
 0002:00000b20       __imp_CoInitializeEx       000000014003fb20     ole32:ole32.dll
 0002:00000b28       \177ole32_NULL_THUNK_DATA  000000014003fb28     ole32:ole32.dll
 0002:00000b30       __xc_a                     000000014003fb30     LIBCMT:crt0init.obj
 0002:00000b78       __xc_z                     000000014003fb78     LIBCMT:crt0init.obj
 0002:00000b80       __xi_a                     000000014003fb80     LIBCMT:crt0init.obj
 0002:00000bb0       __xi_z                     000000014003fbb0     LIBCMT:crt0init.obj
 0002:00000bb8       __xp_a                     000000014003fbb8     LIBCMT:crt0init.obj
 0002:00000bd8       __xp_z                     000000014003fbd8     LIBCMT:crt0init.obj
 0002:00000be0       __xt_a                     000000014003fbe0     LIBCMT:crt0init.obj
 0002:00000be8       __xt_z                     000000014003fbe8     LIBCMT:crt0init.obj
 0002:00000bf0       IID_IPersistFile           000000014003fbf0     uuid:objidl_i.obj
 0002:00000c00       IID_IShellLinkW            000000014003fc00     uuid:shguids2.obj
 0002:00000c10       CLSID_ShellLink            000000014003fc10     uuid:shguids2.obj
 0002:00000c20       CLSID_FileOpenDialog       000000014003fc20     uuid:shguids2.obj
 0002:00000c30       CLSID_FileSaveDialog       000000014003fc30     uuid:shguids2.obj
 0002:00000c40       IID_IClassFactory          000000014003fc40     uuid:unknwn_i.obj
 0002:00000c50       GUID_ATLVer110             000000014003fc50     atls:atlbase.obj
 0002:00000c60       ??_C@_1IC@ONKHOIDK@?$AAE?$AAR?$AAR?$AAO?$AAR?$AA?5?$AA?3?$AA?5?$AAU?$AAn?$AAa?$AAb?$AAl?$AAe?$AA?5?$AAt?$AAo?$AA?5?$AAi?$AAn?$AAi?$AAt?$AAi?$AAa?$AAl?$AAi?$AAz?$AAe?$AA?5?$AAc?$AAr?$AAi@ 000000014003fc60     atls:atlbase.obj
 0002:00000cf0       ??_7bad_alloc@std@@6B@     000000014003fcf0     LIBCMT:new.obj
 0002:00000d00       ??_C@_0P@GHFPNOJB@bad?5allocation?$AA@ 000000014003fd00     LIBCMT:new.obj
 0002:00000d18       ??_7type_info@@6B@         000000014003fd18     LIBCMT:typinfo.obj
 0002:00000d20       ??_C@_1BI@BGOHAHKC@?$AAm?$AAs?$AAc?$AAo?$AAr?$AAe?$AAe?$AA?4?$AAd?$AAl?$AAl?$AA?$AA@ 000000014003fd20     LIBCMT:crt0dat.obj
 0002:00000d38       ??_C@_0P@MIGLKIOC@CorExitProcess?$AA@ 000000014003fd38     LIBCMT:crt0dat.obj
 0002:00000d50       _XcptActTab                000000014003fd50     LIBCMT:winxfltr.obj
 0002:00000e10       _XcptActTabCount           000000014003fe10     LIBCMT:winxfltr.obj
 0002:00000e14       _XcptActTabSize            000000014003fe14     LIBCMT:winxfltr.obj
 0002:00000e18       _First_FPE_Indx            000000014003fe18     LIBCMT:winxfltr.obj
 0002:00000e1c       _Num_FPE                   000000014003fe1c     LIBCMT:winxfltr.obj
 0002:00000f90       ??_C@_1FK@PGACCAFB@?$AAR?$AA6?$AA0?$AA0?$AA2?$AA?$AN?$AA?6?$AA?9?$AA?5?$AAf?$AAl?$AAo?$AAa?$AAt?$AAi?$AAn?$AAg?$AA?5?$AAp?$AAo?$AAi?$AAn?$AAt?$AA?5?$AAs?$AAu?$AAp?$AAp?$AAo?$AAr?$AAt?$AA?5@ 000000014003ff90     LIBCMT:crt0msg.obj
 0002:00000ff0       ??_C@_1FE@LLNEDJMD@?$AAR?$AA6?$AA0?$AA0?$AA8?$AA?$AN?$AA?6?$AA?9?$AA?5?$AAn?$AAo?$AAt?$AA?5?$AAe?$AAn?$AAo?$AAu?$AAg?$AAh?$AA?5?$AAs?$AAp?$AAa?$AAc?$AAe?$AA?5?$AAf?$AAo?$AAr?$AA?5?$AAa?$AAr@ 000000014003fff0     LIBCMT:crt0msg.obj
 0002:00001050       ??_C@_1FI@HONFMGBI@?$AAR?$AA6?$AA0?$AA0?$AA9?$AA?$AN?$AA?6?$AA?9?$AA?5?$AAn?$AAo?$AAt?$AA?5?$AAe?$AAn?$AAo?$AAu?$AAg?$AAh?$AA?5?$AAs?$AAp?$AAa?$AAc?$AAe?$AA?5?$AAf?$AAo?$AAr?$AA?5?$AAe?$AAn@ 0000000140040050     LIBCMT:crt0msg.obj
 0002:000010b0       ??_C@_1EG@BEHAGFJD@?$AAR?$AA6?$AA0?$AA1?$AA0?$AA?$AN?$AA?6?$AA?9?$AA?5?$AAa?$AAb?$AAo?$AAr?$AAt?$AA?$CI?$AA?$CJ?$AA?5?$AAh?$AAa?$AAs?$AA?5?$AAb?$AAe?$AAe?$AAn?$AA?5?$AAc?$AAa?$AAl?$AAl?$AAe?$AAd@ 00000001400400b0     LIBCMT:crt0msg.obj
 0002:00001100       ??_C@_1FI@LOGNIKDM@?$AAR?$AA6?$AA0?$AA1?$AA6?$AA?$AN?$AA?6?$AA?9?$AA?5?$AAn?$AAo?$AAt?$AA?5?$AAe?$AAn?$AAo?$AAu?$AAg?$AAh?$AA?5?$AAs?$AAp?$AAa?$AAc?$AAe?$AA?5?$AAf?$AAo?$AAr?$AA?5?$AAt?$AAh@ 0000000140040100     LIBCMT:crt0msg.obj
 0002:00001160       ??_C@_1FK@BEOGODMC@?$AAR?$AA6?$AA0?$AA1?$AA7?$AA?$AN?$AA?6?$AA?9?$AA?5?$AAu?$AAn?$AAe?$AAx?$AAp?$AAe?$AAc?$AAt?$AAe?$AAd?$AA?5?$AAm?$AAu?$AAl?$AAt?$AAi?$AAt?$AAh?$AAr?$AAe?$AAa?$AAd?$AA?5@ 0000000140040160     LIBCMT:crt0msg.obj
 0002:000011c0       ??_C@_1EC@JIBHAOPH@?$AAR?$AA6?$AA0?$AA1?$AA8?$AA?$AN?$AA?6?$AA?9?$AA?5?$AAu?$AAn?$AAe?$AAx?$AAp?$AAe?$AAc?$AAt?$AAe?$AAd?$AA?5?$AAh?$AAe?$AAa?$AAp?$AA?5?$AAe?$AAr?$AAr?$AAo?$AAr?$AA?$AN?$AA?6@ 00000001400401c0     LIBCMT:crt0msg.obj
 0002:00001210       ??_C@_1FC@ECHBIFBC@?$AAR?$AA6?$AA0?$AA1?$AA9?$AA?$AN?$AA?6?$AA?9?$AA?5?$AAu?$AAn?$AAa?$AAb?$AAl?$AAe?$AA?5?$AAt?$AAo?$AA?5?$AAo?$AAp?$AAe?$AAn?$AA?5?$AAc?$AAo?$AAn?$AAs?$AAo?$AAl?$AAe?$AA?5@ 0000000140040210     LIBCMT:crt0msg.obj
 0002:00001270       ??_C@_1GK@FHCKBEFA@?$AAR?$AA6?$AA0?$AA2?$AA4?$AA?$AN?$AA?6?$AA?9?$AA?5?$AAn?$AAo?$AAt?$AA?5?$AAe?$AAn?$AAo?$AAu?$AAg?$AAh?$AA?5?$AAs?$AAp?$AAa?$AAc?$AAe?$AA?5?$AAf?$AAo?$AAr?$AA?5?$AA_?$AAo@ 0000000140040270     LIBCMT:crt0msg.obj
 0002:000012e0       ??_C@_1EM@MAADIHMB@?$AAR?$AA6?$AA0?$AA2?$AA5?$AA?$AN?$AA?6?$AA?9?$AA?5?$AAp?$AAu?$AAr?$AAe?$AA?5?$AAv?$AAi?$AAr?$AAt?$AAu?$AAa?$AAl?$AA?5?$AAf?$AAu?$AAn?$AAc?$AAt?$AAi?$AAo?$AAn?$AA?5?$AAc@ 00000001400402e0     LIBCMT:crt0msg.obj
 0002:00001330       ??_C@_1GK@MCAAGJMO@?$AAR?$AA6?$AA0?$AA2?$AA6?$AA?$AN?$AA?6?$AA?9?$AA?5?$AAn?$AAo?$AAt?$AA?5?$AAe?$AAn?$AAo?$AAu?$AAg?$AAh?$AA?5?$AAs?$AAp?$AAa?$AAc?$AAe?$AA?5?$AAf?$AAo?$AAr?$AA?5?$AAs?$AAt@ 0000000140040330     LIBCMT:crt0msg.obj
 0002:000013a0       ??_C@_1GK@MFGOKLAG@?$AAR?$AA6?$AA0?$AA2?$AA7?$AA?$AN?$AA?6?$AA?9?$AA?5?$AAn?$AAo?$AAt?$AA?5?$AAe?$AAn?$AAo?$AAu?$AAg?$AAh?$AA?5?$AAs?$AAp?$AAa?$AAc?$AAe?$AA?5?$AAf?$AAo?$AAr?$AA?5?$AAl?$AAo@ 00000001400403a0     LIBCMT:crt0msg.obj
 0002:00001410       ??_C@_1EK@HHFLMAOL@?$AAR?$AA6?$AA0?$AA2?$AA8?$AA?$AN?$AA?6?$AA?9?$AA?5?$AAu?$AAn?$AAa?$AAb?$AAl?$AAe?$AA?5?$AAt?$AAo?$AA?5?$AAi?$AAn?$AAi?$AAt?$AAi?$AAa?$AAl?$AAi?$AAz?$AAe?$AA?5?$AAh?$AAe@ 0000000140040410     LIBCMT:crt0msg.obj
 0002:00001460       ??_C@_1DO@BMFCDCD@?$AAR?$AA6?$AA0?$AA3?$AA0?$AA?$AN?$AA?6?$AA?9?$AA?5?$AAC?$AAR?$AAT?$AA?5?$AAn?$AAo?$AAt?$AA?5?$AAi?$AAn?$AAi?$AAt?$AAi?$AAa?$AAl?$AAi?$AAz?$AAe?$AAd?$AA?$AN?$AA?6?$AA?$AA@ 0000000140040460     LIBCMT:crt0msg.obj
 0002:000014a0       ??_C@_1MG@ENCOOIDF@?$AAR?$AA6?$AA0?$AA3?$AA1?$AA?$AN?$AA?6?$AA?9?$AA?5?$AAA?$AAt?$AAt?$AAe?$AAm?$AAp?$AAt?$AA?5?$AAt?$AAo?$AA?5?$AAi?$AAn?$AAi?$AAt?$AAi?$AAa?$AAl?$AAi?$AAz?$AAe?$AA?5?$AAt@ 00000001400404a0     LIBCMT:crt0msg.obj
 0002:00001570       ??_C@_1GG@GOPILAJP@?$AAR?$AA6?$AA0?$AA3?$AA2?$AA?$AN?$AA?6?$AA?9?$AA?5?$AAn?$AAo?$AAt?$AA?5?$AAe?$AAn?$AAo?$AAu?$AAg?$AAh?$AA?5?$AAs?$AAp?$AAa?$AAc?$AAe?$AA?5?$AAf?$AAo?$AAr?$AA?5?$AAl?$AAo@ 0000000140040570     LIBCMT:crt0msg.obj
 0002:000015e0       ??_C@_1BOO@KGEDBGAJ@?$AAR?$AA6?$AA0?$AA3?$AA3?$AA?$AN?$AA?6?$AA?9?$AA?5?$AAA?$AAt?$AAt?$AAe?$AAm?$AAp?$AAt?$AA?5?$AAt?$AAo?$AA?5?$AAu?$AAs?$AAe?$AA?5?$AAM?$AAS?$AAI?$AAL?$AA?5?$AAc?$AAo?$AAd@ 00000001400405e0     LIBCMT:crt0msg.obj
 0002:000017d0       ??_C@_1GG@MKFPEKFO@?$AAR?$AA6?$AA0?$AA3?$AA4?$AA?$AN?$AA?6?$AA?9?$AA?5?$AAi?$AAn?$AAc?$AAo?$AAn?$AAs?$AAi?$AAs?$AAt?$AAe?$AAn?$AAt?$AA?5?$AAo?$AAn?$AAe?$AAx?$AAi?$AAt?$AA?5?$AAb?$AAe?$AAg@ 00000001400407d0     LIBCMT:crt0msg.obj
 0002:00001838       ??_C@_1BO@BFCDCGC@?$AAD?$AAO?$AAM?$AAA?$AAI?$AAN?$AA?5?$AAe?$AAr?$AAr?$AAo?$AAr?$AA?$AN?$AA?6?$AA?$AA@ 0000000140040838     LIBCMT:crt0msg.obj
 0002:00001858       ??_C@_1BK@KMOMNAAI@?$AAS?$AAI?$AAN?$AAG?$AA?5?$AAe?$AAr?$AAr?$AAo?$AAr?$AA?$AN?$AA?6?$AA?$AA@ 0000000140040858     LIBCMT:crt0msg.obj
 0002:00001878       ??_C@_1BM@JBBEPPHI@?$AAT?$AAL?$AAO?$AAS?$AAS?$AA?5?$AAe?$AAr?$AAr?$AAo?$AAr?$AA?$AN?$AA?6?$AA?$AA@ 0000000140040878     LIBCMT:crt0msg.obj
 0002:00001894       ??_C@_15JNBOKNOG@?$AA?$AN?$AA?6?$AA?$AA@ 0000000140040894     LIBCMT:crt0msg.obj
 0002:000018a0       ??_C@_1BO@BKOMIGKJ@?$AAr?$AAu?$AAn?$AAt?$AAi?$AAm?$AAe?$AA?5?$AAe?$AAr?$AAr?$AAo?$AAr?$AA?5?$AA?$AA@ 00000001400408a0     LIBCMT:crt0msg.obj
 0002:000018c0       ??_C@_1DE@JNGNBFGO@?$AAR?$AAu?$AAn?$AAt?$AAi?$AAm?$AAe?$AA?5?$AAE?$AAr?$AAr?$AAo?$AAr?$AA?$CB?$AA?6?$AA?6?$AAP?$AAr?$AAo?$AAg?$AAr?$AAa?$AAm?$AA?3?$AA?5?$AA?$AA@ 00000001400408c0     LIBCMT:crt0msg.obj
 0002:000018f8       ??_C@_1CO@EAEJAADC@?$AA?$DM?$AAp?$AAr?$AAo?$AAg?$AAr?$AAa?$AAm?$AA?5?$AAn?$AAa?$AAm?$AAe?$AA?5?$AAu?$AAn?$AAk?$AAn?$AAo?$AAw?$AAn?$AA?$DO?$AA?$AA@ 00000001400408f8     LIBCMT:crt0msg.obj
 0002:00001928       ??_C@_17LGKOMLJ@?$AA?4?$AA?4?$AA?4?$AA?$AA@ 0000000140040928     LIBCMT:crt0msg.obj
 0002:00001930       ??_C@_15IABLJNFO@?$AA?6?$AA?6?$AA?$AA@ 0000000140040930     LIBCMT:crt0msg.obj
 0002:00001940       ??_C@_1EK@MBDPDCGA@?$AAM?$AAi?$AAc?$AAr?$AAo?$AAs?$AAo?$AAf?$AAt?$AA?5?$AAV?$AAi?$AAs?$AAu?$AAa?$AAl?$AA?5?$AAC?$AA?$CL?$AA?$CL?$AA?5?$AAR?$AAu?$AAn?$AAt?$AAi?$AAm?$AAe?$AA?5?$AAL?$AAi?$AAb@ 0000000140040940     LIBCMT:crt0msg.obj
 0002:00001990       ??_C@_1BK@MGMFAEKH@?$AAk?$AAe?$AAr?$AAn?$AAe?$AAl?$AA3?$AA2?$AA?4?$AAd?$AAl?$AAl?$AA?$AA@ 0000000140040990     LIBCMT:winapisupp.obj
 0002:000019b0       ??_C@_08KNHFBNJ@FlsAlloc?$AA@ 00000001400409b0     LIBCMT:winapisupp.obj
 0002:000019c0       ??_C@_07PEJMOBNF@FlsFree?$AA@ 00000001400409c0     LIBCMT:winapisupp.obj
 0002:000019c8       ??_C@_0M@GDNOONDI@FlsGetValue?$AA@ 00000001400409c8     LIBCMT:winapisupp.obj
 0002:000019d8       ??_C@_0M@JCPCPOEF@FlsSetValue?$AA@ 00000001400409d8     LIBCMT:winapisupp.obj
 0002:000019e8       ??_C@_0BM@HCFOFFN@InitializeCriticalSectionEx?$AA@ 00000001400409e8     LIBCMT:winapisupp.obj
 0002:00001a08       ??_C@_0P@DLHPPCNH@CreateEventExW?$AA@ 0000000140040a08     LIBCMT:winapisupp.obj
 0002:00001a18       ??_C@_0BD@KIEEOEEH@CreateSemaphoreExW?$AA@ 0000000140040a18     LIBCMT:winapisupp.obj
 0002:00001a30       ??_C@_0BI@BKLFFAPO@SetThreadStackGuarantee?$AA@ 0000000140040a30     LIBCMT:winapisupp.obj
 0002:00001a48       ??_C@_0BG@OGFAJCKC@CreateThreadpoolTimer?$AA@ 0000000140040a48     LIBCMT:winapisupp.obj
 0002:00001a60       ??_C@_0BD@LPLEMMDI@SetThreadpoolTimer?$AA@ 0000000140040a60     LIBCMT:winapisupp.obj
 0002:00001a78       ??_C@_0CA@FMNJENH@WaitForThreadpoolTimerCallbacks?$AA@ 0000000140040a78     LIBCMT:winapisupp.obj
 0002:00001a98       ??_C@_0BF@DCFCCNOC@CloseThreadpoolTimer?$AA@ 0000000140040a98     LIBCMT:winapisupp.obj
 0002:00001ab0       ??_C@_0BF@FLABGKKM@CreateThreadpoolWait?$AA@ 0000000140040ab0     LIBCMT:winapisupp.obj
 0002:00001ac8       ??_C@_0BC@MGCOHNA@SetThreadpoolWait?$AA@ 0000000140040ac8     LIBCMT:winapisupp.obj
 0002:00001ae0       ??_C@_0BE@OCIOMIMP@CloseThreadpoolWait?$AA@ 0000000140040ae0     LIBCMT:winapisupp.obj
 0002:00001af8       ??_C@_0BJ@LKGHFHBO@FlushProcessWriteBuffers?$AA@ 0000000140040af8     LIBCMT:winapisupp.obj
 0002:00001b18       ??_C@_0BP@KALKKPMO@FreeLibraryWhenCallbackReturns?$AA@ 0000000140040b18     LIBCMT:winapisupp.obj
 0002:00001b38       ??_C@_0BK@DFNBACLA@GetCurrentProcessorNumber?$AA@ 0000000140040b38     LIBCMT:winapisupp.obj
 0002:00001b58       ??_C@_0BP@KHGALBC@GetLogicalProcessorInformation?$AA@ 0000000140040b58     LIBCMT:winapisupp.obj
 0002:00001b78       ??_C@_0BE@FKKLLFLM@CreateSymbolicLinkW?$AA@ 0000000140040b78     LIBCMT:winapisupp.obj
 0002:00001b90       ??_C@_0BJ@OHNKDLIJ@SetDefaultDllDirectories?$AA@ 0000000140040b90     LIBCMT:winapisupp.obj
 0002:00001bb0       ??_C@_0BE@LJANKFHF@EnumSystemLocalesEx?$AA@ 0000000140040bb0     LIBCMT:winapisupp.obj
 0002:00001bc8       ??_C@_0BA@IHGNDAEB@CompareStringEx?$AA@ 0000000140040bc8     LIBCMT:winapisupp.obj
 0002:00001bd8       ??_C@_0BA@EPCJIIPD@GetDateFormatEx?$AA@ 0000000140040bd8     LIBCMT:winapisupp.obj
 0002:00001be8       ??_C@_0BA@ONOKGCMP@GetLocaleInfoEx?$AA@ 0000000140040be8     LIBCMT:winapisupp.obj
 0002:00001bf8       ??_C@_0BA@CIJJKCJJ@GetTimeFormatEx?$AA@ 0000000140040bf8     LIBCMT:winapisupp.obj
 0002:00001c08       ??_C@_0BJ@PBCCBIPI@GetUserDefaultLocaleName?$AA@ 0000000140040c08     LIBCMT:winapisupp.obj
 0002:00001c28       ??_C@_0BC@CELBKLLA@IsValidLocaleName?$AA@ 0000000140040c28     LIBCMT:winapisupp.obj
 0002:00001c40       ??_C@_0O@KKBNKAPF@LCMapStringEx?$AA@ 0000000140040c40     LIBCMT:winapisupp.obj
 0002:00001c50       ??_C@_0BE@JOGNEJCI@GetCurrentPackageId?$AA@ 0000000140040c50     LIBCMT:winapisupp.obj
 0002:00001c68       ??_C@_0P@CDHHOHKP@GetTickCount64?$AA@ 0000000140040c68     LIBCMT:winapisupp.obj
 0002:00001c78       ??_C@_0BO@KPCLFDJJ@GetFileInformationByHandleExW?$AA@ 0000000140040c78     LIBCMT:winapisupp.obj
 0002:00001c98       ??_C@_0BM@MHIDLABK@SetFileInformationByHandleW?$AA@ 0000000140040c98     LIBCMT:winapisupp.obj
 0002:00001cc0       ??_7exception@std@@6B@     0000000140040cc0     LIBCMT:stdexcpt.obj
 0002:00001cd0       ??_C@_0BC@EOODALEL@Unknown?5exception?$AA@ 0000000140040cd0     LIBCMT:stdexcpt.obj
 0002:00001d50       ??_C@_1M@HPNHIDJI@?$AAj?$AAa?$AA?9?$AAJ?$AAP?$AA?$AA@ 0000000140040d50     LIBCMT:mbctype.obj
 0002:00001d60       ??_C@_1M@BIBDDEMK@?$AAz?$AAh?$AA?9?$AAC?$AAN?$AA?$AA@ 0000000140040d60     LIBCMT:mbctype.obj
 0002:00001d70       ??_C@_1M@JLOOOEGK@?$AAk?$AAo?$AA?9?$AAK?$AAR?$AA?$AA@ 0000000140040d70     LIBCMT:mbctype.obj
 0002:00001d80       ??_C@_1M@CLNBBOPM@?$AAz?$AAh?$AA?9?$AAT?$AAW?$AA?$AA@ 0000000140040d80     LIBCMT:mbctype.obj
 0002:00001d90       __dnames                   0000000140040d90     LIBCMT:timeset.obj
 0002:00001da8       __mnames                   0000000140040da8     LIBCMT:timeset.obj
 0002:00001dd0       ??_C@_02CLFPBFFP@TZ?$AA@   0000000140040dd0     LIBCMT:tzset.obj
 0002:00001dd4       ??_C@_03KOEHGMDN@Sun?$AA@  0000000140040dd4     LIBCMT:nlsdata.obj
 0002:00001dd8       ??_C@_03PDAGKDH@Mon?$AA@   0000000140040dd8     LIBCMT:nlsdata.obj
 0002:00001ddc       ??_C@_03NAGEINEP@Tue?$AA@  0000000140040ddc     LIBCMT:nlsdata.obj
 0002:00001de0       ??_C@_03MHOMLAJA@Wed?$AA@  0000000140040de0     LIBCMT:nlsdata.obj
 0002:00001de4       ??_C@_03IOFIKPDN@Thu?$AA@  0000000140040de4     LIBCMT:nlsdata.obj
 0002:00001de8       ??_C@_03IDIOELNC@Fri?$AA@  0000000140040de8     LIBCMT:nlsdata.obj
 0002:00001dec       ??_C@_03FEFJNEK@Sat?$AA@   0000000140040dec     LIBCMT:nlsdata.obj
 0002:00001df0       ??_C@_06OOPIFAJ@Sunday?$AA@ 0000000140040df0     LIBCMT:nlsdata.obj
 0002:00001df8       ??_C@_06JLEDEDGH@Monday?$AA@ 0000000140040df8     LIBCMT:nlsdata.obj
 0002:00001e00       ??_C@_07BAAGCFCM@Tuesday?$AA@ 0000000140040e00     LIBCMT:nlsdata.obj
 0002:00001e08       ??_C@_09DLIGFAKA@Wednesday?$AA@ 0000000140040e08     LIBCMT:nlsdata.obj
 0002:00001e18       ??_C@_08HACCIKIA@Thursday?$AA@ 0000000140040e18     LIBCMT:nlsdata.obj
 0002:00001e24       ??_C@_06JECMNKMI@Friday?$AA@ 0000000140040e24     LIBCMT:nlsdata.obj
 0002:00001e30       ??_C@_08INBOOONO@Saturday?$AA@ 0000000140040e30     LIBCMT:nlsdata.obj
 0002:00001e3c       ??_C@_03JIHJHPIE@Jan?$AA@  0000000140040e3c     LIBCMT:nlsdata.obj
 0002:00001e40       ??_C@_03HJBDCHOM@Feb?$AA@  0000000140040e40     LIBCMT:nlsdata.obj
 0002:00001e44       ??_C@_03ODNJBKGA@Mar?$AA@  0000000140040e44     LIBCMT:nlsdata.obj
 0002:00001e48       ??_C@_03LEOLGMJP@Apr?$AA@  0000000140040e48     LIBCMT:nlsdata.obj
 0002:00001e4c       ??_C@_03CNMDKL@May?$AA@    0000000140040e4c     LIBCMT:nlsdata.obj
 0002:00001e50       ??_C@_03IDFGHECI@Jun?$AA@  0000000140040e50     LIBCMT:nlsdata.obj
 0002:00001e54       ??_C@_03LBGABGKK@Jul?$AA@  0000000140040e54     LIBCMT:nlsdata.obj
 0002:00001e58       ??_C@_03IFJFEIGA@Aug?$AA@  0000000140040e58     LIBCMT:nlsdata.obj
 0002:00001e5c       ??_C@_03GGCAPAJC@Sep?$AA@  0000000140040e5c     LIBCMT:nlsdata.obj
 0002:00001e60       ??_C@_03BMAOKBAD@Oct?$AA@  0000000140040e60     LIBCMT:nlsdata.obj
 0002:00001e64       ??_C@_03JPJOFNIA@Nov?$AA@  0000000140040e64     LIBCMT:nlsdata.obj
 0002:00001e68       ??_C@_03MKABNOCG@Dec?$AA@  0000000140040e68     LIBCMT:nlsdata.obj
 0002:00001e70       ??_C@_07CGJPFGJA@January?$AA@ 0000000140040e70     LIBCMT:nlsdata.obj
 0002:00001e78       ??_C@_08GNJGEPFN@February?$AA@ 0000000140040e78     LIBCMT:nlsdata.obj
 0002:00001e84       ??_C@_05HPCKOFNC@March?$AA@ 0000000140040e84     LIBCMT:nlsdata.obj
 0002:00001e8c       ??_C@_05DMJDNLEJ@April?$AA@ 0000000140040e8c     LIBCMT:nlsdata.obj
 0002:00001e94       ??_C@_04CNLMGBGM@June?$AA@ 0000000140040e94     LIBCMT:nlsdata.obj
 0002:00001e9c       ??_C@_04MIEPOIFP@July?$AA@ 0000000140040e9c     LIBCMT:nlsdata.obj
 0002:00001ea4       ??_C@_06LBBHFDDG@August?$AA@ 0000000140040ea4     LIBCMT:nlsdata.obj
 0002:00001eb0       ??_C@_09BHHEALKD@September?$AA@ 0000000140040eb0     LIBCMT:nlsdata.obj
 0002:00001ec0       ??_C@_07JJNFCEND@October?$AA@ 0000000140040ec0     LIBCMT:nlsdata.obj
 0002:00001ec8       ??_C@_08HCHEGEOA@November?$AA@ 0000000140040ec8     LIBCMT:nlsdata.obj
 0002:00001ed8       ??_C@_08EDHMEBNP@December?$AA@ 0000000140040ed8     LIBCMT:nlsdata.obj
 0002:00001ee4       ??_C@_02DEDBPAFC@AM?$AA@   0000000140040ee4     LIBCMT:nlsdata.obj
 0002:00001ee8       ??_C@_02CJNFDJBF@PM?$AA@   0000000140040ee8     LIBCMT:nlsdata.obj
 0002:00001ef0       ??_C@_08BPBNCDIB@MM?1dd?1yy?$AA@ 0000000140040ef0     LIBCMT:nlsdata.obj
 0002:00001f00       ??_C@_0BE@CKGJFCPC@dddd?0?5MMMM?5dd?0?5yyyy?$AA@ 0000000140040f00     LIBCMT:nlsdata.obj
 0002:00001f18       ??_C@_08JCCMCCIL@HH?3mm?3ss?$AA@ 0000000140040f18     LIBCMT:nlsdata.obj
 0002:00001f28       ??_C@_17MBGCMIPB@?$AAS?$AAu?$AAn?$AA?$AA@ 0000000140040f28     LIBCMT:nlsdata.obj
 0002:00001f30       ??_C@_17KBOMKBF@?$AAM?$AAo?$AAn?$AA?$AA@ 0000000140040f30     LIBCMT:nlsdata.obj
 0002:00001f38       ??_C@_17BMKGEGOJ@?$AAT?$AAu?$AAe?$AA?$AA@ 0000000140040f38     LIBCMT:nlsdata.obj
 0002:00001f40       ??_C@_17CJEDCEPE@?$AAW?$AAe?$AAd?$AA?$AA@ 0000000140040f40     LIBCMT:nlsdata.obj
 0002:00001f48       ??_C@_17PDPHAADD@?$AAT?$AAh?$AAu?$AA?$AA@ 0000000140040f48     LIBCMT:nlsdata.obj
 0002:00001f50       ??_C@_17HFOLPPLP@?$AAF?$AAr?$AAi?$AA?$AA@ 0000000140040f50     LIBCMT:nlsdata.obj
 0002:00001f58       ??_C@_17GGIBDPIH@?$AAS?$AAa?$AAt?$AA?$AA@ 0000000140040f58     LIBCMT:nlsdata.obj
 0002:00001f60       ??_C@_1O@IHNHDHPB@?$AAS?$AAu?$AAn?$AAd?$AAa?$AAy?$AA?$AA@ 0000000140040f60     LIBCMT:nlsdata.obj
 0002:00001f70       ??_C@_1O@MMNBFLIA@?$AAM?$AAo?$AAn?$AAd?$AAa?$AAy?$AA?$AA@ 0000000140040f70     LIBCMT:nlsdata.obj
 0002:00001f80       ??_C@_1BA@ENFBFFEK@?$AAT?$AAu?$AAe?$AAs?$AAd?$AAa?$AAy?$AA?$AA@ 0000000140040f80     LIBCMT:nlsdata.obj
 0002:00001f90       ??_C@_1BE@EBOGMDOH@?$AAW?$AAe?$AAd?$AAn?$AAe?$AAs?$AAd?$AAa?$AAy?$AA?$AA@ 0000000140040f90     LIBCMT:nlsdata.obj
 0002:00001fa8       ??_C@_1BC@HHMNLIHE@?$AAT?$AAh?$AAu?$AAr?$AAs?$AAd?$AAa?$AAy?$AA?$AA@ 0000000140040fa8     LIBCMT:nlsdata.obj
 0002:00001fc0       ??_C@_1O@PDICJHAG@?$AAF?$AAr?$AAi?$AAd?$AAa?$AAy?$AA?$AA@ 0000000140040fc0     LIBCMT:nlsdata.obj
 0002:00001fd0       ??_C@_1BC@ENMNNPAJ@?$AAS?$AAa?$AAt?$AAu?$AAr?$AAd?$AAa?$AAy?$AA?$AA@ 0000000140040fd0     LIBCMT:nlsdata.obj
 0002:00001fe8       ??_C@_17DKNBKCHM@?$AAJ?$AAa?$AAn?$AA?$AA@ 0000000140040fe8     LIBCMT:nlsdata.obj
 0002:00001ff0       ??_C@_17LMDJEKJN@?$AAF?$AAe?$AAb?$AA?$AA@ 0000000140040ff0     LIBCMT:nlsdata.obj
 0002:00001ff8       ??_C@_17CKNLEDEC@?$AAM?$AAa?$AAr?$AA?$AA@ 0000000140040ff8     LIBCMT:nlsdata.obj
 0002:00002000       ??_C@_17LFPOIHDD@?$AAA?$AAp?$AAr?$AA?$AA@ 0000000140041000     LIBCMT:nlsdata.obj
 0002:00002008       ??_C@_17PNNKMEED@?$AAM?$AAa?$AAy?$AA?$AA@ 0000000140041008     LIBCMT:nlsdata.obj
 0002:00002010       ??_C@_17KCJGOCPB@?$AAJ?$AAu?$AAn?$AA?$AA@ 0000000140041010     LIBCMT:nlsdata.obj
 0002:00002018       ??_C@_17IJPCKHK@?$AAJ?$AAu?$AAl?$AA?$AA@ 0000000140041018     LIBCMT:nlsdata.obj
 0002:00002020       ??_C@_17ICPELBCN@?$AAA?$AAu?$AAg?$AA?$AA@ 0000000140041020     LIBCMT:nlsdata.obj
 0002:00002028       ??_C@_17HCHCOKMG@?$AAS?$AAe?$AAp?$AA?$AA@ 0000000140041028     LIBCMT:nlsdata.obj
 0002:00002030       ??_C@_17FNLKOI@?$AAO?$AAc?$AAt?$AA?$AA@ 0000000140041030     LIBCMT:nlsdata.obj
 0002:00002038       ??_C@_17BBDMLCIG@?$AAN?$AAo?$AAv?$AA?$AA@ 0000000140041038     LIBCMT:nlsdata.obj
 0002:00002040       ??_C@_17EGKACKIF@?$AAD?$AAe?$AAc?$AA?$AA@ 0000000140041040     LIBCMT:nlsdata.obj
 0002:00002048       ??_C@_1BA@EFMEIEBA@?$AAJ?$AAa?$AAn?$AAu?$AAa?$AAr?$AAy?$AA?$AA@ 0000000140041048     LIBCMT:nlsdata.obj
 0002:00002058       ??_C@_1BC@JGDDFFAM@?$AAF?$AAe?$AAb?$AAr?$AAu?$AAa?$AAr?$AAy?$AA?$AA@ 0000000140041058     LIBCMT:nlsdata.obj
 0002:00002070       ??_C@_1M@IKEENEDF@?$AAM?$AAa?$AAr?$AAc?$AAh?$AA?$AA@ 0000000140041070     LIBCMT:nlsdata.obj
 0002:00002080       ??_C@_1M@GJNLMHFD@?$AAA?$AAp?$AAr?$AAi?$AAl?$AA?$AA@ 0000000140041080     LIBCMT:nlsdata.obj
 0002:00002090       ??_C@_19EPFLPGAP@?$AAJ?$AAu?$AAn?$AAe?$AA?$AA@ 0000000140041090     LIBCMT:nlsdata.obj
 0002:000020a0       ??_C@_19BIFMLPCD@?$AAJ?$AAu?$AAl?$AAy?$AA?$AA@ 00000001400410a0     LIBCMT:nlsdata.obj
 0002:000020b0       ??_C@_1O@PAHLKOAC@?$AAA?$AAu?$AAg?$AAu?$AAs?$AAt?$AA?$AA@ 00000001400410b0     LIBCMT:nlsdata.obj
 0002:000020c0       ??_C@_1BE@DKAAMBJL@?$AAS?$AAe?$AAp?$AAt?$AAe?$AAm?$AAb?$AAe?$AAr?$AA?$AA@ 00000001400410c0     LIBCMT:nlsdata.obj
 0002:000020d8       ??_C@_1BA@EPANDLNG@?$AAO?$AAc?$AAt?$AAo?$AAb?$AAe?$AAr?$AA?$AA@ 00000001400410d8     LIBCMT:nlsdata.obj
 0002:000020e8       ??_C@_1BC@BGLIFPF@?$AAN?$AAo?$AAv?$AAe?$AAm?$AAb?$AAe?$AAr?$AA?$AA@ 00000001400410e8     LIBCMT:nlsdata.obj
 0002:00002100       ??_C@_1BC@FEMKIFH@?$AAD?$AAe?$AAc?$AAe?$AAm?$AAb?$AAe?$AAr?$AA?$AA@ 0000000140041100     LIBCMT:nlsdata.obj
 0002:00002114       ??_C@_15ODEHAHHF@?$AAA?$AAM?$AA?$AA@ 0000000140041114     LIBCMT:nlsdata.obj
 0002:0000211c       ??_C@_15CLMNNGEL@?$AAP?$AAM?$AA?$AA@ 000000014004111c     LIBCMT:nlsdata.obj
 0002:00002128       ??_C@_1BC@IEBCMHCM@?$AAM?$AAM?$AA?1?$AAd?$AAd?$AA?1?$AAy?$AAy?$AA?$AA@ 0000000140041128     LIBCMT:nlsdata.obj
 0002:00002140       ??_C@_1CI@KNAKOEBC@?$AAd?$AAd?$AAd?$AAd?$AA?0?$AA?5?$AAM?$AAM?$AAM?$AAM?$AA?5?$AAd?$AAd?$AA?0?$AA?5?$AAy?$AAy?$AAy?$AAy?$AA?$AA@ 0000000140041140     LIBCMT:nlsdata.obj
 0002:00002168       ??_C@_1BC@GDGBMEMK@?$AAH?$AAH?$AA?3?$AAm?$AAm?$AA?3?$AAs?$AAs?$AA?$AA@ 0000000140041168     LIBCMT:nlsdata.obj
 0002:00002180       ??_C@_1M@BMHNFIME@?$AAe?$AAn?$AA?9?$AAU?$AAS?$AA?$AA@ 0000000140041180     LIBCMT:nlsdata.obj
 0002:00002190       ??_C@_1BG@GOEBHBDC@?$AAU?$AAS?$AAE?$AAR?$AA3?$AA2?$AA?4?$AAD?$AAL?$AAL?$AA?$AA@ 0000000140041190     LIBCMT:crtmboxw.obj
 0002:000021a8       ??_C@_0M@DLDCCGNP@MessageBoxW?$AA@ 00000001400411a8     LIBCMT:crtmboxw.obj
 0002:000021b8       ??_C@_0BA@HNOPNCHB@GetActiveWindow?$AA@ 00000001400411b8     LIBCMT:crtmboxw.obj
 0002:000021c8       ??_C@_0BD@HHGDFDBJ@GetLastActivePopup?$AA@ 00000001400411c8     LIBCMT:crtmboxw.obj
 0002:000021e0       ??_C@_0BK@DEKFELLI@GetUserObjectInformationW?$AA@ 00000001400411e0     LIBCMT:crtmboxw.obj
 0002:00002200       ??_C@_0BI@DFKBFLJE@GetProcessWindowStation?$AA@ 0000000140041200     LIBCMT:crtmboxw.obj
 0002:00002538       ??_C@_08EHJDFFNH@__based?$CI?$AA@ 0000000140041538     LIBCMT:undname.obj
 0002:00002548       ??_C@_07KOLFKCDI@__cdecl?$AA@ 0000000140041548     LIBCMT:undname.obj
 0002:00002550       ??_C@_08GHMPAG@__pascal?$AA@ 0000000140041550     LIBCMT:undname.obj
 0002:00002560       ??_C@_09IFJBGAPI@__stdcall?$AA@ 0000000140041560     LIBCMT:undname.obj
 0002:00002570       ??_C@_0L@NPHFGOKO@__thiscall?$AA@ 0000000140041570     LIBCMT:undname.obj
 0002:00002580       ??_C@_0L@JMKHOMEK@__fastcall?$AA@ 0000000140041580     LIBCMT:undname.obj
 0002:00002590       ??_C@_0N@BCKKPABJ@__vectorcall?$AA@ 0000000140041590     LIBCMT:undname.obj
 0002:000025a0       ??_C@_09HIJEGCPM@__clrcall?$AA@ 00000001400415a0     LIBCMT:undname.obj
 0002:000025ac       ??_C@_06GHPCKEAG@__eabi?$AA@ 00000001400415ac     LIBCMT:undname.obj
 0002:000025b8       ??_C@_07JOMMBBKO@__ptr64?$AA@ 00000001400415b8     LIBCMT:undname.obj
 0002:000025c0       ??_C@_0L@PILCLIHE@__restrict?$AA@ 00000001400415c0     LIBCMT:undname.obj
 0002:000025d0       ??_C@_0M@GFIIJFMG@__unaligned?$AA@ 00000001400415d0     LIBCMT:undname.obj
 0002:000025e0       ??_C@_09DHDLOLLB@restrict?$CI?$AA@ 00000001400415e0     LIBCMT:undname.obj
 0002:000025ea       ??_C@_00CNPNBAHC@?$AA@     00000001400415ea     LIBCMT:undname.obj
 0002:000025ec       ??_C@_04NIHEBCM@?5new?$AA@ 00000001400415ec     LIBCMT:undname.obj
 0002:000025f8       ??_C@_07FPCDHGMM@?5delete?$AA@ 00000001400415f8     LIBCMT:undname.obj
 0002:00002600       ??_C@_01NEMOKFLO@?$DN?$AA@ 0000000140041600     LIBCMT:undname.obj
 0002:00002604       ??_C@_02GPIOPFAK@?$DO?$DO?$AA@ 0000000140041604     LIBCMT:undname.obj
 0002:00002608       ??_C@_02FODMEDOG@?$DM?$DM?$AA@ 0000000140041608     LIBCMT:undname.obj
 0002:0000260c       ??_C@_01DCLJPIOD@?$CB?$AA@ 000000014004160c     LIBCMT:undname.obj
 0002:00002610       ??_C@_02EGOFBIJA@?$DN?$DN?$AA@ 0000000140041610     LIBCMT:undname.obj
 0002:00002614       ??_C@_02FDNJECIE@?$CB?$DN?$AA@ 0000000140041614     LIBCMT:undname.obj
 0002:00002618       ??_C@_02GPECMEKF@?$FL?$FN?$AA@ 0000000140041618     LIBCMT:undname.obj
 0002:00002620       ??_C@_08LHJFAFGD@operator?$AA@ 0000000140041620     LIBCMT:undname.obj
 0002:0000262c       ??_C@_02HBOOOICD@?9?$DO?$AA@ 000000014004162c     LIBCMT:undname.obj
 0002:00002630       ??_C@_01NBENCBCI@?$CK?$AA@ 0000000140041630     LIBCMT:undname.obj
 0002:00002634       ??_C@_02ECNGHCIF@?$CL?$CL?$AA@ 0000000140041634     LIBCMT:undname.obj
 0002:00002638       ??_C@_02BAABKJLB@?9?9?$AA@ 0000000140041638     LIBCMT:undname.obj
 0002:0000263c       ??_C@_01JOAMLHOP@?9?$AA@   000000014004163c     LIBCMT:undname.obj
 0002:00002640       ??_C@_01MIFGBAGJ@?$CL?$AA@ 0000000140041640     LIBCMT:undname.obj
 0002:00002644       ??_C@_01HNPIGOCE@?$CG?$AA@ 0000000140041644     LIBCMT:undname.obj
 0002:00002648       ??_C@_03MNHNFDLC@?9?$DO?$CK?$AA@ 0000000140041648     LIBCMT:undname.obj
 0002:0000264c       ??_C@_01KMDKNFGN@?1?$AA@   000000014004164c     LIBCMT:undname.obj
 0002:00002650       ??_C@_01FGNFDNOH@?$CF?$AA@ 0000000140041650     LIBCMT:undname.obj
 0002:00002654       ??_C@_01MNNFJEPP@?$DM?$AA@ 0000000140041654     LIBCMT:undname.obj
 0002:00002658       ??_C@_02EHCHHCKH@?$DM?$DN?$AA@ 0000000140041658     LIBCMT:undname.obj
 0002:0000265c       ??_C@_01PPODPGHN@?$DO?$AA@ 000000014004165c     LIBCMT:undname.obj
 0002:00002660       ??_C@_02EEKDKGMJ@?$DO?$DN?$AA@ 0000000140041660     LIBCMT:undname.obj
 0002:00002664       ??_C@_01IHBHIGKO@?0?$AA@   0000000140041664     LIBCMT:undname.obj
 0002:00002668       ??_C@_02HCKGKOFO@?$CI?$CJ?$AA@ 0000000140041668     LIBCMT:undname.obj
 0002:0000266c       ??_C@_01PJKLJHI@?$HO?$AA@  000000014004166c     LIBCMT:undname.obj
 0002:00002670       ??_C@_01JKBOJNNK@?$FO?$AA@ 0000000140041670     LIBCMT:undname.obj
 0002:00002674       ??_C@_01DNKMNLPK@?$HM?$AA@ 0000000140041674     LIBCMT:undname.obj
 0002:00002678       ??_C@_02PPKAJPJL@?$CG?$CG?$AA@ 0000000140041678     LIBCMT:undname.obj
 0002:0000267c       ??_C@_02NONPIBCD@?$HM?$HM?$AA@ 000000014004167c     LIBCMT:undname.obj
 0002:00002680       ??_C@_02FPIMKNGF@?$CK?$DN?$AA@ 0000000140041680     LIBCMT:undname.obj
 0002:00002684       ??_C@_02FOEOMHFC@?$CL?$DN?$AA@ 0000000140041684     LIBCMT:undname.obj
 0002:00002688       ??_C@_02FKMDLLOA@?9?$DN?$AA@ 0000000140041688     LIBCMT:undname.obj
 0002:0000268c       ??_C@_02FJEHGPIO@?1?$DN?$AA@ 000000014004168c     LIBCMT:undname.obj
 0002:00002690       ??_C@_02FENAOKFI@?$CF?$DN?$AA@ 0000000140041690     LIBCMT:undname.obj
 0002:00002694       ??_C@_03IKFCCPFF@?$DO?$DO?$DN?$AA@ 0000000140041694     LIBCMT:undname.obj
 0002:00002698       ??_C@_03CDNPDDLA@?$DM?$DM?$DN?$AA@ 0000000140041698     LIBCMT:undname.obj
 0002:0000269c       ??_C@_02FGJGFEAB@?$CG?$DN?$AA@ 000000014004169c     LIBCMT:undname.obj
 0002:000026a0       ??_C@_02DHLNPPGH@?$HM?$DN?$AA@ 00000001400416a0     LIBCMT:undname.obj
 0002:000026a4       ??_C@_02MHEGNOJ@?$FO?$DN?$AA@ 00000001400416a4     LIBCMT:undname.obj
 0002:000026a8       ??_C@_09IFPLHPGF@?$GAvftable?8?$AA@ 00000001400416a8     LIBCMT:undname.obj
 0002:000026b8       ??_C@_09BLBHBJP@?$GAvbtable?8?$AA@ 00000001400416b8     LIBCMT:undname.obj
 0002:000026c8       ??_C@_07FEEIOKP@?$GAvcall?8?$AA@ 00000001400416c8     LIBCMT:undname.obj
 0002:000026d0       ??_C@_08LLFFHHDJ@?$GAtypeof?8?$AA@ 00000001400416d0     LIBCMT:undname.obj
 0002:000026e0       ??_C@_0BF@KDPPACIK@?$GAlocal?5static?5guard?8?$AA@ 00000001400416e0     LIBCMT:undname.obj
 0002:000026f8       ??_C@_08OBABFOLI@?$GAstring?8?$AA@ 00000001400416f8     LIBCMT:undname.obj
 0002:00002708       ??_C@_0BD@JDLKDPAB@?$GAvbase?5destructor?8?$AA@ 0000000140041708     LIBCMT:undname.obj
 0002:00002720       ??_C@_0BN@DEGPLNFK@?$GAvector?5deleting?5destructor?8?$AA@ 0000000140041720     LIBCMT:undname.obj
 0002:00002740       ??_C@_0BO@OBMKPJIG@?$GAdefault?5constructor?5closure?8?$AA@ 0000000140041740     LIBCMT:undname.obj
 0002:00002760       ??_C@_0BN@IMDCHIKM@?$GAscalar?5deleting?5destructor?8?$AA@ 0000000140041760     LIBCMT:undname.obj
 0002:00002780       ??_C@_0BO@PFGOCPJJ@?$GAvector?5constructor?5iterator?8?$AA@ 0000000140041780     LIBCMT:undname.obj
 0002:000027a0       ??_C@_0BN@LFPFMEDL@?$GAvector?5destructor?5iterator?8?$AA@ 00000001400417a0     LIBCMT:undname.obj
 0002:000027c0       ??_C@_0CE@IKBNEHA@?$GAvector?5vbase?5constructor?5iterat@ 00000001400417c0     LIBCMT:undname.obj
 0002:000027e8       ??_C@_0BL@NILFHHPC@?$GAvirtual?5displacement?5map?8?$AA@ 00000001400417e8     LIBCMT:undname.obj
 0002:00002808       ??_C@_0CB@JONCMFFK@?$GAeh?5vector?5constructor?5iterator?8@ 0000000140041808     LIBCMT:undname.obj
 0002:00002830       ??_C@_0CA@GCEOPDGL@?$GAeh?5vector?5destructor?5iterator?8?$AA@ 0000000140041830     LIBCMT:undname.obj
 0002:00002850       ??_C@_0CH@OOJPLCPH@?$GAeh?5vector?5vbase?5constructor?5ite@ 0000000140041850     LIBCMT:undname.obj
 0002:00002878       ??_C@_0BL@LLKPOHJI@?$GAcopy?5constructor?5closure?8?$AA@ 0000000140041878     LIBCMT:undname.obj
 0002:00002898       ??_C@_0BA@KBCDOMBN@?$GAudt?5returning?8?$AA@ 0000000140041898     LIBCMT:undname.obj
 0002:000028a8       ??_C@_03KLGMFNMG@?$GAEH?$AA@ 00000001400418a8     LIBCMT:undname.obj
 0002:000028ac       ??_C@_05KHLCHHI@?$GARTTI?$AA@ 00000001400418ac     LIBCMT:undname.obj
 0002:000028b8       ??_C@_0BA@KKLDJDLB@?$GAlocal?5vftable?8?$AA@ 00000001400418b8     LIBCMT:undname.obj
 0002:000028c8       ??_C@_0CE@IIHCMGGL@?$GAlocal?5vftable?5constructor?5closu@ 00000001400418c8     LIBCMT:undname.obj
 0002:000028ec       ??_C@_06FHBGPFGH@?5new?$FL?$FN?$AA@ 00000001400418ec     LIBCMT:undname.obj
 0002:000028f8       ??_C@_09LBNFPBCA@?5delete?$FL?$FN?$AA@ 00000001400418f8     LIBCMT:undname.obj
 0002:00002908       ??_C@_0P@HJKNJFNN@?$GAomni?5callsig?8?$AA@ 0000000140041908     LIBCMT:undname.obj
 0002:00002918       ??_C@_0BL@CNOONJFP@?$GAplacement?5delete?5closure?8?$AA@ 0000000140041918     LIBCMT:undname.obj
 0002:00002938       ??_C@_0BN@CKNJLHMB@?$GAplacement?5delete?$FL?$FN?5closure?8?$AA@ 0000000140041938     LIBCMT:undname.obj
 0002:00002958       ??_C@_0CG@CFDHKGGD@?$GAmanaged?5vector?5constructor?5iter@ 0000000140041958     LIBCMT:undname.obj
 0002:00002980       ??_C@_0CF@IMGKMJNO@?$GAmanaged?5vector?5destructor?5itera@ 0000000140041980     LIBCMT:undname.obj
 0002:000029a8       ??_C@_0CG@HLDDJMAG@?$GAeh?5vector?5copy?5constructor?5iter@ 00000001400419a8     LIBCMT:undname.obj
 0002:000029d0       ??_C@_0CM@FCBBDIGB@?$GAeh?5vector?5vbase?5copy?5constructo@ 00000001400419d0     LIBCMT:undname.obj
 0002:00002a00       ??_C@_0BL@CLIPGLGB@?$GAdynamic?5initializer?5for?5?8?$AA@ 0000000140041a00     LIBCMT:undname.obj
 0002:00002a20       ??_C@_0CB@PDBIFEP@?$GAdynamic?5atexit?5destructor?5for?5?8@ 0000000140041a20     LIBCMT:undname.obj
 0002:00002a48       ??_C@_0CD@CGAJBKEJ@?$GAvector?5copy?5constructor?5iterato@ 0000000140041a48     LIBCMT:undname.obj
 0002:00002a70       ??_C@_0CJ@GJELGAMM@?$GAvector?5vbase?5copy?5constructor?5i@ 0000000140041a70     LIBCMT:undname.obj
 0002:00002aa0       ??_C@_0CL@FGIJHLCE@?$GAmanaged?5vector?5copy?5constructor@ 0000000140041aa0     LIBCMT:undname.obj
 0002:00002ad0       ??_C@_0BM@PMGGMLDN@?$GAlocal?5static?5thread?5guard?8?$AA@ 0000000140041ad0     LIBCMT:undname.obj
 0002:00002af0       ??_C@_0BC@DAFEJGAK@?5Type?5Descriptor?8?$AA@ 0000000140041af0     LIBCMT:undname.obj
 0002:00002b08       ??_C@_0BM@LDKODKLH@?5Base?5Class?5Descriptor?5at?5?$CI?$AA@ 0000000140041b08     LIBCMT:undname.obj
 0002:00002b28       ??_C@_0BD@LGICGFMM@?5Base?5Class?5Array?8?$AA@ 0000000140041b28     LIBCMT:undname.obj
 0002:00002b40       ??_C@_0BN@MECKDCOJ@?5Class?5Hierarchy?5Descriptor?8?$AA@ 0000000140041b40     LIBCMT:undname.obj
 0002:00002b60       ??_C@_0BK@CFCOFLF@?5Complete?5Object?5Locator?8?$AA@ 0000000140041b60     LIBCMT:undname.obj
 0002:00002b80       LcidToLocaleNameTable      0000000140041b80     LIBCMT:winapinls.obj
 0002:000039c0       LocaleNameToIndexTable     00000001400429c0     LIBCMT:winapinls.obj
 0002:00004800       ??_C@_15EMKDOKLE@?$AAa?$AAr?$AA?$AA@ 0000000140043800     LIBCMT:winapinls.obj
 0002:00004808       ??_C@_15KNPADPLH@?$AAb?$AAg?$AA?$AA@ 0000000140043808     LIBCMT:winapinls.obj
 0002:00004810       ??_C@_15EDMHLDMO@?$AAc?$AAa?$AA?$AA@ 0000000140043810     LIBCMT:winapinls.obj
 0002:00004818       ??_C@_1O@BPEAJADD@?$AAz?$AAh?$AA?9?$AAC?$AAH?$AAS?$AA?$AA@ 0000000140043818     LIBCMT:winapinls.obj
 0002:00004828       ??_C@_15LJNHCMNK@?$AAc?$AAs?$AA?$AA@ 0000000140043828     LIBCMT:winapinls.obj
 0002:00004830       ??_C@_15FOMCIDHG@?$AAd?$AAa?$AA?$AA@ 0000000140043830     LIBCMT:winapinls.obj
 0002:00004838       ??_C@_15NBKABECB@?$AAd?$AAe?$AA?$AA@ 0000000140043838     LIBCMT:winapinls.obj
 0002:00004840       ??_C@_15GHPEIIAO@?$AAe?$AAl?$AA?$AA@ 0000000140043840     LIBCMT:winapinls.obj
 0002:00004848       ??_C@_15MNPNEAIF@?$AAe?$AAn?$AA?$AA@ 0000000140043848     LIBCMT:winapinls.obj
 0002:00004850       ??_C@_15GPIOMPMH@?$AAe?$AAs?$AA?$AA@ 0000000140043850     LIBCMT:winapinls.obj
 0002:00004858       ??_C@_15NGLOAKJC@?$AAf?$AAi?$AA?$AA@ 0000000140043858     LIBCMT:winapinls.obj
 0002:00004860       ??_C@_15FBKGNKAM@?$AAf?$AAr?$AA?$AA@ 0000000140043860     LIBCMT:winapinls.obj
 0002:00004868       ??_C@_15KGGCNEFK@?$AAh?$AAe?$AA?$AA@ 0000000140043868     LIBCMT:winapinls.obj
 0002:00004870       ??_C@_15PGHLIDMF@?$AAh?$AAu?$AA?$AA@ 0000000140043870     LIBCMT:winapinls.obj
 0002:00004878       ??_C@_15BIEMAPLM@?$AAi?$AAs?$AA?$AA@ 0000000140043878     LIBCMT:winapinls.obj
 0002:00004880       ??_C@_15IFJLDHAF@?$AAi?$AAt?$AA?$AA@ 0000000140043880     LIBCMT:winapinls.obj
 0002:00004888       ??_C@_15GEMIOCAG@?$AAj?$AAa?$AA?$AA@ 0000000140043888     LIBCMT:winapinls.obj
 0002:00004890       ??_C@_15EPELEGJA@?$AAk?$AAo?$AA?$AA@ 0000000140043890     LIBCMT:winapinls.obj
 0002:00004898       ??_C@_15NDDHIMN@?$AAn?$AAl?$AA?$AA@ 0000000140043898     LIBCMT:winapinls.obj
 0002:000048a0       ??_C@_15BPIGNHCD@?$AAn?$AAo?$AA?$AA@ 00000001400438a0     LIBCMT:winapinls.obj
 0002:000048a8       ??_C@_15DEOPBLCG@?$AAp?$AAl?$AA?$AA@ 00000001400438a8     LIBCMT:winapinls.obj
 0002:000048b0       ??_C@_15KBECGEFG@?$AAp?$AAt?$AA?$AA@ 00000001400438b0     LIBCMT:winapinls.obj
 0002:000048b8       ??_C@_15GLJCBFMD@?$AAr?$AAo?$AA?$AA@ 00000001400438b8     LIBCMT:winapinls.obj
 0002:000048c0       ??_C@_15FEDGKCDI@?$AAr?$AAu?$AA?$AA@ 00000001400438c0     LIBCMT:winapinls.obj
 0002:000048c8       ??_C@_15GLKMLLHM@?$AAh?$AAr?$AA?$AA@ 00000001400438c8     LIBCMT:winapinls.obj
 0002:000048d0       ??_C@_15CPKMFBDB@?$AAs?$AAk?$AA?$AA@ 00000001400438d0     LIBCMT:winapinls.obj
 0002:000048d8       ??_C@_15BAAIOGMK@?$AAs?$AAq?$AA?$AA@ 00000001400438d8     LIBCMT:winapinls.obj
 0002:000048e0       ??_C@_15INNPNOHD@?$AAs?$AAv?$AA?$AA@ 00000001400438e0     LIBCMT:winapinls.obj
 0002:000048e8       ??_C@_15CABMMOGH@?$AAt?$AAh?$AA?$AA@ 00000001400438e8     LIBCMT:winapinls.obj
 0002:000048f0       ??_C@_15BPLIHJJM@?$AAt?$AAr?$AA?$AA@ 00000001400438f0     LIBCMT:winapinls.obj
 0002:000048f8       ??_C@_15NEOEKKDJ@?$AAu?$AAr?$AA?$AA@ 00000001400438f8     LIBCMT:winapinls.obj
 0002:00004900       ??_C@_15NFICGAJK@?$AAi?$AAd?$AA?$AA@ 0000000140043900     LIBCMT:winapinls.obj
 0002:00004908       ??_C@_15PJPFLCCM@?$AAu?$AAk?$AA?$AA@ 0000000140043908     LIBCMT:winapinls.obj
 0002:00004910       ??_C@_15HPJPHDM@?$AAb?$AAe?$AA?$AA@ 0000000140043910     LIBCMT:winapinls.obj
 0002:00004918       ??_C@_15LCHLGJII@?$AAs?$AAl?$AA?$AA@ 0000000140043918     LIBCMT:winapinls.obj
 0002:00004920       ??_C@_15PCFJPHHO@?$AAe?$AAt?$AA?$AA@ 0000000140043920     LIBCMT:winapinls.obj
 0002:00004928       ??_C@_15HPFPGODN@?$AAl?$AAv?$AA?$AA@ 0000000140043928     LIBCMT:winapinls.obj
 0002:00004930       ??_C@_15NFFGKGLG@?$AAl?$AAt?$AA?$AA@ 0000000140043930     LIBCMT:winapinls.obj
 0002:00004938       ??_C@_15BDAKCCHN@?$AAf?$AAa?$AA?$AA@ 0000000140043938     LIBCMT:winapinls.obj
 0002:00004940       ??_C@_15NFGIAIAJ@?$AAv?$AAi?$AA?$AA@ 0000000140043940     LIBCMT:winapinls.obj
 0002:00004948       ??_C@_15LMKNDMHN@?$AAh?$AAy?$AA?$AA@ 0000000140043948     LIBCMT:winapinls.obj
 0002:00004950       ??_C@_15IJBHMCFL@?$AAa?$AAz?$AA?$AA@ 0000000140043950     LIBCMT:winapinls.obj
 0002:00004958       ??_C@_15EKOFJABL@?$AAe?$AAu?$AA?$AA@ 0000000140043958     LIBCMT:winapinls.obj
 0002:00004960       ??_C@_15BGHADCNK@?$AAm?$AAk?$AA?$AA@ 0000000140043960     LIBCMT:winapinls.obj
 0002:00004968       ??_C@_15JDNICKHM@?$AAa?$AAf?$AA?$AA@ 0000000140043968     LIBCMT:winapinls.obj
 0002:00004970       ??_C@_15KPJEDBKD@?$AAk?$AAa?$AA?$AA@ 0000000140043970     LIBCMT:winapinls.obj
 0002:00004978       ??_C@_15PDNFFFEO@?$AAf?$AAo?$AA?$AA@ 0000000140043978     LIBCMT:winapinls.obj
 0002:00004980       ??_C@_15OMLEGLOC@?$AAh?$AAi?$AA?$AA@ 0000000140043980     LIBCMT:winapinls.obj
 0002:00004988       ??_C@_15IDNNENKK@?$AAm?$AAs?$AA?$AA@ 0000000140043988     LIBCMT:winapinls.obj
 0002:00004990       ??_C@_15MACJNBMH@?$AAk?$AAk?$AA?$AA@ 0000000140043990     LIBCMT:winapinls.obj
 0002:00004998       ??_C@_15DKDJEOND@?$AAk?$AAy?$AA?$AA@ 0000000140043998     LIBCMT:winapinls.obj
 0002:000049a0       ??_C@_15DFGDLJBG@?$AAs?$AAw?$AA?$AA@ 00000001400439a0     LIBCMT:winapinls.obj
 0002:000049a8       ??_C@_15BBFAICNG@?$AAu?$AAz?$AA?$AA@ 00000001400439a8     LIBCMT:winapinls.obj
 0002:000049b0       ??_C@_15DKNDCGEA@?$AAt?$AAt?$AA?$AA@ 00000001400439b0     LIBCMT:winapinls.obj
 0002:000049b8       ??_C@_15MGIFMDPL@?$AAp?$AAa?$AA?$AA@ 00000001400439b8     LIBCMT:winapinls.obj
 0002:000049c0       ??_C@_15HCNDBBA@?$AAg?$AAu?$AA?$AA@ 00000001400439c0     LIBCMT:winapinls.obj
 0002:000049c8       ??_C@_15FNBEIBON@?$AAt?$AAa?$AA?$AA@ 00000001400439c8     LIBCMT:winapinls.obj
 0002:000049d0       ??_C@_15NCHGBGLK@?$AAt?$AAe?$AA?$AA@ 00000001400439d0     LIBCMT:winapinls.obj
 0002:000049d8       ??_C@_15PHPHCBPF@?$AAk?$AAn?$AA?$AA@ 00000001400439d8     LIBCMT:winapinls.obj
 0002:000049e0       ??_C@_15DLGBCKMP@?$AAm?$AAr?$AA?$AA@ 00000001400439e0     LIBCMT:winapinls.obj
 0002:000049e8       ??_C@_15EABBLBFF@?$AAs?$AAa?$AA?$AA@ 00000001400439e8     LIBCMT:winapinls.obj
 0002:000049f0       ??_C@_15CBKOMCOI@?$AAm?$AAn?$AA?$AA@ 00000001400439f0     LIBCMT:winapinls.obj
 0002:000049f8       ??_C@_15CKDMCJAF@?$AAg?$AAl?$AA?$AA@ 00000001400439f8     LIBCMT:winapinls.obj
 0002:00004a00       ??_C@_17CNJFBPG@?$AAk?$AAo?$AAk?$AA?$AA@ 0000000140043a00     LIBCMT:winapinls.obj
 0002:00004a08       ??_C@_17FFBJICPL@?$AAs?$AAy?$AAr?$AA?$AA@ 0000000140043a08     LIBCMT:winapinls.obj
 0002:00004a10       ??_C@_17KPNDCPAF@?$AAd?$AAi?$AAv?$AA?$AA@ 0000000140043a10     LIBCMT:winapinls.obj
 0002:00004a18       ??_C@_1M@OKAHONE@?$AAa?$AAr?$AA?9?$AAS?$AAA?$AA?$AA@ 0000000140043a18     LIBCMT:winapinls.obj
 0002:00004a28       ??_C@_1M@FFFIGIGK@?$AAb?$AAg?$AA?9?$AAB?$AAG?$AA?$AA@ 0000000140043a28     LIBCMT:winapinls.obj
 0002:00004a38       ??_C@_1M@BJNKEDC@?$AAc?$AAa?$AA?9?$AAE?$AAS?$AA?$AA@ 0000000140043a38     LIBCMT:winapinls.obj
 0002:00004a48       ??_C@_1M@IJJHFJHA@?$AAc?$AAs?$AA?9?$AAC?$AAZ?$AA?$AA@ 0000000140043a48     LIBCMT:winapinls.obj
 0002:00004a58       ??_C@_1M@CLPEOBGI@?$AAd?$AAa?$AA?9?$AAD?$AAK?$AA?$AA@ 0000000140043a58     LIBCMT:winapinls.obj
 0002:00004a68       ??_C@_1M@MCMADGCB@?$AAd?$AAe?$AA?9?$AAD?$AAE?$AA?$AA@ 0000000140043a68     LIBCMT:winapinls.obj
 0002:00004a78       ??_C@_1M@OOCKEMAM@?$AAe?$AAl?$AA?9?$AAG?$AAR?$AA?$AA@ 0000000140043a78     LIBCMT:winapinls.obj
 0002:00004a88       ??_C@_1M@DDNJFGID@?$AAf?$AAi?$AA?9?$AAF?$AAI?$AA?$AA@ 0000000140043a88     LIBCMT:winapinls.obj
 0002:00004a98       ??_C@_1M@GLIPPMAC@?$AAf?$AAr?$AA?9?$AAF?$AAR?$AA?$AA@ 0000000140043a98     LIBCMT:winapinls.obj
 0002:00004aa8       ??_C@_1M@GFMCHPE@?$AAh?$AAe?$AA?9?$AAI?$AAL?$AA?$AA@ 0000000140043aa8     LIBCMT:winapinls.obj
 0002:00004ab8       ??_C@_1M@MHLPGNKM@?$AAh?$AAu?$AA?9?$AAH?$AAU?$AA?$AA@ 0000000140043ab8     LIBCMT:winapinls.obj
 0002:00004ac8       ??_C@_1M@LPDDNNPN@?$AAi?$AAs?$AA?9?$AAI?$AAS?$AA?$AA@ 0000000140043ac8     LIBCMT:winapinls.obj
 0002:00004ad8       ??_C@_1M@MADIPODN@?$AAi?$AAt?$AA?9?$AAI?$AAT?$AA?$AA@ 0000000140043ad8     LIBCMT:winapinls.obj
 0002:00004ae8       ??_C@_1M@IHBJJGG@?$AAn?$AAl?$AA?9?$AAN?$AAL?$AA?$AA@ 0000000140043ae8     LIBCMT:winapinls.obj
 0002:00004af8       ??_C@_1M@EANAGDL@?$AAn?$AAb?$AA?9?$AAN?$AAO?$AA?$AA@ 0000000140043af8     LIBCMT:winapinls.obj
 0002:00004b08       ??_C@_1M@NEIEMEGP@?$AAp?$AAl?$AA?9?$AAP?$AAL?$AA?$AA@ 0000000140043b08     LIBCMT:winapinls.obj
 0002:00004b18       ??_C@_1M@BOCFIGEP@?$AAp?$AAt?$AA?9?$AAB?$AAR?$AA?$AA@ 0000000140043b18     LIBCMT:winapinls.obj
 0002:00004b28       ??_C@_1M@IMPFOPBG@?$AAr?$AAo?$AA?9?$AAR?$AAO?$AA?$AA@ 0000000140043b28     LIBCMT:winapinls.obj
 0002:00004b38       ??_C@_1M@IDNNEJMM@?$AAr?$AAu?$AA?9?$AAR?$AAU?$AA?$AA@ 0000000140043b38     LIBCMT:winapinls.obj
 0002:00004b48       ??_C@_1M@LILEEOGM@?$AAh?$AAr?$AA?9?$AAH?$AAR?$AA?$AA@ 0000000140043b48     LIBCMT:winapinls.obj
 0002:00004b58       ??_C@_1M@FKIFEHPB@?$AAs?$AAk?$AA?9?$AAS?$AAK?$AA?$AA@ 0000000140043b58     LIBCMT:winapinls.obj
 0002:00004b68       ??_C@_1M@LJMAMNPJ@?$AAs?$AAq?$AA?9?$AAA?$AAL?$AA?$AA@ 0000000140043b68     LIBCMT:winapinls.obj
 0002:00004b78       ??_C@_1M@GIAKDKJK@?$AAs?$AAv?$AA?9?$AAS?$AAE?$AA?$AA@ 0000000140043b78     LIBCMT:winapinls.obj
 0002:00004b88       ??_C@_1M@MKJKIKCL@?$AAt?$AAh?$AA?9?$AAT?$AAH?$AA?$AA@ 0000000140043b88     LIBCMT:winapinls.obj
 0002:00004b98       ??_C@_1M@MFLCCMPB@?$AAt?$AAr?$AA?9?$AAT?$AAR?$AA?$AA@ 0000000140043b98     LIBCMT:winapinls.obj
 0002:00004ba8       ??_C@_1M@OIJHDKJN@?$AAu?$AAr?$AA?9?$AAP?$AAK?$AA?$AA@ 0000000140043ba8     LIBCMT:winapinls.obj
 0002:00004bb8       ??_C@_1M@LHIPCIEK@?$AAi?$AAd?$AA?9?$AAI?$AAD?$AA?$AA@ 0000000140043bb8     LIBCMT:winapinls.obj
 0002:00004bc8       ??_C@_1M@MFMOBGI@?$AAu?$AAk?$AA?9?$AAU?$AAA?$AA?$AA@ 0000000140043bc8     LIBCMT:winapinls.obj
 0002:00004bd8       ??_C@_1M@OBGLJIPL@?$AAb?$AAe?$AA?9?$AAB?$AAY?$AA?$AA@ 0000000140043bd8     LIBCMT:winapinls.obj
 0002:00004be8       ??_C@_1M@BCFAJEAD@?$AAs?$AAl?$AA?9?$AAS?$AAI?$AA?$AA@ 0000000140043be8     LIBCMT:winapinls.obj
 0002:00004bf8       ??_C@_1M@FKFFEDDN@?$AAe?$AAt?$AA?9?$AAE?$AAE?$AA?$AA@ 0000000140043bf8     LIBCMT:winapinls.obj
 0002:00004c08       ??_C@_1M@KGKKAACI@?$AAl?$AAv?$AA?9?$AAL?$AAV?$AA?$AA@ 0000000140043c08     LIBCMT:winapinls.obj
 0002:00004c18       ??_C@_1M@IFGBIJO@?$AAl?$AAt?$AA?9?$AAL?$AAT?$AA?$AA@ 0000000140043c18     LIBCMT:winapinls.obj
 0002:00004c28       ??_C@_1M@FGEAHEDM@?$AAf?$AAa?$AA?9?$AAI?$AAR?$AA?$AA@ 0000000140043c28     LIBCMT:winapinls.obj
 0002:00004c38       ??_C@_1M@KBMAIBFN@?$AAv?$AAi?$AA?9?$AAV?$AAN?$AA?$AA@ 0000000140043c38     LIBCMT:winapinls.obj
 0002:00004c48       ??_C@_1M@GPCBKDJK@?$AAh?$AAy?$AA?9?$AAA?$AAM?$AA?$AA@ 0000000140043c48     LIBCMT:winapinls.obj
 0002:00004c58       ??_C@_1BG@BECMDDJB@?$AAa?$AAz?$AA?9?$AAA?$AAZ?$AA?9?$AAL?$AAa?$AAt?$AAn?$AA?$AA@ 0000000140043c58     LIBCMT:winapinls.obj
 0002:00004c70       ??_C@_1M@MAOFCAEA@?$AAe?$AAu?$AA?9?$AAE?$AAS?$AA?$AA@ 0000000140043c70     LIBCMT:winapinls.obj
 0002:00004c80       ??_C@_1M@IGHABKPI@?$AAm?$AAk?$AA?9?$AAM?$AAK?$AA?$AA@ 0000000140043c80     LIBCMT:winapinls.obj
 0002:00004c90       ??_C@_1M@IAIGNEJG@?$AAt?$AAn?$AA?9?$AAZ?$AAA?$AA?$AA@ 0000000140043c90     LIBCMT:winapinls.obj
 0002:00004ca0       ??_C@_1M@IIJCOJFA@?$AAx?$AAh?$AA?9?$AAZ?$AAA?$AA?$AA@ 0000000140043ca0     LIBCMT:winapinls.obj
 0002:00004cb0       ??_C@_1M@LGPJHNJH@?$AAz?$AAu?$AA?9?$AAZ?$AAA?$AA?$AA@ 0000000140043cb0     LIBCMT:winapinls.obj
 0002:00004cc0       ??_C@_1M@HOKAOIO@?$AAa?$AAf?$AA?9?$AAZ?$AAA?$AA?$AA@ 0000000140043cc0     LIBCMT:winapinls.obj
 0002:00004cd0       ??_C@_1M@DPCLHLIE@?$AAk?$AAa?$AA?9?$AAG?$AAE?$AA?$AA@ 0000000140043cd0     LIBCMT:winapinls.obj
 0002:00004ce0       ??_C@_1M@BLKMHJBI@?$AAf?$AAo?$AA?9?$AAF?$AAO?$AA?$AA@ 0000000140043ce0     LIBCMT:winapinls.obj
 0002:00004cf0       ??_C@_1M@LGGJAPPB@?$AAh?$AAi?$AA?9?$AAI?$AAN?$AA?$AA@ 0000000140043cf0     LIBCMT:winapinls.obj
 0002:00004d00       ??_C@_1M@FIKPIHFE@?$AAm?$AAt?$AA?9?$AAM?$AAT?$AA?$AA@ 0000000140043d00     LIBCMT:winapinls.obj
 0002:00004d10       ??_C@_1M@HEGGPBFA@?$AAs?$AAe?$AA?9?$AAN?$AAO?$AA?$AA@ 0000000140043d10     LIBCMT:winapinls.obj
 0002:00004d20       ??_C@_1M@EIBJEEPA@?$AAm?$AAs?$AA?9?$AAM?$AAY?$AA?$AA@ 0000000140043d20     LIBCMT:winapinls.obj
 0002:00004d30       ??_C@_1M@FHLBGMPP@?$AAk?$AAk?$AA?9?$AAK?$AAZ?$AA?$AA@ 0000000140043d30     LIBCMT:winapinls.obj
 0002:00004d40       ??_C@_1M@NGJJLCGI@?$AAk?$AAy?$AA?9?$AAK?$AAG?$AA?$AA@ 0000000140043d40     LIBCMT:winapinls.obj
 0002:00004d50       ??_C@_1M@GIENNBFC@?$AAs?$AAw?$AA?9?$AAK?$AAE?$AA?$AA@ 0000000140043d50     LIBCMT:winapinls.obj
 0002:00004d60       ??_C@_1BG@NDGMJIMJ@?$AAu?$AAz?$AA?9?$AAU?$AAZ?$AA?9?$AAL?$AAa?$AAt?$AAn?$AA?$AA@ 0000000140043d60     LIBCMT:winapinls.obj
 0002:00004d78       ??_C@_1M@IDCCIHBC@?$AAt?$AAt?$AA?9?$AAR?$AAU?$AA?$AA@ 0000000140043d78     LIBCMT:winapinls.obj
 0002:00004d88       ??_C@_1M@LOICPMOJ@?$AAb?$AAn?$AA?9?$AAI?$AAN?$AA?$AA@ 0000000140043d88     LIBCMT:winapinls.obj
 0002:00004d98       ??_C@_1M@KPKKNEAH@?$AAp?$AAa?$AA?9?$AAI?$AAN?$AA?$AA@ 0000000140043d98     LIBCMT:winapinls.obj
 0002:00004da8       ??_C@_1M@PJGPPBOG@?$AAg?$AAu?$AA?9?$AAI?$AAN?$AA?$AA@ 0000000140043da8     LIBCMT:winapinls.obj
 0002:00004db8       ??_C@_1M@KMKMOPHI@?$AAt?$AAa?$AA?9?$AAI?$AAN?$AA?$AA@ 0000000140043db8     LIBCMT:winapinls.obj
 0002:00004dc8       ??_C@_1M@KFEHEPAC@?$AAt?$AAe?$AA?9?$AAI?$AAN?$AA?$AA@ 0000000140043dc8     LIBCMT:winapinls.obj
 0002:00004dd8       ??_C@_1M@CDCLMGHI@?$AAk?$AAn?$AA?9?$AAI?$AAN?$AA?$AA@ 0000000140043dd8     LIBCMT:winapinls.obj
 0002:00004de8       ??_C@_1M@MIODLDKF@?$AAm?$AAl?$AA?9?$AAI?$AAN?$AA?$AA@ 0000000140043de8     LIBCMT:winapinls.obj
 0002:00004df8       ??_C@_1M@PBIEACPO@?$AAm?$AAr?$AA?9?$AAI?$AAN?$AA?$AA@ 0000000140043df8     LIBCMT:winapinls.obj
 0002:00004e08       ??_C@_1M@NIDEAGPH@?$AAs?$AAa?$AA?9?$AAI?$AAN?$AA?$AA@ 0000000140043e08     LIBCMT:winapinls.obj
 0002:00004e18       ??_C@_1M@FHIHCBIO@?$AAm?$AAn?$AA?9?$AAM?$AAN?$AA?$AA@ 0000000140043e18     LIBCMT:winapinls.obj
 0002:00004e28       ??_C@_1M@JAIJPENP@?$AAc?$AAy?$AA?9?$AAG?$AAB?$AA?$AA@ 0000000140043e28     LIBCMT:winapinls.obj
 0002:00004e38       ??_C@_1M@PHGFBEPN@?$AAg?$AAl?$AA?9?$AAE?$AAS?$AA?$AA@ 0000000140043e38     LIBCMT:winapinls.obj
 0002:00004e48       ??_C@_1O@KPIPDNCP@?$AAk?$AAo?$AAk?$AA?9?$AAI?$AAN?$AA?$AA@ 0000000140043e48     LIBCMT:winapinls.obj
 0002:00004e58       ??_C@_1O@KNHJLDJA@?$AAs?$AAy?$AAr?$AA?9?$AAS?$AAY?$AA?$AA@ 0000000140043e58     LIBCMT:winapinls.obj
 0002:00004e68       ??_C@_1O@MKEKBLAH@?$AAd?$AAi?$AAv?$AA?9?$AAM?$AAV?$AA?$AA@ 0000000140043e68     LIBCMT:winapinls.obj
 0002:00004e78       ??_C@_1O@OHDCKDDF@?$AAq?$AAu?$AAz?$AA?9?$AAB?$AAO?$AA?$AA@ 0000000140043e78     LIBCMT:winapinls.obj
 0002:00004e88       ??_C@_1M@LEPJNLFD@?$AAn?$AAs?$AA?9?$AAZ?$AAA?$AA?$AA@ 0000000140043e88     LIBCMT:winapinls.obj
 0002:00004e98       ??_C@_1M@OMLEIIJB@?$AAm?$AAi?$AA?9?$AAN?$AAZ?$AA?$AA@ 0000000140043e98     LIBCMT:winapinls.obj
 0002:00004ea8       ??_C@_1M@PMPEAILG@?$AAa?$AAr?$AA?9?$AAI?$AAQ?$AA?$AA@ 0000000140043ea8     LIBCMT:winapinls.obj
 0002:00004eb8       ??_C@_1M@CNKPNOEE@?$AAd?$AAe?$AA?9?$AAC?$AAH?$AA?$AA@ 0000000140043eb8     LIBCMT:winapinls.obj
 0002:00004ec8       ??_C@_1M@LKMGMLKO@?$AAe?$AAn?$AA?9?$AAG?$AAB?$AA?$AA@ 0000000140043ec8     LIBCMT:winapinls.obj
 0002:00004ed8       ??_C@_1M@PGKJFFGL@?$AAe?$AAs?$AA?9?$AAM?$AAX?$AA?$AA@ 0000000140043ed8     LIBCMT:winapinls.obj
 0002:00004ee8       ??_C@_1M@DNNANBDC@?$AAf?$AAr?$AA?9?$AAB?$AAE?$AA?$AA@ 0000000140043ee8     LIBCMT:winapinls.obj
 0002:00004ef8       ??_C@_1M@HLGMDFHM@?$AAi?$AAt?$AA?9?$AAC?$AAH?$AA?$AA@ 0000000140043ef8     LIBCMT:winapinls.obj
 0002:00004f08       ??_C@_1M@CLLBGJH@?$AAn?$AAl?$AA?9?$AAB?$AAE?$AA?$AA@ 0000000140043f08     LIBCMT:winapinls.obj
 0002:00004f18       ??_C@_1M@BODBOGLF@?$AAn?$AAn?$AA?9?$AAN?$AAO?$AA?$AA@ 0000000140043f18     LIBCMT:winapinls.obj
 0002:00004f28       ??_C@_1M@HFFAHKAD@?$AAp?$AAt?$AA?9?$AAP?$AAT?$AA?$AA@ 0000000140043f28     LIBCMT:winapinls.obj
 0002:00004f38       ??_C@_1BG@LNOAKHIE@?$AAs?$AAr?$AA?9?$AAS?$AAP?$AA?9?$AAL?$AAa?$AAt?$AAn?$AA?$AA@ 0000000140043f38     LIBCMT:winapinls.obj
 0002:00004f50       ??_C@_1M@HBMHBGAK@?$AAs?$AAv?$AA?9?$AAF?$AAI?$AA?$AA@ 0000000140043f50     LIBCMT:winapinls.obj
 0002:00004f60       ??_C@_1BG@DGCJGJBE@?$AAa?$AAz?$AA?9?$AAA?$AAZ?$AA?9?$AAC?$AAy?$AAr?$AAl?$AA?$AA@ 0000000140043f60     LIBCMT:winapinls.obj
 0002:00004f78       ??_C@_1M@KEJDAAHB@?$AAs?$AAe?$AA?9?$AAS?$AAE?$AA?$AA@ 0000000140043f78     LIBCMT:winapinls.obj
 0002:00004f88       ??_C@_1M@HEIBJJAD@?$AAm?$AAs?$AA?9?$AAB?$AAN?$AA?$AA@ 0000000140043f88     LIBCMT:winapinls.obj
 0002:00004f98       ??_C@_1BG@PBGJMCEM@?$AAu?$AAz?$AA?9?$AAU?$AAZ?$AA?9?$AAC?$AAy?$AAr?$AAl?$AA?$AA@ 0000000140043f98     LIBCMT:winapinls.obj
 0002:00004fb0       ??_C@_1O@LAOBCMDF@?$AAq?$AAu?$AAz?$AA?9?$AAE?$AAC?$AA?$AA@ 0000000140043fb0     LIBCMT:winapinls.obj
 0002:00004fc0       ??_C@_1M@POEEMAIO@?$AAa?$AAr?$AA?9?$AAE?$AAG?$AA?$AA@ 0000000140043fc0     LIBCMT:winapinls.obj
 0002:00004fd0       ??_C@_1M@EFAKDEDL@?$AAz?$AAh?$AA?9?$AAH?$AAK?$AA?$AA@ 0000000140043fd0     LIBCMT:winapinls.obj
 0002:00004fe0       ??_C@_1M@HKKIJHGI@?$AAd?$AAe?$AA?9?$AAA?$AAT?$AA?$AA@ 0000000140043fe0     LIBCMT:winapinls.obj
 0002:00004ff0       ??_C@_1M@KBFBEHJF@?$AAe?$AAn?$AA?9?$AAA?$AAU?$AA?$AA@ 0000000140043ff0     LIBCMT:winapinls.obj
 0002:00005000       ??_C@_1M@MNPLFAAH@?$AAe?$AAs?$AA?9?$AAE?$AAS?$AA?$AA@ 0000000140044000     LIBCMT:winapinls.obj
 0002:00005010       ??_C@_1M@HJOOJFMA@?$AAf?$AAr?$AA?9?$AAC?$AAA?$AA?$AA@ 0000000140044010     LIBCMT:winapinls.obj
 0002:00005020       ??_C@_1BG@JPOFPNAB@?$AAs?$AAr?$AA?9?$AAS?$AAP?$AA?9?$AAC?$AAy?$AAr?$AAl?$AA?$AA@ 0000000140044020     LIBCMT:winapinls.obj
 0002:00005038       ??_C@_1M@LNFOCMOB@?$AAs?$AAe?$AA?9?$AAF?$AAI?$AA?$AA@ 0000000140044038     LIBCMT:winapinls.obj
 0002:00005048       ??_C@_1O@MGJBOAMB@?$AAq?$AAu?$AAz?$AA?9?$AAP?$AAE?$AA?$AA@ 0000000140044048     LIBCMT:winapinls.obj
 0002:00005058       ??_C@_1M@GJINLBOK@?$AAa?$AAr?$AA?9?$AAL?$AAY?$AA?$AA@ 0000000140044058     LIBCMT:winapinls.obj
 0002:00005068       ??_C@_1M@GGMNHJNL@?$AAz?$AAh?$AA?9?$AAS?$AAG?$AA?$AA@ 0000000140044068     LIBCMT:winapinls.obj
 0002:00005078       ??_C@_1M@HOIKODND@?$AAd?$AAe?$AA?9?$AAL?$AAU?$AA?$AA@ 0000000140044078     LIBCMT:winapinls.obj
 0002:00005088       ??_C@_1M@DDOCCGFG@?$AAe?$AAn?$AA?9?$AAC?$AAA?$AA?$AA@ 0000000140044088     LIBCMT:winapinls.obj
 0002:00005098       ??_C@_1M@BNOEMJLF@?$AAe?$AAs?$AA?9?$AAG?$AAT?$AA?$AA@ 0000000140044098     LIBCMT:winapinls.obj
 0002:000050a8       ??_C@_1M@EOGNKEK@?$AAf?$AAr?$AA?9?$AAC?$AAH?$AA?$AA@ 00000001400440a8     LIBCMT:winapinls.obj
 0002:000050b8       ??_C@_1M@FLIDJFHL@?$AAh?$AAr?$AA?9?$AAB?$AAA?$AA?$AA@ 00000001400440b8     LIBCMT:winapinls.obj
 0002:000050c8       ??_C@_1O@FMCELNAJ@?$AAs?$AAm?$AAj?$AA?9?$AAN?$AAO?$AA?$AA@ 00000001400440c8     LIBCMT:winapinls.obj
 0002:000050d8       ??_C@_1M@JHGLJMGJ@?$AAa?$AAr?$AA?9?$AAD?$AAZ?$AA?$AA@ 00000001400440d8     LIBCMT:winapinls.obj
 0002:000050e8       ??_C@_1M@JKKFDCNP@?$AAz?$AAh?$AA?9?$AAM?$AAO?$AA?$AA@ 00000001400440e8     LIBCMT:winapinls.obj
 0002:000050f8       ??_C@_1M@GEEFALPE@?$AAd?$AAe?$AA?9?$AAL?$AAI?$AA?$AA@ 00000001400440f8     LIBCMT:winapinls.obj
 0002:00005108       ??_C@_1M@IGEOFBG@?$AAe?$AAn?$AA?9?$AAN?$AAZ?$AA?$AA@ 0000000140044108     LIBCMT:winapinls.obj
 0002:00005118       ??_C@_1M@KDBONEHP@?$AAe?$AAs?$AA?9?$AAC?$AAR?$AA?$AA@ 0000000140044118     LIBCMT:winapinls.obj
 0002:00005128       ??_C@_1M@FHMDOHNN@?$AAf?$AAr?$AA?9?$AAL?$AAU?$AA?$AA@ 0000000140044128     LIBCMT:winapinls.obj
 0002:00005138       ??_C@_1BG@NFKKMAFG@?$AAb?$AAs?$AA?9?$AAB?$AAA?$AA?9?$AAL?$AAa?$AAt?$AAn?$AA?$AA@ 0000000140044138     LIBCMT:winapinls.obj
 0002:00005150       ??_C@_1O@IMNBEMCI@?$AAs?$AAm?$AAj?$AA?9?$AAS?$AAE?$AA?$AA@ 0000000140044150     LIBCMT:winapinls.obj
 0002:00005160       ??_C@_1M@DHHMBNDP@?$AAa?$AAr?$AA?9?$AAM?$AAA?$AA?$AA@ 0000000140044160     LIBCMT:winapinls.obj
 0002:00005170       ??_C@_1M@BNBLJCGH@?$AAe?$AAn?$AA?9?$AAI?$AAE?$AA?$AA@ 0000000140044170     LIBCMT:winapinls.obj
 0002:00005180       ??_C@_1M@GEPAFMDL@?$AAe?$AAs?$AA?9?$AAP?$AAA?$AA?$AA@ 0000000140044180     LIBCMT:winapinls.obj
 0002:00005190       ??_C@_1M@OJONDMDL@?$AAf?$AAr?$AA?9?$AAM?$AAC?$AA?$AA@ 0000000140044190     LIBCMT:winapinls.obj
 0002:000051a0       ??_C@_1BG@OBCNFJB@?$AAs?$AAr?$AA?9?$AAB?$AAA?$AA?9?$AAL?$AAa?$AAt?$AAn?$AA?$AA@ 00000001400441a0     LIBCMT:winapinls.obj
 0002:000051b8       ??_C@_1O@KEMEEGPO@?$AAs?$AAm?$AAa?$AA?9?$AAN?$AAO?$AA?$AA@ 00000001400441b8     LIBCMT:winapinls.obj
 0002:000051c8       ??_C@_1M@ELMGFODK@?$AAa?$AAr?$AA?9?$AAT?$AAN?$AA?$AA@ 00000001400441c8     LIBCMT:winapinls.obj
 0002:000051d8       ??_C@_1M@BHDLHFAF@?$AAe?$AAn?$AA?9?$AAZ?$AAA?$AA?$AA@ 00000001400441d8     LIBCMT:winapinls.obj
 0002:000051e8       ??_C@_1M@BMGIGLIF@?$AAe?$AAs?$AA?9?$AAD?$AAO?$AA?$AA@ 00000001400441e8     LIBCMT:winapinls.obj
 0002:000051f8       ??_C@_1BG@CMBHIPBE@?$AAs?$AAr?$AA?9?$AAB?$AAA?$AA?9?$AAC?$AAy?$AAr?$AAl?$AA?$AA@ 00000001400441f8     LIBCMT:winapinls.obj
 0002:00005210       ??_C@_1O@HEDBLHNP@?$AAs?$AAm?$AAa?$AA?9?$AAS?$AAE?$AA?$AA@ 0000000140044210     LIBCMT:winapinls.obj
 0002:00005220       ??_C@_1M@DAGCADIM@?$AAa?$AAr?$AA?9?$AAO?$AAM?$AA?$AA@ 0000000140044220     LIBCMT:winapinls.obj
 0002:00005230       ??_C@_1M@FODLMICG@?$AAe?$AAn?$AA?9?$AAJ?$AAM?$AA?$AA@ 0000000140044230     LIBCMT:winapinls.obj
 0002:00005240       ??_C@_1M@DNMLCIHB@?$AAe?$AAs?$AA?9?$AAV?$AAE?$AA?$AA@ 0000000140044240     LIBCMT:winapinls.obj
 0002:00005250       ??_C@_1O@EOKHMKJK@?$AAs?$AAm?$AAs?$AA?9?$AAF?$AAI?$AA?$AA@ 0000000140044250     LIBCMT:winapinls.obj
 0002:00005260       ??_C@_1M@CAFJMKOF@?$AAa?$AAr?$AA?9?$AAY?$AAE?$AA?$AA@ 0000000140044260     LIBCMT:winapinls.obj
 0002:00005270       ??_C@_1M@CBFHIJLI@?$AAe?$AAn?$AA?9?$AAC?$AAB?$AA?$AA@ 0000000140044270     LIBCMT:winapinls.obj
 0002:00005280       ??_C@_1M@BGNFLDN@?$AAe?$AAs?$AA?9?$AAC?$AAO?$AA?$AA@ 0000000140044280     LIBCMT:winapinls.obj
 0002:00005290       ??_C@_1O@JMPHMAMC@?$AAs?$AAm?$AAn?$AA?9?$AAF?$AAI?$AA?$AA@ 0000000140044290     LIBCMT:winapinls.obj
 0002:000052a0       ??_C@_1M@JLANABKE@?$AAa?$AAr?$AA?9?$AAS?$AAY?$AA?$AA@ 00000001400442a0     LIBCMT:winapinls.obj
 0002:000052b0       ??_C@_1M@HPKGCFGN@?$AAe?$AAn?$AA?9?$AAB?$AAZ?$AA?$AA@ 00000001400442b0     LIBCMT:winapinls.obj
 0002:000052c0       ??_C@_1M@OLJCMLGM@?$AAe?$AAs?$AA?9?$AAP?$AAE?$AA?$AA@ 00000001400442c0     LIBCMT:winapinls.obj
 0002:000052d0       ??_C@_1M@MKKGFKLE@?$AAa?$AAr?$AA?9?$AAJ?$AAO?$AA?$AA@ 00000001400442d0     LIBCMT:winapinls.obj
 0002:000052e0       ??_C@_1M@EKPGLDNI@?$AAe?$AAn?$AA?9?$AAT?$AAT?$AA?$AA@ 00000001400442e0     LIBCMT:winapinls.obj
 0002:000052f0       ??_C@_1M@OONGHFHE@?$AAe?$AAs?$AA?9?$AAA?$AAR?$AA?$AA@ 00000001400442f0     LIBCMT:winapinls.obj
 0002:00005300       ??_C@_1M@OOJFGBHE@?$AAa?$AAr?$AA?9?$AAL?$AAB?$AA?$AA@ 0000000140044300     LIBCMT:winapinls.obj
 0002:00005310       ??_C@_1M@GCEJHNEG@?$AAe?$AAn?$AA?9?$AAZ?$AAW?$AA?$AA@ 0000000140044310     LIBCMT:winapinls.obj
 0002:00005320       ??_C@_1M@JNOCAHJI@?$AAe?$AAs?$AA?9?$AAE?$AAC?$AA?$AA@ 0000000140044320     LIBCMT:winapinls.obj
 0002:00005330       ??_C@_1M@JEFHPGGB@?$AAa?$AAr?$AA?9?$AAK?$AAW?$AA?$AA@ 0000000140044330     LIBCMT:winapinls.obj
 0002:00005340       ??_C@_1M@MLKIBJOJ@?$AAe?$AAn?$AA?9?$AAP?$AAH?$AA?$AA@ 0000000140044340     LIBCMT:winapinls.obj
 0002:00005350       ??_C@_1M@BDNIPEND@?$AAe?$AAs?$AA?9?$AAC?$AAL?$AA?$AA@ 0000000140044350     LIBCMT:winapinls.obj
 0002:00005360       ??_C@_1M@MPNMEKBD@?$AAa?$AAr?$AA?9?$AAA?$AAE?$AA?$AA@ 0000000140044360     LIBCMT:winapinls.obj
 0002:00005370       ??_C@_1M@KBJALCPI@?$AAe?$AAs?$AA?9?$AAU?$AAY?$AA?$AA@ 0000000140044370     LIBCMT:winapinls.obj
 0002:00005380       ??_C@_1M@LLCCOAGA@?$AAa?$AAr?$AA?9?$AAB?$AAH?$AA?$AA@ 0000000140044380     LIBCMT:winapinls.obj
 0002:00005390       ??_C@_1M@PBFNCDEL@?$AAe?$AAs?$AA?9?$AAP?$AAY?$AA?$AA@ 0000000140044390     LIBCMT:winapinls.obj
 0002:000053a0       ??_C@_1M@EDGINPNP@?$AAa?$AAr?$AA?9?$AAQ?$AAA?$AA?$AA@ 00000001400443a0     LIBCMT:winapinls.obj
 0002:000053b0       ??_C@_1M@MKDBIIJI@?$AAe?$AAs?$AA?9?$AAB?$AAO?$AA?$AA@ 00000001400443b0     LIBCMT:winapinls.obj
 0002:000053c0       ??_C@_1M@CPKKEBLD@?$AAe?$AAs?$AA?9?$AAS?$AAV?$AA?$AA@ 00000001400443c0     LIBCMT:winapinls.obj
 0002:000053d0       ??_C@_1M@NDBGMMJL@?$AAe?$AAs?$AA?9?$AAH?$AAN?$AA?$AA@ 00000001400443d0     LIBCMT:winapinls.obj
 0002:000053e0       ??_C@_1M@JIJIBHDP@?$AAe?$AAs?$AA?9?$AAN?$AAI?$AA?$AA@ 00000001400443e0     LIBCMT:winapinls.obj
 0002:000053f0       ??_C@_1M@CGFMKEEK@?$AAe?$AAs?$AA?9?$AAP?$AAR?$AA?$AA@ 00000001400443f0     LIBCMT:winapinls.obj
 0002:00005400       ??_C@_1O@ICJHKIIK@?$AAz?$AAh?$AA?9?$AAC?$AAH?$AAT?$AA?$AA@ 0000000140044400     LIBCMT:winapinls.obj
 0002:00005410       ??_C@_15CLNEJCE@?$AAs?$AAr?$AA?$AA@ 0000000140044410     LIBCMT:winapinls.obj
 0002:00005418       ??_C@_1M@KAHEKEIG@?$AAa?$AAf?$AA?9?$AAz?$AAa?$AA?$AA@ 0000000140044418     LIBCMT:winapinls.obj
 0002:00005428       ??_C@_1M@GIECOABL@?$AAa?$AAr?$AA?9?$AAa?$AAe?$AA?$AA@ 0000000140044428     LIBCMT:winapinls.obj
 0002:00005438       ??_C@_1M@BMLMEKGI@?$AAa?$AAr?$AA?9?$AAb?$AAh?$AA?$AA@ 0000000140044438     LIBCMT:winapinls.obj
 0002:00005448       ??_C@_1M@DAPFDGGB@?$AAa?$AAr?$AA?9?$AAd?$AAz?$AA?$AA@ 0000000140044448     LIBCMT:winapinls.obj
 0002:00005458       ??_C@_1M@FJNKGKIG@?$AAa?$AAr?$AA?9?$AAe?$AAg?$AA?$AA@ 0000000140044458     LIBCMT:winapinls.obj
 0002:00005468       ??_C@_1M@FLGKKCLO@?$AAa?$AAr?$AA?9?$AAi?$AAq?$AA?$AA@ 0000000140044468     LIBCMT:winapinls.obj
 0002:00005478       ??_C@_1M@GNDIPALM@?$AAa?$AAr?$AA?9?$AAj?$AAo?$AA?$AA@ 0000000140044478     LIBCMT:winapinls.obj
 0002:00005488       ??_C@_1M@DDMJFMGJ@?$AAa?$AAr?$AA?9?$AAk?$AAw?$AA?$AA@ 0000000140044488     LIBCMT:winapinls.obj
 0002:00005498       ??_C@_1M@EJALMLHM@?$AAa?$AAr?$AA?9?$AAl?$AAb?$AA?$AA@ 0000000140044498     LIBCMT:winapinls.obj
 0002:000054a8       ??_C@_1M@MOBDBLOC@?$AAa?$AAr?$AA?9?$AAl?$AAy?$AA?$AA@ 00000001400444a8     LIBCMT:winapinls.obj
 0002:000054b8       ??_C@_1M@JAOCLHDH@?$AAa?$AAr?$AA?9?$AAm?$AAa?$AA?$AA@ 00000001400444b8     LIBCMT:winapinls.obj
 0002:000054c8       ??_C@_1M@JHPMKJIE@?$AAa?$AAr?$AA?9?$AAo?$AAm?$AA?$AA@ 00000001400444c8     LIBCMT:winapinls.obj
 0002:000054d8       ??_C@_1M@OEPGHFNH@?$AAa?$AAr?$AA?9?$AAq?$AAa?$AA?$AA@ 00000001400444d8     LIBCMT:winapinls.obj
 0002:000054e8       ??_C@_1M@KJDONENM@?$AAa?$AAr?$AA?9?$AAs?$AAa?$AA?$AA@ 00000001400444e8     LIBCMT:winapinls.obj
 0002:000054f8       ??_C@_1M@DMJDKLKM@?$AAa?$AAr?$AA?9?$AAs?$AAy?$AA?$AA@ 00000001400444f8     LIBCMT:winapinls.obj
 0002:00005508       ??_C@_1M@OMFIPEDC@?$AAa?$AAr?$AA?9?$AAt?$AAn?$AA?$AA@ 0000000140044508     LIBCMT:winapinls.obj
 0002:00005518       ??_C@_1M@IHMHGAON@?$AAa?$AAr?$AA?9?$AAy?$AAe?$AA?$AA@ 0000000140044518     LIBCMT:winapinls.obj
 0002:00005528       ??_C@_1BG@KDCPGJGB@?$AAa?$AAz?$AA?9?$AAa?$AAz?$AA?9?$AAc?$AAy?$AAr?$AAl?$AA?$AA@ 0000000140044528     LIBCMT:winapinls.obj
 0002:00005540       ??_C@_1BG@IBCKDDOE@?$AAa?$AAz?$AA?9?$AAa?$AAz?$AA?9?$AAl?$AAa?$AAt?$AAn?$AA?$AA@ 0000000140044540     LIBCMT:winapinls.obj
 0002:00005558       ??_C@_1M@EGPFDCPD@?$AAb?$AAe?$AA?9?$AAb?$AAy?$AA?$AA@ 0000000140044558     LIBCMT:winapinls.obj
 0002:00005568       ??_C@_1M@PCMGMCGC@?$AAb?$AAg?$AA?9?$AAb?$AAg?$AA?$AA@ 0000000140044568     LIBCMT:winapinls.obj
 0002:00005578       ??_C@_1M@BJBMFGOB@?$AAb?$AAn?$AA?9?$AAi?$AAn?$AA?$AA@ 0000000140044578     LIBCMT:winapinls.obj
 0002:00005588       ??_C@_1BG@EAKMMACD@?$AAb?$AAs?$AA?9?$AAb?$AAa?$AA?9?$AAl?$AAa?$AAt?$AAn?$AA?$AA@ 0000000140044588     LIBCMT:winapinls.obj
 0002:000055a0       ??_C@_1M@KGADAODK@?$AAc?$AAa?$AA?9?$AAe?$AAs?$AA?$AA@ 00000001400445a0     LIBCMT:winapinls.obj
 0002:000055b0       ??_C@_1M@COAJPDHI@?$AAc?$AAs?$AA?9?$AAc?$AAz?$AA?$AA@ 00000001400445b0     LIBCMT:winapinls.obj
 0002:000055c0       ??_C@_1M@DHBHFONH@?$AAc?$AAy?$AA?9?$AAg?$AAb?$AA?$AA@ 00000001400445c0     LIBCMT:winapinls.obj
 0002:000055d0       ??_C@_1M@IMGKELGA@?$AAd?$AAa?$AA?9?$AAd?$AAk?$AA?$AA@ 00000001400445d0     LIBCMT:winapinls.obj
 0002:000055e0       ??_C@_1M@NNDGDNGA@?$AAd?$AAe?$AA?9?$AAa?$AAt?$AA?$AA@ 00000001400445e0     LIBCMT:winapinls.obj
 0002:000055f0       ??_C@_1M@IKDBHEEM@?$AAd?$AAe?$AA?9?$AAc?$AAh?$AA?$AA@ 00000001400445f0     LIBCMT:winapinls.obj
 0002:00005600       ??_C@_1M@GFFOJMCJ@?$AAd?$AAe?$AA?9?$AAd?$AAe?$AA?$AA@ 0000000140044600     LIBCMT:winapinls.obj
 0002:00005610       ??_C@_1M@MDNLKBPM@?$AAd?$AAe?$AA?9?$AAl?$AAi?$AA?$AA@ 0000000140044610     LIBCMT:winapinls.obj
 0002:00005620       ??_C@_1M@NJBEEJNL@?$AAd?$AAe?$AA?9?$AAl?$AAu?$AA?$AA@ 0000000140044620     LIBCMT:winapinls.obj
 0002:00005630       ??_C@_1O@GNNELBAP@?$AAd?$AAi?$AAv?$AA?9?$AAm?$AAv?$AA?$AA@ 0000000140044630     LIBCMT:winapinls.obj
 0002:00005640       ??_C@_1M@EJLEOGAE@?$AAe?$AAl?$AA?9?$AAg?$AAr?$AA?$AA@ 0000000140044640     LIBCMT:winapinls.obj
 0002:00005650       ??_C@_1M@GMPONJN@?$AAe?$AAn?$AA?9?$AAa?$AAu?$AA?$AA@ 0000000140044650     LIBCMT:winapinls.obj
 0002:00005660       ??_C@_1M@NIDIIPGF@?$AAe?$AAn?$AA?9?$AAb?$AAz?$AA?$AA@ 0000000140044660     LIBCMT:winapinls.obj
 0002:00005670       ??_C@_1M@JEHMIMFO@?$AAe?$AAn?$AA?9?$AAc?$AAa?$AA?$AA@ 0000000140044670     LIBCMT:winapinls.obj
 0002:00005680       ??_C@_1M@IGMJCDLA@?$AAe?$AAn?$AA?9?$AAc?$AAb?$AA?$AA@ 0000000140044680     LIBCMT:winapinls.obj
 0002:00005690       ??_C@_1M@BNFIGBKG@?$AAe?$AAn?$AA?9?$AAg?$AAb?$AA?$AA@ 0000000140044690     LIBCMT:winapinls.obj
 0002:000056a0       ??_C@_1M@LKIFDIGP@?$AAe?$AAn?$AA?9?$AAi?$AAe?$AA?$AA@ 00000001400446a0     LIBCMT:winapinls.obj
 0002:000056b0       ??_C@_1M@PJKFGCCO@?$AAe?$AAn?$AA?9?$AAj?$AAm?$AA?$AA@ 00000001400446b0     LIBCMT:winapinls.obj
 0002:000056c0       ??_C@_1M@KPPKEPBO@?$AAe?$AAn?$AA?9?$AAn?$AAz?$AA?$AA@ 00000001400446c0     LIBCMT:winapinls.obj
 0002:000056d0       ??_C@_1M@GMDGLDOB@?$AAe?$AAn?$AA?9?$AAp?$AAh?$AA?$AA@ 00000001400446d0     LIBCMT:winapinls.obj
 0002:000056e0       ??_C@_1M@ONGIBJNA@?$AAe?$AAn?$AA?9?$AAt?$AAt?$AA?$AA@ 00000001400446e0     LIBCMT:winapinls.obj
 0002:000056f0       ??_C@_1M@LLODPCMM@?$AAe?$AAn?$AA?9?$AAu?$AAs?$AA?$AA@ 00000001400446f0     LIBCMT:winapinls.obj
 0002:00005700       ??_C@_1M@LAKFNPAN@?$AAe?$AAn?$AA?9?$AAz?$AAa?$AA?$AA@ 0000000140044700     LIBCMT:winapinls.obj
 0002:00005710       ??_C@_1M@MFNHNHEO@?$AAe?$AAn?$AA?9?$AAz?$AAw?$AA?$AA@ 0000000140044710     LIBCMT:winapinls.obj
 0002:00005720       ??_C@_1M@EJEINPHM@?$AAe?$AAs?$AA?9?$AAa?$AAr?$AA?$AA@ 0000000140044720     LIBCMT:winapinls.obj
 0002:00005730       ??_C@_1M@GNKPCCJA@?$AAe?$AAs?$AA?9?$AAb?$AAo?$AA?$AA@ 0000000140044730     LIBCMT:winapinls.obj
 0002:00005740       ??_C@_1M@LEEGFONL@?$AAe?$AAs?$AA?9?$AAc?$AAl?$AA?$AA@ 0000000140044740     LIBCMT:winapinls.obj
 0002:00005750       ??_C@_1M@KGPDPBDF@?$AAe?$AAs?$AA?9?$AAc?$AAo?$AA?$AA@ 0000000140044750     LIBCMT:winapinls.obj
 0002:00005760       ??_C@_1M@EIAHOHH@?$AAe?$AAs?$AA?9?$AAc?$AAr?$AA?$AA@ 0000000140044760     LIBCMT:winapinls.obj
 0002:00005770       ??_C@_1M@LLPGMBIN@?$AAe?$AAs?$AA?9?$AAd?$AAo?$AA?$AA@ 0000000140044770     LIBCMT:winapinls.obj
 0002:00005780       ??_C@_1M@DKHMKNJA@?$AAe?$AAs?$AA?9?$AAe?$AAc?$AA?$AA@ 0000000140044780     LIBCMT:winapinls.obj
 0002:00005790       ??_C@_1M@GKGFPKAP@?$AAe?$AAs?$AA?9?$AAe?$AAs?$AA?$AA@ 0000000140044790     LIBCMT:winapinls.obj
 0002:000057a0       ??_C@_1M@LKHKGDLN@?$AAe?$AAs?$AA?9?$AAg?$AAt?$AA?$AA@ 00000001400447a0     LIBCMT:winapinls.obj
 0002:000057b0       ??_C@_1M@HEIIGGJD@?$AAe?$AAs?$AA?9?$AAh?$AAn?$AA?$AA@ 00000001400447b0     LIBCMT:winapinls.obj
 0002:000057c0       ??_C@_1M@FBDHPPGD@?$AAe?$AAs?$AA?9?$AAm?$AAx?$AA?$AA@ 00000001400447c0     LIBCMT:winapinls.obj
 0002:000057d0       ??_C@_1M@DPAGLNDH@?$AAe?$AAs?$AA?9?$AAn?$AAi?$AA?$AA@ 00000001400447d0     LIBCMT:winapinls.obj
 0002:000057e0       ??_C@_1M@MDGOPGDD@?$AAe?$AAs?$AA?9?$AAp?$AAa?$AA?$AA@ 00000001400447e0     LIBCMT:winapinls.obj
 0002:000057f0       ??_C@_1M@EMAMGBGE@?$AAe?$AAs?$AA?9?$AAp?$AAe?$AA?$AA@ 00000001400447f0     LIBCMT:winapinls.obj
 0002:00005800       ??_C@_1M@IBMCAOEC@?$AAe?$AAs?$AA?9?$AAp?$AAr?$AA?$AA@ 0000000140044800     LIBCMT:winapinls.obj
 0002:00005810       ??_C@_1M@FGMDIJED@?$AAe?$AAs?$AA?9?$AAp?$AAy?$AA?$AA@ 0000000140044810     LIBCMT:winapinls.obj
 0002:00005820       ??_C@_1M@IIDEOLLL@?$AAe?$AAs?$AA?9?$AAs?$AAv?$AA?$AA@ 0000000140044820     LIBCMT:winapinls.obj
 0002:00005830       ??_C@_1M@GAOBIPA@?$AAe?$AAs?$AA?9?$AAu?$AAy?$AA?$AA@ 0000000140044830     LIBCMT:winapinls.obj
 0002:00005840       ??_C@_1M@JKFFICHJ@?$AAe?$AAs?$AA?9?$AAv?$AAe?$AA?$AA@ 0000000140044840     LIBCMT:winapinls.obj
 0002:00005850       ??_C@_1M@PNMLOJDF@?$AAe?$AAt?$AA?9?$AAe?$AAe?$AA?$AA@ 0000000140044850     LIBCMT:winapinls.obj
 0002:00005860       ??_C@_1M@GHHLIKEI@?$AAe?$AAu?$AA?9?$AAe?$AAs?$AA?$AA@ 0000000140044860     LIBCMT:winapinls.obj
 0002:00005870       ??_C@_1M@PBNONODE@?$AAf?$AAa?$AA?9?$AAi?$AAr?$AA?$AA@ 0000000140044870     LIBCMT:winapinls.obj
 0002:00005880       ??_C@_1M@JEEHPMIL@?$AAf?$AAi?$AA?9?$AAf?$AAi?$AA?$AA@ 0000000140044880     LIBCMT:winapinls.obj
 0002:00005890       ??_C@_1M@LMDCNDBA@?$AAf?$AAo?$AA?9?$AAf?$AAo?$AA?$AA@ 0000000140044890     LIBCMT:winapinls.obj
 0002:000058a0       ??_C@_1M@JKEOHLDK@?$AAf?$AAr?$AA?9?$AAb?$AAe?$AA?$AA@ 00000001400448a0     LIBCMT:winapinls.obj
 0002:000058b0       ??_C@_1M@NOHADPMI@?$AAf?$AAr?$AA?9?$AAc?$AAa?$AA?$AA@ 00000001400448b0     LIBCMT:winapinls.obj
 0002:000058c0       ??_C@_1M@KDHIHAEC@?$AAf?$AAr?$AA?9?$AAc?$AAh?$AA?$AA@ 00000001400448c0     LIBCMT:winapinls.obj
 0002:000058d0       ??_C@_1M@MMBBFGAK@?$AAf?$AAr?$AA?9?$AAf?$AAr?$AA?$AA@ 00000001400448d0     LIBCMT:winapinls.obj
 0002:000058e0       ??_C@_1M@PAFNENNF@?$AAf?$AAr?$AA?9?$AAl?$AAu?$AA?$AA@ 00000001400448e0     LIBCMT:winapinls.obj
 0002:000058f0       ??_C@_1M@EOHDJGDD@?$AAf?$AAr?$AA?9?$AAm?$AAc?$AA?$AA@ 00000001400448f0     LIBCMT:winapinls.obj
 0002:00005900       ??_C@_1M@FAPLLOPF@?$AAg?$AAl?$AA?9?$AAe?$AAs?$AA?$AA@ 0000000140044900     LIBCMT:winapinls.obj
 0002:00005910       ??_C@_1M@FOPBFLOO@?$AAg?$AAu?$AA?9?$AAi?$AAn?$AA?$AA@ 0000000140044910     LIBCMT:winapinls.obj
 0002:00005920       ??_C@_1M@KBMCINPM@?$AAh?$AAe?$AA?9?$AAi?$AAl?$AA?$AA@ 0000000140044920     LIBCMT:winapinls.obj
 0002:00005930       ??_C@_1M@BBPHKFPJ@?$AAh?$AAi?$AA?9?$AAi?$AAn?$AA?$AA@ 0000000140044930     LIBCMT:winapinls.obj
 0002:00005940       ??_C@_1M@PMBNDPHD@?$AAh?$AAr?$AA?9?$AAb?$AAa?$AA?$AA@ 0000000140044940     LIBCMT:winapinls.obj
 0002:00005950       ??_C@_1M@BPCKOEGE@?$AAh?$AAr?$AA?9?$AAh?$AAr?$AA?$AA@ 0000000140044950     LIBCMT:winapinls.obj
 0002:00005960       ??_C@_1M@GACBMHKE@?$AAh?$AAu?$AA?9?$AAh?$AAu?$AA?$AA@ 0000000140044960     LIBCMT:winapinls.obj
 0002:00005970       ??_C@_1M@MILPAJJC@?$AAh?$AAy?$AA?9?$AAa?$AAm?$AA?$AA@ 0000000140044970     LIBCMT:winapinls.obj
 0002:00005980       ??_C@_1M@BABBICEC@?$AAi?$AAd?$AA?9?$AAi?$AAd?$AA?$AA@ 0000000140044980     LIBCMT:winapinls.obj
 0002:00005990       ??_C@_1M@BIKNHHPF@?$AAi?$AAs?$AA?9?$AAi?$AAs?$AA?$AA@ 0000000140044990     LIBCMT:winapinls.obj
 0002:000059a0       ??_C@_1M@NMPCJPHE@?$AAi?$AAt?$AA?9?$AAc?$AAh?$AA?$AA@ 00000001400449a0     LIBCMT:winapinls.obj
 0002:000059b0       ??_C@_1M@GHKGFEDF@?$AAi?$AAt?$AA?9?$AAi?$AAt?$AA?$AA@ 00000001400449b0     LIBCMT:winapinls.obj
 0002:000059c0       ??_C@_1M@NIEJCJJA@?$AAj?$AAa?$AA?9?$AAj?$AAp?$AA?$AA@ 00000001400449c0     LIBCMT:winapinls.obj
 0002:000059d0       ??_C@_1M@JILFNBIM@?$AAk?$AAa?$AA?9?$AAg?$AAe?$AA?$AA@ 00000001400449d0     LIBCMT:winapinls.obj
 0002:000059e0       ??_C@_1M@PACPMGPH@?$AAk?$AAk?$AA?9?$AAk?$AAz?$AA?$AA@ 00000001400449e0     LIBCMT:winapinls.obj
 0002:000059f0       ??_C@_1M@IELFGMHA@?$AAk?$AAn?$AA?9?$AAi?$AAn?$AA?$AA@ 00000001400449f0     LIBCMT:winapinls.obj
 0002:00005a00       ??_C@_1O@IBBJHCH@?$AAk?$AAo?$AAk?$AA?9?$AAi?$AAn?$AA?$AA@ 0000000140044a00     LIBCMT:winapinls.obj
 0002:00005a10       ??_C@_1M@DMHAEOGC@?$AAk?$AAo?$AA?9?$AAk?$AAr?$AA?$AA@ 0000000140044a10     LIBCMT:winapinls.obj
 0002:00005a20       ??_C@_1M@HBAHBIGA@?$AAk?$AAy?$AA?9?$AAk?$AAg?$AA?$AA@ 0000000140044a20     LIBCMT:winapinls.obj
 0002:00005a30       ??_C@_1M@KPMILCJG@?$AAl?$AAt?$AA?9?$AAl?$AAt?$AA?$AA@ 0000000140044a30     LIBCMT:winapinls.obj
 0002:00005a40       ??_C@_1M@BDEKKCA@?$AAl?$AAv?$AA?9?$AAl?$AAv?$AA?$AA@ 0000000140044a40     LIBCMT:winapinls.obj
 0002:00005a50       ??_C@_1M@ELCKCCJJ@?$AAm?$AAi?$AA?9?$AAn?$AAz?$AA?$AA@ 0000000140044a50     LIBCMT:winapinls.obj
 0002:00005a60       ??_C@_1M@CBOOLAPA@?$AAm?$AAk?$AA?9?$AAm?$AAk?$AA?$AA@ 0000000140044a60     LIBCMT:winapinls.obj
 0002:00005a70       ??_C@_1M@GPHNBJKN@?$AAm?$AAl?$AA?9?$AAi?$AAn?$AA?$AA@ 0000000140044a70     LIBCMT:winapinls.obj
 0002:00005a80       ??_C@_1M@PABJILIG@?$AAm?$AAn?$AA?9?$AAm?$AAn?$AA?$AA@ 0000000140044a80     LIBCMT:winapinls.obj
 0002:00005a90       ??_C@_1M@FGBKKIPG@?$AAm?$AAr?$AA?9?$AAi?$AAn?$AA?$AA@ 0000000140044a90     LIBCMT:winapinls.obj
 0002:00005aa0       ??_C@_1M@NDBPDDAL@?$AAm?$AAs?$AA?9?$AAb?$AAn?$AA?$AA@ 0000000140044aa0     LIBCMT:winapinls.obj
 0002:00005ab0       ??_C@_1M@OPIHOOPI@?$AAm?$AAs?$AA?9?$AAm?$AAy?$AA?$AA@ 0000000140044ab0     LIBCMT:winapinls.obj
 0002:00005ac0       ??_C@_1M@PPDBCNFM@?$AAm?$AAt?$AA?9?$AAm?$AAt?$AA?$AA@ 0000000140044ac0     LIBCMT:winapinls.obj
 0002:00005ad0       ??_C@_1M@KDJDKMDD@?$AAn?$AAb?$AA?9?$AAn?$AAo?$AA?$AA@ 0000000140044ad0     LIBCMT:winapinls.obj
 0002:00005ae0       ??_C@_1M@KFCFLMJP@?$AAn?$AAl?$AA?9?$AAb?$AAe?$AA?$AA@ 0000000140044ae0     LIBCMT:winapinls.obj
 0002:00005af0       ??_C@_1M@KPOPDDGO@?$AAn?$AAl?$AA?9?$AAn?$AAl?$AA?$AA@ 0000000140044af0     LIBCMT:winapinls.obj
 0002:00005b00       ??_C@_1M@LJKPEMLN@?$AAn?$AAn?$AA?9?$AAn?$AAo?$AA?$AA@ 0000000140044b00     LIBCMT:winapinls.obj
 0002:00005b10       ??_C@_1M@BDGHHBFL@?$AAn?$AAs?$AA?9?$AAz?$AAa?$AA?$AA@ 0000000140044b10     LIBCMT:winapinls.obj
 0002:00005b20       ??_C@_1M@IDEHOAP@?$AAp?$AAa?$AA?9?$AAi?$AAn?$AA?$AA@ 0000000140044b20     LIBCMT:winapinls.obj
 0002:00005b30       ??_C@_1M@HDBKGOGH@?$AAp?$AAl?$AA?9?$AAp?$AAl?$AA?$AA@ 0000000140044b30     LIBCMT:winapinls.obj
 0002:00005b40       ??_C@_1M@LJLLCMEH@?$AAp?$AAt?$AA?9?$AAb?$AAr?$AA?$AA@ 0000000140044b40     LIBCMT:winapinls.obj
 0002:00005b50       ??_C@_1M@NCMONAAL@?$AAp?$AAt?$AA?9?$AAp?$AAt?$AA?$AA@ 0000000140044b50     LIBCMT:winapinls.obj
 0002:00005b60       ??_C@_1O@EAKMAJDN@?$AAq?$AAu?$AAz?$AA?9?$AAb?$AAo?$AA?$AA@ 0000000140044b60     LIBCMT:winapinls.obj
 0002:00005b70       ??_C@_1O@BHHPIGDN@?$AAq?$AAu?$AAz?$AA?9?$AAe?$AAc?$AA?$AA@ 0000000140044b70     LIBCMT:winapinls.obj
 0002:00005b80       ??_C@_1O@GBAPEKMJ@?$AAq?$AAu?$AAz?$AA?9?$AAp?$AAe?$AA?$AA@ 0000000140044b80     LIBCMT:winapinls.obj
 0002:00005b90       ??_C@_1M@CLGLEFBO@?$AAr?$AAo?$AA?9?$AAr?$AAo?$AA?$AA@ 0000000140044b90     LIBCMT:winapinls.obj
 0002:00005ba0       ??_C@_1M@CEEDODME@?$AAr?$AAu?$AA?9?$AAr?$AAu?$AA?$AA@ 0000000140044ba0     LIBCMT:winapinls.obj
 0002:00005bb0       ??_C@_1M@HPKKKMPP@?$AAs?$AAa?$AA?9?$AAi?$AAn?$AA?$AA@ 0000000140044bb0     LIBCMT:winapinls.obj
 0002:00005bc0       ??_C@_1M@BKMAIGOJ@?$AAs?$AAe?$AA?9?$AAf?$AAi?$AA?$AA@ 0000000140044bc0     LIBCMT:winapinls.obj
 0002:00005bd0       ??_C@_1M@NDPIFLFI@?$AAs?$AAe?$AA?9?$AAn?$AAo?$AA?$AA@ 0000000140044bd0     LIBCMT:winapinls.obj
 0002:00005be0       ??_C@_1M@DANKKHJ@?$AAs?$AAe?$AA?9?$AAs?$AAe?$AA?$AA@ 0000000140044be0     LIBCMT:winapinls.obj
 0002:00005bf0       ??_C@_1M@PNBLONPJ@?$AAs?$AAk?$AA?9?$AAs?$AAk?$AA?$AA@ 0000000140044bf0     LIBCMT:winapinls.obj
 0002:00005c00       ??_C@_1M@LFMODOAL@?$AAs?$AAl?$AA?9?$AAs?$AAi?$AA?$AA@ 0000000140044c00     LIBCMT:winapinls.obj
 0002:00005c10       ??_C@_1O@DFKOMPG@?$AAs?$AAm?$AAa?$AA?9?$AAn?$AAo?$AA?$AA@ 0000000140044c10     LIBCMT:winapinls.obj
 0002:00005c20       ??_C@_1O@NDKPBNNH@?$AAs?$AAm?$AAa?$AA?9?$AAs?$AAe?$AA?$AA@ 0000000140044c20     LIBCMT:winapinls.obj
 0002:00005c30       ??_C@_1O@PLLKBHAB@?$AAs?$AAm?$AAj?$AA?9?$AAn?$AAo?$AA?$AA@ 0000000140044c30     LIBCMT:winapinls.obj
 0002:00005c40       ??_C@_1O@CLEPOGCA@?$AAs?$AAm?$AAj?$AA?9?$AAs?$AAe?$AA?$AA@ 0000000140044c40     LIBCMT:winapinls.obj
 0002:00005c50       ??_C@_1O@DLGJGKMK@?$AAs?$AAm?$AAn?$AA?9?$AAf?$AAi?$AA?$AA@ 0000000140044c50     LIBCMT:winapinls.obj
 0002:00005c60       ??_C@_1O@OJDJGAJC@?$AAs?$AAm?$AAs?$AA?9?$AAf?$AAi?$AA?$AA@ 0000000140044c60     LIBCMT:winapinls.obj
 0002:00005c70       ??_C@_1M@BOFOGHPB@?$AAs?$AAq?$AA?9?$AAa?$AAl?$AA?$AA@ 0000000140044c70     LIBCMT:winapinls.obj
 0002:00005c80       ??_C@_1BG@LJBBIPGB@?$AAs?$AAr?$AA?9?$AAb?$AAa?$AA?9?$AAc?$AAy?$AAr?$AAl?$AA?$AA@ 0000000140044c80     LIBCMT:winapinls.obj
 0002:00005c98       ??_C@_1BG@JLBENFOE@?$AAs?$AAr?$AA?9?$AAb?$AAa?$AA?9?$AAl?$AAa?$AAt?$AAn?$AA?$AA@ 0000000140044c98     LIBCMT:winapinls.obj
 0002:00005cb0       ??_C@_1BG@KODPNHE@?$AAs?$AAr?$AA?9?$AAs?$AAp?$AA?9?$AAc?$AAy?$AAr?$AAl?$AA?$AA@ 0000000140044cb0     LIBCMT:winapinls.obj
 0002:00005cc8       ??_C@_1BG@CIOGKHPB@?$AAs?$AAr?$AA?9?$AAs?$AAp?$AA?9?$AAl?$AAa?$AAt?$AAn?$AA?$AA@ 0000000140044cc8     LIBCMT:winapinls.obj
 0002:00005ce0       ??_C@_1M@NGFJLMAC@?$AAs?$AAv?$AA?9?$AAf?$AAi?$AA?$AA@ 0000000140044ce0     LIBCMT:winapinls.obj
 0002:00005cf0       ??_C@_1M@MPJEJAJC@?$AAs?$AAv?$AA?9?$AAs?$AAe?$AA?$AA@ 0000000140044cf0     LIBCMT:winapinls.obj
 0002:00005d00       ??_C@_1M@MPNDHLFK@?$AAs?$AAw?$AA?9?$AAk?$AAe?$AA?$AA@ 0000000140044d00     LIBCMT:winapinls.obj
 0002:00005d10       ??_C@_1O@KOHBJJI@?$AAs?$AAy?$AAr?$AA?9?$AAs?$AAy?$AA?$AA@ 0000000140044d10     LIBCMT:winapinls.obj
 0002:00005d20       ??_C@_1M@LDCEFHA@?$AAt?$AAa?$AA?9?$AAi?$AAn?$AA?$AA@ 0000000140044d20     LIBCMT:winapinls.obj
 0002:00005d30       ??_C@_1M@CNJOFAK@?$AAt?$AAe?$AA?9?$AAi?$AAn?$AA?$AA@ 0000000140044d30     LIBCMT:winapinls.obj
 0002:00005d40       ??_C@_1M@GNAECACD@?$AAt?$AAh?$AA?9?$AAt?$AAh?$AA?$AA@ 0000000140044d40     LIBCMT:winapinls.obj
 0002:00005d50       ??_C@_1M@CHBIHOJO@?$AAt?$AAn?$AA?9?$AAz?$AAa?$AA?$AA@ 0000000140044d50     LIBCMT:winapinls.obj
 0002:00005d60       ??_C@_1M@GCCMIGPJ@?$AAt?$AAr?$AA?9?$AAt?$AAr?$AA?$AA@ 0000000140044d60     LIBCMT:winapinls.obj
 0002:00005d70       ??_C@_1M@CELMCNBK@?$AAt?$AAt?$AA?9?$AAr?$AAu?$AA?$AA@ 0000000140044d70     LIBCMT:winapinls.obj
 0002:00005d80       ??_C@_1M@KLMCELGA@?$AAu?$AAk?$AA?9?$AAu?$AAa?$AA?$AA@ 0000000140044d80     LIBCMT:winapinls.obj
 0002:00005d90       ??_C@_1M@EPAJJAJF@?$AAu?$AAr?$AA?9?$AAp?$AAk?$AA?$AA@ 0000000140044d90     LIBCMT:winapinls.obj
 0002:00005da0       ??_C@_1BG@GEGPMCDJ@?$AAu?$AAz?$AA?9?$AAu?$AAz?$AA?9?$AAc?$AAy?$AAr?$AAl?$AA?$AA@ 0000000140044da0     LIBCMT:winapinls.obj
 0002:00005db8       ??_C@_1BG@EGGKJILM@?$AAu?$AAz?$AA?9?$AAu?$AAz?$AA?9?$AAl?$AAa?$AAt?$AAn?$AA?$AA@ 0000000140044db8     LIBCMT:winapinls.obj
 0002:00005dd0       ??_C@_1M@GFOCLFF@?$AAv?$AAi?$AA?9?$AAv?$AAn?$AA?$AA@ 0000000140044dd0     LIBCMT:winapinls.obj
 0002:00005de0       ??_C@_1M@CPAMEDFI@?$AAx?$AAh?$AA?9?$AAz?$AAa?$AA?$AA@ 0000000140044de0     LIBCMT:winapinls.obj
 0002:00005df0       ??_C@_1O@EBKIFIGN@?$AAz?$AAh?$AA?9?$AAc?$AAh?$AAs?$AA?$AA@ 0000000140044df0     LIBCMT:winapinls.obj
 0002:00005e00       ??_C@_1O@NMHPGANE@?$AAz?$AAh?$AA?9?$AAc?$AAh?$AAt?$AA?$AA@ 0000000140044e00     LIBCMT:winapinls.obj
 0002:00005e10       ??_C@_1M@LPINJOMC@?$AAz?$AAh?$AA?9?$AAc?$AAn?$AA?$AA@ 0000000140044e10     LIBCMT:winapinls.obj
 0002:00005e20       ??_C@_1M@OCJEJODD@?$AAz?$AAh?$AA?9?$AAh?$AAk?$AA?$AA@ 0000000140044e20     LIBCMT:winapinls.obj
 0002:00005e30       ??_C@_1M@DNDLJINH@?$AAz?$AAh?$AA?9?$AAm?$AAo?$AA?$AA@ 0000000140044e30     LIBCMT:winapinls.obj
 0002:00005e40       ??_C@_1M@MBFDNDND@?$AAz?$AAh?$AA?9?$AAs?$AAg?$AA?$AA@ 0000000140044e40     LIBCMT:winapinls.obj
 0002:00005e50       ??_C@_1M@IMEPLEPE@?$AAz?$AAh?$AA?9?$AAt?$AAw?$AA?$AA@ 0000000140044e50     LIBCMT:winapinls.obj
 0002:00005e60       ??_C@_1M@BBGHNHJP@?$AAz?$AAu?$AA?9?$AAz?$AAa?$AA?$AA@ 0000000140044e60     LIBCMT:winapinls.obj
 0002:00005e80       __newctype                 0000000140044e80     LIBCMT:ctype.obj
 0002:00006180       _wctype                    0000000140045180     LIBCMT:ctype.obj
 0002:00006390       __newclmap                 0000000140045390     LIBCMT:ctype.obj
 0002:00006510       __newcumap                 0000000140045510     LIBCMT:ctype.obj
 0002:00006710       _FPinit                    0000000140045710     LIBCMT:fpinit.obj
 0002:00006718       __rg_language_count        0000000140045718     LIBCMT:getqloc.obj
 0002:0000671c       __rg_country_count         000000014004571c     LIBCMT:getqloc.obj
 0002:00006720       ??_C@_1BA@BALFACEM@?$AAC?$AAO?$AAN?$AAO?$AAU?$AAT?$AA$?$AA?$AA@ 0000000140045720     LIBCMT:initcon.obj
 0002:00006730       ??_C@_05KLBDPFGC@e?$CL000?$AA@ 0000000140045730     LIBCMT:cvt.obj
 0002:00006738       __real@0000000000000000    0000000140045738     LIBCMT:cvt.obj
 0002:00006740       ??_C@_06PGGFOGJG@1?$CDSNAN?$AA@ 0000000140045740     LIBCMT:x10fout.obj
 0002:00006748       ??_C@_05PHHOCPM@1?$CDIND?$AA@ 0000000140045748     LIBCMT:x10fout.obj
 0002:00006750       ??_C@_05DNEBIAHO@1?$CDINF?$AA@ 0000000140045750     LIBCMT:x10fout.obj
 0002:00006758       ??_C@_06IMKFLFPG@1?$CDQNAN?$AA@ 0000000140045758     LIBCMT:x10fout.obj
 0002:00006760       ??_7CColorPage@@6B@        0000000140045760     Colorpge.obj
 0002:000068d0       ??_C@_19PLOBJMHF@?$AAE?$AAd?$AAi?$AAt?$AA?$AA@ 00000001400458d0     Colorpge.obj
 0002:000068e0       ??_7CDialog@@6B@           00000001400458e0     Colorpge.obj
 0002:000068e0       ??_7CAboutDlg@@6B@         00000001400458e0     Propdlg.obj
 0002:00006a00       ??_7CPropertyPageMTL@@6B@  0000000140045a00     Colorpge.obj
 0002:00006b70       ??_7CWinThread@@6B@        0000000140045b70     Propdlg.obj
 0002:00006b70       ??_7CCmdTarget@@6B@        0000000140045b70     Colorpge.obj
 0002:00006ba0       ??_7CMenuMTL@@6B@          0000000140045ba0     Colorpge.obj
 0002:00006ba8       ??_7CCmdUI@@6B@            0000000140045ba8     Colorpge.obj
 0002:00006bc8       ??_7CTestCmdUI@@6B@        0000000140045bc8     Colorpge.obj
 0002:00006be8       ??_7CDCMTL@@6B@            0000000140045be8     Colorpge.obj
 0002:00006c18       ??_C@_1CG@CIFFLLLF@?$AAA?$AAf?$AAx?$AAO?$AAl?$AAe?$AAC?$AAo?$AAn?$AAt?$AAr?$AAo?$AAl?$AAM?$AAt?$AAl?$AAs?$AAu?$AA?$AA@ 0000000140045c18     Colorpge.obj
 0002:00006c40       ??_C@_1CG@NNGBBFDA@?$AAA?$AAf?$AAx?$AAC?$AAo?$AAn?$AAt?$AAr?$AAo?$AAl?$AAB?$AAa?$AAr?$AAM?$AAt?$AAl?$AAs?$AAu?$AA?$AA@ 0000000140045c40     Colorpge.obj
 0002:00006c68       ??_C@_1CC@MNOFIAGJ@?$AAA?$AAf?$AAx?$AAM?$AAD?$AAI?$AAF?$AAr?$AAa?$AAm?$AAe?$AAM?$AAt?$AAl?$AAs?$AAu?$AA?$AA@ 0000000140045c68     Colorpge.obj
 0002:00006c90       ??_C@_1CI@EHIBCPFK@?$AAA?$AAf?$AAx?$AAF?$AAr?$AAa?$AAm?$AAe?$AAO?$AAr?$AAV?$AAi?$AAe?$AAw?$AAM?$AAt?$AAl?$AAs?$AAu?$AA?$AA@ 0000000140045c90     Colorpge.obj
 0002:00006cb8       ??_C@_1BI@GHDBJIII@?$AAA?$AAf?$AAx?$AAW?$AAn?$AAd?$AAM?$AAt?$AAl?$AAs?$AAu?$AA?$AA@ 0000000140045cb8     Colorpge.obj
 0002:00006cd0       ??_7CWnd@@6B@              0000000140045cd0     Colorpge.obj
 0002:00006dc0       ??_C@_0L@GOKPKJAL@CMainFrame?$AA@ 0000000140045dc0     Mainfrm.obj
 0002:00006dd0       ?_afxSysColorMap@?1??AfxLoadSysColorBitmap@@YAPEAUHBITMAP__@@PEAUHINSTANCE__@@PEAUHRSRC__@@H@Z@4QBUAFX_COLORMAP@@B 0000000140045dd0     Mainfrm.obj
 0002:00006df0       ??_7CToolCmdUI@@6B@        0000000140045df0     Mainfrm.obj
 0002:00006e10       ??_C@_1BA@MKONEDAA@?$AAM?$AAa?$AAr?$AAl?$AAe?$AAt?$AAt?$AA?$AA@ 0000000140045e10     Mainfrm.obj
 0002:00006e20       ??_C@_1CA@BPIDFFJM@?$AAT?$AAo?$AAo?$AAl?$AAb?$AAa?$AAr?$AAW?$AAi?$AAn?$AAd?$AAo?$AAw?$AA3?$AA2?$AA?$AA@ 0000000140045e20     Mainfrm.obj
 0002:00006e40       ??_7CToolBar@@6B@          0000000140045e40     Mainfrm.obj
 0002:00006f78       ??_7CClientDCMTL@@6B@      0000000140045f78     Mainfrm.obj
 0002:00006f78       ??_7CWindowDCMTL@@6B@      0000000140045f78     Mainfrm.obj
 0002:00006fa8       ??_7CControlBar@@6B@       0000000140045fa8     Mainfrm.obj
 0002:000070d0       ??_C@_1CC@KPOKNCMJ@?$AAt?$AAo?$AAo?$AAl?$AAt?$AAi?$AAp?$AAs?$AA_?$AAc?$AAl?$AAa?$AAs?$AAs?$AA3?$AA2?$AA?$AA@ 00000001400460d0     Mainfrm.obj
 0002:000070f8       ??_7CToolTipCtrlMTL@@6B@   00000001400460f8     Mainfrm.obj
 0002:000071e8       ??_7CStatusCmdUI@@6B@      00000001400461e8     Mainfrm.obj
 0002:00007208       ??_C@_1CG@JPMAJDKP@?$AAm?$AAs?$AAc?$AAt?$AAl?$AAs?$AA_?$AAs?$AAt?$AAa?$AAt?$AAu?$AAs?$AAb?$AAa?$AAr?$AA3?$AA2?$AA?$AA@ 0000000140046208     Mainfrm.obj
 0002:00007230       ??_7CStatusBar@@6B@        0000000140046230     Mainfrm.obj
 0002:00007368       ??_7CMainFrame@@6B@        0000000140046368     Mainfrm.obj
 0002:000074d0       ??_C@_1BE@NPJIFNDC@?$AAm?$AAd?$AAi?$AAc?$AAl?$AAi?$AAe?$AAn?$AAt?$AA?$AA@ 00000001400464d0     Mainfrm.obj
 0002:000074e8       ??_7CMDIFrameWnd@@6B@      00000001400464e8     Mainfrm.obj
 0002:00007650       ??_C@_1BE@HKKEDLN@?$AAA?$AAf?$AAx?$AA?3?$AA?$CF?$AAp?$AA?3?$AA?$CF?$AAx?$AA?$AA@ 0000000140046650     Mainfrm.obj
 0002:00007668       ??_C@_1CG@OIBFCNKA@?$AAA?$AAf?$AAx?$AA?3?$AA?$CF?$AAp?$AA?3?$AA?$CF?$AAx?$AA?3?$AA?$CF?$AAp?$AA?3?$AA?$CF?$AAp?$AA?3?$AA?$CF?$AAp?$AA?$AA@ 0000000140046668     Mainfrm.obj
 0002:00007690       ??_7CFrameWnd@@6B@         0000000140046690     Mainfrm.obj
 0002:000077e0       ??_C@_17HIKLPLBG@?$AA?5?$AA?9?$AA?5?$AA?$AA@ 00000001400467e0     Mainfrm.obj
 0002:000077e8       ??_C@_17GNPFJLPC@?$AA?3?$AA?$CF?$AAd?$AA?$AA@ 00000001400467e8     Mainfrm.obj
 0002:000077f0       ??_C@_11LOCGONAA@?$AA?$AA@ 00000001400467f0     Mainfrm.obj
 0002:000077f8       ?classCMainFrame@CMainFrame@@2UCRuntimeClass@@B 00000001400467f8     Mainfrm.obj
 0002:00007828       ??_7CShapePropSheetFrame@@6B@ 0000000140046828     Minifrm.obj
 0002:00007988       ??_7CMiniFrameWnd@@6B@     0000000140046988     Minifrm.obj
 0002:00007ae8       ??_7CPaintDCMTL@@6B@       0000000140046ae8     Preview.obj
 0002:00007b18       ??_7CShapePreviewWnd@@6B@  0000000140046b18     Preview.obj
 0002:00007c08       ??_C@_1BE@FLHKCJKF@?$AAS?$AAo?$AAf?$AAt?$AAw?$AAa?$AAr?$AAe?$AA?2?$AA?$AA@ 0000000140046c08     Propdlg.obj
 0002:00007c1c       ??_C@_13FPGAJAPJ@?$AA?2?$AA?$AA@ 0000000140046c1c     Propdlg.obj
 0002:00007c20       ??_C@_1BE@PCAHDEC@?$AAR?$AAe?$AAg?$AAs?$AAe?$AAr?$AAv?$AAe?$AAr?$AA?$AA@ 0000000140046c20     Propdlg.obj
 0002:00007c38       ??_C@_1BI@IBDPMBJA@?$AAU?$AAn?$AAr?$AAe?$AAg?$AAs?$AAe?$AAr?$AAv?$AAe?$AAr?$AA?$AA@ 0000000140046c38     Propdlg.obj
 0002:00007c50       ??_7CCommandLineInfo@@6B@  0000000140046c50     Propdlg.obj
 0002:00007c58       ??_C@_1O@KFLILLAF@?$AAs?$AAy?$AAs?$AAt?$AAe?$AAm?$AA?$AA@ 0000000140046c58     Propdlg.obj
 0002:00007c68       ??_7CDocManager@@6B@       0000000140046c68     Propdlg.obj
 0002:00007c90       ??_7CMultiDocTemplate@@6B@ 0000000140046c90     Propdlg.obj
 0002:00007d30       ??_C@_1O@JCDBNCBG@?$AAF?$AAi?$AAl?$AAe?$AA?$CF?$AAd?$AA?$AA@ 0000000140046d30     Propdlg.obj
 0002:00007d40       ??_C@_1CC@PIPLMNK@?$AAR?$AAe?$AAc?$AAe?$AAn?$AAt?$AA?5?$AAF?$AAi?$AAl?$AAe?$AA?5?$AAL?$AAi?$AAs?$AAt?$AA?$AA@ 0000000140046d40     Propdlg.obj
 0002:00007d68       ??_7CPropDlgApp@@6B@       0000000140046d68     Propdlg.obj
 0002:00007de0       ??_7CRecentFileList@@6B@   0000000140046de0     Propdlg.obj
 0002:00007e18       ??_C@_15KNBIKKIN@?$AA?$CF?$AAd?$AA?$AA@ 0000000140046e18     Propdlg.obj
 0002:00007e20       ??_C@_1BK@CIMJNOJA@?$AAP?$AAr?$AAe?$AAv?$AAi?$AAe?$AAw?$AAP?$AAa?$AAg?$AAe?$AAs?$AA?$AA@ 0000000140046e20     Propdlg.obj
 0002:00007e40       ??_C@_1BC@PFDDLKEP@?$AAS?$AAe?$AAt?$AAt?$AAi?$AAn?$AAg?$AAs?$AA?$AA@ 0000000140046e40     Propdlg.obj
 0002:00007e58       ??_7CWinApp@@6B@           0000000140046e58     Propdlg.obj
 0002:00007ed0       ??_C@_19COOKDNGA@?$AA?2?$AA?4?$AA?4?$AA?4?$AA?$AA@ 0000000140046ed0     Propdlg.obj
 0002:00007ee0       ??_C@_17BIBMKONG@?$AA?$CF?$AAd?$AA?5?$AA?$AA@ 0000000140046ee0     Propdlg.obj
 0002:00007ee8       ??_C@_19BFLNMN@?$AA1?$AA?$CG?$AA0?$AA?5?$AA?$AA@ 0000000140046ee8     Propdlg.obj
 0002:00007ef8       ??_C@_19NMPHGKFO@?$AA?$CG?$AA?$CF?$AAd?$AA?5?$AA?$AA@ 0000000140046ef8     Propdlg.obj
 0002:00007f08       ??_7CPrintDialogMTL@@6BCCommonWnd@@@ 0000000140046f08     Propdlg.obj
 0002:00007f40       ??_7CPrintDialog@WTL@@6B@  0000000140046f40     Propdlg.obj
 0002:00007f60       ??_7CPrintDialogMTL@@6BCPrintDialog@WTL@@@ 0000000140046f60     Propdlg.obj
 0002:00007f80       ??_C@_1DG@FEMKIBFE@?$AAc?$AAo?$AAm?$AAm?$AAd?$AAl?$AAg?$AA_?$AAL?$AAB?$AAS?$AAe?$AAl?$AAC?$AAh?$AAa?$AAn?$AAg?$AAe?$AAd?$AAN?$AAo?$AAt?$AAi?$AAf?$AAy?$AA?$AA@ 0000000140046f80     Propdlg.obj
 0002:00007fb8       ??_C@_1CO@DLGJGAHF@?$AAc?$AAo?$AAm?$AAm?$AAd?$AAl?$AAg?$AA_?$AAS?$AAh?$AAa?$AAr?$AAe?$AAV?$AAi?$AAo?$AAl?$AAa?$AAt?$AAi?$AAo?$AAn?$AA?$AA@ 0000000140046fb8     Propdlg.obj
 0002:00007fe8       ??_C@_1CG@ONEINPB@?$AAc?$AAo?$AAm?$AAm?$AAd?$AAl?$AAg?$AA_?$AAF?$AAi?$AAl?$AAe?$AAN?$AAa?$AAm?$AAe?$AAO?$AAK?$AA?$AA@ 0000000140046fe8     Propdlg.obj
 0002:00008010       ??_C@_1BK@GANHMGLO@?$AAc?$AAo?$AAm?$AAm?$AAd?$AAl?$AAg?$AA_?$AAh?$AAe?$AAl?$AAp?$AA?$AA@ 0000000140047010     Propdlg.obj
 0002:00008030       ??_C@_1CI@KDHMACFL@?$AAc?$AAo?$AAm?$AAm?$AAd?$AAl?$AAg?$AA_?$AAS?$AAe?$AAt?$AAR?$AAG?$AAB?$AAC?$AAo?$AAl?$AAo?$AAr?$AA?$AA@ 0000000140047030     Propdlg.obj
 0002:00008058       _GUID_42f85136_db7e_439c_85f1_e4075d135fc8 0000000140047058     Propdlg.obj
 0002:00008068       _GUID_e6fdd21a_163f_4975_9c8c_a69f1ba37034 0000000140047068     Propdlg.obj
 0002:00008078       ??_7CFileDialogMTL@@6B@    0000000140047078     Propdlg.obj
 0002:000081d8       ??_C@_13PJJBFPED@?$AA?$DL?$AA?$AA@ 00000001400471d8     Propdlg.obj
 0002:000081e0       ??_C@_17ECHFBE@?$AA?$CK?$AA?4?$AA?$CK?$AA?$AA@ 00000001400471e0     Propdlg.obj
 0002:000081e8       ??_C@_1BI@BNFKGMFK@?$AAs?$AAh?$AAe?$AAl?$AAl?$AA3?$AA2?$AA?4?$AAd?$AAl?$AAl?$AA?$AA@ 00000001400471e8     Propdlg.obj
 0002:00008200       ??_C@_0BM@LOMPMPGE@SHCreateItemFromParsingName?$AA@ 0000000140047200     Propdlg.obj
 0002:00008220       _GUID_43826d1e_e718_42ee_bc55_a1e261c37bfe 0000000140047220     Propdlg.obj
 0002:00008230       _GUID_84bccd23_5fde_4cdb_aea4_af64b83d78ab 0000000140047230     Propdlg.obj
 0002:00008240       _GUID_d57c7288_d4ad_4768_be02_9d969532d960 0000000140047240     Propdlg.obj
 0002:00008250       ??_C@_1GG@FCALANDO@?$AA?$HL?$AA?$CF?$AA0?$AA8?$AAX?$AA?9?$AA?$CF?$AA0?$AA4?$AAX?$AA?9?$AA?$CF?$AA0?$AA4?$AAX?$AA?9?$AA?$CF?$AA0?$AA2?$AAX?$AA?$CF?$AA0?$AA2?$AAX?$AA?9?$AA?$CF?$AA0?$AA2?$AAX?$AA?$CF?$AA0?$AA2@ 0000000140047250     Propdlg.obj
 0002:000082b8       ??_C@_1M@KANJNLFF@?$AAC?$AAL?$AAS?$AAI?$AAD?$AA?$AA@ 00000001400472b8     Propdlg.obj
 0002:000082c8       ??_C@_1BO@ECHKLJPO@?$AAI?$AAn?$AAP?$AAr?$AAo?$AAc?$AAS?$AAe?$AAr?$AAv?$AAe?$AAr?$AA3?$AA2?$AA?$AA@ 00000001400472c8     Propdlg.obj
 0002:000082e8       ??_C@_0BC@JDLGBILA@DllGetClassObject?$AA@ 00000001400472e8     Propdlg.obj
 0002:00008300       ??_7CNewTypeDlg@@6B@       0000000140047300     Propdlg.obj
 0002:00008420       ?classCModalShapePropSheet@CModalShapePropSheet@@2UCRuntimeClass@@B 0000000140047420     Propsht.obj
 0002:00008450       ??_C@_0BF@ECDMNOIA@CModalShapePropSheet?$AA@ 0000000140047450     Propsht.obj
 0002:00008468       ??_7CModalShapePropSheet@@6B@ 0000000140047468     Propsht.obj
 0002:00008570       ??_C@_1CA@HFFPBPDB@?$AAA?$AAf?$AAx?$AAC?$AAl?$AAo?$AAs?$AAe?$AAP?$AAe?$AAn?$AAd?$AAi?$AAn?$AAg?$AA?$AA@ 0000000140047570     Propsht.obj
 0002:00008590       ??_C@_1BK@JKBHGHPP@?$AAc?$AAo?$AAm?$AAc?$AAt?$AAl?$AA3?$AA2?$AA?4?$AAd?$AAl?$AAl?$AA?$AA@ 0000000140047590     Propsht.obj
 0002:000085b0       ??_C@_1BK@KKCMHLHP@?$AAM?$AAS?$AA?5?$AAU?$AAI?$AA?5?$AAG?$AAo?$AAt?$AAh?$AAi?$AAc?$AA?$AA@ 00000001400475b0     Propsht.obj
 0002:000085d0       ??_7CPropertySheetMTL@@6B@ 00000001400475d0     Propsht.obj
 0002:000086e0       ?_afxPropSheetButtons@?1??OnInitDialog@CPropertySheetMTL@@UEAAHXZ@4PAHA 00000001400476e0     Propsht.obj
 0002:000086f0       ?_afxPropSheetIDs@?4??OnSetDefID@CPropertySheetMTL@@QEAA_J_K_J@Z@4QBHB 00000001400476f0     Propsht.obj
 0002:00008700       ?classCModelessShapePropSheet@CModelessShapePropSheet@@2UCRuntimeClass@@B 0000000140047700     Propsht2.obj
 0002:00008730       ??_C@_0BI@EAIAHPMM@CModelessShapePropSheet?$AA@ 0000000140047730     Propsht2.obj
 0002:00008748       ??_7CModelessShapePropSheet@@6B@ 0000000140047748     Propsht2.obj
 0002:00008850       ?classCShapesDoc@CShapesDoc@@2UCRuntimeClass@@B 0000000140047850     Shapedoc.obj
 0002:00008880       ??_C@_0L@GBAFCAOB@CShapesDoc?$AA@ 0000000140047880     Shapedoc.obj
 0002:00008890       ??_7CShapesDoc@@6B@        0000000140047890     Shapedoc.obj
 0002:00008940       ??_C@_17PJPBGINK@?$AA?3?$AA?1?$AA?2?$AA?$AA@ 0000000140047940     Shapedoc.obj
 0002:00008948       ??_7CFile@@6B@             0000000140047948     Shapedoc.obj
 0002:00008988       ??_C@_06PLMJGOGE@CShape?$AA@ 0000000140047988     Shapeobj.obj
 0002:00008990       ??_7CGdiObject@@6B@        0000000140047990     Shapeobj.obj
 0002:00008998       ??_7CShape@@6B@            0000000140047998     Shapeobj.obj
 0002:000089a8       ?classCShape@CShape@@2UCRuntimeClass@@B 00000001400479a8     Shapeobj.obj
 0002:000089d8       ?classCShapesView@CShapesView@@2UCRuntimeClass@@B 00000001400479d8     Shapesvw.obj
 0002:00008a08       ??_C@_0M@IMNENPHD@CShapesView?$AA@ 0000000140047a08     Shapesvw.obj
 0002:00008a18       ??_7CShapesView@@6B@       0000000140047a18     Shapesvw.obj
 0002:00008b70       ??_7CDialogBar@@6B@        0000000140047b70     Shapesvw.obj
 0002:00008ca8       ??_7CView@@6B@             0000000140047ca8     Shapesvw.obj
 0002:00008e00       ??_C@_13PNBDBPLL@?$AAA?$AA?$AA@ 0000000140047e00     Shapesvw.obj
 0002:00008e08       ??_7CPreviewDC@@6B@        0000000140047e08     Shapesvw.obj
 0002:00008e38       ??_7CPrintingDialog@@6B@   0000000140047e38     Shapesvw.obj
 0002:00008f58       ?classCDialog@CDialog@@2UCRuntimeClass@@B 0000000140047f58     Stdafx.obj
 0002:00008f88       ?classCToolBar@CToolBar@@2UCRuntimeClass@@B 0000000140047f88     Stdafx.obj
 0002:00008fb8       ??_C@_07BEAIOPAP@CObject?$AA@ 0000000140047fb8     Stdafx.obj
 0002:00008fc0       ??_C@_0L@GDEMJNJL@CCmdTarget?$AA@ 0000000140047fc0     Stdafx.obj
 0002:00008fcc       ??_C@_04DDIMFFOJ@CWnd?$AA@ 0000000140047fcc     Stdafx.obj
 0002:00008fd8       ??_C@_07BOOFINFL@CDialog?$AA@ 0000000140047fd8     Stdafx.obj
 0002:00008fe0       ??_C@_09PHHOBLDA@CFrameWnd?$AA@ 0000000140047fe0     Stdafx.obj
 0002:00008fec       ??_C@_05BIOOECIG@CView?$AA@ 0000000140047fec     Stdafx.obj
 0002:00008ff8       ??_C@_0N@IAAEHEJA@CSplitterWnd?$AA@ 0000000140047ff8     Stdafx.obj
 0002:00009008       ??_C@_09GGLMOPCJ@CDocument?$AA@ 0000000140048008     Stdafx.obj
 0002:00009018       ??_C@_0N@PIIJNOBP@CDocTemplate?$AA@ 0000000140048018     Stdafx.obj
 0002:00009028       ??_C@_0BC@FHADKPLB@CMultiDocTemplate?$AA@ 0000000140048028     Stdafx.obj
 0002:00009040       ??_C@_0M@KLLMHFML@CControlBar?$AA@ 0000000140048040     Stdafx.obj
 0002:00009050       ??_C@_08CLEDDFPF@CDockBar?$AA@ 0000000140048050     Stdafx.obj
 0002:00009060       ??_C@_08JCBKBILF@CToolBar?$AA@ 0000000140048060     Stdafx.obj
 0002:00009070       ??_C@_0O@ONBAFBMA@CMiniFrameWnd?$AA@ 0000000140048070     Stdafx.obj
 0002:00009080       ??_C@_0N@MELIIEBL@CMDIFrameWnd?$AA@ 0000000140048080     Stdafx.obj
 0002:00009090       ??_C@_0N@KGIHFIMF@CMDIChildWnd?$AA@ 0000000140048090     Stdafx.obj
 0002:000090a0       ??_C@_0M@CDPKIMCK@CScrollView?$AA@ 00000001400480a0     Stdafx.obj
 0002:000090b0       ??_C@_0N@BJMABPO@CPreviewView?$AA@ 00000001400480b0     Stdafx.obj
 0002:000090c0       ??_C@_0BB@OJCMABLL@CPropertyPageMTL?$AA@ 00000001400480c0     Stdafx.obj
 0002:000090d8       ??_C@_0BC@CCNOEAOB@CPropertySheetMTL?$AA@ 00000001400480d8     Stdafx.obj
 0002:000090f0       ??_C@_0P@HEBNJMNI@CFileDialogMTL?$AA@ 00000001400480f0     Stdafx.obj
 0002:00009100       ??_C@_0BA@CAKJCBDC@CToolTipCtrlMTL?$AA@ 0000000140048100     Stdafx.obj
 0002:00009110       ?classCDockBar@CDockBar@@2UCRuntimeClass@@B 0000000140048110     Stdafx.obj
 0002:00009140       ?classCControlBar@CControlBar@@2UCRuntimeClass@@B 0000000140048140     Stdafx.obj
 0002:00009170       ?classCMDIFrameWnd@CMDIFrameWnd@@2UCRuntimeClass@@B 0000000140048170     Stdafx.obj
 0002:000091a0       ?classCMDIChildWnd@CMDIChildWnd@@2UCRuntimeClass@@B 00000001400481a0     Stdafx.obj
 0002:000091d0       ?classCView@CView@@2UCRuntimeClass@@B 00000001400481d0     Stdafx.obj
 0002:00009200       ?classCFileDialogMTL@CFileDialogMTL@@2UCRuntimeClass@@B 0000000140048200     Stdafx.obj
 0002:00009230       ?classCPropertySheetMTL@CPropertySheetMTL@@2UCRuntimeClass@@B 0000000140048230     Stdafx.obj
 0002:00009260       ?classCDocument@CDocument@@2UCRuntimeClass@@B 0000000140048260     Stdafx.obj
 0002:00009290       ?classCObject@CObject@@2UCRuntimeClass@@B 0000000140048290     Stdafx.obj
 0002:000092c0       ?sizeDefault@CScrollView@@2UtagSIZE@@B 00000001400482c0     Stdafx.obj
 0002:000092c8       ?classCFrameWnd@CFrameWnd@@2UCRuntimeClass@@B 00000001400482c8     Stdafx.obj
 0002:000092f8       ?classCPreviewView@CPreviewView@@2UCRuntimeClass@@B 00000001400482f8     Stdafx.obj
 0002:00009328       ??_C@_19GAIGGJAF@?$AA?4?$AAC?$AAH?$AAM?$AA?$AA@ 0000000140048328     Stdafx.obj
 0002:00009338       ??_C@_19EAOLIAH@?$AA?4?$AAH?$AAL?$AAP?$AA?$AA@ 0000000140048338     Stdafx.obj
 0002:00009348       ??_C@_19KIHNABIH@?$AA?4?$AAI?$AAN?$AAI?$AA?$AA@ 0000000140048348     Stdafx.obj
 0002:00009358       ?classCWnd@CWnd@@2UCRuntimeClass@@B 0000000140048358     Stdafx.obj
 0002:00009388       ?classCMultiDocTemplate@CMultiDocTemplate@@2UCRuntimeClass@@B 0000000140048388     Stdafx.obj
 0002:000093b8       ?classCMiniFrameWnd@CMiniFrameWnd@@2UCRuntimeClass@@B 00000001400483b8     Stdafx.obj
 0002:000093e8       ??_7_AFX_MOUSEANCHORWND@@6B@ 00000001400483e8     Stdafx.obj
 0002:000094d8       ?classCSplitterWnd@CSplitterWnd@@2UCRuntimeClass@@B 00000001400484d8     Stdafx.obj
 0002:00009508       ??_7CImage@@6B@            0000000140048508     Stdafx.obj
 0002:00009510       ?classCCmdTarget@CCmdTarget@@2UCRuntimeClass@@B 0000000140048510     Stdafx.obj
 0002:00009540       ?classCScrollView@CScrollView@@2UCRuntimeClass@@B 0000000140048540     Stdafx.obj
 0002:00009570       ?classCPropertyPageMTL@CPropertyPageMTL@@2UCRuntimeClass@@B 0000000140048570     Stdafx.obj
 0002:000095a0       ??_7CScrollView@@6B@       00000001400485a0     Stdafx.obj
 0002:00009708       ??_7CPreviewView@@6B@      0000000140048708     Stdafx.obj
 0002:00009888       ??_7CPenMTL@@6B@           0000000140048888     Shapeobj.obj
 0002:00009888       ??_7CBrushMTL@@6B@         0000000140048888     Preview.obj
 0002:00009888       ??_7CRgnMTL@@6B@           0000000140048888     Stdafx.obj
 0002:00009888       ??_7CBitmapMTL@@6B@        0000000140048888     Stdafx.obj
 0002:00009890       ?classCToolTipCtrlMTL@CToolTipCtrlMTL@@2UCRuntimeClass@@B 0000000140048890     Stdafx.obj
 0002:000098c0       ?classCDocTemplate@CDocTemplate@@2UCRuntimeClass@@B 00000001400488c0     Stdafx.obj
 0002:000098f0       ??_7CMDIChildWnd@@6B@      00000001400488f0     Stdafx.obj
 0002:00009a50       ??_7CStylePage@@6B@        0000000140048a50     Stylepge.obj
 0002:00009d00       __xmm@00000020000000000000000000000000 0000000140048d00     Propsht.obj
 0002:00009d10       __xmm@00000078000000780000001400000014 0000000140048d10     Shapedoc.obj
 0002:00009d20       __xmm@00007fff00007fff0000000000000000 0000000140048d20     Mainfrm.obj
 0002:0000afe8       _pDestructExceptionObject  0000000140049fe8     LIBCMT:frame.obj
 0002:0000aff8       ??_7bad_exception@std@@6B@ 0000000140049ff8     LIBCMT:frame.obj
 0002:0000b008       ??_C@_0O@DPKOEFFH@bad?5exception?$AA@ 000000014004a008     LIBCMT:frame.obj
 0002:0000b020       _load_config_used          000000014004a020     LIBCMT:loadcfg.obj
 0002:0000b090       ??_R1A@?0A@EA@exception@std@@8 000000014004a090     LIBCMT:new.obj
 0002:0000b0b8       ??_R3exception@std@@8      000000014004a0b8     LIBCMT:new.obj
 0002:0000b0d0       ??_R2exception@std@@8      000000014004a0d0     LIBCMT:new.obj
 0002:0000b0e0       ??_R4bad_alloc@std@@6B@    000000014004a0e0     LIBCMT:new.obj
 0002:0000b108       ??_R3bad_alloc@std@@8      000000014004a108     LIBCMT:new.obj
 0002:0000b120       ??_R2bad_alloc@std@@8      000000014004a120     LIBCMT:new.obj
 0002:0000b138       ??_R1A@?0A@EA@bad_alloc@std@@8 000000014004a138     LIBCMT:new.obj
 0002:0000b160       ??_R4type_info@@6B@        000000014004a160     LIBCMT:typinfo.obj
 0002:0000b188       ??_R3type_info@@8          000000014004a188     LIBCMT:typinfo.obj
 0002:0000b1a0       ??_R2type_info@@8          000000014004a1a0     LIBCMT:typinfo.obj
 0002:0000b1b0       ??_R1A@?0A@EA@type_info@@8 000000014004a1b0     LIBCMT:typinfo.obj
 0002:0000b1d8       ??_R4exception@std@@6B@    000000014004a1d8     LIBCMT:stdexcpt.obj
 0002:0000b200       ??_R4bad_exception@std@@6B@ 000000014004a200     LIBCMT:frame.obj
 0002:0000b228       ??_R3bad_exception@std@@8  000000014004a228     LIBCMT:frame.obj
 0002:0000b240       ??_R2bad_exception@std@@8  000000014004a240     LIBCMT:frame.obj
 0002:0000b258       ??_R1A@?0A@EA@bad_exception@std@@8 000000014004a258     LIBCMT:frame.obj
 0002:0000b280       __rtc_iaa                  000000014004a280     LIBCMT:initsect.obj
 0002:0000b288       __rtc_izz                  000000014004a288     LIBCMT:initsect.obj
 0002:0000b290       __rtc_taa                  000000014004a290     LIBCMT:initsect.obj
 0002:0000b298       __rtc_tzz                  000000014004a298     LIBCMT:initsect.obj
 0002:00011388       _TI2?AVbad_alloc@std@@     0000000140050388     LIBCMT:new.obj
 0002:000113a8       _CTA2?AVbad_alloc@std@@    00000001400503a8     LIBCMT:new.obj
 0002:000113c0       _CT??_R0?AVbad_alloc@std@@@8??0bad_alloc@std@@QEAA@AEBV01@@Z24 00000001400503c0     LIBCMT:new.obj
 0002:000113e8       _CT??_R0?AVexception@std@@@8??0exception@std@@QEAA@AEBV01@@Z24 00000001400503e8     LIBCMT:new.obj
 0002:00011410       _CT??_R0PEAVCException@@@88 0000000140050410     Colorpge.obj
 0002:00011438       _CT??_R0PEAX@88            0000000140050438     Colorpge.obj
 0002:00011460       _CTA2PEAVCException@@      0000000140050460     Colorpge.obj
 0002:00011478       _TI2PEAVCException@@       0000000140050478     Colorpge.obj
 0002:00011498       _CT??_R0PEAVCArchiveException@@@88 0000000140050498     Shapedoc.obj
 0002:000114c0       _CTA4PEAVCArchiveException@@ 00000001400504c0     Shapedoc.obj
 0002:000114e8       _TI4PEAVCArchiveException@@ 00000001400504e8     Shapedoc.obj
 0002:00011508       _CT??_R0PEAVCFileException@@@88 0000000140050508     Shapedoc.obj
 0002:00011530       _CT??_R0PEAVCSimpleException@@@88 0000000140050530     Shapedoc.obj
 0002:00011558       _CTA4PEAVCFileException@@  0000000140050558     Shapedoc.obj
 0002:00011580       _TI4PEAVCFileException@@   0000000140050580     Shapedoc.obj
 0002:000115a0       _TI2?AVbad_exception@std@@ 00000001400505a0     LIBCMT:frame.obj
 0002:000115c0       _CTA2?AVbad_exception@std@@ 00000001400505c0     LIBCMT:frame.obj
 0002:000115d8       _CT??_R0?AVbad_exception@std@@@8??0bad_exception@std@@QEAA@AEBV01@@Z24 00000001400505d8     LIBCMT:frame.obj
 0002:00011600       __IMPORT_DESCRIPTOR_KERNEL32 0000000140050600     kernel32:KERNEL32.dll
 0002:00011614       __IMPORT_DESCRIPTOR_USER32 0000000140050614     user32:USER32.dll
 0002:00011628       __IMPORT_DESCRIPTOR_ADVAPI32 0000000140050628     advapi32:ADVAPI32.dll
 0002:0001163c       __IMPORT_DESCRIPTOR_ole32  000000014005063c     ole32:ole32.dll
 0002:00011650       __IMPORT_DESCRIPTOR_SHELL32 0000000140050650     shell32:SHELL32.dll
 0002:00011664       __IMPORT_DESCRIPTOR_SHLWAPI 0000000140050664     shlwapi:SHLWAPI.dll
 0002:00011678       __IMPORT_DESCRIPTOR_GDI32  0000000140050678     gdi32:GDI32.dll
 0002:0001168c       __IMPORT_DESCRIPTOR_COMCTL32 000000014005068c     comctl32:COMCTL32.dll
 0002:000116a0       __IMPORT_DESCRIPTOR_COMDLG32 00000001400506a0     comdlg32:COMDLG32.dll
 0002:000116b4       __IMPORT_DESCRIPTOR_WINSPOOL 00000001400506b4     winspool:WINSPOOL.DRV
 0002:000116c8       __NULL_IMPORT_DESCRIPTOR   00000001400506c8     kernel32:KERNEL32.dll
 0003:00000000       __flsindex                 0000000140053000     LIBCMT:tidtable.obj
 0003:00000010       __badioinfo                0000000140053010     LIBCMT:ioinit.obj
 0003:000001e0       __isa_available            00000001400531e0     LIBCMT:cpu_disp.obj
 0003:000001e4       __isa_enabled              00000001400531e4     LIBCMT:cpu_disp.obj
 0003:000001e8       __abort_behavior           00000001400531e8     LIBCMT:abort.obj
 0003:00000430       _cfltcvt_tab               0000000140053430     LIBCMT:cmiscdat.obj
 0003:00000480       _mbctype                   0000000140053480     LIBCMT:mbctype.obj
 0003:00000590       _mbcasemap                 0000000140053590     LIBCMT:mbctype.obj
 0003:00000690       __initialmbcinfo           0000000140053690     LIBCMT:mbctype.obj
 0003:000009b0       __ptmbcinfo                00000001400539b0     LIBCMT:mbctype.obj
 0003:000009c0       _timezone                  00000001400539c0     LIBCMT:timeset.obj
 0003:000009c4       _daylight                  00000001400539c4     LIBCMT:timeset.obj
 0003:000009c8       _dstbias                   00000001400539c8     LIBCMT:timeset.obj
 0003:00000a50       _tzname                    0000000140053a50     LIBCMT:timeset.obj
 0003:00000a80       _days                      0000000140053a80     LIBCMT:days.obj
 0003:00000ab8       _lpdays                    0000000140053ab8     LIBCMT:days.obj
 0003:00000af0       __security_cookie          0000000140053af0     LIBCMT:gs_cookie.obj
 0003:00000af8       __security_cookie_complement 0000000140053af8     LIBCMT:gs_cookie.obj
 0003:00000b00       __mb_cur_max               0000000140053b00     LIBCMT:nlsdata.obj
 0003:00000b04       __wclocalestr              0000000140053b04     LIBCMT:nlsdata.obj
 0003:00000b10       __lc_time_c                0000000140053b10     LIBCMT:nlsdata.obj
 0003:00000dd0       __ptlocinfo                0000000140053dd0     LIBCMT:nlsdata.obj
 0003:00000de0       __initiallocinfo           0000000140053de0     LIBCMT:nlsdata.obj
 0003:00000f38       __initiallocalestructinfo  0000000140053f38     LIBCMT:nlsdata.obj
 0003:00000f50       _iob                       0000000140053f50     LIBCMT:_file.obj
 0003:00001310       __globallocalestatus       0000000140054310     LIBCMT:glstatus.obj
 0003:00001320       __lconv_c                  0000000140054320     LIBCMT:lconv.obj
 0003:000013b8       __lconv_static_decimal     00000001400543b8     LIBCMT:lconv.obj
 0003:000013bc       __lconv_static_W_decimal   00000001400543bc     LIBCMT:lconv.obj
 0003:000013c0       __lconv                    00000001400543c0     LIBCMT:lconv.obj
 0003:000013c8       _pctype                    00000001400543c8     LIBCMT:ctype.obj
 0003:000013d0       _pwctype                   00000001400543d0     LIBCMT:ctype.obj
 0003:000013e8       _fltused                   00000001400543e8     LIBCMT:fpinit.obj
 0003:000013ec       _ldused                    00000001400543ec     LIBCMT:fpinit.obj
 0003:000013f0       _confh                     00000001400543f0     LIBCMT:initcon.obj
 0003:00001400       _HUGE                      0000000140054400     LIBCMT:huge.obj
 0003:00001440       _pow10pos                  0000000140054440     LIBCMT:constpow.obj
 0003:000015a0       _pow10neg                  00000001400545a0     LIBCMT:constpow.obj
 0003:00001700       ?_atltmpPchNil@WTL@@3PEB_WEB 0000000140054700     Colorpge.obj
 0003:00001708       ?rgInitData@WTL@@3PAHA     0000000140054708     Colorpge.obj
 0003:00001718       ?_afxDropDownWidth@?1??_AfxGetDropDownWidth@CToolBar@@SAHXZ@4HA 0000000140054718     Mainfrm.obj
 0003:00001720       ?dmDockBarMap@?1??GetDockBarMap@CFrameWnd@@SAAEAU_DocBarMap@2@XZ@4U32@A 0000000140054720     Mainfrm.obj
 0003:00001778       ?rectDefault@CFrameWnd@@2VCRect@WTL@@B 0000000140054778     Stdafx.obj
 0003:00001788       ?wndNoTopMost@CWMHnd@@2V1@B 0000000140054788     Stdafx.obj
 0003:000017a0       ?wndTopMost@CWMHnd@@2V1@B  00000001400547a0     Stdafx.obj
 0003:000017b8       ?wndBottom@CWMHnd@@2V1@B   00000001400547b8     Stdafx.obj
 0003:000017d0       ?wndTop@CWMHnd@@2V1@B      00000001400547d0     Stdafx.obj
 0003:000017f0       ??_R0?AVbad_alloc@std@@@8  00000001400547f0     LIBCMT:new.obj
 0003:00001818       ??_R0?AVexception@std@@@8  0000000140054818     LIBCMT:new.obj
 0003:00001840       ??_R0?AVtype_info@@@8      0000000140054840     LIBCMT:typinfo.obj
 0003:00001860       ??_R0PEAVCException@@@8    0000000140054860     Colorpge.obj
 0003:00001888       ??_R0PEAX@8                0000000140054888     Colorpge.obj
 0003:000018a0       ??_R0PEAVCArchiveException@@@8 00000001400548a0     Shapedoc.obj
 0003:000018d0       ??_R0PEAVCFileException@@@8 00000001400548d0     Shapedoc.obj
 0003:000018f8       ??_R0PEAVCSimpleException@@@8 00000001400548f8     Shapedoc.obj
 0003:00001920       ??_R0?AVbad_exception@std@@@8 0000000140054920     LIBCMT:frame.obj
 0003:00001960       ?__AtlThunkPool@@3PEAT_SLIST_HEADER@@EA 0000000140054960     atls:atlthunk.obj
 0003:00001970       ?_AtlBaseModule@ATL@@3VCAtlBaseModule@1@A 0000000140054970     atls:atlbase.obj
 0003:000019d0       __@@_PchSym_@00@UwwUexgllohUexHoryhUhsrkUzgonuxUhixUzgoUzgohUlyqBiUznwGEUhgwzucOlyq@84C1280690CF6209 00000001400549d0     atls:stdafx.obj
 0003:000019d8       _aenvptr                   00000001400549d8     LIBCMT:wwincrt0.obj
 0003:000019e0       _wenvptr                   00000001400549e0     LIBCMT:wwincrt0.obj
 0003:000019e8       _C_Exit_Done               00000001400549e8     LIBCMT:crt0dat.obj
 0003:000019ec       __argc                     00000001400549ec     LIBCMT:crt0dat.obj
 0003:000019f0       __argv                     00000001400549f0     LIBCMT:crt0dat.obj
 0003:000019f8       __wargv                    00000001400549f8     LIBCMT:crt0dat.obj
 0003:00001a00       _environ                   0000000140054a00     LIBCMT:crt0dat.obj
 0003:00001a08       _wenviron                  0000000140054a08     LIBCMT:crt0dat.obj
 0003:00001a10       _pgmptr                    0000000140054a10     LIBCMT:crt0dat.obj
 0003:00001a18       _wpgmptr                   0000000140054a18     LIBCMT:crt0dat.obj
 0003:00001a20       _umaskval                  0000000140054a20     LIBCMT:crt0dat.obj
 0003:00001a24       _exitflag                  0000000140054a24     LIBCMT:crt0dat.obj
 0003:00001a28       _C_Termination_Done        0000000140054a28     LIBCMT:crt0dat.obj
 0003:00001a30       __winitenv                 0000000140054a30     LIBCMT:crt0dat.obj
 0003:00001a38       __initenv                  0000000140054a38     LIBCMT:crt0dat.obj
 0003:00001a40       _crtheap                   0000000140054a40     LIBCMT:heapinit.obj
 0003:00001a50       __pioinfo                  0000000140054a50     LIBCMT:ioinit.obj
 0003:00001e60       __app_type                 0000000140054e60     LIBCMT:crt0msg.obj
 0003:00002498       __error_mode               0000000140055498     LIBCMT:errmode.obj
 0003:0000249c       _maxwait                   000000014005549c     LIBCMT:crtheap.obj
 0003:000024a0       ?_pnhHeap@@3P6AH_K@ZEA     00000001400554a0     LIBCMT:handler.obj
 0003:000024b8       _newmode                   00000001400554b8     LIBCMT:_newmode.obj
 0003:000024bc       __favor                    00000001400554bc     LIBCMT:cpu_disp.obj
 0003:000024c0       __pPurecall                00000001400554c0     LIBCMT:inithelp.obj
 0003:000024c8       ?__pInconsistency@@3P6AXXZEA 00000001400554c8     LIBCMT:hooks.obj
 0003:000024d0       __pInvalidArgHandler       00000001400554d0     LIBCMT:invarg.obj
 0003:00002740       __mbcodepage               0000000140055740     LIBCMT:mbctype.obj
 0003:00002744       __ismbcodepage             0000000140055744     LIBCMT:mbctype.obj
 0003:00002748       __mbulinfo                 0000000140055748     LIBCMT:mbctype.obj
 0003:00002758       __mblocalename             0000000140055758     LIBCMT:mbctype.obj
 0003:00002768       _stdbuf                    0000000140055768     LIBCMT:_sftbuf.obj
 0003:0000283c       _cflush                    000000014005583c     LIBCMT:_file.obj
 0003:00002868       ?m_pGetParameter@UnDecorator@@0P6APEADJ@ZEA 0000000140055868     LIBCMT:undname.obj
 0003:00002870       ?pArgList@UnDecorator@@0PEAVReplicator@@EA 0000000140055870     LIBCMT:undname.obj
 0003:00002878       ?pZNameList@UnDecorator@@0PEAVReplicator@@EA 0000000140055878     LIBCMT:undname.obj
 0003:00002880       ?pTemplateArgList@UnDecorator@@0PEAVReplicator@@EA 0000000140055880     LIBCMT:undname.obj
 0003:00002888       ?gName@UnDecorator@@0PEBDEB 0000000140055888     LIBCMT:undname.obj
 0003:00002890       ?name@UnDecorator@@0PEBDEB 0000000140055890     LIBCMT:undname.obj
 0003:00002898       ?outputString@UnDecorator@@0PEADEA 0000000140055898     LIBCMT:undname.obj
 0003:000028a0       ?maxStringLength@UnDecorator@@0HA 00000001400558a0     LIBCMT:undname.obj
 0003:000028a4       ?disableFlags@UnDecorator@@0KA 00000001400558a4     LIBCMT:undname.obj
 0003:000028a8       ?fExplicitTemplateParams@UnDecorator@@0_NA 00000001400558a8     LIBCMT:undname.obj
 0003:000028a9       ?fGetTemplateArgumentList@UnDecorator@@0_NA 00000001400558a9     LIBCMT:undname.obj
 0003:00002e54       __lconv_static_null        0000000140055e54     LIBCMT:lconv.obj
 0003:00002e58       __lconv_static_W_null      0000000140055e58     LIBCMT:lconv.obj
 0003:00002e5c       __locale_changed           0000000140055e5c     LIBCMT:wsetloca.obj
 0003:00002e60       __fastflag                 0000000140055e60     LIBCMT:fpinit.obj
 0003:00002e64       _outputformat              0000000140055e64     LIBCMT:outputformat.obj
 0003:00002e68       ?_simpleResourceException@?1??GetCException@CAfx@@SAAEAVCException@@H@Z@4VCResourceException@@A 0000000140055e68     Colorpge.obj
 0003:00002e70       ?_simpleInvalidArgException@?1??GetCException@CAfx@@SAAEAVCException@@H@Z@4VCInvalidArgException@@A 0000000140055e70     Colorpge.obj
 0003:00002e78       ?_simpleNotSupportedException@?1??GetCException@CAfx@@SAAEAVCException@@H@Z@4VCNotSupportedException@@A 0000000140055e78     Colorpge.obj
 0003:00002e80       ??_B?1??GetCException@CAfx@@SAAEAVCException@@H@Z@51 0000000140055e80     Colorpge.obj
 0003:00002e88       ?_simpleMemoryException@?1??GetCException@CAfx@@SAAEAVCException@@H@Z@4VCMemoryException@@A 0000000140055e88     Colorpge.obj
 0003:00002e90       ?cwp@?1??GetHookOldCbtFilter@CWnd@@SAAEAU_CreateWindowParam@2@XZ@4U32@A 0000000140055e90     Colorpge.obj
 0003:00002ea8       ??_B?1??_GetCModuleState@CWinApp@@SAPEAVCModuleState@@XZ@51 0000000140055ea8     Colorpge.obj
 0003:00002eb0       ?cModuleState@?1??_GetCModuleState@CWinApp@@SAPEAVCModuleState@@XZ@4V3@A 0000000140055eb0     Colorpge.obj
 0003:00002ef0       ?m_lastSentMsg@?1??GetLastSentMsg@CCmdTarget@@SAAEAPEAU_ATL_MSG@ATL@@XZ@4PEAU34@EA 0000000140055ef0     Colorpge.obj
 0003:00002f00       ?_afxdata@?1??_GetAfxData@CAfx@@SAAEBU_AUX_DATA@@XZ@4U3@A 0000000140055f00     Mainfrm.obj
 0003:00002f40       ??_B?1??_GetAfxData@CAfx@@SAAEBU_AUX_DATA@@XZ@51 0000000140055f40     Mainfrm.obj
 0003:00002f48       ?hHalftoneBrush@?1??HalftoneBrush@CAfx@@SAPEAUHBRUSH__@@H@Z@4PEAU3@EA 0000000140055f48     Propdlg.obj
 0003:00002f50       ?pCAfxModule@?1??AfxModule@CAfx@@SAPEAVCAfxModule@@H@Z@4PEAV3@EA 0000000140055f50     Propdlg.obj
 0003:00002f58       ?m_bInitFailed@CAtlBaseModule@ATL@@2_NA 0000000140055f58     Propdlg.obj
 0003:00002f5c       ?_afxMsgHELP@?1??_AfxCommDlgProc@CCommonDialog@@SA_KPEAUHWND__@@I_K_J@Z@4IA 0000000140055f5c     Propdlg.obj
 0003:00002f60       ?_afxMsgSHAREVI@?1??_AfxCommDlgProc@CCommonDialog@@SA_KPEAUHWND__@@I_K_J@Z@4IA 0000000140055f60     Propdlg.obj
 0003:00002f64       ?_afxMsgLBSELCHANGE@?1??_AfxCommDlgProc@CCommonDialog@@SA_KPEAUHWND__@@I_K_J@Z@4IA 0000000140055f64     Propdlg.obj
 0003:00002f68       ?_afxMsgSETRGB@?1??_AfxCommDlgProc@CCommonDialog@@SA_KPEAUHWND__@@I_K_J@Z@4IA 0000000140055f68     Propdlg.obj
 0003:00002f6c       ?_afxMsgFILEOK@?1??_AfxCommDlgProc@CCommonDialog@@SA_KPEAUHWND__@@I_K_J@Z@4IA 0000000140055f6c     Propdlg.obj
 0003:00002f70       ?pfSHCreateItemFromParsingName_cache@?1??_AfxSHCreateItemFromParsingName@CFileDialogMTL@@SAJPEB_WPEAUIBindCtx@@AEBU_GUID@@PEAPEAX@Z@4R6AJ0123@ZEA 0000000140055f70     Propdlg.obj
 0003:00002f78       ??_B?1??_GetAfxPropPageFontInfo@CPropertyPageMTL@@SAAEAU_AFX_PROPPAGEFONTINFO@@XZ@51 0000000140055f78     Propsht.obj
 0003:00002f80       ?_afxPropPageFontInfo@?1??_GetAfxPropPageFontInfo@CPropertyPageMTL@@SAAEAU_AFX_PROPPAGEFONTINFO@@XZ@4U3@A 0000000140055f80     Propsht.obj
 0003:00002f90       ?_afxWinState@?1??GetAfxWinState@CPrintingDialog@@SAPEAV_AFX_WIN_STATE@@XZ@4V3@A 0000000140055f90     Shapesvw.obj
 0003:00002f94       __@@_PchSym_@00@UwirevUuUexUngonuxUhznkovhUkilkwotUfmrxlwvLivovzhvGEUhgwzucOlyq@E6A83B8B540442C3 0000000140055f94     Stdafx.obj
 0003:00002fa0       ?m_pCWinApp@CWinApp@@2PEAV1@EA 0000000140055fa0     Stdafx.obj
 0003:00002fa8       ?_init_CShape@@3UAFX_CLASSINIT@@A 0000000140055fa8     Shapeobj.obj
 0003:00002fb0       ?theApp@@3VCPropDlgApp@@A  0000000140055fb0     Propdlg.obj
 0003:0000322c       ?_afxGotScrollLines@?1??_AfxGetMouseScrollLines@CScrollView@@QEAAIXZ@4HA 000000014005622c     Stdafx.obj
 0003:00003230       ?_AtlWinModule@ATL@@3VCAtlWinModule@1@A 0000000140056230     Propdlg.obj
 0003:00003278       ?uCachedScrollLines@?1??_AfxGetMouseScrollLines@CScrollView@@QEAAIXZ@4IA 0000000140056278     Stdafx.obj
 0003:00003280       ?g_OutOfMemoryExceptionCallback@@3P6APEAXXZEA 0000000140056280     LIBCMT:frame.obj
 0003:00003288       _debugger_hook_dummy       0000000140056288     <common>
 0003:00003290       __piob                     0000000140056290     <common>
 0003:00003298       _nstream                   0000000140056298     <common>
 0003:000032a0       _bufin                     00000001400562a0     <common>
 0003:000042a0       encodedKERNEL32Functions   00000001400572a0     <common>
 0003:000043a8       _nhandle                   00000001400573a8     <common>
 0003:000043b0       __dyn_tls_init_callback    00000001400573b0     <common>
 0003:000043b8       __onexitend                00000001400573b8     <common>
 0003:000043c0       __onexitbegin              00000001400573c0     <common>
 0003:000043c8       __mbctype_initialized      00000001400573c8     <common>
 0003:000043cc       __env_initialized          00000001400573cc     <common>
 0003:000043d0       _wcmdln                    00000001400573d0     <common>

 entry point at        0001:0002d6e8

 Static symbols

 0002:fffc1000       .idata$6                   0000000140000000     oleaut32:OLEAUT32.dll
 0001:00000000       ??__EtheApp@@YAXXZ         0000000140001000 f   Propdlg.obj
 0001:00000030       ??__E_AtlWinModule@ATL@@YAXXZ 0000000140001030 f   Propdlg.obj
 0001:00000050       ??__E_init_CShape@@YAXXZ   0000000140001050 f   Shapeobj.obj
 0001:000000c0       ??__E?wndTop@CWMHnd@@2V1@B@@YAXXZ 00000001400010c0 f   Stdafx.obj
 0001:000000d0       ??__E?wndBottom@CWMHnd@@2V1@B@@YAXXZ 00000001400010d0 f   Stdafx.obj
 0001:000000e0       ??__E?wndTopMost@CWMHnd@@2V1@B@@YAXXZ 00000001400010e0 f   Stdafx.obj
 0001:000000f0       ??__E?wndNoTopMost@CWMHnd@@2V1@B@@YAXXZ 00000001400010f0 f   Stdafx.obj
 0001:000000fc       ??__E_AtlBaseModule@ATL@@YAXXZ 00000001400010fc f   atls:atlbase.obj
 0001:00000acc       $LN21                      0000000140001acc     Colorpge.obj
 0001:00018798       $LN18                      0000000140019798     Propdlg.obj
 0001:000214bc       $LN87                      00000001400224bc     Shapedoc.obj
 0001:000214f8       $LN86                      00000001400224f8     Shapedoc.obj
 0001:00023230       ?_AtlCreateDC@WTL@@YAPEAUHDC__@@PEAX0@Z 0000000140024230 f   Shapesvw.obj
 0001:000283bc       $LN39                      00000001400293bc     Stdafx.obj
 0001:000283dc       $LN38                      00000001400293dc     Stdafx.obj
 0001:0002a50c       $LN25                      000000014002b50c     Stdafx.obj
 0001:0002d3d8       ?__InitializeThunkPool@@YAHXZ 000000014002e3d8 f   atls:atlthunk.obj
 0001:0002d530       __tmainCRTStartup          000000014002e530 f   LIBCMT:wwincrt0.obj
 0001:0002d6bc       fast_error_exit            000000014002e6bc f   LIBCMT:wwincrt0.obj
 0001:0002db40       $$000000                   000000014002eb40     LIBCMT:memcpy.obj
 0001:0002dc30       MoveSmall                  000000014002ec30     LIBCMT:memcpy.obj
 0001:0002e504       _initterm                  000000014002f504 f   LIBCMT:crt0dat.obj
 0001:0002e5b8       doexit                     000000014002f5b8 f   LIBCMT:crt0dat.obj
 0001:0002e830       _make__time64_t            000000014002f830 f   LIBCMT:mktime64.obj
 0001:0002ec30       $$000000                   000000014002fc30     LIBCMT:memset.obj
 0001:0002edd5       MsetTab                    000000014002fdd5     LIBCMT:memset.obj
 0001:0002f80c       wparse_cmdline             000000014003080c f   LIBCMT:wstdargv.obj
 0001:00030d10       $$000000                   0000000140031d10     LIBCMT:strcmp.obj
 0001:00031a08       ?getSystemCP@@YAHH@Z       0000000140032a08 f   LIBCMT:mbctype.obj
 0001:00031a88       ?setSBCS@@YAXPEAUthreadmbcinfostruct@@@Z 0000000140032a88 f   LIBCMT:mbctype.obj
 0001:00031b18       ?setSBUpLow@@YAXPEAUthreadmbcinfostruct@@@Z 0000000140032b18 f   LIBCMT:mbctype.obj
 0001:000329a4       _isindst_nolock            00000001400339a4 f   LIBCMT:tzset.obj
 0001:00032c54       _tzset_nolock              0000000140033c54 f   LIBCMT:tzset.obj
 0001:000330b8       cvtdate                    00000001400340b8 f   LIBCMT:tzset.obj
 0001:00033410       $$000000                   0000000140034410     LIBCMT:amdsecgs.obj
 0001:00033870       $$000000                   0000000140034870     LIBCMT:jmpuwind.obj
 0001:00033ac0       $$000000                   0000000140034ac0     LIBCMT:strlen.obj
 0001:000342ac       ?__crtLCMapStringA_stat@@YAHPEAUlocaleinfo_struct@@PEB_WKPEBDHPEADHHH@Z 00000001400352ac f   LIBCMT:a_map.obj
 0001:00034630       ?__crtGetStringTypeA_stat@@YAHPEAUlocaleinfo_struct@@KPEBDHPEAGHH@Z 0000000140035630 f   LIBCMT:a_str.obj
 0001:00034980       flsall                     0000000140035980 f   LIBCMT:fflush.obj
 0001:00035290       $$000000                   0000000140036290     LIBCMT:chkstk.obj
 0001:00035ca0       ?strtoxl@@YAKPEAUlocaleinfo_struct@@PEBDPEAPEBDHH@Z 0000000140036ca0 f   LIBCMT:strtol.obj
 0001:00036eb0       ?__crtCompareStringA_stat@@YAHPEAUlocaleinfo_struct@@PEB_WKPEBDH2HH@Z 0000000140037eb0 f   LIBCMT:a_cmp.obj
 0001:000372b0       $$000000                   00000001400382b0     LIBCMT:memcmp.obj
 0001:00038dc8       _cftoe2_l                  0000000140039dc8 f   LIBCMT:cvt.obj
 0001:000390bc       _cftof2_l                  000000014003a0bc f   LIBCMT:cvt.obj
 0001:0003b274       ?CatchIt@@YAXPEAUEHExceptionRecord@@PEA_KPEAU_CONTEXT@@PEAU_xDISPATCHER_CONTEXT@@PEBU_s_FuncInfo@@PEBU_s_HandlerType@@PEBU_s_CatchableType@@PEBU_s_TryBlockMapEntry@@H1EE@Z 000000014003c274 f   LIBCMT:frame.obj
 0001:0003b338       ?FindHandler@@YAXPEAUEHExceptionRecord@@PEA_KPEAU_CONTEXT@@PEAU_xDISPATCHER_CONTEXT@@PEBU_s_FuncInfo@@EH1@Z 000000014003c338 f   LIBCMT:frame.obj
 0001:0003b7ec       ?FindHandlerForForeignException@@YAXPEAUEHExceptionRecord@@PEA_KPEAU_CONTEXT@@PEAU_xDISPATCHER_CONTEXT@@PEBU_s_FuncInfo@@HH1@Z 000000014003c7ec f   LIBCMT:frame.obj
 0001:0003ba54       ?IsInExceptionSpec@@YAEPEAUEHExceptionRecord@@PEBU_s_ESTypeList@@@Z 000000014003ca54 f   LIBCMT:frame.obj
 0001:0003c6e0       $$000000                   000000014003d6e0     LIBCMT:handlers.obj
 0001:0003c740       ?dtor$0@?0???1CPropertyPageMTL@@UEAA@XZ@4HA 000000014003d740 f   Colorpge.obj
 0001:0003c74c       ?dtor$1@?0???1CPropertyPageMTL@@UEAA@XZ@4HA 000000014003d74c f   Colorpge.obj
 0001:0003c75f       ?dtor$2@?0???1CPropertyPageMTL@@UEAA@XZ@4HA 000000014003d75f f   Colorpge.obj
 0001:0003c772       ?dtor$5@?0???1CPropertyPageMTL@@UEAA@XZ@4HA 000000014003d772 f   Colorpge.obj
 0001:0003c77e       ?dtor$6@?0???1CPropertyPageMTL@@UEAA@XZ@4HA 000000014003d77e f   Colorpge.obj
 0001:0003c790       ?dtor$0@?0??_ProcessWindowMessage@CShapePreviewWnd@@UEAAHPEAUHWND__@@I_K_JAEA_J@Z@4HA 000000014003d790 f   Preview.obj
 0001:0003c790       ?dtor$0@?0??_ProcessWindowMessage@CPropertyPageMTL@@UEAAHPEAUHWND__@@I_K_JAEA_J@Z@4HA 000000014003d790 f   Colorpge.obj
 0001:0003c790       ?dtor$0@?0??_ProcessWindowMessage@CPropertySheetMTL@@UEAAHPEAUHWND__@@I_K_JAEA_J@Z@4HA 000000014003d790 f   Propsht.obj
 0001:0003c790       ?dtor$0@?0??_ProcessWindowMessage@CView@@UEAAHPEAUHWND__@@I_K_JAEA_J@Z@4HA 000000014003d790 f   Shapesvw.obj
 0001:0003c7a0       ?dtor$1@?0???_G_AFX_MOUSEANCHORWND@@UEAAPEAXI@Z@4HA 000000014003d7a0 f   Stdafx.obj
 0001:0003c7a0       ?dtor$1@?0???1CDialog@@UEAA@XZ@4HA 000000014003d7a0 f   Colorpge.obj
 0001:0003c7a0       ?dtor$1@?0???_GCDialog@@UEAAPEAXI@Z@4HA 000000014003d7a0 f   Colorpge.obj
 0001:0003c7a0       ?dtor$1@?0???_GCShapePreviewWnd@@UEAAPEAXI@Z@4HA 000000014003d7a0 f   Preview.obj
 0001:0003c7a0       ?dtor$2@?0???1CNewTypeDlg@@UEAA@XZ@4HA 000000014003d7a0 f   Propdlg.obj
 0001:0003c7a0       ?dtor$2@?0???_GCNewTypeDlg@@UEAAPEAXI@Z@4HA 000000014003d7a0 f   Propdlg.obj
 0001:0003c7a0       ?dtor$2@?0???1CCommonDialog@@UEAA@XZ@4HA 000000014003d7a0 f   Propdlg.obj
 0001:0003c7a0       ?dtor$2@?0???_GCAboutDlg@@UEAAPEAXI@Z@4HA 000000014003d7a0 f   Propdlg.obj
 0001:0003c7a0       ?dtor$2@?0???_GCToolTipCtrlMTL@@UEAAPEAXI@Z@4HA 000000014003d7a0 f   Mainfrm.obj
 0001:0003c7a0       ?dtor$2@?0???1CPrintingDialog@@UEAA@XZ@4HA 000000014003d7a0 f   Shapesvw.obj
 0001:0003c7a0       ?dtor$2@?0???1CAboutDlg@@UEAA@XZ@4HA 000000014003d7a0 f   Propdlg.obj
 0001:0003c7a0       ?dtor$2@?0???_GCPrintingDialog@@UEAAPEAXI@Z@4HA 000000014003d7a0 f   Shapesvw.obj
 0001:0003c7a0       ?dtor$0@?0???1CWnd@@UEAA@XZ@4HA 000000014003d7a0 f   Colorpge.obj
 0001:0003c7a0       ?dtor$1@?0???1CShapePreviewWnd@@UEAA@XZ@4HA 000000014003d7a0 f   Preview.obj
 0001:0003c7a0       ?dtor$0@?0???_GCWnd@@UEAAPEAXI@Z@4HA 000000014003d7a0 f   Colorpge.obj
 0001:0003c7ac       ?dtor$2@?0???_G_AFX_MOUSEANCHORWND@@UEAAPEAXI@Z@4HA 000000014003d7ac f   Stdafx.obj
 0001:0003c7ac       ?dtor$2@?0???1CShapePreviewWnd@@UEAA@XZ@4HA 000000014003d7ac f   Preview.obj
 0001:0003c7ac       ?dtor$3@?0???_GCToolTipCtrlMTL@@UEAAPEAXI@Z@4HA 000000014003d7ac f   Mainfrm.obj
 0001:0003c7ac       ?dtor$1@?0???_GCWnd@@UEAAPEAXI@Z@4HA 000000014003d7ac f   Colorpge.obj
 0001:0003c7ac       ?dtor$2@?0???_GCShapePreviewWnd@@UEAAPEAXI@Z@4HA 000000014003d7ac f   Preview.obj
 0001:0003c7ac       ?dtor$3@?0???_GCNewTypeDlg@@UEAAPEAXI@Z@4HA 000000014003d7ac f   Propdlg.obj
 0001:0003c7ac       ?dtor$1@?0???1CWnd@@UEAA@XZ@4HA 000000014003d7ac f   Colorpge.obj
 0001:0003c7ac       ?dtor$2@?0???_GCDialog@@UEAAPEAXI@Z@4HA 000000014003d7ac f   Colorpge.obj
 0001:0003c7ac       ?dtor$3@?0???_GCPrintingDialog@@UEAAPEAXI@Z@4HA 000000014003d7ac f   Shapesvw.obj
 0001:0003c7ac       ?dtor$3@?0???1CPrintingDialog@@UEAA@XZ@4HA 000000014003d7ac f   Shapesvw.obj
 0001:0003c7ac       ?dtor$3@?0???1CAboutDlg@@UEAA@XZ@4HA 000000014003d7ac f   Propdlg.obj
 0001:0003c7ac       ?dtor$3@?0???1CCommonDialog@@UEAA@XZ@4HA 000000014003d7ac f   Propdlg.obj
 0001:0003c7ac       ?dtor$3@?0???1CNewTypeDlg@@UEAA@XZ@4HA 000000014003d7ac f   Propdlg.obj
 0001:0003c7ac       ?dtor$2@?0???1CDialog@@UEAA@XZ@4HA 000000014003d7ac f   Colorpge.obj
 0001:0003c7ac       ?dtor$3@?0???_GCAboutDlg@@UEAAPEAXI@Z@4HA 000000014003d7ac f   Propdlg.obj
 0001:0003c7c0       ?dtor$0@?0??_ProcessWindowMessage@CPreviewView@@UEAAHPEAUHWND__@@I_K_JAEA_J@Z@4HA 000000014003d7c0 f   Stdafx.obj
 0001:0003c7c0       ?dtor$0@?0??_ProcessWindowMessage@CScrollView@@UEAAHPEAUHWND__@@I_K_JAEA_J@Z@4HA 000000014003d7c0 f   Stdafx.obj
 0001:0003c7c0       ?dtor$0@?0??_ProcessWindowMessage@CWnd@@UEAAHPEAUHWND__@@I_K_JAEA_J@Z@4HA 000000014003d7c0 f   Colorpge.obj
 0001:0003c7d0       ?dtor$0@?0???1CModuleState@@QEAA@XZ@4HA 000000014003d7d0 f   Colorpge.obj
 0001:0003c7e0       ?catch$0@?0??AllocBuffer@CString@WTL@@IEAAHH@Z@4HA 000000014003d7e0 f   Colorpge.obj
 0001:0003c7ed       __catch$?AllocBuffer@CString@WTL@@IEAAHH@Z$0 000000014003d7ed f   Colorpge.obj
 0001:0003c800       ?dtor$0@?0???0CPropertyPageMTL@@QEAA@IIK@Z@4HA 000000014003d800 f   Colorpge.obj
 0001:0003c80c       ?dtor$1@?0???0CPropertyPageMTL@@QEAA@IIK@Z@4HA 000000014003d80c f   Colorpge.obj
 0001:0003c81f       ?dtor$2@?0???0CPropertyPageMTL@@QEAA@IIK@Z@4HA 000000014003d81f f   Colorpge.obj
 0001:0003c832       ?dtor$3@?0???0CPropertyPageMTL@@QEAA@IIK@Z@4HA 000000014003d832 f   Colorpge.obj
 0001:0003c850       ?dtor$0@?0???0CMainFrame@@QEAA@XZ@4HA 000000014003d850 f   Mainfrm.obj
 0001:0003c85c       ?dtor$1@?0???0CMainFrame@@QEAA@XZ@4HA 000000014003d85c f   Mainfrm.obj
 0001:0003c870       ?dtor$0@?0???1CMainFrame@@UEAA@XZ@4HA 000000014003d870 f   Mainfrm.obj
 0001:0003c87c       ?dtor$1@?0???1CMainFrame@@UEAA@XZ@4HA 000000014003d87c f   Mainfrm.obj
 0001:0003c88f       ?dtor$4@?0???1CMainFrame@@UEAA@XZ@4HA 000000014003d88f f   Mainfrm.obj
 0001:0003c89b       ?dtor$5@?0???1CMainFrame@@UEAA@XZ@4HA 000000014003d89b f   Mainfrm.obj
 0001:0003c8a7       ?dtor$6@?0???1CMainFrame@@UEAA@XZ@4HA 000000014003d8a7 f   Mainfrm.obj
 0001:0003c8b7       ?dtor$9@?0???1CMainFrame@@UEAA@XZ@4HA 000000014003d8b7 f   Mainfrm.obj
 0001:0003c8c3       ?dtor$10@?0???1CMainFrame@@UEAA@XZ@4HA 000000014003d8c3 f   Mainfrm.obj
 0001:0003c8cf       ?dtor$11@?0???1CMainFrame@@UEAA@XZ@4HA 000000014003d8cf f   Mainfrm.obj
 0001:0003c8e0       ?dtor$0@?0??OnMiniFramePropertySheet@CMainFrame@@QEAAXXZ@4HA 000000014003d8e0 f   Mainfrm.obj
 0001:0003c8ec       ?dtor$1@?0??OnMiniFramePropertySheet@CMainFrame@@QEAAXXZ@4HA 000000014003d8ec f   Mainfrm.obj
 0001:0003c900       ?dtor$0@?0??SetIndicators@CStatusBar@@QEAAHPEBIH@Z@4HA 000000014003d900 f   Mainfrm.obj
 0001:0003c910       ?dtor$1@?0???_GCToolBar@@UEAAPEAXI@Z@4HA 000000014003d910 f   Mainfrm.obj
 0001:0003c910       ?dtor$0@?0???1CView@@UEAA@XZ@4HA 000000014003d910 f   Shapesvw.obj
 0001:0003c910       ?dtor$0@?0???_GCView@@UEAAPEAXI@Z@4HA 000000014003d910 f   Shapesvw.obj
 0001:0003c910       ?dtor$0@?0???_GCControlBar@@UEAAPEAXI@Z@4HA 000000014003d910 f   Mainfrm.obj
 0001:0003c910       ?dtor$1@?0???1CStatusBar@@UEAA@XZ@4HA 000000014003d910 f   Mainfrm.obj
 0001:0003c910       ?dtor$1@?0???_GCShapesView@@UEAAPEAXI@Z@4HA 000000014003d910 f   Shapesvw.obj
 0001:0003c910       ?dtor$1@?0???_GCStatusBar@@UEAAPEAXI@Z@4HA 000000014003d910 f   Mainfrm.obj
 0001:0003c910       ?dtor$0@?0???1CControlBar@@UEAA@XZ@4HA 000000014003d910 f   Mainfrm.obj
 0001:0003c91c       ?dtor$1@?0???_GCView@@UEAAPEAXI@Z@4HA 000000014003d91c f   Shapesvw.obj
 0001:0003c91c       ?dtor$1@?0???1CView@@UEAA@XZ@4HA 000000014003d91c f   Shapesvw.obj
 0001:0003c91c       ?dtor$2@?0???_GCToolBar@@UEAAPEAXI@Z@4HA 000000014003d91c f   Mainfrm.obj
 0001:0003c91c       ?dtor$2@?0???_GCStatusBar@@UEAAPEAXI@Z@4HA 000000014003d91c f   Mainfrm.obj
 0001:0003c91c       ?dtor$2@?0???1CStatusBar@@UEAA@XZ@4HA 000000014003d91c f   Mainfrm.obj
 0001:0003c91c       ?dtor$1@?0???_GCControlBar@@UEAAPEAXI@Z@4HA 000000014003d91c f   Mainfrm.obj
 0001:0003c91c       ?dtor$1@?0???1CControlBar@@UEAA@XZ@4HA 000000014003d91c f   Mainfrm.obj
 0001:0003c91c       ?dtor$2@?0???_GCShapesView@@UEAAPEAXI@Z@4HA 000000014003d91c f   Shapesvw.obj
 0001:0003c928       ?dtor$2@?0???_GCView@@UEAAPEAXI@Z@4HA 000000014003d928 f   Shapesvw.obj
 0001:0003c928       ?dtor$2@?0???1CView@@UEAA@XZ@4HA 000000014003d928 f   Shapesvw.obj
 0001:0003c928       ?dtor$3@?0???_GCShapesView@@UEAAPEAXI@Z@4HA 000000014003d928 f   Shapesvw.obj
 0001:0003c928       ?dtor$2@?0???_GCControlBar@@UEAAPEAXI@Z@4HA 000000014003d928 f   Mainfrm.obj
 0001:0003c928       ?dtor$2@?0???1CControlBar@@UEAA@XZ@4HA 000000014003d928 f   Mainfrm.obj
 0001:0003c928       ?dtor$3@?0???_GCToolBar@@UEAAPEAXI@Z@4HA 000000014003d928 f   Mainfrm.obj
 0001:0003c928       ?dtor$3@?0???_GCStatusBar@@UEAAPEAXI@Z@4HA 000000014003d928 f   Mainfrm.obj
 0001:0003c928       ?dtor$3@?0???1CStatusBar@@UEAA@XZ@4HA 000000014003d928 f   Mainfrm.obj
 0001:0003c940       ?dtor$0@?0???0CControlBar@@QEAA@XZ@4HA 000000014003d940 f   Mainfrm.obj
 0001:0003c950       ?dtor$0@?0??Create@CMiniDockFrameWnd@@QEAAHPEAVCWnd@@K@Z@4HA 000000014003d950 f   Mainfrm.obj
 0001:0003c960       ?dtor$0@?0??UpdateAllPanes@CStatusBar@@QEAAXHH@Z@4HA 000000014003d960 f   Mainfrm.obj
 0001:0003c970       ?dtor$0@?0??UpdateDialogControls@CWnd@@QEAAXPEAVCCmdTarget@@H@Z@4HA 000000014003d970 f   Mainfrm.obj
 0001:0003c97c       ?dtor$1@?0??UpdateDialogControls@CWnd@@QEAAXPEAVCCmdTarget@@H@Z@4HA 000000014003d97c f   Mainfrm.obj
 0001:0003c988       ?dtor$2@?0??UpdateDialogControls@CWnd@@QEAAXPEAVCCmdTarget@@H@Z@4HA 000000014003d988 f   Mainfrm.obj
 0001:0003c9a0       ?dtor$0@?0???0CFrameWnd@@QEAA@XZ@4HA 000000014003d9a0 f   Mainfrm.obj
 0001:0003c9ac       ?dtor$1@?0???0CFrameWnd@@QEAA@XZ@4HA 000000014003d9ac f   Mainfrm.obj
 0001:0003c9bc       ?dtor$2@?0???0CFrameWnd@@QEAA@XZ@4HA 000000014003d9bc f   Mainfrm.obj
 0001:0003c9d0       ?dtor$0@?0???1CFrameWnd@@UEAA@XZ@4HA 000000014003d9d0 f   Mainfrm.obj
 0001:0003c9dc       ?dtor$1@?0???1CFrameWnd@@UEAA@XZ@4HA 000000014003d9dc f   Mainfrm.obj
 0001:0003c9ec       ?dtor$2@?0???1CFrameWnd@@UEAA@XZ@4HA 000000014003d9ec f   Mainfrm.obj
 0001:0003c9ff       ?dtor$3@?0???1CFrameWnd@@UEAA@XZ@4HA 000000014003d9ff f   Mainfrm.obj
 0001:0003ca0b       ?dtor$4@?0???1CFrameWnd@@UEAA@XZ@4HA 000000014003da0b f   Mainfrm.obj
 0001:0003ca20       ?dtor$0@?0??LoadFrame@CFrameWnd@@UEAAHIKPEAVCWnd@@PEAUCCreateContext@@@Z@4HA 000000014003da20 f   Mainfrm.obj
 0001:0003ca2c       ?dtor$1@?0??LoadFrame@CFrameWnd@@UEAAHIKPEAVCWnd@@PEAUCCreateContext@@@Z@4HA 000000014003da2c f   Mainfrm.obj
 0001:0003ca40       ?dtor$0@?0??OnWindowNew@CMDIFrameWnd@@QEAAXXZ@4HA 000000014003da40 f   Mainfrm.obj
 0001:0003ca50       ?dtor$0@?0??DestroyDockBars@CFrameWnd@@QEAAXXZ@4HA 000000014003da50 f   Mainfrm.obj
 0001:0003ca5c       ?dtor$1@?0??DestroyDockBars@CFrameWnd@@QEAAXXZ@4HA 000000014003da5c f   Mainfrm.obj
 0001:0003ca70       ?dtor$0@?0??AfxMessageBox@@YAHIII@Z@4HA 000000014003da70 f   Mainfrm.obj
 0001:0003ca70       ?dtor$0@?0??OnFileOpen@CDocManager@@UEAAXXZ@4HA 000000014003da70 f   Propdlg.obj
 0001:0003ca80       ?dtor$0@?0??OnSetMessageString@CFrameWnd@@QEAA_J_K_J@Z@4HA 000000014003da80 f   Mainfrm.obj
 0001:0003ca90       ?dtor$0@?0??UpdateFrameTitleForDocument@CFrameWnd@@QEAAXPEB_W@Z@4HA 000000014003da90 f   Mainfrm.obj
 0001:0003caa0       ?dtor$0@?0??OnToolTipText@CFrameWnd@@QEAAHIPEAUtagNMHDR@@PEA_J@Z@4HA 000000014003daa0 f   Mainfrm.obj
 0001:0003cab0       ?dtor$0@?0??_ProcessWindowMessage@CFrameWnd@@UEAAHPEAUHWND__@@I_K_JAEA_J@Z@4HA 000000014003dab0 f   Mainfrm.obj
 0001:0003cabc       ?dtor$1@?0??_ProcessWindowMessage@CFrameWnd@@UEAAHPEAUHWND__@@I_K_JAEA_J@Z@4HA 000000014003dabc f   Mainfrm.obj
 0001:0003cac8       ?dtor$2@?0??_ProcessWindowMessage@CFrameWnd@@UEAAHPEAUHWND__@@I_K_JAEA_J@Z@4HA 000000014003dac8 f   Mainfrm.obj
 0001:0003cad4       ?dtor$3@?0??_ProcessWindowMessage@CFrameWnd@@UEAAHPEAUHWND__@@I_K_JAEA_J@Z@4HA 000000014003dad4 f   Mainfrm.obj
 0001:0003cae0       ?dtor$0@?0??OnCreate@CShapePropSheetFrame@@IEAAHPEAUtagCREATESTRUCTW@@@Z@4HA 000000014003dae0 f   Minifrm.obj
 0001:0003caf0       ?dtor$0@?0???1CMiniFrameWnd@@UEAA@XZ@4HA 000000014003daf0 f   Minifrm.obj
 0001:0003cb00       ?dtor$0@?0??OnPaint@CShapePreviewWnd@@AEAAXXZ@4HA 000000014003db00 f   Preview.obj
 0001:0003cb10       ?dtor$3@?0??InitInstance@CPropDlgApp@@UEAAHXZ@4HA 000000014003db10 f   Propdlg.obj
 0001:0003cb1c       ?dtor$0@?0??InitInstance@CPropDlgApp@@UEAAHXZ@4HA 000000014003db1c f   Propdlg.obj
 0001:0003cb28       ?dtor$4@?0??InitInstance@CPropDlgApp@@UEAAHXZ@4HA 000000014003db28 f   Propdlg.obj
 0001:0003cb34       ?dtor$5@?0??InitInstance@CPropDlgApp@@UEAAHXZ@4HA 000000014003db34 f   Propdlg.obj
 0001:0003cb44       ?dtor$1@?0??InitInstance@CPropDlgApp@@UEAAHXZ@4HA 000000014003db44 f   Propdlg.obj
 0001:0003cb50       ?dtor$2@?0??InitInstance@CPropDlgApp@@UEAAHXZ@4HA 000000014003db50 f   Propdlg.obj
 0001:0003cb60       ?dtor$0@?0??OnAppAbout@CPropDlgApp@@QEAAXXZ@4HA 000000014003db60 f   Propdlg.obj
 0001:0003cb6c       ?dtor$3@?0??OnAppAbout@CPropDlgApp@@QEAAXXZ@4HA 000000014003db6c f   Propdlg.obj
 0001:0003cb78       ?dtor$4@?0??OnAppAbout@CPropDlgApp@@QEAAXXZ@4HA 000000014003db78 f   Propdlg.obj
 0001:0003cb90       ?dtor$0@?0???HWTL@@YA?AVCString@0@AEBV10@0@Z@4HA 000000014003db90 f   Propdlg.obj
 0001:0003cb90       ?dtor$0@?0???HWTL@@YA?AVCString@0@AEBV10@PEB_W@Z@4HA 000000014003db90 f   Propdlg.obj
 0001:0003cbc0       ?dtor$0@?0??AfxDelRegTreeHelper@CAfx@@SAJPEAUHKEY__@@AEBVCString@WTL@@PEAVCAtlTransactionManager@ATL@@@Z@4HA 000000014003dbc0 f   Propdlg.obj
 0001:0003cbcc       ?dtor$1@?0??AfxDelRegTreeHelper@CAfx@@SAJPEAUHKEY__@@AEBVCString@WTL@@PEAVCAtlTransactionManager@ATL@@@Z@4HA 000000014003dbcc f   Propdlg.obj
 0001:0003cbe0       ?dtor$0@?0??Unregister@CWinApp@@QEAAHXZ@4HA 000000014003dbe0 f   Propdlg.obj
 0001:0003cbec       ?dtor$1@?0??Unregister@CWinApp@@QEAAHXZ@4HA 000000014003dbec f   Propdlg.obj
 0001:0003cbf8       ?dtor$2@?0??Unregister@CWinApp@@QEAAHXZ@4HA 000000014003dbf8 f   Propdlg.obj
 0001:0003cc10       ?dtor$0@?0??EnableShellOpen@CWinApp@@QEAAXXZ@4HA 000000014003dc10 f   Propdlg.obj
 0001:0003cc1c       ?dtor$1@?0??EnableShellOpen@CWinApp@@QEAAXXZ@4HA 000000014003dc1c f   Propdlg.obj
 0001:0003cc30       ?dtor$0@?0???0CDocTemplate@@QEAA@IPEAUCRuntimeClass@@00@Z@4HA 000000014003dc30 f   Propdlg.obj
 0001:0003cc40       ?dtor$0@?0??OpenDocumentFile@CMultiDocTemplate@@UEAAPEAVCDocument@@PEB_WHH@Z@4HA 000000014003dc40 f   Propdlg.obj
 0001:0003cc50       ?dtor$0@?0??ReadList@CRecentFileList@@UEAAXXZ@4HA 000000014003dc50 f   Propdlg.obj
 0001:0003cc50       ?dtor$0@?0??SetDefaultTitle@CMultiDocTemplate@@UEAAXPEAVCDocument@@@Z@4HA 000000014003dc50 f   Propdlg.obj
 0001:0003cc60       ?dtor$0@?0???0CRecentFileList@@QEAA@IPEB_W0HH@Z@4HA 000000014003dc60 f   Propdlg.obj
 0001:0003cc70       ?dtor$1@?0???0CRecentFileList@@QEAA@IPEB_W0HH@Z@4HA 000000014003dc70 f   Propdlg.obj
 0001:0003cc80       ?dtor$2@?0???0CRecentFileList@@QEAA@IPEB_W0HH@Z@4HA 000000014003dc80 f   Propdlg.obj
 0001:0003cc90       ?dtor$3@?0???0CRecentFileList@@QEAA@IPEB_W0HH@Z@4HA 000000014003dc90 f   Propdlg.obj
 0001:0003cca0       ?dtor$0@?0???1CRecentFileList@@UEAA@XZ@4HA 000000014003dca0 f   Propdlg.obj
 0001:0003ccb0       ?dtor$1@?0???1CRecentFileList@@UEAA@XZ@4HA 000000014003dcb0 f   Propdlg.obj
 0001:0003ccc0       ?dtor$2@?0???1CRecentFileList@@UEAA@XZ@4HA 000000014003dcc0 f   Propdlg.obj
 0001:0003ccd0       ?dtor$0@?0???1CCommandLineInfo@@QEAA@XZ@4HA 000000014003dcd0 f   Propdlg.obj
 0001:0003cce0       ?dtor$1@?0???1CCommandLineInfo@@QEAA@XZ@4HA 000000014003dce0 f   Propdlg.obj
 0001:0003ccf0       ?dtor$2@?0???1CCommandLineInfo@@QEAA@XZ@4HA 000000014003dcf0 f   Propdlg.obj
 0001:0003cd00       ?dtor$0@?0???1CWinApp@@QEAA@XZ@4HA 000000014003dd00 f   Propdlg.obj
 0001:0003cd0c       ?dtor$1@?0???1CWinApp@@QEAA@XZ@4HA 000000014003dd0c f   Propdlg.obj
 0001:0003cd1c       ?dtor$2@?0???1CWinApp@@QEAA@XZ@4HA 000000014003dd1c f   Propdlg.obj
 0001:0003cd30       ?dtor$0@?0???0CModuleThreadState@@QEAA@XZ@4HA 000000014003dd30 f   Propdlg.obj
 0001:0003cd50       ?dtor$0@?0???0CWinApp@@QEAA@XZ@4HA 000000014003dd50 f   Propdlg.obj
 0001:0003cd5c       ?dtor$1@?0???0CWinApp@@QEAA@XZ@4HA 000000014003dd5c f   Propdlg.obj
 0001:0003cd70       ?dtor$0@?0??UpdateMenu@CRecentFileList@@UEAAXPEAVCCmdUI@@@Z@4HA 000000014003dd70 f   Propdlg.obj
 0001:0003cd7c       ?dtor$1@?0??UpdateMenu@CRecentFileList@@UEAAXPEAVCCmdUI@@@Z@4HA 000000014003dd7c f   Propdlg.obj
 0001:0003cd88       ?dtor$2@?0??UpdateMenu@CRecentFileList@@UEAAXPEAVCCmdUI@@@Z@4HA 000000014003dd88 f   Propdlg.obj
 0001:0003cda0       ?dtor$0@?0??UpdatePrinterSelection@CWinApp@@QEAAXH@Z@4HA 000000014003dda0 f   Propdlg.obj
 0001:0003cdac       ?dtor$1@?0??UpdatePrinterSelection@CWinApp@@QEAAXH@Z@4HA 000000014003ddac f   Propdlg.obj
 0001:0003cdd8       ?dtor$2@?0??UpdatePrinterSelection@CWinApp@@QEAAXH@Z@4HA 000000014003ddd8 f   Propdlg.obj
 0001:0003ce10       ?dtor$0@?0??OnFilePrintSetup@CWinApp@@QEAAXXZ@4HA 000000014003de10 f   Propdlg.obj
 0001:0003ce20       ?dtor$0@?0???0CFileDialogMTL@@QEAA@HPEB_W0K0PEAVCWnd@@KH@Z@4HA 000000014003de20 f   Propdlg.obj
 0001:0003ce2c       ?dtor$1@?0???0CFileDialogMTL@@QEAA@HPEB_W0K0PEAVCWnd@@KH@Z@4HA 000000014003de2c f   Propdlg.obj
 0001:0003ce40       ?dtor$0@?0???1CFileDialogMTL@@UEAA@XZ@4HA 000000014003de40 f   Propdlg.obj
 0001:0003ce4c       ?dtor$1@?0???1CFileDialogMTL@@UEAA@XZ@4HA 000000014003de4c f   Propdlg.obj
 0001:0003ce5f       ?dtor$4@?0???1CFileDialogMTL@@UEAA@XZ@4HA 000000014003de5f f   Propdlg.obj
 0001:0003ce6b       ?dtor$5@?0???1CFileDialogMTL@@UEAA@XZ@4HA 000000014003de6b f   Propdlg.obj
 0001:0003ce80       ?dtor$0@?0??Mid@CString@WTL@@QEBA?AV12@HH@Z@4HA 000000014003de80 f   Propdlg.obj
 0001:0003ceb0       ?dtor$0@?0??_AfxAppendFilterSuffix@@YAXAEAVCString@WTL@@AEAUtagOFNW@@PEAVCDocTemplate@@PEAV12@@Z@4HA 000000014003deb0 f   Propdlg.obj
 0001:0003cebc       ?dtor$1@?0??_AfxAppendFilterSuffix@@YAXAEAVCString@WTL@@AEAUtagOFNW@@PEAVCDocTemplate@@PEAV12@@Z@4HA 000000014003debc f   Propdlg.obj
 0001:0003cec8       ?dtor$2@?0??_AfxAppendFilterSuffix@@YAXAEAVCString@WTL@@AEAUtagOFNW@@PEAVCDocTemplate@@PEAV12@@Z@4HA 000000014003dec8 f   Propdlg.obj
 0001:0003ced4       ?dtor$3@?0??_AfxAppendFilterSuffix@@YAXAEAVCString@WTL@@AEAUtagOFNW@@PEAVCDocTemplate@@PEAV12@@Z@4HA 000000014003ded4 f   Propdlg.obj
 0001:0003cee0       ?dtor$0@?0??ApplyOFNToShellDialog@CFileDialogMTL@@QEAAXXZ@4HA 000000014003dee0 f   Propdlg.obj
 0001:0003ceec       ?dtor$1@?0??ApplyOFNToShellDialog@CFileDialogMTL@@QEAAXXZ@4HA 000000014003deec f   Propdlg.obj
 0001:0003cef8       ?dtor$2@?0??ApplyOFNToShellDialog@CFileDialogMTL@@QEAAXXZ@4HA 000000014003def8 f   Propdlg.obj
 0001:0003cf04       ?dtor$3@?0??ApplyOFNToShellDialog@CFileDialogMTL@@QEAAXXZ@4HA 000000014003df04 f   Propdlg.obj
 0001:0003cf10       ?dtor$4@?0??ApplyOFNToShellDialog@CFileDialogMTL@@QEAAXXZ@4HA 000000014003df10 f   Propdlg.obj
 0001:0003cf1c       ?dtor$5@?0??ApplyOFNToShellDialog@CFileDialogMTL@@QEAAXXZ@4HA 000000014003df1c f   Propdlg.obj
 0001:0003cf28       ?dtor$6@?0??ApplyOFNToShellDialog@CFileDialogMTL@@QEAAXXZ@4HA 000000014003df28 f   Propdlg.obj
 0001:0003cf40       ?dtor$0@?0??GetPathName@CFileDialogMTL@@QEAA?AVCString@WTL@@XZ@4HA 000000014003df40 f   Propdlg.obj
 0001:0003cf4c       ?dtor$2@?0??GetPathName@CFileDialogMTL@@QEAA?AVCString@WTL@@XZ@4HA 000000014003df4c f   Propdlg.obj
 0001:0003cf60       ?dtor$0@?0??UpdateOFNFromShellDialog@CFileDialogMTL@@UEAAXXZ@4HA 000000014003df60 f   Propdlg.obj
 0001:0003cf6c       ?dtor$1@?0??UpdateOFNFromShellDialog@CFileDialogMTL@@UEAAXXZ@4HA 000000014003df6c f   Propdlg.obj
 0001:0003cf78       ?dtor$2@?0??UpdateOFNFromShellDialog@CFileDialogMTL@@UEAAXXZ@4HA 000000014003df78 f   Propdlg.obj
 0001:0003cf84       ?dtor$3@?0??UpdateOFNFromShellDialog@CFileDialogMTL@@UEAAXXZ@4HA 000000014003df84 f   Propdlg.obj
 0001:0003cf90       ?dtor$4@?0??UpdateOFNFromShellDialog@CFileDialogMTL@@UEAAXXZ@4HA 000000014003df90 f   Propdlg.obj
 0001:0003cf9c       ?dtor$5@?0??UpdateOFNFromShellDialog@CFileDialogMTL@@UEAAXXZ@4HA 000000014003df9c f   Propdlg.obj
 0001:0003cfb0       ?dtor$0@?0??DoPromptFileName@CDocManager@@QEAAHAEAVCString@WTL@@IKHPEAVCDocTemplate@@@Z@4HA 000000014003dfb0 f   Propdlg.obj
 0001:0003cfbc       ?dtor$1@?0??DoPromptFileName@CDocManager@@QEAAHAEAVCString@WTL@@IKHPEAVCDocTemplate@@@Z@4HA 000000014003dfbc f   Propdlg.obj
 0001:0003cfc8       ?dtor$2@?0??DoPromptFileName@CDocManager@@QEAAHAEAVCString@WTL@@IKHPEAVCDocTemplate@@@Z@4HA 000000014003dfc8 f   Propdlg.obj
 0001:0003cfd4       ?dtor$3@?0??DoPromptFileName@CDocManager@@QEAAHAEAVCString@WTL@@IKHPEAVCDocTemplate@@@Z@4HA 000000014003dfd4 f   Propdlg.obj
 0001:0003cfe0       ?dtor$4@?0??DoPromptFileName@CDocManager@@QEAAHAEAVCString@WTL@@IKHPEAVCDocTemplate@@@Z@4HA 000000014003dfe0 f   Propdlg.obj
 0001:0003cff0       ?dtor$0@?0??_AfxFullPath2@CAfx@@SAHPEA_WPEB_WPEAVCFileException@@@Z@4HA 000000014003dff0 f   Propdlg.obj
 0001:0003cff0       ?dtor$0@?0??OnUpdateNumPageChange@CPreviewView@@QEAAXPEAVCCmdUI@@@Z@4HA 000000014003dff0 f   Stdafx.obj
 0001:0003cff0       ?dtor$0@?0??AfxResolveShortcut@@YAHPEAVCWMHnd@@PEB_WPEA_WH@Z@4HA 000000014003dff0 f   Propdlg.obj
 0001:0003d000       ?dtor$0@?0??GetClassObject@AFX_COM@@QEAAJAEBU_GUID@@0PEAPEAX@Z@4HA 000000014003e000 f   Propdlg.obj
 0001:0003d00c       ?dtor$1@?0??GetClassObject@AFX_COM@@QEAAJAEBU_GUID@@0PEAPEAX@Z@4HA 000000014003e00c f   Propdlg.obj
 0001:0003d020       ?dtor$0@?0??MatchDocType@CDocTemplate@@UEAA?AW4Confidence@1@PEB_WAEAPEAVCDocument@@@Z@4HA 000000014003e020 f   Propdlg.obj
 0001:0003d030       ?dtor$0@?0??OnInitDialog@CNewTypeDlg@@UEAAHXZ@4HA 000000014003e030 f   Propdlg.obj
 0001:0003d040       ?dtor$0@?0??OnFileNew@CDocManager@@UEAAXXZ@4HA 000000014003e040 f   Propdlg.obj
 0001:0003d04c       ?dtor$3@?0??OnFileNew@CDocManager@@UEAAXXZ@4HA 000000014003e04c f   Propdlg.obj
 0001:0003d058       ?dtor$4@?0??OnFileNew@CDocManager@@UEAAXXZ@4HA 000000014003e058 f   Propdlg.obj
 0001:0003d068       ?dtor$8@?0??OnFileNew@CDocManager@@UEAAXXZ@4HA 000000014003e068 f   Propdlg.obj
 0001:0003d074       ?dtor$9@?0??OnFileNew@CDocManager@@UEAAXXZ@4HA 000000014003e074 f   Propdlg.obj
 0001:0003d090       ?dtor$0@?0???0CModalShapePropSheet@@QEAA@PEAVCWnd@@@Z@4HA 000000014003e090 f   Propsht.obj
 0001:0003d09c       ?dtor$1@?0???0CModalShapePropSheet@@QEAA@PEAVCWnd@@@Z@4HA 000000014003e09c f   Propsht.obj
 0001:0003d0af       ?dtor$2@?0???0CModalShapePropSheet@@QEAA@PEAVCWnd@@@Z@4HA 000000014003e0af f   Propsht.obj
 0001:0003d0c2       ?dtor$3@?0???0CModalShapePropSheet@@QEAA@PEAVCWnd@@@Z@4HA 000000014003e0c2 f   Propsht.obj
 0001:0003d0e0       ?dtor$0@?0???1CModalShapePropSheet@@UEAA@XZ@4HA 000000014003e0e0 f   Propsht.obj
 0001:0003d0ec       ?dtor$1@?0???1CModalShapePropSheet@@UEAA@XZ@4HA 000000014003e0ec f   Propsht.obj
 0001:0003d0ff       ?dtor$2@?0???1CModalShapePropSheet@@UEAA@XZ@4HA 000000014003e0ff f   Propsht.obj
 0001:0003d112       ?dtor$5@?0???1CModalShapePropSheet@@UEAA@XZ@4HA 000000014003e112 f   Propsht.obj
 0001:0003d11e       ?dtor$6@?0???1CModalShapePropSheet@@UEAA@XZ@4HA 000000014003e11e f   Propsht.obj
 0001:0003d130       ?dtor$0@?0???1CPropertySheetMTL@@UEAA@XZ@4HA 000000014003e130 f   Propsht.obj
 0001:0003d13c       ?dtor$1@?0???1CPropertySheetMTL@@UEAA@XZ@4HA 000000014003e13c f   Propsht.obj
 0001:0003d14f       ?dtor$3@?0???1CPropertySheetMTL@@UEAA@XZ@4HA 000000014003e14f f   Propsht.obj
 0001:0003d15b       ?dtor$4@?0???1CPropertySheetMTL@@UEAA@XZ@4HA 000000014003e15b f   Propsht.obj
 0001:0003d170       ?dtor$0@?0??_AfxChangePropPageFont@CPropertyPageMTL@@SAPEAUDLGTEMPLATE@@PEBU2@H@Z@4HA 000000014003e170 f   Propsht.obj
 0001:0003d17c       ?dtor$1@?0??_AfxChangePropPageFont@CPropertyPageMTL@@SAPEAUDLGTEMPLATE@@PEBU2@H@Z@4HA 000000014003e17c f   Propsht.obj
 0001:0003d190       ?dtor$0@?0???0CPropertySheetMTL@@QEAA@IPEAVCWnd@@I@Z@4HA 000000014003e190 f   Propsht.obj
 0001:0003d19c       ?dtor$1@?0???0CPropertySheetMTL@@QEAA@IPEAVCWnd@@I@Z@4HA 000000014003e19c f   Propsht.obj
 0001:0003d1af       ?dtor$2@?0???0CPropertySheetMTL@@QEAA@IPEAVCWnd@@I@Z@4HA 000000014003e1af f   Propsht.obj
 0001:0003d1d0       ?dtor$0@?0???0CModelessShapePropSheet@@QEAA@PEAVCWnd@@@Z@4HA 000000014003e1d0 f   Propsht2.obj
 0001:0003d1dc       ?dtor$1@?0???0CModelessShapePropSheet@@QEAA@PEAVCWnd@@@Z@4HA 000000014003e1dc f   Propsht2.obj
 0001:0003d1ef       ?dtor$2@?0???0CModelessShapePropSheet@@QEAA@PEAVCWnd@@@Z@4HA 000000014003e1ef f   Propsht2.obj
 0001:0003d210       ?dtor$0@?0???_GCModelessShapePropSheet@@UEAAPEAXI@Z@4HA 000000014003e210 f   Propsht2.obj
 0001:0003d21c       ?dtor$1@?0???_GCModelessShapePropSheet@@UEAAPEAXI@Z@4HA 000000014003e21c f   Propsht2.obj
 0001:0003d230       ?dtor$0@?0??OnOpenDocument@CDocument@@UEAAHPEB_W@Z@4HA 000000014003e230 f   Shapedoc.obj
 0001:0003d23c       ?dtor$3@?0??OnOpenDocument@CDocument@@UEAAHPEB_W@Z@4HA 000000014003e23c f   Shapedoc.obj
 0001:0003d24c       ?dtor$1@?0??OnOpenDocument@CDocument@@UEAAHPEB_W@Z@4HA 000000014003e24c f   Shapedoc.obj
 0001:0003d258       ?dtor$2@?0??OnOpenDocument@CDocument@@UEAAHPEB_W@Z@4HA 000000014003e258 f   Shapedoc.obj
 0001:0003d264       ?catch$0@?0??OnOpenDocument@CDocument@@UEAAHPEB_W@Z@4HA 000000014003e264 f   Shapedoc.obj
 0001:0003d272       __catch$?OnOpenDocument@CDocument@@UEAAHPEB_W@Z$0 000000014003e272 f   Shapedoc.obj
 0001:0003d2c0       ?catch$0@?0??ReadObject@CArchive@@QEAAPEAVCObject@@PEBUCRuntimeClass@@@Z@4HA 000000014003e2c0 f   Shapedoc.obj
 0001:0003d2cd       __catch$?ReadObject@CArchive@@QEAAPEAVCObject@@PEBUCRuntimeClass@@@Z$0 000000014003e2cd f   Shapedoc.obj
 0001:0003d2f0       ?catch$0@?0??EnsureSchemaMapExists@CArchive@@QEAAXPEAPEAV?$CArray@W4LoadArrayObjType@CArchive@@AEBW412@@@@Z@4HA 000000014003e2f0 f   Shapedoc.obj
 0001:0003d2fe       __catch$?EnsureSchemaMapExists@CArchive@@QEAAXPEAPEAV?$CArray@W4LoadArrayObjType@CArchive@@AEBW412@@@@Z$0 000000014003e2fe f   Shapedoc.obj
 0001:0003d350       ?dtor$0@?0??AfxThrowArchiveException@CArchive@@SAXHPEB_W@Z@4HA 000000014003e350 f   Shapedoc.obj
 0001:0003d35c       ?dtor$1@?0??AfxThrowArchiveException@CArchive@@SAXHPEB_W@Z@4HA 000000014003e35c f   Shapedoc.obj
 0001:0003d370       ?dtor$0@?0??SaveModified@CDocument@@UEAAHXZ@4HA 000000014003e370 f   Shapedoc.obj
 0001:0003d37c       ?dtor$1@?0??SaveModified@CDocument@@UEAAHXZ@4HA 000000014003e37c f   Shapedoc.obj
 0001:0003d388       ?dtor$2@?0??SaveModified@CDocument@@UEAAHXZ@4HA 000000014003e388 f   Shapedoc.obj
 0001:0003d3a0       ?dtor$0@?0???1CDocument@@UEAA@XZ@4HA 000000014003e3a0 f   Shapedoc.obj
 0001:0003d3b0       ?dtor$1@?0???1CDocument@@UEAA@XZ@4HA 000000014003e3b0 f   Shapedoc.obj
 0001:0003d3c0       ?dtor$2@?0???1CDocument@@UEAA@XZ@4HA 000000014003e3c0 f   Shapedoc.obj
 0001:0003d3d0       ?dtor$0@?0???0CArchive@@QEAA@PEAVCFile@@IHPEAX@Z@4HA 000000014003e3d0 f   Shapedoc.obj
 0001:0003d3e0       ?dtor$1@?0???0CArchive@@QEAA@PEAVCFile@@IHPEAX@Z@4HA 000000014003e3e0 f   Shapedoc.obj
 0001:0003d3f0       ?dtor$0@?0??Write@CFile@@UEAAXPEBXI@Z@4HA 000000014003e3f0 f   Shapedoc.obj
 0001:0003d3fc       ?dtor$1@?0??Write@CFile@@UEAAXPEBXI@Z@4HA 000000014003e3fc f   Shapedoc.obj
 0001:0003d410       ?dtor$0@?0???0CFileException@@QEAA@HJPEB_W@Z@4HA 000000014003e410 f   Shapedoc.obj
 0001:0003d420       ?dtor$0@?0??ThrowOsError@CFileException@@SAXJPEB_W@Z@4HA 000000014003e420 f   Shapedoc.obj
 0001:0003d420       ?dtor$0@?0??Close@CFile@@UEAAXXZ@4HA 000000014003e420 f   Shapedoc.obj
 0001:0003d430       ?dtor$0@?0???_GCFile@@QEAAPEAXI@Z@4HA 000000014003e430 f   Shapedoc.obj
 0001:0003d440       ?dtor$0@?0??OnSaveDocument@CDocument@@UEAAHPEB_W@Z@4HA 000000014003e440 f   Shapedoc.obj
 0001:0003d44c       ?dtor$3@?0??OnSaveDocument@CDocument@@UEAAHPEB_W@Z@4HA 000000014003e44c f   Shapedoc.obj
 0001:0003d45c       ?dtor$1@?0??OnSaveDocument@CDocument@@UEAAHPEB_W@Z@4HA 000000014003e45c f   Shapedoc.obj
 0001:0003d468       ?dtor$2@?0??OnSaveDocument@CDocument@@UEAAHPEB_W@Z@4HA 000000014003e468 f   Shapedoc.obj
 0001:0003d480       ?dtor$0@?0??DoSave@CDocument@@UEAAHPEB_WH@Z@4HA 000000014003e480 f   Shapedoc.obj
 0001:0003d48c       ?dtor$1@?0??DoSave@CDocument@@UEAAHPEB_WH@Z@4HA 000000014003e48c f   Shapedoc.obj
 0001:0003d498       ?dtor$2@?0??DoSave@CDocument@@UEAAHPEB_WH@Z@4HA 000000014003e498 f   Shapedoc.obj
 0001:0003d4a4       ?dtor$3@?0??DoSave@CDocument@@UEAAHPEB_WH@Z@4HA 000000014003e4a4 f   Shapedoc.obj
 0001:0003d4b0       ?dtor$0@?0??Draw@CShape@@QEAAXPEAVCDCMTL@@H@Z@4HA 000000014003e4b0 f   Shapeobj.obj
 0001:0003d4bc       ?dtor$1@?0??Draw@CShape@@QEAAXPEAVCDCMTL@@H@Z@4HA 000000014003e4bc f   Shapeobj.obj
 0001:0003d4d0       ?dtor$0@?0??OnLButtonDown@CShapesView@@IEAAXIVCPoint@WTL@@@Z@4HA 000000014003e4d0 f   Shapesvw.obj
 0001:0003d4e0       ?dtor$0@?0??OnSimplePropertySheet@CShapesView@@IEAAXXZ@4HA 000000014003e4e0 f   Shapesvw.obj
 0001:0003d4ec       ?dtor$1@?0??OnSimplePropertySheet@CShapesView@@IEAAXXZ@4HA 000000014003e4ec f   Shapesvw.obj
 0001:0003d4f8       ?dtor$2@?0??OnSimplePropertySheet@CShapesView@@IEAAXXZ@4HA 000000014003e4f8 f   Shapesvw.obj
 0001:0003d510       ?dtor$0@?0??CreateObject@CMDIChildWnd@@SAPEAVCObject@@XZ@4HA 000000014003e510 f   Stdafx.obj
 0001:0003d510       ?dtor$0@?0??CreateObject@CMDIFrameWnd@@SAPEAVCObject@@XZ@4HA 000000014003e510 f   Stdafx.obj
 0001:0003d510       ?dtor$0@?0??CreateObject@CPreviewView@@SAPEAVCObject@@XZ@4HA 000000014003e510 f   Stdafx.obj
 0001:0003d510       ?dtor$0@?0??OnPropertySheetWithPreview@CShapesView@@IEAAXXZ@4HA 000000014003e510 f   Shapesvw.obj
 0001:0003d510       ?dtor$0@?0??CreateObject@CFrameWnd@@SAPEAVCObject@@XZ@4HA 000000014003e510 f   Stdafx.obj
 0001:0003d510       ?dtor$0@?0??CreateObject@CMiniFrameWnd@@SAPEAVCObject@@XZ@4HA 000000014003e510 f   Stdafx.obj
 0001:0003d520       ?dtor$0@?0???1CDialogBar@@UEAA@XZ@4HA 000000014003e520 f   Shapesvw.obj
 0001:0003d52c       ?dtor$1@?0???1CDialogBar@@UEAA@XZ@4HA 000000014003e52c f   Shapesvw.obj
 0001:0003d538       ?dtor$2@?0???1CDialogBar@@UEAA@XZ@4HA 000000014003e538 f   Shapesvw.obj
 0001:0003d544       ?dtor$3@?0???1CDialogBar@@UEAA@XZ@4HA 000000014003e544 f   Shapesvw.obj
 0001:0003d560       ?dtor$0@?0??OnPaint@CView@@QEAAXXZ@4HA 000000014003e560 f   Shapesvw.obj
 0001:0003d570       ?dtor$0@?0??ExtTextOutW@CPreviewDC@@QEAAHHHIPEBUtagRECT@@PEB_WIPEAH@Z@4HA 000000014003e570 f   Shapesvw.obj
 0001:0003d57c       ?dtor$1@?0??ExtTextOutW@CPreviewDC@@QEAAHHHIPEBUtagRECT@@PEB_WIPEAH@Z@4HA 000000014003e57c f   Shapesvw.obj
 0001:0003d590       ?dtor$0@?0???0CPreviewDC@@QEAA@XZ@4HA 000000014003e590 f   Shapesvw.obj
 0001:0003d5a0       ?dtor$0@?0??SetPrintView@CPreviewView@@QEAAHPEAVCView@@@Z@4HA 000000014003e5a0 f   Shapesvw.obj
 0001:0003d5ac       ?dtor$1@?0??SetPrintView@CPreviewView@@QEAAHPEAVCView@@@Z@4HA 000000014003e5ac f   Shapesvw.obj
 0001:0003d5c0       ?dtor$0@?0??DoPrintPreview@CView@@QEAAHIPEAV1@PEAUCRuntimeClass@@PEAUCPrintPreviewState@@@Z@4HA 000000014003e5c0 f   Shapesvw.obj
 0001:0003d5d0       ?catch$0@?0??OnFilePrintPreview@CView@@QEAAXXZ@4HA 000000014003e5d0 f   Shapesvw.obj
 0001:0003d5dd       __catch$?OnFilePrintPreview@CView@@QEAAXXZ$0 000000014003e5dd f   Shapesvw.obj
 0001:0003d5f0       ?dtor$0@?0???0CPrintInfo@@QEAA@XZ@4HA 000000014003e5f0 f   Shapesvw.obj
 0001:0003d5f0       ?dtor$0@?0???1CPrintInfo@@QEAA@XZ@4HA 000000014003e5f0 f   Shapesvw.obj
 0001:0003d600       ?dtor$0@?0??OnFilePrint@CView@@QEAAXXZ@4HA 000000014003e600 f   Shapesvw.obj
 0001:0003d60c       ?dtor$16@?0??OnFilePrint@CView@@QEAAXXZ@4HA 000000014003e60c f   Shapesvw.obj
 0001:0003d618       ?dtor$1@?0??OnFilePrint@CView@@QEAAXXZ@4HA 000000014003e618 f   Shapesvw.obj
 0001:0003d624       ?dtor$2@?0??OnFilePrint@CView@@QEAAXXZ@4HA 000000014003e624 f   Shapesvw.obj
 0001:0003d630       ?dtor$3@?0??OnFilePrint@CView@@QEAAXXZ@4HA 000000014003e630 f   Shapesvw.obj
 0001:0003d63c       ?dtor$4@?0??OnFilePrint@CView@@QEAAXXZ@4HA 000000014003e63c f   Shapesvw.obj
 0001:0003d648       ?dtor$5@?0??OnFilePrint@CView@@QEAAXXZ@4HA 000000014003e648 f   Shapesvw.obj
 0001:0003d654       ?dtor$6@?0??OnFilePrint@CView@@QEAAXXZ@4HA 000000014003e654 f   Shapesvw.obj
 0001:0003d660       ?dtor$7@?0??OnFilePrint@CView@@QEAAXXZ@4HA 000000014003e660 f   Shapesvw.obj
 0001:0003d66c       ?dtor$8@?0??OnFilePrint@CView@@QEAAXXZ@4HA 000000014003e66c f   Shapesvw.obj
 0001:0003d678       ?dtor$9@?0??OnFilePrint@CView@@QEAAXXZ@4HA 000000014003e678 f   Shapesvw.obj
 0001:0003d684       ?dtor$10@?0??OnFilePrint@CView@@QEAAXXZ@4HA 000000014003e684 f   Shapesvw.obj
 0001:0003d690       ?dtor$11@?0??OnFilePrint@CView@@QEAAXXZ@4HA 000000014003e690 f   Shapesvw.obj
 0001:0003d69c       ?dtor$17@?0??OnFilePrint@CView@@QEAAXXZ@4HA 000000014003e69c f   Shapesvw.obj
 0001:0003d6a8       ?dtor$12@?0??OnFilePrint@CView@@QEAAXXZ@4HA 000000014003e6a8 f   Shapesvw.obj
 0001:0003d6b4       ?dtor$13@?0??OnFilePrint@CView@@QEAAXXZ@4HA 000000014003e6b4 f   Shapesvw.obj
 0001:0003d6c0       ?dtor$20@?0??OnFilePrint@CView@@QEAAXXZ@4HA 000000014003e6c0 f   Shapesvw.obj
 0001:0003d6cc       ?dtor$21@?0??OnFilePrint@CView@@QEAAXXZ@4HA 000000014003e6cc f   Shapesvw.obj
 0001:0003d6dc       ?dtor$25@?0??OnFilePrint@CView@@QEAAXXZ@4HA 000000014003e6dc f   Shapesvw.obj
 0001:0003d6e8       ?dtor$26@?0??OnFilePrint@CView@@QEAAXXZ@4HA 000000014003e6e8 f   Shapesvw.obj
 0001:0003d6f8       ?dtor$28@?0??OnFilePrint@CView@@QEAAXXZ@4HA 000000014003e6f8 f   Shapesvw.obj
 0001:0003d710       ?dtor$0@?0???0CScrollView@@QEAA@XZ@4HA 000000014003e710 f   Stdafx.obj
 0001:0003d720       ?dtor$0@?0???1CScrollView@@UEAA@XZ@4HA 000000014003e720 f   Stdafx.obj
 0001:0003d72c       ?dtor$1@?0???1CScrollView@@UEAA@XZ@4HA 000000014003e72c f   Stdafx.obj
 0001:0003d738       ?dtor$2@?0???1CScrollView@@UEAA@XZ@4HA 000000014003e738 f   Stdafx.obj
 0001:0003d744       ?dtor$3@?0???1CScrollView@@UEAA@XZ@4HA 000000014003e744 f   Stdafx.obj
 0001:0003d760       ?dtor$0@?0??OnPrintClient@CScrollView@@QEAA_JPEAVCDCMTL@@I@Z@4HA 000000014003e760 f   Stdafx.obj
 0001:0003d76c       ?dtor$1@?0??OnPrintClient@CScrollView@@QEAA_JPEAVCDCMTL@@I@Z@4HA 000000014003e76c f   Stdafx.obj
 0001:0003d780       ?dtor$0@?0??Create@_AFX_MOUSEANCHORWND@@QEAAHPEAVCScrollView@@@Z@4HA 000000014003e780 f   Stdafx.obj
 0001:0003d790       ?dtor$0@?0???1CPreviewView@@UEAA@XZ@4HA 000000014003e790 f   Stdafx.obj
 0001:0003d79c       ?dtor$1@?0???1CPreviewView@@UEAA@XZ@4HA 000000014003e79c f   Stdafx.obj
 0001:0003d7b0       ?dtor$0@?0??OnDraw@CPreviewView@@UEAAXPEAVCDCMTL@@@Z@4HA 000000014003e7b0 f   Stdafx.obj
 0001:0003d7bc       ?dtor$1@?0??OnDraw@CPreviewView@@UEAAXPEAVCDCMTL@@@Z@4HA 000000014003e7bc f   Stdafx.obj
 0001:0003d7d0       ?dtor$0@?0??OnEraseBkgnd@CPreviewView@@QEAAHPEAVCDCMTL@@@Z@4HA 000000014003e7d0 f   Stdafx.obj
 0001:0003d7e0       ?dtor$0@?0??LoadFrame@CMDIChildWnd@@UEAAHIKPEAVCWnd@@PEAUCCreateContext@@@Z@4HA 000000014003e7e0 f   Stdafx.obj
 0001:0003d7ec       ?dtor$1@?0??LoadFrame@CMDIChildWnd@@UEAAHIKPEAVCWnd@@PEAUCCreateContext@@@Z@4HA 000000014003e7ec f   Stdafx.obj
 0001:0003d800       ?dtor$0@?0??OnDisplayPageNumber@CPreviewView@@UEAAXII@Z@4HA 000000014003e800 f   Stdafx.obj
 0001:0003d80c       __tmainCRTStartup$filt$0   000000014003e80c f   LIBCMT:wwincrt0.obj
 0001:0003d82a       _onexit$fin$0              000000014003e82a f   LIBCMT:onexit.obj
 0001:0003d83e       ?fin$0@?0???_M@YAXPEAX_KHP6AX0@Z@Z@4HA 000000014003e83e f   LIBCMT:ehvecdtr.obj
 0001:0003d86a       ?filt$0@?0??__ArrayUnwind@@YAXPEAX_KHP6AX0@Z@Z@4HA 000000014003e86a f   LIBCMT:ehvecdtr.obj
 0001:0003d8ab       ?fin$0@?0???_L@YAXPEAX_KHP6AX0@Z2@Z@4HA 000000014003e8ab f   LIBCMT:ehvecctr.obj
 0001:0003d8d7       doexit$fin$0               000000014003e8d7 f   LIBCMT:crt0dat.obj
 0001:0003d8fb       _freefls$fin$1             000000014003e8fb f   LIBCMT:tidtable.obj
 0001:0003d8fb       _initptd$fin$1             000000014003e8fb f   LIBCMT:tidtable.obj
 0001:0003d914       _initptd$fin$0             000000014003e914 f   LIBCMT:tidtable.obj
 0001:0003d914       _freefls$fin$0             000000014003e914 f   LIBCMT:tidtable.obj
 0001:0003d92d       _ioinit$fin$0              000000014003e92d f   LIBCMT:ioinit.obj
 0001:0003d948       ?fin$0@?0??_Type_info_dtor@type_info@@CAXPEAV1@@Z@4HA 000000014003e948 f   LIBCMT:typname.obj
 0001:0003d961       _mtinitlocknum$fin$0       000000014003e961 f   LIBCMT:mlock.obj
 0001:0003d980       _IsNonwritableInCurrentImage$filt$0 000000014003e980 f   LIBCMT:pesect.obj
 0001:0003d9a0       raise$fin$0                000000014003e9a0 f   LIBCMT:winsig.obj
 0001:0003d9be       __updatetmbcinfo$fin$0     000000014003e9be f   LIBCMT:mbctype.obj
 0001:0003d9be       _setmbcp$fin$0             000000014003e9be f   LIBCMT:mbctype.obj
 0001:0003d9d7       __tzset$fin$0              000000014003e9d7 f   LIBCMT:tzset.obj
 0001:0003d9d7       _isindst$fin$0             000000014003e9d7 f   LIBCMT:tzset.obj
 0001:0003d9f0       _tzset_nolock$fin$0        000000014003e9f0 f   LIBCMT:tzset.obj
 0001:0003da0b       __updatetlocinfo$fin$0     000000014003ea0b f   LIBCMT:localref.obj
 0001:0003da0b       _locterm$fin$0             000000014003ea0b f   LIBCMT:localref.obj
 0001:0003da24       flsall$fin$0               000000014003ea24 f   LIBCMT:fflush.obj
 0001:0003da4c       flsall$fin$1               000000014003ea4c f   LIBCMT:fflush.obj
 0001:0003da65       _fcloseall$fin$0           000000014003ea65 f   LIBCMT:closeall.obj
 0001:0003da7e       _commit$fin$0              000000014003ea7e f   LIBCMT:commit.obj
 0001:0003da7e       _close$fin$0               000000014003ea7e f   LIBCMT:commit.obj
 0001:0003da95       _write$fin$0               000000014003ea95 f   LIBCMT:write.obj
 0001:0003daac       fclose$fin$0               000000014003eaac f   LIBCMT:fclose.obj
 0001:0003dac4       __lock_fhandle$fin$0       000000014003eac4 f   LIBCMT:osfinfo.obj
 0001:0003dadd       _CallSETranslator$filt$0   000000014003eadd f   LIBCMT:trnsctrl.obj
 0001:0003db23       __CxxCallCatchBlock$filt$0 000000014003eb23 f   LIBCMT:frame.obj
 0001:0003dc17       __CxxCallCatchBlock$fin$1  000000014003ec17 f   LIBCMT:frame.obj
 0001:0003dc95       __DestructExceptionObject$filt$0 000000014003ec95 f   LIBCMT:frame.obj
 0001:0003dcad       __FrameUnwindToState$filt$0 000000014003ecad f   LIBCMT:frame.obj
 0001:0003dcc3       __FrameUnwindToState$fin$1 000000014003ecc3 f   LIBCMT:frame.obj
 0001:0003dd00       ??__FtheApp@@YAXXZ         000000014003ed00 f   Propdlg.obj
 0001:0003dd10       ??__F_AtlWinModule@ATL@@YAXXZ 000000014003ed10 f   Propdlg.obj
 0001:0003dd70       ??__F?wndTop@CWMHnd@@2V1@B@@YAXXZ 000000014003ed70 f   Stdafx.obj
 0001:0003dd90       ??__F?wndBottom@CWMHnd@@2V1@B@@YAXXZ 000000014003ed90 f   Stdafx.obj
 0001:0003ddb0       ??__F?wndTopMost@CWMHnd@@2V1@B@@YAXXZ 000000014003edb0 f   Stdafx.obj
 0001:0003ddd0       ??__F?wndNoTopMost@CWMHnd@@2V1@B@@YAXXZ 000000014003edd0 f   Stdafx.obj
 0001:0003ddec       ??__F_AtlBaseModule@ATL@@YAXXZ 000000014003edec f   atls:atlbase.obj
 0002:00000b38       _AtlBaseModule$initializer$ 000000014003fb38     atls:atlbase.obj
 0002:00000b40       _AtlWinModule$initializer$ 000000014003fb40     Propdlg.obj
 0002:00000b48       theApp$initializer$        000000014003fb48     Propdlg.obj
 0002:00000b50       _init_CShape$initializer$  000000014003fb50     Shapeobj.obj
 0002:00000b58       ?wndTop$initializer$@CWMHnd@@2P6AXXZEA 000000014003fb58     Stdafx.obj
 0002:00000b60       ?wndBottom$initializer$@CWMHnd@@2P6AXXZEA 000000014003fb60     Stdafx.obj
 0002:00000b68       ?wndTopMost$initializer$@CWMHnd@@2P6AXXZEA 000000014003fb68     Stdafx.obj
 0002:00000b70       ?wndNoTopMost$initializer$@CWMHnd@@2P6AXXZEA 000000014003fb70     Stdafx.obj
 0002:00000b88       pinit                      000000014003fb88     LIBCMT:onexit.obj
 0002:00000b90       pinit                      000000014003fb90     LIBCMT:cpu_disp.obj
 0002:00000b98       pinit                      000000014003fb98     LIBCMT:mbctype.obj
 0002:00000ba0       pinit                      000000014003fba0     LIBCMT:_file.obj
 0002:00000ba8       pinit                      000000014003fba8     LIBCMT:wwincrt0.obj
 0002:00000bc0       pterm                      000000014003fbc0     LIBCMT:wsetloca.obj
 0002:00000bc8       pterm                      000000014003fbc8     LIBCMT:initcon.obj
 0002:00000bd0       pterm                      000000014003fbd0     LIBCMT:_file.obj
 0002:00000e20       rterrs                     000000014003fe20     LIBCMT:crt0msg.obj
 0002:00001cf0       ?ExceptionTemplate@?1??_CxxThrowException@@9@4UEHExceptionRecord@@B 0000000140040cf0     LIBCMT:throw.obj
 0002:00001d30       _mb_locale_names           0000000140040d30     LIBCMT:mbctype.obj
 0002:00002220       tokenTable                 0000000140041220     LIBCMT:undname.obj
 0002:00002290       nameTable                  0000000140041290     LIBCMT:undname.obj
 0002:00002510       rttiTable                  0000000140041510     LIBCMT:undname.obj
 0002:00005e70       GS_ExceptionPointers       0000000140044e70     LIBCMT:gs_report.obj
 0002:00006690       _first_127char             0000000140045690     LIBCMT:wsetloca.obj
 0002:00009bc0       $cppxdata$??0CPropertyPageMTL@@QEAA@IIK@Z 0000000140048bc0     Colorpge.obj
 0002:00009be8       $cppxdata$?AllocBuffer@CString@WTL@@IEAAHH@Z 0000000140048be8     Colorpge.obj
 0002:00009c10       $cppxdata$??1CModuleState@@QEAA@XZ 0000000140048c10     Colorpge.obj
 0002:00009c38       $cppxdata$?_ProcessWindowMessage@CWnd@@UEAAHPEAUHWND__@@I_K_JAEA_J@Z 0000000140048c38     Colorpge.obj
 0002:00009c60       $cppxdata$??1CWnd@@UEAA@XZ 0000000140048c60     Colorpge.obj
 0002:00009c60       $cppxdata$??1CShapePreviewWnd@@UEAA@XZ 0000000140048c60     Preview.obj
 0002:00009c60       $cppxdata$??1CNewTypeDlg@@UEAA@XZ 0000000140048c60     Propdlg.obj
 0002:00009c60       $cppxdata$??1CDialog@@UEAA@XZ 0000000140048c60     Colorpge.obj
 0002:00009c60       $cppxdata$??1CCommonDialog@@UEAA@XZ 0000000140048c60     Propdlg.obj
 0002:00009c60       $cppxdata$??1CAboutDlg@@UEAA@XZ 0000000140048c60     Propdlg.obj
 0002:00009c60       $cppxdata$??1CPrintingDialog@@UEAA@XZ 0000000140048c60     Shapesvw.obj
 0002:00009c88       $cppxdata$??_G_AFX_MOUSEANCHORWND@@UEAAPEAXI@Z 0000000140048c88     Stdafx.obj
 0002:00009c88       $cppxdata$??_GCPrintingDialog@@UEAAPEAXI@Z 0000000140048c88     Shapesvw.obj
 0002:00009c88       $cppxdata$??_GCWnd@@UEAAPEAXI@Z 0000000140048c88     Colorpge.obj
 0002:00009c88       $cppxdata$??_GCDialog@@UEAAPEAXI@Z 0000000140048c88     Colorpge.obj
 0002:00009c88       $cppxdata$??_GCShapePreviewWnd@@UEAAPEAXI@Z 0000000140048c88     Preview.obj
 0002:00009c88       $cppxdata$??_GCAboutDlg@@UEAAPEAXI@Z 0000000140048c88     Propdlg.obj
 0002:00009c88       $cppxdata$??_GCNewTypeDlg@@UEAAPEAXI@Z 0000000140048c88     Propdlg.obj
 0002:00009cb0       $cppxdata$?_ProcessWindowMessage@CPropertyPageMTL@@UEAAHPEAUHWND__@@I_K_JAEA_J@Z 0000000140048cb0     Colorpge.obj
 0002:00009cd8       $cppxdata$??1CPropertyPageMTL@@UEAA@XZ 0000000140048cd8     Colorpge.obj
 0002:00009d30       $cppxdata$?_ProcessWindowMessage@CFrameWnd@@UEAAHPEAUHWND__@@I_K_JAEA_J@Z 0000000140048d30     Mainfrm.obj
 0002:00009d58       $cppxdata$?OnToolTipText@CFrameWnd@@QEAAHIPEAUtagNMHDR@@PEA_J@Z 0000000140048d58     Mainfrm.obj
 0002:00009d80       $cppxdata$?UpdateFrameTitleForDocument@CFrameWnd@@QEAAXPEB_W@Z 0000000140048d80     Mainfrm.obj
 0002:00009da8       $cppxdata$?OnSetMessageString@CFrameWnd@@QEAA_J_K_J@Z 0000000140048da8     Mainfrm.obj
 0002:00009dd0       $cppxdata$?AfxMessageBox@@YAHIII@Z 0000000140048dd0     Mainfrm.obj
 0002:00009df8       $cppxdata$?DestroyDockBars@CFrameWnd@@QEAAXXZ 0000000140048df8     Mainfrm.obj
 0002:00009e20       $cppxdata$?OnWindowNew@CMDIFrameWnd@@QEAAXXZ 0000000140048e20     Mainfrm.obj
 0002:00009e48       $cppxdata$?LoadFrame@CFrameWnd@@UEAAHIKPEAVCWnd@@PEAUCCreateContext@@@Z 0000000140048e48     Mainfrm.obj
 0002:00009e70       $cppxdata$??1CFrameWnd@@UEAA@XZ 0000000140048e70     Mainfrm.obj
 0002:00009e98       $cppxdata$??0CFrameWnd@@QEAA@XZ 0000000140048e98     Mainfrm.obj
 0002:00009ec0       $cppxdata$?UpdateDialogControls@CWnd@@QEAAXPEAVCCmdTarget@@H@Z 0000000140048ec0     Mainfrm.obj
 0002:00009ee8       $cppxdata$?UpdateAllPanes@CStatusBar@@QEAAXHH@Z 0000000140048ee8     Mainfrm.obj
 0002:00009f10       $cppxdata$??_GCToolTipCtrlMTL@@UEAAPEAXI@Z 0000000140048f10     Mainfrm.obj
 0002:00009f38       $cppxdata$?Create@CMiniDockFrameWnd@@QEAAHPEAVCWnd@@K@Z 0000000140048f38     Mainfrm.obj
 0002:00009f60       $cppxdata$??0CControlBar@@QEAA@XZ 0000000140048f60     Mainfrm.obj
 0002:00009f88       $cppxdata$??1CControlBar@@UEAA@XZ 0000000140048f88     Mainfrm.obj
 0002:00009f88       $cppxdata$??1CStatusBar@@UEAA@XZ 0000000140048f88     Mainfrm.obj
 0002:00009fb0       $cppxdata$??_GCStatusBar@@UEAAPEAXI@Z 0000000140048fb0     Mainfrm.obj
 0002:00009fb0       $cppxdata$??_GCToolBar@@UEAAPEAXI@Z 0000000140048fb0     Mainfrm.obj
 0002:00009fb0       $cppxdata$??_GCControlBar@@UEAAPEAXI@Z 0000000140048fb0     Mainfrm.obj
 0002:00009fd8       $cppxdata$?SetIndicators@CStatusBar@@QEAAHPEBIH@Z 0000000140048fd8     Mainfrm.obj
 0002:0000a000       $cppxdata$?OnMiniFramePropertySheet@CMainFrame@@QEAAXXZ 0000000140049000     Mainfrm.obj
 0002:0000a028       $cppxdata$??1CMainFrame@@UEAA@XZ 0000000140049028     Mainfrm.obj
 0002:0000a050       $cppxdata$??0CMainFrame@@QEAA@XZ 0000000140049050     Mainfrm.obj
 0002:0000a078       $cppxdata$??1CMiniFrameWnd@@UEAA@XZ 0000000140049078     Minifrm.obj
 0002:0000a0a0       $cppxdata$?OnCreate@CShapePropSheetFrame@@IEAAHPEAUtagCREATESTRUCTW@@@Z 00000001400490a0     Minifrm.obj
 0002:0000a0c8       $cppxdata$?OnPaint@CShapePreviewWnd@@AEAAXXZ 00000001400490c8     Preview.obj
 0002:0000a0f0       $cppxdata$?_ProcessWindowMessage@CShapePreviewWnd@@UEAAHPEAUHWND__@@I_K_JAEA_J@Z 00000001400490f0     Preview.obj
 0002:0000a118       $cppxdata$?OnFileNew@CDocManager@@UEAAXXZ 0000000140049118     Propdlg.obj
 0002:0000a140       $cppxdata$?OnInitDialog@CNewTypeDlg@@UEAAHXZ 0000000140049140     Propdlg.obj
 0002:0000a168       $cppxdata$?OnFileOpen@CDocManager@@UEAAXXZ 0000000140049168     Propdlg.obj
 0002:0000a190       $cppxdata$?MatchDocType@CDocTemplate@@UEAA?AW4Confidence@1@PEB_WAEAPEAVCDocument@@@Z 0000000140049190     Propdlg.obj
 0002:0000a1b8       $cppxdata$?AfxResolveShortcut@@YAHPEAVCWMHnd@@PEB_WPEA_WH@Z 00000001400491b8     Propdlg.obj
 0002:0000a1e0       $cppxdata$?GetClassObject@AFX_COM@@QEAAJAEBU_GUID@@0PEAPEAX@Z 00000001400491e0     Propdlg.obj
 0002:0000a208       $cppxdata$?_AfxFullPath2@CAfx@@SAHPEA_WPEB_WPEAVCFileException@@@Z 0000000140049208     Propdlg.obj
 0002:0000a230       $cppxdata$?DoPromptFileName@CDocManager@@QEAAHAEAVCString@WTL@@IKHPEAVCDocTemplate@@@Z 0000000140049230     Propdlg.obj
 0002:0000a258       $cppxdata$?UpdateOFNFromShellDialog@CFileDialogMTL@@UEAAXXZ 0000000140049258     Propdlg.obj
 0002:0000a280       $cppxdata$?GetPathName@CFileDialogMTL@@QEAA?AVCString@WTL@@XZ 0000000140049280     Propdlg.obj
 0002:0000a2a8       $cppxdata$?ApplyOFNToShellDialog@CFileDialogMTL@@QEAAXXZ 00000001400492a8     Propdlg.obj
 0002:0000a2d0       $cppxdata$?_AfxAppendFilterSuffix@@YAXAEAVCString@WTL@@AEAUtagOFNW@@PEAVCDocTemplate@@PEAV12@@Z 00000001400492d0     Propdlg.obj
 0002:0000a2f8       $cppxdata$?Mid@CString@WTL@@QEBA?AV12@HH@Z 00000001400492f8     Propdlg.obj
 0002:0000a320       $cppxdata$??1CFileDialogMTL@@UEAA@XZ 0000000140049320     Propdlg.obj
 0002:0000a348       $cppxdata$??0CFileDialogMTL@@QEAA@HPEB_W0K0PEAVCWnd@@KH@Z 0000000140049348     Propdlg.obj
 0002:0000a370       $cppxdata$?OnFilePrintSetup@CWinApp@@QEAAXXZ 0000000140049370     Propdlg.obj
 0002:0000a398       $cppxdata$?UpdatePrinterSelection@CWinApp@@QEAAXH@Z 0000000140049398     Propdlg.obj
 0002:0000a3c0       $cppxdata$?UpdateMenu@CRecentFileList@@UEAAXPEAVCCmdUI@@@Z 00000001400493c0     Propdlg.obj
 0002:0000a3e8       $cppxdata$??HWTL@@YA?AVCString@0@AEBV10@0@Z 00000001400493e8     Propdlg.obj
 0002:0000a410       $cppxdata$??0CWinApp@@QEAA@XZ 0000000140049410     Propdlg.obj
 0002:0000a438       $cppxdata$??0CModuleThreadState@@QEAA@XZ 0000000140049438     Propdlg.obj
 0002:0000a460       $cppxdata$??1CWinApp@@QEAA@XZ 0000000140049460     Propdlg.obj
 0002:0000a488       $cppxdata$??1CCommandLineInfo@@QEAA@XZ 0000000140049488     Propdlg.obj
 0002:0000a4b0       $cppxdata$??1CRecentFileList@@UEAA@XZ 00000001400494b0     Propdlg.obj
 0002:0000a4d8       $cppxdata$?ReadList@CRecentFileList@@UEAAXXZ 00000001400494d8     Propdlg.obj
 0002:0000a500       $cppxdata$??0CRecentFileList@@QEAA@IPEB_W0HH@Z 0000000140049500     Propdlg.obj
 0002:0000a528       $cppxdata$?SetDefaultTitle@CMultiDocTemplate@@UEAAXPEAVCDocument@@@Z 0000000140049528     Propdlg.obj
 0002:0000a550       $cppxdata$?OpenDocumentFile@CMultiDocTemplate@@UEAAPEAVCDocument@@PEB_WHH@Z 0000000140049550     Propdlg.obj
 0002:0000a578       $cppxdata$??0CDocTemplate@@QEAA@IPEAUCRuntimeClass@@00@Z 0000000140049578     Propdlg.obj
 0002:0000a5a0       $cppxdata$?EnableShellOpen@CWinApp@@QEAAXXZ 00000001400495a0     Propdlg.obj
 0002:0000a5c8       $cppxdata$?Unregister@CWinApp@@QEAAHXZ 00000001400495c8     Propdlg.obj
 0002:0000a5f0       $cppxdata$?AfxDelRegTreeHelper@CAfx@@SAJPEAUHKEY__@@AEBVCString@WTL@@PEAVCAtlTransactionManager@ATL@@@Z 00000001400495f0     Propdlg.obj
 0002:0000a618       $cppxdata$??HWTL@@YA?AVCString@0@AEBV10@PEB_W@Z 0000000140049618     Propdlg.obj
 0002:0000a640       $cppxdata$?OnAppAbout@CPropDlgApp@@QEAAXXZ 0000000140049640     Propdlg.obj
 0002:0000a668       $cppxdata$?InitInstance@CPropDlgApp@@UEAAHXZ 0000000140049668     Propdlg.obj
 0002:0000a690       $cppxdata$?_ProcessWindowMessage@CPropertySheetMTL@@UEAAHPEAUHWND__@@I_K_JAEA_J@Z 0000000140049690     Propsht.obj
 0002:0000a6b8       $cppxdata$??0CPropertySheetMTL@@QEAA@IPEAVCWnd@@I@Z 00000001400496b8     Propsht.obj
 0002:0000a6e0       $cppxdata$?_AfxChangePropPageFont@CPropertyPageMTL@@SAPEAUDLGTEMPLATE@@PEBU2@H@Z 00000001400496e0     Propsht.obj
 0002:0000a708       $cppxdata$??1CPropertySheetMTL@@UEAA@XZ 0000000140049708     Propsht.obj
 0002:0000a730       $cppxdata$??1CModalShapePropSheet@@UEAA@XZ 0000000140049730     Propsht.obj
 0002:0000a758       $cppxdata$??0CModalShapePropSheet@@QEAA@PEAVCWnd@@@Z 0000000140049758     Propsht.obj
 0002:0000a780       $cppxdata$??_GCModelessShapePropSheet@@UEAAPEAXI@Z 0000000140049780     Propsht2.obj
 0002:0000a7a8       $cppxdata$??0CModelessShapePropSheet@@QEAA@PEAVCWnd@@@Z 00000001400497a8     Propsht2.obj
 0002:0000a7d0       $cppxdata$?DoSave@CDocument@@UEAAHPEB_WH@Z 00000001400497d0     Shapedoc.obj
 0002:0000a7f8       $cppxdata$?OnSaveDocument@CDocument@@UEAAHPEB_W@Z 00000001400497f8     Shapedoc.obj
 0002:0000a820       $cppxdata$??_GCFile@@QEAAPEAXI@Z 0000000140049820     Shapedoc.obj
 0002:0000a848       $cppxdata$?Close@CFile@@UEAAXXZ 0000000140049848     Shapedoc.obj
 0002:0000a870       $cppxdata$?ThrowOsError@CFileException@@SAXJPEB_W@Z 0000000140049870     Shapedoc.obj
 0002:0000a898       $cppxdata$??0CFileException@@QEAA@HJPEB_W@Z 0000000140049898     Shapedoc.obj
 0002:0000a8c0       $cppxdata$?Write@CFile@@UEAAXPEBXI@Z 00000001400498c0     Shapedoc.obj
 0002:0000a8e8       $cppxdata$??0CArchive@@QEAA@PEAVCFile@@IHPEAX@Z 00000001400498e8     Shapedoc.obj
 0002:0000a910       $cppxdata$??1CDocument@@UEAA@XZ 0000000140049910     Shapedoc.obj
 0002:0000a938       $cppxdata$?SaveModified@CDocument@@UEAAHXZ 0000000140049938     Shapedoc.obj
 0002:0000a960       $cppxdata$?AfxThrowArchiveException@CArchive@@SAXHPEB_W@Z 0000000140049960     Shapedoc.obj
 0002:0000a988       $cppxdata$?EnsureSchemaMapExists@CArchive@@QEAAXPEAPEAV?$CArray@W4LoadArrayObjType@CArchive@@AEBW412@@@@Z 0000000140049988     Shapedoc.obj
 0002:0000a9b0       $cppxdata$?ReadObject@CArchive@@QEAAPEAVCObject@@PEBUCRuntimeClass@@@Z 00000001400499b0     Shapedoc.obj
 0002:0000a9d8       $cppxdata$?OnOpenDocument@CDocument@@UEAAHPEB_W@Z 00000001400499d8     Shapedoc.obj
 0002:0000aa00       $cppxdata$?Draw@CShape@@QEAAXPEAVCDCMTL@@H@Z 0000000140049a00     Shapeobj.obj
 0002:0000aa28       $cppxdata$?OnFilePrint@CView@@QEAAXXZ 0000000140049a28     Shapesvw.obj
 0002:0000aa50       $cppxdata$??1CPrintInfo@@QEAA@XZ 0000000140049a50     Shapesvw.obj
 0002:0000aa78       $cppxdata$??0CPrintInfo@@QEAA@XZ 0000000140049a78     Shapesvw.obj
 0002:0000aaa0       $cppxdata$?OnFilePrintPreview@CView@@QEAAXXZ 0000000140049aa0     Shapesvw.obj
 0002:0000aac8       $cppxdata$?DoPrintPreview@CView@@QEAAHIPEAV1@PEAUCRuntimeClass@@PEAUCPrintPreviewState@@@Z 0000000140049ac8     Shapesvw.obj
 0002:0000aaf0       $cppxdata$?SetPrintView@CPreviewView@@QEAAHPEAVCView@@@Z 0000000140049af0     Shapesvw.obj
 0002:0000ab18       $cppxdata$??0CPreviewDC@@QEAA@XZ 0000000140049b18     Shapesvw.obj
 0002:0000ab40       $cppxdata$?ExtTextOutW@CPreviewDC@@QEAAHHHIPEBUtagRECT@@PEB_WIPEAH@Z 0000000140049b40     Shapesvw.obj
 0002:0000ab68       $cppxdata$??1CView@@UEAA@XZ 0000000140049b68     Shapesvw.obj
 0002:0000ab90       $cppxdata$?_ProcessWindowMessage@CView@@UEAAHPEAUHWND__@@I_K_JAEA_J@Z 0000000140049b90     Shapesvw.obj
 0002:0000abb8       $cppxdata$?OnPaint@CView@@QEAAXXZ 0000000140049bb8     Shapesvw.obj
 0002:0000abe0       $cppxdata$??1CDialogBar@@UEAA@XZ 0000000140049be0     Shapesvw.obj
 0002:0000ac08       $cppxdata$?OnPropertySheetWithPreview@CShapesView@@IEAAXXZ 0000000140049c08     Shapesvw.obj
 0002:0000ac30       $cppxdata$?OnSimplePropertySheet@CShapesView@@IEAAXXZ 0000000140049c30     Shapesvw.obj
 0002:0000ac58       $cppxdata$?OnLButtonDown@CShapesView@@IEAAXIVCPoint@WTL@@@Z 0000000140049c58     Shapesvw.obj
 0002:0000ac80       $cppxdata$??_GCView@@UEAAPEAXI@Z 0000000140049c80     Shapesvw.obj
 0002:0000ac80       $cppxdata$??_GCShapesView@@UEAAPEAXI@Z 0000000140049c80     Shapesvw.obj
 0002:0000aca8       $cppxdata$?CreateObject@CPreviewView@@SAPEAVCObject@@XZ 0000000140049ca8     Stdafx.obj
 0002:0000acd0       $cppxdata$?CreateObject@CMDIChildWnd@@SAPEAVCObject@@XZ 0000000140049cd0     Stdafx.obj
 0002:0000acf8       $cppxdata$?CreateObject@CMDIFrameWnd@@SAPEAVCObject@@XZ 0000000140049cf8     Stdafx.obj
 0002:0000ad20       $cppxdata$?CreateObject@CMiniFrameWnd@@SAPEAVCObject@@XZ 0000000140049d20     Stdafx.obj
 0002:0000ad48       $cppxdata$?CreateObject@CFrameWnd@@SAPEAVCObject@@XZ 0000000140049d48     Stdafx.obj
 0002:0000ad70       $cppxdata$?OnDisplayPageNumber@CPreviewView@@UEAAXII@Z 0000000140049d70     Stdafx.obj
 0002:0000ad98       $cppxdata$?LoadFrame@CMDIChildWnd@@UEAAHIKPEAVCWnd@@PEAUCCreateContext@@@Z 0000000140049d98     Stdafx.obj
 0002:0000adc0       $cppxdata$?_ProcessWindowMessage@CPreviewView@@UEAAHPEAUHWND__@@I_K_JAEA_J@Z 0000000140049dc0     Stdafx.obj
 0002:0000ade8       $cppxdata$?OnUpdateNumPageChange@CPreviewView@@QEAAXPEAVCCmdUI@@@Z 0000000140049de8     Stdafx.obj
 0002:0000ae10       $cppxdata$?OnEraseBkgnd@CPreviewView@@QEAAHPEAVCDCMTL@@@Z 0000000140049e10     Stdafx.obj
 0002:0000ae38       $cppxdata$?OnDraw@CPreviewView@@UEAAXPEAVCDCMTL@@@Z 0000000140049e38     Stdafx.obj
 0002:0000ae60       $cppxdata$??1CPreviewView@@UEAA@XZ 0000000140049e60     Stdafx.obj
 0002:0000ae88       $cppxdata$?Create@_AFX_MOUSEANCHORWND@@QEAAHPEAVCScrollView@@@Z 0000000140049e88     Stdafx.obj
 0002:0000aeb0       $cppxdata$?_ProcessWindowMessage@CScrollView@@UEAAHPEAUHWND__@@I_K_JAEA_J@Z 0000000140049eb0     Stdafx.obj
 0002:0000aed8       $cppxdata$?OnPrintClient@CScrollView@@QEAA_JPEAVCDCMTL@@I@Z 0000000140049ed8     Stdafx.obj
 0002:0000af00       $cppxdata$??1CScrollView@@UEAA@XZ 0000000140049f00     Stdafx.obj
 0002:0000af28       $cppxdata$??0CScrollView@@QEAA@XZ 0000000140049f28     Stdafx.obj
 0002:0000af50       ?ExceptionTemplate@?1??_UnwindNestedFrames@@9@4U_EXCEPTION_RECORD@@B 0000000140049f50     LIBCMT:trnsctrl.obj
 0002:0000b2a0       $unwind$?SetShapePropsFromSheet@CModalShapePropSheet@@QEAAXPEAVCShape@@@Z 000000014004a2a0     Propsht.obj
 0002:0000b2a0       $unwind$_lock              000000014004a2a0     LIBCMT:mlock.obj
 0002:0000b2a0       $unwind$??_GCMainFrame@@UEAAPEAXI@Z 000000014004a2a0     Mainfrm.obj
 0002:0000b2a0       $unwind$??_GCPrintDialogMTL@@UEAAPEAXI@Z 000000014004a2a0     Propdlg.obj
 0002:0000b2a0       $unwind$??_Gbad_alloc@std@@UEAAPEAXI@Z 000000014004a2a0     LIBCMT:new.obj
 0002:0000b2a0       $unwind$??_GCWindowDCMTL@@UEAAPEAXI@Z 000000014004a2a0     Mainfrm.obj
 0002:0000b2a0       $unwind$?GetFont@CDialogTemplate@@SAHPEBUDLGTEMPLATE@@AEAVCString@WTL@@AEAG@Z 000000014004a2a0     Propsht.obj
 0002:0000b2a0       $unwind$??_GCPrintDialog@WTL@@UEAAPEAXI@Z 000000014004a2a0     Propdlg.obj
 0002:0000b2a0       $unwind$?OnSetMinHeight@CStatusBar@@QEAA_J_K_J@Z 000000014004a2a0     Mainfrm.obj
 0002:0000b2a0       $unwind$__initstdio        000000014004a2a0     LIBCMT:_file.obj
 0002:0000b2a0       $unwind$_close_nolock      000000014004a2a0     LIBCMT:close.obj
 0002:0000b2a0       $unwind$??_GCModalShapePropSheet@@UEAAPEAXI@Z 000000014004a2a0     Propsht.obj
 0002:0000b2a0       $unwind$??4CString@WTL@@QEAAAEAV01@AEBV01@@Z 000000014004a2a0     Propdlg.obj
 0002:0000b2a0       $unwind$??_GCShapesDoc@@UEAAPEAXI@Z 000000014004a2a0     Shapedoc.obj
 0002:0000b2a0       $unwind$??_GCMiniFrameWnd@@UEAAPEAXI@Z 000000014004a2a0     Minifrm.obj
 0002:0000b2a0       $unwind$?SetShapePropsFromSheet@CModelessShapePropSheet@@QEAAXPEAVCShape@@@Z 000000014004a2a0     Propsht2.obj
 0002:0000b2a0       $unwind$??1CShapesDoc@@UEAA@XZ 000000014004a2a0     Shapedoc.obj
 0002:0000b2a0       $unwind$?AtlWinModuleExtractCreateWndData@ATL@@YAPEAXPEAU_ATL_WIN_MODULE70@1@@Z 000000014004a2a0     Propdlg.obj
 0002:0000b2a0       $unwind$??_GCShapePropSheetFrame@@UEAAPEAXI@Z 000000014004a2a0     Minifrm.obj
 0002:0000b2a0       $unwind$??_GCPenMTL@@UEAAPEAXI@Z 000000014004a2a0     Shapeobj.obj
 0002:0000b2a0       $unwind$?OnDestroy@CView@@QEAAXXZ 000000014004a2a0     Shapesvw.obj
 0002:0000b2a0       $unwind$_RTC_Terminate     000000014004a2a0     LIBCMT:initsect.obj
 0002:0000b2a0       $unwind$?AfxUnsubclassWindow@CWnd@@QEAAPEAUHWND__@@XZ 000000014004a2a0     Colorpge.obj
 0002:0000b2a0       $unwind$_calloc_impl       000000014004a2a0     LIBCMT:calloc_impl.obj
 0002:0000b2a0       $unwind$_dosmaperr         000000014004a2a0     LIBCMT:dosmap.obj
 0002:0000b2a0       $unwind$??_GCFileDialogMTL@@UEAAPEAXI@Z 000000014004a2a0     Propdlg.obj
 0002:0000b2a0       $unwind$_fptostr           000000014004a2a0     LIBCMT:_fptostr.obj
 0002:0000b2a0       $unwind$?PreCreateWindow@CWnd@@UEAAHAEAUtagCREATESTRUCTW@@@Z 000000014004a2a0     Colorpge.obj
 0002:0000b2a0       $unwind$?RemoveView@CDocument@@QEAAXPEAVCView@@@Z 000000014004a2a0     Shapesvw.obj
 0002:0000b2a0       $unwind$??_Gbad_exception@std@@UEAAPEAXI@Z 000000014004a2a0     LIBCMT:frame.obj
 0002:0000b2a0       $unwind$??_Gexception@std@@UEAAPEAXI@Z 000000014004a2a0     LIBCMT:stdexcpt.obj
 0002:0000b2a0       $unwind$??4exception@std@@QEAAAEAV01@AEBV01@@Z 000000014004a2a0     LIBCMT:stdexcpt.obj
 0002:0000b2a0       $unwind$??_GCPropertySheetMTL@@UEAAPEAXI@Z 000000014004a2a0     Propsht.obj
 0002:0000b2a0       $unwind$??_Gtype_info@@UEAAPEAXI@Z 000000014004a2a0     LIBCMT:typinfo.obj
 0002:0000b2a0       $unwind$?RestoreDC@CDCMTL@@UEAAHH@Z 000000014004a2a0     Colorpge.obj
 0002:0000b2a0       $unwind$?SaveDC@CDCMTL@@UEAAHXZ 000000014004a2a0     Colorpge.obj
 0002:0000b2a0       $unwind$??_GCGdiObject@@UEAAPEAXI@Z 000000014004a2a0     Shapeobj.obj
 0002:0000b2a0       $unwind$??_GCDCMTL@@UEAAPEAXI@Z 000000014004a2a0     Colorpge.obj
 0002:0000b2a0       $unwind$??_GCPaintDCMTL@@UEAAPEAXI@Z 000000014004a2a0     Preview.obj
 0002:0000b2a0       $unwind$?SetRadio@CCmdUI@@UEAAXH@Z 000000014004a2a0     Colorpge.obj
 0002:0000b2a0       $unwind$??_GCPreviewView@@UEAAPEAXI@Z 000000014004a2a0     Stdafx.obj
 0002:0000b2a0       $unwind$??_GCPreviewDC@@UEAAPEAXI@Z 000000014004a2a0     Shapesvw.obj
 0002:0000b2a0       $unwind$?__SetUnwindTryBlock@@YAXPEA_KPEAU_xDISPATCHER_CONTEXT@@PEBU_s_FuncInfo@@H@Z 000000014004a2a0     LIBCMT:ehstate.obj
 0002:0000b2a0       $unwind$?OnSize@CFrameWnd@@QEAAXIHH@Z 000000014004a2a0     Mainfrm.obj
 0002:0000b2a0       $unwind$??_GCBrushMTL@@UEAAPEAXI@Z 000000014004a2a0     Preview.obj
 0002:0000b2a0       $unwind$_initp_misc_cfltcvt_tab 000000014004a2a0     LIBCMT:cmiscdat.obj
 0002:0000b2a0       $unwind$?SaveDC@CPreviewDC@@UEAAHXZ 000000014004a2a0     Shapesvw.obj
 0002:0000b2a0       $unwind$?SetCheck@CCmdUI@@UEAAXH@Z 000000014004a2a0     Colorpge.obj
 0002:0000b2a0       $unwind$_FindAndUnlinkFrame 000000014004a2a0     LIBCMT:trnsctrl.obj
 0002:0000b2a0       $unwind$??_GCScrollView@@UEAAPEAXI@Z 000000014004a2a0     Stdafx.obj
 0002:0000b2a0       $unwind$??6CArchive@@QEAAAEAV0@K@Z 000000014004a2a0     Shapedoc.obj
 0002:0000b2a0       $unwind$_fclose_nolock     000000014004a2a0     LIBCMT:fclose.obj
 0002:0000b2a0       $unwind$??6CArchive@@QEAAAEAV0@G@Z 000000014004a2a0     Shapedoc.obj
 0002:0000b2a0       $unwind$?OnUpdateFrameTitle@CFrameWnd@@UEAAXH@Z 000000014004a2a0     Mainfrm.obj
 0002:0000b2a0       $unwind$_updatetlocinfoEx_nolock 000000014004a2a0     LIBCMT:localref.obj
 0002:0000b2a0       $unwind$??_GCDialogBar@@UEAAPEAXI@Z 000000014004a2a0     Shapesvw.obj
 0002:0000b2a0       $unwind$?__InitializeThunkPool@@YAHXZ 000000014004a2a0     atls:atlthunk.obj
 0002:0000b2a0       $unwind$?PreTranslateMessage@CWnd@@UEAAHPEAUtagMSG@@@Z 000000014004a2a0     Colorpge.obj
 0002:0000b2a0       $unwind$??_GCStylePage@@UEAAPEAXI@Z 000000014004a2a0     Stylepge.obj
 0002:0000b2a0       $unwind$??_GCMenuMTL@@UEAAPEAXI@Z 000000014004a2a0     Colorpge.obj
 0002:0000b2a0       $unwind$??_GCBitmapMTL@@UEAAPEAXI@Z 000000014004a2a0     Stdafx.obj
 0002:0000b2a0       $unwind$??_GCRgnMTL@@UEAAPEAXI@Z 000000014004a2a0     Stdafx.obj
 0002:0000b2a0       $unwind$?RestoreDC@CPreviewDC@@UEAAHH@Z 000000014004a2a0     Shapesvw.obj
 0002:0000b2a0       $unwind$??_GCImage@@UEAAPEAXI@Z 000000014004a2a0     Stdafx.obj
 0002:0000b2a0       $unwind$?OnPreviewPrint@CPreviewView@@QEAAXXZ 000000014004a2a0     Stdafx.obj
 0002:0000b2a0       $unwind$?CopyBeforeWrite@CString@WTL@@IEAAXXZ 000000014004a2a0     Colorpge.obj
 0002:0000b2a0       $unwind$?__AllocStdCallThunk@ATL@@YAPEAXXZ 000000014004a2a0     atls:atlthunk.obj
 0002:0000b2a0       $unwind$??_GCMultiDocTemplate@@UEAAPEAXI@Z 000000014004a2a0     Propdlg.obj
 0002:0000b2a0       $unwind$_RTC_Initialize    000000014004a2a0     LIBCMT:initsect.obj
 0002:0000b2a0       $unwind$?PumpMessage@CWinApp@@UEAAHXZ 000000014004a2a0     Propdlg.obj
 0002:0000b2a0       $unwind$?PreCreateWindow@CControlBar@@UEAAHAEAUtagCREATESTRUCTW@@@Z 000000014004a2a0     Mainfrm.obj
 0002:0000b2a0       $unwind$_initterm_e        000000014004a2a0     LIBCMT:crt0dat.obj
 0002:0000b2a0       $unwind$?CommonConstruct@CPropertyPageMTL@@QEAAXPEB_WI@Z 000000014004a2a0     Colorpge.obj
 0002:0000b2a0       $unwind$??_GCRecentFileList@@UEAAPEAXI@Z 000000014004a2a0     Propdlg.obj
 0002:0000b2a0       $unwind$?OnOpenRecentFile@CWinApp@@QEAAHI@Z 000000014004a2a0     Propdlg.obj
 0002:0000b2a0       $unwind$??0CAtlBaseModule@ATL@@QEAA@XZ 000000014004a2a0     atls:atlbase.obj
 0002:0000b2a0       $unwind$?PreTranslateMessage@CPropertyPageMTL@@UEAAHPEAUtagMSG@@@Z 000000014004a2a0     Colorpge.obj
 0002:0000b2a0       $unwind$??__E_init_CShape@@YAXXZ 000000014004a2a0     Shapeobj.obj
 0002:0000b2a0       $unwind$_getptd_noexit     000000014004a2a0     LIBCMT:tidtable.obj
 0002:0000b2a0       $unwind$??_GCClientDCMTL@@UEAAPEAXI@Z 000000014004a2a0     Mainfrm.obj
 0002:0000b2a0       $unwind$??_GCPropertyPageMTL@@UEAAPEAXI@Z 000000014004a2a0     Colorpge.obj
 0002:0000b2a0       $unwind$??_GCMDIChildWnd@@UEAAPEAXI@Z 000000014004a2a0     Stdafx.obj
 0002:0000b2a0       $unwind$?OnInitDialog@CPrintingDialog@@UEAAHXZ 000000014004a2a0     Shapesvw.obj
 0002:0000b2a0       $unwind$?RemoveFrameWnd@CFrameWnd@@QEAAXXZ 000000014004a2a0     Mainfrm.obj
 0002:0000b2a0       $unwind$??_GCMDIFrameWnd@@UEAAPEAXI@Z 000000014004a2a0     Mainfrm.obj
 0002:0000b2a0       $unwind$??_GCFrameWnd@@UEAAPEAXI@Z 000000014004a2a0     Mainfrm.obj
 0002:0000b2a0       $unwind$?PreTranslateMessage@CFrameWnd@@UEAAHPEAUtagMSG@@@Z 000000014004a2a0     Mainfrm.obj
 0002:0000b2a0       $unwind$??_GCColorPage@@UEAAPEAXI@Z 000000014004a2a0     Colorpge.obj
 0002:0000b2ac       $unwind$?OnColorClicked@CColorPage@@IEAAXI@Z 000000014004a2ac     Colorpge.obj
 0002:0000b2ac       $unwind$?OnStyleClicked@CStylePage@@IEAAXI@Z 000000014004a2ac     Stylepge.obj
 0002:0000b2b8       $chain$1$?OnStyleClicked@CStylePage@@IEAAXI@Z 000000014004a2b8     Stylepge.obj
 0002:0000b2b8       $chain$1$?OnColorClicked@CColorPage@@IEAAXI@Z 000000014004a2b8     Colorpge.obj
 0002:0000b2d0       $chain$2$?OnStyleClicked@CStylePage@@IEAAXI@Z 000000014004a2d0     Stylepge.obj
 0002:0000b2d0       $chain$2$?OnColorClicked@CColorPage@@IEAAXI@Z 000000014004a2d0     Colorpge.obj
 0002:0000b2e4       $chain$3$?OnColorClicked@CColorPage@@IEAAXI@Z 000000014004a2e4     Colorpge.obj
 0002:0000b2e4       $chain$3$?OnStyleClicked@CStylePage@@IEAAXI@Z 000000014004a2e4     Stylepge.obj
 0002:0000b2f4       $chain$4$?OnStyleClicked@CStylePage@@IEAAXI@Z 000000014004a2f4     Stylepge.obj
 0002:0000b2f4       $chain$4$?OnColorClicked@CColorPage@@IEAAXI@Z 000000014004a2f4     Colorpge.obj
 0002:0000b304       $unwind$?GetMDIFrame@CMDIChildWnd@@QEAAPEAVCMDIFrameWnd@@XZ 000000014004a304     Stdafx.obj
 0002:0000b304       $unwind$?Create@CStatusBar@@UEAAHPEAVCWnd@@KI@Z 000000014004a304     Mainfrm.obj
 0002:0000b304       $unwind$?DefWindowProcW@CWnd@@UEAA_JI_K_J@Z 000000014004a304     Colorpge.obj
 0002:0000b304       $unwind$?GetParentFrame@CWnd@@QEAAPEAVCFrameWnd@@XZ 000000014004a304     Mainfrm.obj
 0002:0000b304       $unwind$?_ProcessWindowMessage@CStylePage@@UEAAHPEAUHWND__@@I_K_JAEA_J@Z 000000014004a304     Stylepge.obj
 0002:0000b304       $unwind$?OnInitDone@CFileDialogMTL@@UEAAXXZ 000000014004a304     Propdlg.obj
 0002:0000b304       $unwind$?_AfxPreviewCloseProc@CPrintPreviewState@@SAHPEAVCFrameWnd@@@Z 000000014004a304     Shapesvw.obj
 0002:0000b304       $unwind$?_ProcessWindowMessage@CModalShapePropSheet@@UEAAHPEAUHWND__@@I_K_JAEA_J@Z 000000014004a304     Propsht.obj
 0002:0000b304       $unwind$strtol             000000014004a304     LIBCMT:strtol.obj
 0002:0000b304       $unwind$?GetOwner@CWnd@@QEAAPEAV1@XZ 000000014004a304     Mainfrm.obj
 0002:0000b304       $unwind$?_ProcessWindowMessage@CColorPage@@UEAAHPEAUHWND__@@I_K_JAEA_J@Z 000000014004a304     Colorpge.obj
 0002:0000b304       $unwind$?_ProcessWindowMessage@CPropDlgApp@@UEAAHPEAUHWND__@@I_K_JAEA_J@Z 000000014004a304     Propdlg.obj
 0002:0000b304       $unwind$?_ProcessWindowMessage@CAboutDlg@@UEAAHPEAUHWND__@@I_K_JAEA_J@Z 000000014004a304     Propdlg.obj
 0002:0000b304       $unwind$?_ProcessWindowMessage@CNewTypeDlg@@UEAAHPEAUHWND__@@I_K_JAEA_J@Z 000000014004a304     Propdlg.obj
 0002:0000b304       $unwind$?AfxDlgProc@CWnd@@SA_JPEAUHWND__@@I_K_J@Z 000000014004a304     Colorpge.obj
 0002:0000b304       $unwind$_cfltcvt_l         000000014004a304     LIBCMT:cvt.obj
 0002:0000b304       $unwind$?_ProcessWindowMessage@CCommonDialog@@UEAAHPEAUHWND__@@I_K_JAEA_J@Z 000000014004a304     Propdlg.obj
 0002:0000b304       $unwind$?ProcessWindowMessage@?$CPrintDialogImpl@VCPrintDialog@WTL@@@WTL@@UEAAHPEAUHWND__@@I_K_JAEA_JK@Z 000000014004a304     Propdlg.obj
 0002:0000b304       $unwind$_invalid_parameter_noinfo 000000014004a304     LIBCMT:invarg.obj
 0002:0000b304       $unwind$?_ProcessWindowMessage@CDialog@@UEAAHPEAUHWND__@@I_K_JAEA_J@Z 000000014004a304     Colorpge.obj
 0002:0000b304       $unwind$?_ProcessWindowMessage@_AFX_MOUSEANCHORWND@@UEAAHPEAUHWND__@@I_K_JAEA_J@Z 000000014004a304     Stdafx.obj
 0002:0000b304       $unwind$?GetParent@CWnd@@QEAAPEAV1@XZ 000000014004a304     Colorpge.obj
 0002:0000b304       $unwind$?AfxHelpEnabled@@YAHXZ 000000014004a304     Colorpge.obj
 0002:0000b304       $unwind$?DefWindowProcW@CMDIFrameWnd@@UEAA_JI_K_J@Z 000000014004a304     Mainfrm.obj
 0002:0000b30c       $unwind$?Store@CRuntimeClass@@QEBAXAEAVCArchive@@@Z 000000014004a30c     Shapedoc.obj
 0002:0000b30c       $unwind$?DDX_Radio@@YAXPEAVCDataExchange@@HAEAH@Z 000000014004a30c     Colorpge.obj
 0002:0000b30c       $unwind$_gmtime64_s        000000014004a30c     LIBCMT:gmtime64.obj
 0002:0000b30c       $unwind$?ExecuteDlgInit@CWnd@@QEAAHPEB_W@Z 000000014004a30c     Colorpge.obj
 0002:0000b30c       $unwind$_XcptFilter        000000014004a30c     LIBCMT:winxfltr.obj
 0002:0000b30c       $unwind$_initterm          000000014004a30c     LIBCMT:crt0dat.obj
 0002:0000b30c       $unwind$?AddDocTemplate@CWinApp@@QEAAXPEAVCDocTemplate@@@Z 000000014004a30c     Propdlg.obj
 0002:0000b30c       $unwind$?CbtFilterHook@CWnd@@SA_JH_K_J@Z 000000014004a30c     Colorpge.obj
 0002:0000b30c       $unwind$?GetBuffer@CString@WTL@@QEAAPEA_WH@Z 000000014004a30c     Colorpge.obj
 0002:0000b30c       $unwind$?DoModal@CFileDialogMTL@@UEAA_JXZ 000000014004a30c     Propdlg.obj
 0002:0000b30c       $unwind$?GetTemplateSize@CDialogTemplate@@QEAAIPEBUDLGTEMPLATE@@@Z 000000014004a30c     Propsht.obj
 0002:0000b30c       $unwind$?OnToolTipText@CMDIChildWnd@@QEAAHIPEAUtagNMHDR@@PEA_J@Z 000000014004a30c     Stdafx.obj
 0002:0000b30c       $unwind$?CalcWindowRect@CWMHnd@@UEAAXPEAUtagRECT@@I@Z 000000014004a30c     Colorpge.obj
 0002:0000b30c       $unwind$__freetlocinfo     000000014004a30c     LIBCMT:localref.obj
 0002:0000b30c       $unwind$__crtGetEnvironmentStringsW 000000014004a30c     LIBCMT:w_env.obj
 0002:0000b30c       $unwind$?setSBCS@@YAXPEAUthreadmbcinfostruct@@@Z 000000014004a30c     LIBCMT:mbctype.obj
 0002:0000b30c       $unwind$?PreProcessPageTemplate@CPropertyPageMTL@@QEAAXAEAU_PROPSHEETPAGEW@@H@Z 000000014004a30c     Propsht.obj
 0002:0000b30c       $unwind$?_AfxAbbreviateName@CAfx@@SAXPEA_WHH@Z 000000014004a30c     Propdlg.obj
 0002:0000b30c       $unwind$?__StateFromIp@@YAHPEBU_s_FuncInfo@@PEAU_xDISPATCHER_CONTEXT@@_J@Z 000000014004a30c     LIBCMT:ehstate.obj
 0002:0000b30c       $unwind$?Create@CPropertySheetMTL@@UEAAHPEAVCWnd@@KK@Z 000000014004a30c     Propsht.obj
 0002:0000b30c       $unwind$?SetActiveView@CFrameWnd@@QEAAXPEAVCView@@H@Z 000000014004a30c     Propdlg.obj
 0002:0000b30c       $unwind$_mtdeletelocks     000000014004a30c     LIBCMT:mlock.obj
 0002:0000b30c       $unwind$?GetFile@CDocument@@QEAAPEAVCFile@@PEB_WIPEAVCFileException@@@Z 000000014004a30c     Shapedoc.obj
 0002:0000b30c       $unwind$?OnSysCommand@CMiniFrameWnd@@QEAAXI_J@Z 000000014004a30c     Minifrm.obj
 0002:0000b320       $unwind$??1CPropertyPageMTL@@UEAA@XZ 000000014004a320     Colorpge.obj
 0002:0000b338       $stateUnwindMap$??1CPropertyPageMTL@@UEAA@XZ 000000014004a338     Colorpge.obj
 0002:0000b360       $ip2state$??1CPropertyPageMTL@@UEAA@XZ 000000014004a360     Colorpge.obj
 0002:0000b3a0       $unwind$?OnCtlColor@CPropertyPageMTL@@QEAAPEAUHBRUSH__@@PEAVCDCMTL@@PEAVCWnd@@I@Z 000000014004a3a0     Colorpge.obj
 0002:0000b3a0       $unwind$?OnCtlColor@CPropertySheetMTL@@QEAAPEAUHBRUSH__@@PEAVCDCMTL@@PEAVCWnd@@I@Z 000000014004a3a0     Propsht.obj
 0002:0000b3a0       $unwind$??YCString@WTL@@QEAAAEAV01@_W@Z 000000014004a3a0     Colorpge.obj
 0002:0000b3ac       $unwind$?_ProcessWindowMessage@CPropertyPageMTL@@UEAAHPEAUHWND__@@I_K_JAEA_J@Z 000000014004a3ac     Colorpge.obj
 0002:0000b3c4       $stateUnwindMap$?_ProcessWindowMessage@CView@@UEAAHPEAUHWND__@@I_K_JAEA_J@Z 000000014004a3c4     Shapesvw.obj
 0002:0000b3c4       $stateUnwindMap$?_ProcessWindowMessage@CPropertyPageMTL@@UEAAHPEAUHWND__@@I_K_JAEA_J@Z 000000014004a3c4     Colorpge.obj
 0002:0000b3c4       $stateUnwindMap$?_ProcessWindowMessage@CPropertySheetMTL@@UEAAHPEAUHWND__@@I_K_JAEA_J@Z 000000014004a3c4     Propsht.obj
 0002:0000b3c4       $stateUnwindMap$?_ProcessWindowMessage@CShapePreviewWnd@@UEAAHPEAUHWND__@@I_K_JAEA_J@Z 000000014004a3c4     Preview.obj
 0002:0000b3d0       $ip2state$?_ProcessWindowMessage@CPropertyPageMTL@@UEAAHPEAUHWND__@@I_K_JAEA_J@Z 000000014004a3d0     Colorpge.obj
 0002:0000b3e8       $unwind$?CalcFixedLayout@CToolBar@@UEAA?AVCSize@WTL@@HH@Z 000000014004a3e8     Mainfrm.obj
 0002:0000b3e8       $unwind$?__GetUnwindTryBlock@@YAHPEA_KPEAU_xDISPATCHER_CONTEXT@@PEBU_s_FuncInfo@@@Z 000000014004a3e8     LIBCMT:ehstate.obj
 0002:0000b3e8       $unwind$?Abort@CFile@@UEAAXXZ 000000014004a3e8     Shapedoc.obj
 0002:0000b3e8       $unwind$?PreCreateWindow@CMDIChildWnd@@UEAAHAEAUtagCREATESTRUCTW@@@Z 000000014004a3e8     Stdafx.obj
 0002:0000b3e8       $unwind$__raise_securityfailure 000000014004a3e8     LIBCMT:gs_report.obj
 0002:0000b3e8       $unwind$?CalcDynamicLayout@CToolBar@@UEAA?AVCSize@WTL@@HK@Z 000000014004a3e8     Mainfrm.obj
 0002:0000b3e8       $unwind$?SetCurrentPage@CPreviewView@@QEAAXIH@Z 000000014004a3e8     Shapesvw.obj
 0002:0000b3e8       $unwind$_lock_file         000000014004a3e8     LIBCMT:_file.obj
 0002:0000b3e8       $unwind$?RemoveControlBar@CFrameWnd@@QEAAXPEAVCControlBar@@@Z 000000014004a3e8     Mainfrm.obj
 0002:0000b3e8       $unwind$?OnIdleUpdateCmdUI@CFrameWnd@@QEAAXXZ 000000014004a3e8     Mainfrm.obj
 0002:0000b3e8       $unwind$??0CAtlWinModule@ATL@@QEAA@XZ 000000014004a3e8     Propdlg.obj
 0002:0000b3e8       $unwind$?OnNewDocument@CShapesDoc@@MEAAHXZ 000000014004a3e8     Shapedoc.obj
 0002:0000b3e8       $unwind$??1CMenuMTL@@UEAA@XZ 000000014004a3e8     Colorpge.obj
 0002:0000b3e8       $unwind$?GetLength@CFile@@UEBA_KXZ 000000014004a3e8     Shapedoc.obj
 0002:0000b3e8       $unwind$_IsExceptionObjectToBeDestroyed 000000014004a3e8     LIBCMT:trnsctrl.obj
 0002:0000b3e8       $unwind$?classHandleFuncCDCMTL@CDCMTL@@SAPEAXPEAX0@Z 000000014004a3e8     Shapesvw.obj
 0002:0000b3e8       $unwind$_CreateFrameInfo   000000014004a3e8     LIBCMT:trnsctrl.obj
 0002:0000b3e8       $unwind$?ParseParam@CCommandLineInfo@@UEAAXPEB_WHH@Z 000000014004a3e8     Propdlg.obj
 0002:0000b3e8       $unwind$??1CClientDCMTL@@UEAA@XZ 000000014004a3e8     Mainfrm.obj
 0002:0000b3e8       $unwind$?OnUpdateControlBarMenu@CFrameWnd@@QEAAXPEAVCCmdUI@@@Z 000000014004a3e8     Mainfrm.obj
 0002:0000b3e8       $unwind$wcscpy_s           000000014004a3e8     LIBCMT:wcscpy_s.obj
 0002:0000b3e8       $unwind$??0CPreviewView@@QEAA@XZ 000000014004a3e8     Stdafx.obj
 0002:0000b3e8       $unwind$?CalcDynamicLayout@CControlBar@@UEAA?AVCSize@WTL@@HK@Z 000000014004a3e8     Mainfrm.obj
 0002:0000b3e8       $unwind$??0CToolBar@@QEAA@XZ 000000014004a3e8     Mainfrm.obj
 0002:0000b3e8       $unwind$?classHandleFuncCMenuMTL@CMenuMTL@@SAPEAXPEAX0@Z 000000014004a3e8     Colorpge.obj
 0002:0000b3e8       $unwind$?OnCloseDocument@CDocument@@QEAAXXZ 000000014004a3e8     Mainfrm.obj
 0002:0000b3e8       $unwind$??0exception@std@@QEAA@AEBQEBD@Z 000000014004a3e8     LIBCMT:stdexcpt.obj
 0002:0000b3e8       $unwind$?ReleaseFile@CDocument@@UEAAXPEAVCFile@@H@Z 000000014004a3e8     Shapedoc.obj
 0002:0000b3e8       $unwind$?OnInitDialog@CWMHnd@@UEAAHXZ 000000014004a3e8     Colorpge.obj
 0002:0000b3e8       $unwind$??0exception@std@@QEAA@AEBV01@@Z 000000014004a3e8     LIBCMT:stdexcpt.obj
 0002:0000b3e8       $unwind$?OnSize@CPreviewView@@QEAAXIHH@Z 000000014004a3e8     Stdafx.obj
 0002:0000b3e8       $unwind$??1CDCMTL@@UEAA@XZ 000000014004a3e8     Colorpge.obj
 0002:0000b3e8       $unwind$wcscat_s           000000014004a3e8     LIBCMT:wcscat_s.obj
 0002:0000b3e8       $unwind$?_Tidy@exception@std@@AEAAXXZ 000000014004a3e8     LIBCMT:stdexcpt.obj
 0002:0000b3e8       $unwind$?PreCreateWindow@CMiniFrameWnd@@UEAAHAEAUtagCREATESTRUCTW@@@Z 000000014004a3e8     Minifrm.obj
 0002:0000b3e8       $unwind$__GSHandlerCheckCommon 000000014004a3e8     LIBCMT:gshandler.obj
 0002:0000b3e8       $unwind$?OnCancel@CPrintingDialog@@UEAAXXZ 000000014004a3e8     Shapesvw.obj
 0002:0000b3e8       $unwind$??0_AUX_DATA@@QEAA@XZ 000000014004a3e8     Mainfrm.obj
 0002:0000b3e8       $unwind$wcsncpy_s          000000014004a3e8     LIBCMT:wcsncpy_s.obj
 0002:0000b3e8       $unwind$?_ProcessWindowMessage@CDocument@@UEAAHPEAUHWND__@@I_K_JAEA_J@Z 000000014004a3e8     Shapedoc.obj
 0002:0000b3e8       $unwind$?OnDestroy@CFrameWnd@@QEAAXXZ 000000014004a3e8     Mainfrm.obj
 0002:0000b3e8       $unwind$wWinMain           000000014004a3e8     Stdafx.obj
 0002:0000b3e8       $unwind$??1CImage@@UEAA@XZ 000000014004a3e8     Stdafx.obj
 0002:0000b3e8       $unwind$??0bad_alloc@std@@QEAA@AEBV01@@Z 000000014004a3e8     LIBCMT:new.obj
 0002:0000b3e8       $unwind$?OnBarCheck@CFrameWnd@@QEAAHI@Z 000000014004a3e8     Mainfrm.obj
 0002:0000b3e8       $unwind$_fflush_nolock     000000014004a3e8     LIBCMT:fflush.obj
 0002:0000b3e8       $unwind$?CWndDestruct@CWnd@@QEAAXXZ 000000014004a3e8     Colorpge.obj
 0002:0000b3e8       $unwind$_SetImageBase      000000014004a3e8     LIBCMT:trnsctrl.obj
 0002:0000b3e8       $unwind$_lock_file2        000000014004a3e8     LIBCMT:_file.obj
 0002:0000b3e8       $unwind$?Empty@CString@WTL@@QEAAXXZ 000000014004a3e8     Mainfrm.obj
 0002:0000b3e8       $unwind$??1?$CArray@HAEBH@@QEAA@XZ 000000014004a3e8     Mainfrm.obj
 0002:0000b3e8       $unwind$_callnewh          000000014004a3e8     LIBCMT:handler.obj
 0002:0000b3e8       $unwind$?PreCreateWindow@CView@@UEAAHAEAUtagCREATESTRUCTW@@@Z 000000014004a3e8     Shapesvw.obj
 0002:0000b3e8       $unwind$?DoModal@?$CPrintDialogImpl@VCPrintDialog@WTL@@@WTL@@QEAA_JPEAUHWND__@@@Z 000000014004a3e8     Propdlg.obj
 0002:0000b3e8       $unwind$calloc             000000014004a3e8     LIBCMT:calloc.obj
 0002:0000b3e8       $unwind$?DelayUpdateFrameMenu@CMDIFrameWnd@@UEAAXPEAUHMENU__@@@Z 000000014004a3e8     Mainfrm.obj
 0002:0000b3e8       $unwind$__crtLoadWinApiPointers 000000014004a3e8     LIBCMT:winapisupp.obj
 0002:0000b3e8       $unwind$strncpy_s          000000014004a3e8     LIBCMT:strncpy_s.obj
 0002:0000b3e8       $unwind$?OnPaint@CToolBar@@QEAAXXZ 000000014004a3e8     Mainfrm.obj
 0002:0000b3e8       $unwind$?OnCancel@CDialog@@UEAAXXZ 000000014004a3e8     Colorpge.obj
 0002:0000b3e8       $unwind$strcpy_s           000000014004a3e8     LIBCMT:strcpy_s.obj
 0002:0000b3e8       $unwind$?classHandleFuncCWnd@CWnd@@SAPEAXPEAX0@Z 000000014004a3e8     Colorpge.obj
 0002:0000b3e8       $unwind$?OnIdleUpdateCmdUI@CMDIFrameWnd@@QEAAXXZ 000000014004a3e8     Mainfrm.obj
 0002:0000b3e8       $unwind$_SetThrowImageBase 000000014004a3e8     LIBCMT:trnsctrl.obj
 0002:0000b3e8       $unwind$?ReadCount@CArchive@@QEAA_KXZ 000000014004a3e8     Shapedoc.obj
 0002:0000b3e8       $unwind$??1?$CAlloc@_WAEB_W@@QEAA@XZ 000000014004a3e8     Shapesvw.obj
 0002:0000b3e8       $unwind$?GetDefaultAccelerator@CFrameWnd@@UEAAPEAUHACCEL__@@XZ 000000014004a3e8     Mainfrm.obj
 0002:0000b3e8       $unwind$__onexitinit       000000014004a3e8     LIBCMT:onexit.obj
 0002:0000b3e8       $unwind$??1?$CArray@PEAXAEBQEAX@@QEAA@XZ 000000014004a3e8     Propsht.obj
 0002:0000b3e8       $unwind$??1CBrushMTL@@UEAA@XZ 000000014004a3e8     Preview.obj
 0002:0000b3e8       $unwind$__crtTerminateProcess 000000014004a3e8     LIBCMT:winapisupp.obj
 0002:0000b3e8       $unwind$?OnDestroy@CControlBar@@QEAAXXZ 000000014004a3e8     Mainfrm.obj
 0002:0000b3e8       $unwind$?OnCancel@CCommonDialog@@UEAAXXZ 000000014004a3e8     Propdlg.obj
 0002:0000b3e8       $unwind$?CControlBarDestruct@CControlBar@@QEAAXXZ 000000014004a3e8     Mainfrm.obj
 0002:0000b3e8       $unwind$?OnQueryCenterWnd@CMiniFrameWnd@@QEAA_J_K_J@Z 000000014004a3e8     Minifrm.obj
 0002:0000b3e8       $unwind$?OnFileSave@CDocument@@QEAAXXZ 000000014004a3e8     Shapedoc.obj
 0002:0000b3e8       $unwind$?RemoveDocument@CMultiDocTemplate@@UEAAXPEAVCDocument@@@Z 000000014004a3e8     Propdlg.obj
 0002:0000b3e8       $unwind$fast_error_exit    000000014004a3e8     LIBCMT:wwincrt0.obj
 0002:0000b3e8       $unwind$??0_LocaleUpdate@@QEAA@PEAUlocaleinfo_struct@@@Z 000000014004a3e8     LIBCMT:mbctype.obj
 0002:0000b3e8       $unwind$?DoFileSave@CDocument@@QEAAHXZ 000000014004a3e8     Shapedoc.obj
 0002:0000b3e8       $unwind$_freebuf           000000014004a3e8     LIBCMT:_freebuf.obj
 0002:0000b3e8       $unwind$?RemovePlaceHolder@CDockBar@@QEAAXPEAVCControlBar@@@Z 000000014004a3e8     Mainfrm.obj
 0002:0000b3e8       $unwind$?classHandleFuncCDialog@CDialog@@SAPEAXPEAX0@Z 000000014004a3e8     Colorpge.obj
 0002:0000b3e8       $unwind$__crtUnhandledException 000000014004a3e8     LIBCMT:winapisupp.obj
 0002:0000b3e8       $unwind$??1CPreviewDC@@UEAA@XZ 000000014004a3e8     Shapesvw.obj
 0002:0000b3e8       $unwind$_mtinit            000000014004a3e8     LIBCMT:tidtable.obj
 0002:0000b3e8       $unwind$?PreCreateWindow@CFrameWnd@@UEAAHAEAUtagCREATESTRUCTW@@@Z 000000014004a3e8     Mainfrm.obj
 0002:0000b3e8       $unwind$?RemoveAt@?$CArray@PEAXAEBQEAX@@QEAAX_J0@Z 000000014004a3e8     Mainfrm.obj
 0002:0000b3e8       $unwind$?PreCreateWindow@CMDIFrameWnd@@UEAAHAEAUtagCREATESTRUCTW@@@Z 000000014004a3e8     Mainfrm.obj
 0002:0000b3e8       $unwind$_init_pointers     000000014004a3e8     LIBCMT:crt0dat.obj
 0002:0000b3e8       $unwind$?Flush@CArchive@@QEAAXXZ 000000014004a3e8     Shapedoc.obj
 0002:0000b3e8       $unwind$_cinit             000000014004a3e8     LIBCMT:crt0dat.obj
 0002:0000b3e8       $unwind$?DestroyWindow@CControlBar@@UEAAHXZ 000000014004a3e8     Mainfrm.obj
 0002:0000b3e8       $unwind$?CDocumentDestruct@CDocument@@QEAAXXZ 000000014004a3e8     Shapedoc.obj
 0002:0000b3e8       $unwind$__crtCorExitProcess 000000014004a3e8     LIBCMT:crt0dat.obj
 0002:0000b3e8       $unwind$__crtIsPackagedApp 000000014004a3e8     LIBCMT:winapisupp.obj
 0002:0000b3e8       $unwind$??1CPenMTL@@UEAA@XZ 000000014004a3e8     Shapeobj.obj
 0002:0000b3e8       $unwind$?MapWizardResult@CPropertyPageMTL@@QEAA_J_J@Z 000000014004a3e8     Colorpge.obj
 0002:0000b3e8       $unwind$?classHandleFuncCBitmapMTL@CBitmapMTL@@SAPEAXPEAX0@Z 000000014004a3e8     Stdafx.obj
 0002:0000b3e8       $unwind$?classHandleFuncCGdiObject@CGdiObject@@SAPEAXPEAX0@Z 000000014004a3e8     Shapeobj.obj
 0002:0000b3e8       $unwind$__crtExitProcess   000000014004a3e8     LIBCMT:crt0dat.obj
 0002:0000b3e8       $unwind$_amsg_exit         000000014004a3e8     LIBCMT:crt0dat.obj
 0002:0000b3e8       $unwind$?classHandleFuncCBrushMTL@CBrushMTL@@SAPEAXPEAX0@Z 000000014004a3e8     Preview.obj
 0002:0000b3e8       $unwind$?CreateNewDocument@CDocTemplate@@UEAAPEAVCDocument@@XZ 000000014004a3e8     Propdlg.obj
 0002:0000b3e8       $unwind$??1CAtlBaseModule@ATL@@QEAA@XZ 000000014004a3e8     atls:atlbase.obj
 0002:0000b3e8       $unwind$??1?$CAlloc@HAEBH@@QEAA@XZ 000000014004a3e8     Shapesvw.obj
 0002:0000b3e8       $unwind$??1CPaintDCMTL@@UEAA@XZ 000000014004a3e8     Preview.obj
 0002:0000b3e8       $unwind$?SetMenuBarState@CFrameWnd@@QEAAHK@Z 000000014004a3e8     Mainfrm.obj
 0002:0000b3e8       $unwind$_getptd            000000014004a3e8     LIBCMT:tidtable.obj
 0002:0000b3e8       $unwind$?Seek@CFile@@UEAA_K_JI@Z 000000014004a3e8     Shapedoc.obj
 0002:0000b3e8       $unwind$??1CRgnMTL@@UEAA@XZ 000000014004a3e8     Stdafx.obj
 0002:0000b3e8       $unwind$??0bad_exception@std@@QEAA@AEBV01@@Z 000000014004a3e8     LIBCMT:frame.obj
 0002:0000b3f0       $unwind$?OnCreateHelper@CFrameWnd@@QEAAHPEAUtagCREATESTRUCTW@@PEAUCCreateContext@@@Z 000000014004a3f0     Mainfrm.obj
 0002:0000b3f0       $unwind$_lseeki64_nolock   000000014004a3f0     LIBCMT:lseeki64.obj
 0002:0000b3f0       $unwind$_mtinitlocks       000000014004a3f0     LIBCMT:mlock.obj
 0002:0000b3f0       $unwind$?RemoveHandle@?$CHandleList@PEAXVCGdiObject@@PEAUHWND__@@@@QEAAPEAXQEAX@Z 000000014004a3f0     Preview.obj
 0002:0000b3f0       $unwind$?Init@CDynamicStdCallThunk@ATL@@QEAAH_KPEAX@Z 000000014004a3f0     Colorpge.obj
 0002:0000b3f0       $unwind$?OnNotify@CFileDialogMTL@@UEAAH_K_JPEA_J@Z 000000014004a3f0     Propdlg.obj
 0002:0000b3f0       $unwind$?ActivateFrame@CFrameWnd@@UEAAXH@Z 000000014004a3f0     Mainfrm.obj
 0002:0000b3f0       $unwind$?AddView@CDocument@@QEAAXPEAVCView@@@Z 000000014004a3f0     Shapesvw.obj
 0002:0000b3f0       $unwind$?PreTranslateMessage@CPropertySheetMTL@@UEAAHPEAUtagMSG@@@Z 000000014004a3f0     Propsht.obj
 0002:0000b3f0       $unwind$?WriteCount@CArchive@@QEAAX_K@Z 000000014004a3f0     Shapedoc.obj
 0002:0000b3f0       $unwind$?OnNotify@CPropertyPageMTL@@UEAAH_K_JPEA_J@Z 000000014004a3f0     Colorpge.obj
 0002:0000b3f0       $unwind$_recalloc          000000014004a3f0     LIBCMT:recalloc.obj
 0002:0000b3f0       $unwind$?AddFrameWnd@CFrameWnd@@QEAAXXZ 000000014004a3f0     Mainfrm.obj
 0002:0000b3f0       $unwind$realloc            000000014004a3f0     LIBCMT:realloc.obj
 0002:0000b3f0       $unwind$malloc             000000014004a3f0     LIBCMT:malloc.obj
 0002:0000b3f0       $unwind$?AddDocument@CMultiDocTemplate@@UEAAXPEAVCDocument@@@Z 000000014004a3f0     Propdlg.obj
 0002:0000b3f0       $unwind$?LoadBitmapW@CToolBar@@QEAAHPEB_W@Z 000000014004a3f0     Mainfrm.obj
 0002:0000b3f0       $unwind$?EnableScrollBarCtrl@CWMHnd@@QEAAXHH@Z 000000014004a3f0     Shapesvw.obj
 0002:0000b3f0       $unwind$?ResetTimer@CControlBar@@QEAAX_KI@Z 000000014004a3f0     Mainfrm.obj
 0002:0000b3f0       $unwind$?RemoveHandle@?$CHandleList@PEAUHMENU__@@VCMenuMTL@@PEAUHWND__@@@@QEAAPEAUHMENU__@@QEAU2@@Z 000000014004a3f0     Colorpge.obj
 0002:0000b3f0       $unwind$?AfxLoadString@CAfx@@SAHIPEA_WI@Z 000000014004a3f0     Mainfrm.obj
 0002:0000b3f0       $unwind$?RemoveHandle@?$CHandleList@PEAUHDC__@@VCDCMTL@@PEAUHWND__@@@@QEAAPEAUHDC__@@QEAU2@@Z 000000014004a3f0     Colorpge.obj
 0002:0000b3f0       $unwind$?RemoveHandle@?$CHandleHashList@PEAUHWND__@@VCWMHnd@@PEAU1@$0BB@@@QEAAPEAUHWND__@@QEAU2@@Z 000000014004a3f0     Colorpge.obj
 0002:0000b3f0       $unwind$_getenv_helper_nolock 000000014004a3f0     LIBCMT:getenv.obj
 0002:0000b3f0       $unwind$?SetTitle@CDocument@@UEAAXPEB_W@Z 000000014004a3f0     Shapedoc.obj
 0002:0000b3f0       $unwind$_flush             000000014004a3f0     LIBCMT:fflush.obj
 0002:0000b400       $unwind$?GetSafeOwner_@CWnd@@SAPEAUHWND__@@PEAU2@PEAPEAU2@@Z 000000014004a400     Colorpge.obj
 0002:0000b410       $chain$0$?GetSafeOwner_@CWnd@@SAPEAUHWND__@@PEAU2@PEAPEAU2@@Z 000000014004a410     Colorpge.obj
 0002:0000b424       $chain$1$?GetSafeOwner_@CWnd@@SAPEAUHWND__@@PEAU2@PEAPEAU2@@Z 000000014004a424     Colorpge.obj
 0002:0000b434       $unwind$?CreateDlgIndirect@CWnd@@QEAAHPEBUDLGTEMPLATE@@PEAV1@PEAUHINSTANCE__@@@Z 000000014004a434     Colorpge.obj
 0002:0000b434       $unwind$?OnMenuSelect@CFrameWnd@@QEAAXIIPEAUHMENU__@@@Z 000000014004a434     Mainfrm.obj
 0002:0000b434       $unwind$?OnCmdMsg@CDocument@@UEAAHIHPEAXPEAUAFX_CMDHANDLERINFO@@@Z 000000014004a434     Shapedoc.obj
 0002:0000b434       $unwind$?OnCmdMsg@CFrameWnd@@UEAAHIHPEAXPEAUAFX_CMDHANDLERINFO@@@Z 000000014004a434     Mainfrm.obj
 0002:0000b434       $unwind$?Run@CWinApp@@UEAAHXZ 000000014004a434     Propdlg.obj
 0002:0000b434       $unwind$?OnCmdMsg@CDialog@@UEAAHIHPEAXPEAUAFX_CMDHANDLERINFO@@@Z 000000014004a434     Colorpge.obj
 0002:0000b434       $unwind$?OnCmdMsg@CView@@UEAAHIHPEAXPEAUAFX_CMDHANDLERINFO@@@Z 000000014004a434     Shapesvw.obj
 0002:0000b434       $unwind$?OnCmdMsg@CPropertySheetMTL@@UEAAHIHPEAXPEAUAFX_CMDHANDLERINFO@@@Z 000000014004a434     Propsht.obj
 0002:0000b44c       $unwind$??_GCWnd@@UEAAPEAXI@Z 000000014004a44c     Colorpge.obj
 0002:0000b44c       $unwind$??_GCNewTypeDlg@@UEAAPEAXI@Z 000000014004a44c     Propdlg.obj
 0002:0000b44c       $unwind$??_GCDialog@@UEAAPEAXI@Z 000000014004a44c     Colorpge.obj
 0002:0000b44c       $unwind$??_GCPrintingDialog@@UEAAPEAXI@Z 000000014004a44c     Shapesvw.obj
 0002:0000b44c       $unwind$??_GCShapePreviewWnd@@UEAAPEAXI@Z 000000014004a44c     Preview.obj
 0002:0000b44c       $unwind$??_GCAboutDlg@@UEAAPEAXI@Z 000000014004a44c     Propdlg.obj
 0002:0000b44c       $unwind$??_G_AFX_MOUSEANCHORWND@@UEAAPEAXI@Z 000000014004a44c     Stdafx.obj
 0002:0000b460       $stateUnwindMap$??1CShapePreviewWnd@@UEAA@XZ 000000014004a460     Preview.obj
 0002:0000b460       $stateUnwindMap$??_GCNewTypeDlg@@UEAAPEAXI@Z 000000014004a460     Propdlg.obj
 0002:0000b460       $stateUnwindMap$??1CWnd@@UEAA@XZ 000000014004a460     Colorpge.obj
 0002:0000b460       $stateUnwindMap$??_G_AFX_MOUSEANCHORWND@@UEAAPEAXI@Z 000000014004a460     Stdafx.obj
 0002:0000b460       $stateUnwindMap$??_GCShapePreviewWnd@@UEAAPEAXI@Z 000000014004a460     Preview.obj
 0002:0000b460       $stateUnwindMap$??_GCDialog@@UEAAPEAXI@Z 000000014004a460     Colorpge.obj
 0002:0000b460       $stateUnwindMap$??1CCommonDialog@@UEAA@XZ 000000014004a460     Propdlg.obj
 0002:0000b460       $stateUnwindMap$??1CNewTypeDlg@@UEAA@XZ 000000014004a460     Propdlg.obj
 0002:0000b460       $stateUnwindMap$??_GCPrintingDialog@@UEAAPEAXI@Z 000000014004a460     Shapesvw.obj
 0002:0000b460       $stateUnwindMap$??1CDialog@@UEAA@XZ 000000014004a460     Colorpge.obj
 0002:0000b460       $stateUnwindMap$??_GCAboutDlg@@UEAAPEAXI@Z 000000014004a460     Propdlg.obj
 0002:0000b460       $stateUnwindMap$??1CPrintingDialog@@UEAA@XZ 000000014004a460     Shapesvw.obj
 0002:0000b460       $stateUnwindMap$??_GCWnd@@UEAAPEAXI@Z 000000014004a460     Colorpge.obj
 0002:0000b460       $stateUnwindMap$??_GCToolTipCtrlMTL@@UEAAPEAXI@Z 000000014004a460     Mainfrm.obj
 0002:0000b460       $stateUnwindMap$??1CAboutDlg@@UEAA@XZ 000000014004a460     Propdlg.obj
 0002:0000b470       $ip2state$??_GCWnd@@UEAAPEAXI@Z 000000014004a470     Colorpge.obj
 0002:0000b470       $ip2state$??_GCShapePreviewWnd@@UEAAPEAXI@Z 000000014004a470     Preview.obj
 0002:0000b470       $ip2state$??_G_AFX_MOUSEANCHORWND@@UEAAPEAXI@Z 000000014004a470     Stdafx.obj
 0002:0000b470       $ip2state$??_GCDialog@@UEAAPEAXI@Z 000000014004a470     Colorpge.obj
 0002:0000b470       $ip2state$??_GCAboutDlg@@UEAAPEAXI@Z 000000014004a470     Propdlg.obj
 0002:0000b470       $ip2state$??_GCPrintingDialog@@UEAAPEAXI@Z 000000014004a470     Shapesvw.obj
 0002:0000b470       $ip2state$??_GCNewTypeDlg@@UEAAPEAXI@Z 000000014004a470     Propdlg.obj
 0002:0000b490       $unwind$?PreTranslateMessage@CDialog@@UEAAHPEAUtagMSG@@@Z 000000014004a490     Colorpge.obj
 0002:0000b490       $unwind$?AfxCallWndProc@CWnd@@QEAA_JPEAV1@I_K_J@Z 000000014004a490     Colorpge.obj
 0002:0000b49c       $unwind$?RecalcDelayShow@CControlBar@@QEAAKPEAUAFX_SIZEPARENTPARAMS@@@Z 000000014004a49c     Mainfrm.obj
 0002:0000b49c       $unwind$?Enable@CToolCmdUI@@UEAAXH@Z 000000014004a49c     Mainfrm.obj
 0002:0000b49c       $unwind$?SetButtonStyle@CToolBar@@QEAAXHI@Z 000000014004a49c     Mainfrm.obj
 0002:0000b49c       $unwind$?SetCheck@CToolCmdUI@@UEAAXH@Z 000000014004a49c     Mainfrm.obj
 0002:0000b49c       $unwind$?OnOK@CCommonDialog@@UEAAXXZ 000000014004a49c     Propdlg.obj
 0002:0000b49c       $unwind$?OnOK@CDialog@@UEAAXXZ 000000014004a49c     Colorpge.obj
 0002:0000b49c       $unwind$_mbschr_l          000000014004a49c     LIBCMT:mbschr.obj
 0002:0000b49c       $unwind$?DrawNonThemedGripper@CControlBar@@QEAAHPEAVCDCMTL@@AEBVCRect@WTL@@@Z 000000014004a49c     Mainfrm.obj
 0002:0000b49c       $unwind$?OnWizardFinish@CPropertyPageMTL@@UEAAHXZ 000000014004a49c     Colorpge.obj
 0002:0000b4ac       $unwind$_invalid_parameter 000000014004a4ac     LIBCMT:invarg.obj
 0002:0000b4ac       $unwind$?OnUpdateFrameMenu@CMDIChildWnd@@QEAAXHPEAVCWnd@@PEAUHMENU__@@@Z 000000014004a4ac     Stdafx.obj
 0002:0000b4ac       $unwind$?OnCommand@CMDIFrameWnd@@UEAAH_K_J@Z 000000014004a4ac     Mainfrm.obj
 0002:0000b4ac       $unwind$?CreateIndirect@CDialog@@UEAAHPEAXPEAVCWnd@@PEAUHINSTANCE__@@@Z 000000014004a4ac     Colorpge.obj
 0002:0000b4ac       $unwind$?AfxIsDescendant@CFrameWnd@@SAHPEAUHWND__@@0@Z 000000014004a4ac     Mainfrm.obj
 0002:0000b4ac       $unwind$?OnVScroll@CScrollView@@QEAAXIIPEAVCScrollBarMTL@@@Z 000000014004a4ac     Stdafx.obj
 0002:0000b4ac       $unwind$?OnHScroll@CScrollView@@QEAAXIIPEAVCScrollBarMTL@@@Z 000000014004a4ac     Stdafx.obj
 0002:0000b4ac       $unwind$?WalkPreTranslateTree@CWnd@@SAHPEAUHWND__@@PEAUtagMSG@@@Z 000000014004a4ac     Propdlg.obj
 0002:0000b4c0       $unwind$??1CPrintingDialog@@UEAA@XZ 000000014004a4c0     Shapesvw.obj
 0002:0000b4c0       $unwind$??1CShapePreviewWnd@@UEAA@XZ 000000014004a4c0     Preview.obj
 0002:0000b4c0       $unwind$??1CAboutDlg@@UEAA@XZ 000000014004a4c0     Propdlg.obj
 0002:0000b4c0       $unwind$??1CWnd@@UEAA@XZ   000000014004a4c0     Colorpge.obj
 0002:0000b4c0       $unwind$??1CCommonDialog@@UEAA@XZ 000000014004a4c0     Propdlg.obj
 0002:0000b4c0       $unwind$??1CNewTypeDlg@@UEAA@XZ 000000014004a4c0     Propdlg.obj
 0002:0000b4c0       $unwind$??1CDialog@@UEAA@XZ 000000014004a4c0     Colorpge.obj
 0002:0000b4d0       $ip2state$??1CAboutDlg@@UEAA@XZ 000000014004a4d0     Propdlg.obj
 0002:0000b4d0       $ip2state$??1CDialog@@UEAA@XZ 000000014004a4d0     Colorpge.obj
 0002:0000b4d0       $ip2state$??1CNewTypeDlg@@UEAA@XZ 000000014004a4d0     Propdlg.obj
 0002:0000b4d0       $ip2state$??1CCommonDialog@@UEAA@XZ 000000014004a4d0     Propdlg.obj
 0002:0000b4d0       $ip2state$??1CPrintingDialog@@UEAA@XZ 000000014004a4d0     Shapesvw.obj
 0002:0000b4d0       $ip2state$??1CWnd@@UEAA@XZ 000000014004a4d0     Colorpge.obj
 0002:0000b4d0       $ip2state$??1CShapePreviewWnd@@UEAA@XZ 000000014004a4d0     Preview.obj
 0002:0000b4f0       $unwind$?OnPreserveZeroBorderHelper@CToolBar@@QEAA_J_K_J@Z 000000014004a4f0     Mainfrm.obj
 0002:0000b4f0       $unwind$?CreateDlg@CWnd@@QEAAHPEB_WPEAV1@@Z 000000014004a4f0     Colorpge.obj
 0002:0000b508       $unwind$?OnNcCalcSize@CStatusBar@@QEAAXHPEAUtagNCCALCSIZE_PARAMS@@@Z 000000014004a508     Mainfrm.obj
 0002:0000b508       $unwind$?OnKickIdle@CPropertySheetMTL@@QEAA_J_K_J@Z 000000014004a508     Propsht.obj
 0002:0000b508       $unwind$?GetActiveFrame@CMDIFrameWnd@@UEAAPEAVCFrameWnd@@XZ 000000014004a508     Mainfrm.obj
 0002:0000b508       $unwind$?OnOK@CNewTypeDlg@@UEAAXXZ 000000014004a508     Propdlg.obj
 0002:0000b508       $unwind$?OnSize@CMDIChildWnd@@QEAAXIHH@Z 000000014004a508     Stdafx.obj
 0002:0000b508       $unwind$?SetStatusText@CControlBar@@UEAAH_J@Z 000000014004a508     Mainfrm.obj
 0002:0000b508       $unwind$?Attach@?$CHandleWrapper@VCDCMTL@@PEAUHDC__@@V?$CDCT@$00@WTL@@@@QEAAHPEAUHDC__@@@Z 000000014004a508     Shapesvw.obj
 0002:0000b508       $unwind$?OnApplyNow@CModalShapePropSheet@@IEAAXXZ 000000014004a508     Propsht.obj
 0002:0000b508       $unwind$?OnUpdatePropertySheetWithPreview@CShapesView@@IEAAXPEAVCCmdUI@@@Z 000000014004a508     Shapesvw.obj
 0002:0000b508       $unwind$?OnMouseWheel@CScrollView@@QEAAHIFVCPoint@WTL@@@Z 000000014004a508     Stdafx.obj
 0002:0000b508       $unwind$?SetText@CCmdUI@@UEAAXPEB_W@Z 000000014004a508     Colorpge.obj
 0002:0000b508       $unwind$?Create@CDialog@@UEAAHPEB_WPEAVCWnd@@@Z 000000014004a508     Colorpge.obj
 0002:0000b508       $unwind$?ReflectLastMsg@CWnd@@SAHPEAUHWND__@@PEA_J@Z 000000014004a508     Colorpge.obj
 0002:0000b514       $unwind$?RunModalLoop@CWnd@@QEAAHK@Z 000000014004a514     Colorpge.obj
 0002:0000b514       $unwind$?ExecuteDlgInit@CWnd@@QEAAHPEAX@Z 000000014004a514     Colorpge.obj
 0002:0000b530       $unwind$?DoModal@CDialog@@UEAA_JXZ 000000014004a530     Colorpge.obj
 0002:0000b53c       $chain$1$?DoModal@CDialog@@UEAA_JXZ 000000014004a53c     Colorpge.obj
 0002:0000b554       $chain$2$?DoModal@CDialog@@UEAA_JXZ 000000014004a554     Colorpge.obj
 0002:0000b568       $chain$3$?DoModal@CDialog@@UEAA_JXZ 000000014004a568     Colorpge.obj
 0002:0000b57c       $chain$4$?DoModal@CDialog@@UEAA_JXZ 000000014004a57c     Colorpge.obj
 0002:0000b58c       $chain$5$?DoModal@CDialog@@UEAA_JXZ 000000014004a58c     Colorpge.obj
 0002:0000b59c       $chain$6$?DoModal@CDialog@@UEAA_JXZ 000000014004a59c     Colorpge.obj
 0002:0000b5ac       $unwind$?OnWizardFinishEx@CPropertyPageMTL@@UEAAPEAUHWND__@@XZ 000000014004a5ac     Colorpge.obj
 0002:0000b5ac       $unwind$??__EtheApp@@YAXXZ 000000014004a5ac     Propdlg.obj
 0002:0000b5ac       $unwind$??__E_AtlBaseModule@ATL@@YAXXZ 000000014004a5ac     atls:atlbase.obj
 0002:0000b5ac       $unwind$__crtInitializeCriticalSectionEx 000000014004a5ac     LIBCMT:winapisupp.obj
 0002:0000b5ac       $unwind$_invoke_watson     000000014004a5ac     LIBCMT:invarg.obj
 0002:0000b5ac       $unwind$_fileno            000000014004a5ac     LIBCMT:fileno.obj
 0002:0000b5ac       $unwind$___lc_codepage_func 000000014004a5ac     LIBCMT:initctyp.obj
 0002:0000b5ac       $unwind$?_GetCModuleState@CWinApp@@SAPEAVCModuleState@@XZ 000000014004a5ac     Colorpge.obj
 0002:0000b5ac       $unwind$_set_error_mode    000000014004a5ac     LIBCMT:errmode.obj
 0002:0000b5ac       $unwind$__doserrno         000000014004a5ac     LIBCMT:dosmap.obj
 0002:0000b5ac       $unwind$?AfxThrowNotSupportedException@@YAXXZ 000000014004a5ac     Shapedoc.obj
 0002:0000b5ac       $unwind$_purecall          000000014004a5ac     LIBCMT:purevirt.obj
 0002:0000b5ac       $unwind$abort              000000014004a5ac     LIBCMT:abort.obj
 0002:0000b5ac       $unwind$__termconout       000000014004a5ac     LIBCMT:initcon.obj
 0002:0000b5ac       $unwind$_errno             000000014004a5ac     LIBCMT:dosmap.obj
 0002:0000b5ac       $unwind$__FrameUnwindFilter 000000014004a5ac     LIBCMT:frame.obj
 0002:0000b5ac       $unwind$_heap_init         000000014004a5ac     LIBCMT:heapinit.obj
 0002:0000b5ac       $unwind$?AfxPropPageCallback@CPropertyPageMTL@@SAIPEAUHWND__@@IPEAU_PROPSHEETPAGEW@@@Z 000000014004a5ac     Colorpge.obj
 0002:0000b5ac       $unwind$?OnMDIWindowCmd@CMDIFrameWnd@@QEAAHI@Z 000000014004a5ac     Mainfrm.obj
 0002:0000b5ac       $unwind$_GetImageBase      000000014004a5ac     LIBCMT:trnsctrl.obj
 0002:0000b5ac       $unwind$_msize             000000014004a5ac     LIBCMT:msize.obj
 0002:0000b5ac       $unwind$__GSHandlerCheck   000000014004a5ac     LIBCMT:gshandler.obj
 0002:0000b5ac       $unwind$??__E_AtlWinModule@ATL@@YAXXZ 000000014004a5ac     Propdlg.obj
 0002:0000b5ac       $unwind$__crtDownlevelLocaleNameToLCID 000000014004a5ac     LIBCMT:winapinls.obj
 0002:0000b5ac       $unwind$??__F_AtlWinModule@ATL@@YAXXZ 000000014004a5ac     Propdlg.obj
 0002:0000b5ac       $unwind$?_GetAfxData@CAfx@@SAAEBU_AUX_DATA@@XZ 000000014004a5ac     Mainfrm.obj
 0002:0000b5ac       $unwind$?HandleInitDialog@CPropertySheetMTL@@QEAA_J_K_J@Z 000000014004a5ac     Propsht.obj
 0002:0000b5ac       $unwind$?IsVisible@CControlBar@@UEBAHXZ 000000014004a5ac     Mainfrm.obj
 0002:0000b5ac       $unwind$?CreateObject@CShapesView@@SAPEAVCObject@@XZ 000000014004a5ac     Shapesvw.obj
 0002:0000b5ac       $unwind$_get_osfhandle     000000014004a5ac     LIBCMT:osfinfo.obj
 0002:0000b5ac       $unwind$_initp_eh_hooks    000000014004a5ac     LIBCMT:hooks.obj
 0002:0000b5ac       $unwind$?CreateObject@CWnd@@SAPEAVCObject@@XZ 000000014004a5ac     Stdafx.obj
 0002:0000b5ac       $unwind$?ContinueModal@CPropertySheetMTL@@UEAAHXZ 000000014004a5ac     Propsht.obj
 0002:0000b5ac       $unwind$??8type_info@@QEBA_NAEBV0@@Z 000000014004a5ac     LIBCMT:typinfo.obj
 0002:0000b5ac       $unwind$_mtterm            000000014004a5ac     LIBCMT:tidtable.obj
 0002:0000b5ac       $unwind$_GetThrowImageBase 000000014004a5ac     LIBCMT:trnsctrl.obj
 0002:0000b5ac       $unwind$?CreateObject@CShapesDoc@@SAPEAVCObject@@XZ 000000014004a5ac     Shapedoc.obj
 0002:0000b5ac       $unwind$atexit             000000014004a5ac     LIBCMT:onexit.obj
 0002:0000b5ac       $unwind$?AfxThrowMemoryException@@YAXXZ 000000014004a5ac     Colorpge.obj
 0002:0000b5ac       $unwind$__CxxSetUnhandledExceptionFilter 000000014004a5ac     LIBCMT:unhandld.obj
 0002:0000b5ac       $unwind$__initmbctable     000000014004a5ac     LIBCMT:mbctype.obj
 0002:0000b5ac       $unwind$?__CxxUnhandledExceptionFilter@@YAJPEAU_EXCEPTION_POINTERS@@@Z 000000014004a5ac     LIBCMT:unhandld.obj
 0002:0000b5ac       $unwind$?OnCreateClient@CFrameWnd@@UEAAHPEAUtagCREATESTRUCTW@@PEAUCCreateContext@@@Z 000000014004a5ac     Mainfrm.obj
 0002:0000b5ac       $unwind$__endstdio         000000014004a5ac     LIBCMT:_file.obj
 0002:0000b5ac       $unwind$?AfxThrowResourceException@@YAXXZ 000000014004a5ac     Propsht.obj
 0002:0000b5ac       $unwind$_get_timezone      000000014004a5ac     LIBCMT:timeset.obj
 0002:0000b5ac       $unwind$_isatty            000000014004a5ac     LIBCMT:isatty.obj
 0002:0000b5ac       $unwind$?AfxThrowInvalidArgException@@YAXXZ 000000014004a5ac     Shapedoc.obj
 0002:0000b5ac       $unwind$_get_dstbias       000000014004a5ac     LIBCMT:timeset.obj
 0002:0000b5ac       $unwind$wWinMainCRTStartup 000000014004a5ac     LIBCMT:wwincrt0.obj
 0002:0000b5ac       $unwind$_FF_MSGBANNER      000000014004a5ac     LIBCMT:crt0msg.obj
 0002:0000b5ac       $unwind$??1CWaitCursor@@QEAA@XZ 000000014004a5ac     Propdlg.obj
 0002:0000b5ac       $unwind$?__GetCurrentState@@YAHPEA_KPEAU_xDISPATCHER_CONTEXT@@PEBU_s_FuncInfo@@@Z 000000014004a5ac     LIBCMT:ehstate.obj
 0002:0000b5ac       $unwind$_get_daylight      000000014004a5ac     LIBCMT:timeset.obj
 0002:0000b5ac       $unwind$?CreateObject@CShape@@SAPEAVCObject@@XZ 000000014004a5ac     Shapeobj.obj
 0002:0000b5ac       $unwind$?OnApply@CPropertyPageMTL@@UEAAHXZ 000000014004a5ac     Colorpge.obj
 0002:0000b5b4       $unwind$?OnGetMinMaxInfo@CMiniFrameWnd@@QEAAXPEAUtagMINMAXINFO@@@Z 000000014004a5b4     Minifrm.obj
 0002:0000b5b4       $unwind$?_ProcessWindowMessage@CToolBar@@UEAAHPEAUHWND__@@I_K_JAEA_J@Z 000000014004a5b4     Mainfrm.obj
 0002:0000b5b4       $unwind$?OnKillActive@CPropertyPageMTL@@UEAAHXZ 000000014004a5b4     Colorpge.obj
 0002:0000b5c0       $unwind$?OnSetActive@CPropertyPageMTL@@UEAAHXZ 000000014004a5c0     Colorpge.obj
 0002:0000b5cc       $unwind$?GetDriverName@CPrintDialogMTL@@QEBA?AVCString@WTL@@XZ 000000014004a5cc     Propdlg.obj
 0002:0000b5cc       $unwind$?MirrorMappingMode@CPreviewDC@@QEAAXH@Z 000000014004a5cc     Stdafx.obj
 0002:0000b5cc       $unwind$?GetDeviceName@CPrintDialogMTL@@QEBA?AVCString@WTL@@XZ 000000014004a5cc     Propdlg.obj
 0002:0000b5cc       $unwind$?GetPortName@CPrintDialogMTL@@QEBA?AVCString@WTL@@XZ 000000014004a5cc     Propdlg.obj
 0002:0000b5cc       $unwind$?OnPreviewClose@CPreviewView@@QEAAXXZ 000000014004a5cc     Shapesvw.obj
 0002:0000b5cc       $unwind$?Tokenize@@YA?AVCString@WTL@@AEAV12@PEA_WAEAH@Z 000000014004a5cc     Propdlg.obj
 0002:0000b5cc       $unwind$?GetMenu@CWMHnd@@UEBAPEAVCMenuMTL@@XZ 000000014004a5cc     Colorpge.obj
 0002:0000b5cc       $unwind$?GetParentSheet@CPropertyPageMTL@@UEAAPEAVCPropertySheetMTL@@XZ 000000014004a5cc     Colorpge.obj
 0002:0000b5cc       $unwind$?OnWndMsg@CWnd@@UEAAHI_K_JPEA_J@Z 000000014004a5cc     Colorpge.obj
 0002:0000b5cc       $unwind$?Read@CFile@@UEAAIPEAXI@Z 000000014004a5cc     Shapedoc.obj
 0002:0000b5cc       $unwind$_fassign_l         000000014004a5cc     LIBCMT:cvt.obj
 0002:0000b5cc       $unwind$?GetTopLevelParent@CWnd@@QEAAPEAV1@XZ 000000014004a5cc     Mainfrm.obj
 0002:0000b5cc       $unwind$?OnNcCreate@CMiniFrameWnd@@QEAAHPEAUtagCREATESTRUCTW@@@Z 000000014004a5cc     Minifrm.obj
 0002:0000b5cc       $unwind$?Mid@CString@WTL@@QEBA?AV12@H@Z 000000014004a5cc     Propdlg.obj
 0002:0000b5cc       $unwind$?LoadFrame@CMDIFrameWnd@@UEAAHIKPEAVCWnd@@PEAUCCreateContext@@@Z 000000014004a5cc     Mainfrm.obj
 0002:0000b5cc       $unwind$?_ProcessWindowMessage@CShapePropSheetFrame@@UEAAHPEAUHWND__@@I_K_JAEA_J@Z 000000014004a5cc     Minifrm.obj
 0002:0000b5cc       $unwind$?AfxStringFromCLSID@@YA?AVCString@WTL@@AEBU_GUID@@@Z 000000014004a5cc     Propdlg.obj
 0002:0000b5cc       $unwind$?GetParentOwner@CWnd@@QEAAPEAV1@XZ 000000014004a5cc     Mainfrm.obj
 0002:0000b5cc       $unwind$?SetScaleToFitSize@CScrollView@@QEAAXUtagSIZE@@@Z 000000014004a5cc     Stdafx.obj
 0002:0000b5cc       $unwind$?OnKeyDown@CShapesView@@IEAAXIII@Z 000000014004a5cc     Shapesvw.obj
 0002:0000b5d4       $unwind$?CenterWindow@CWindow@ATL@@QEAAHPEAUHWND__@@@Z 000000014004a5d4     Colorpge.obj
 0002:0000b5ec       $unwind$?SendMessageToDescendants@CWnd@@QEAAXPEAUHWND__@@I_K_JHH@Z 000000014004a5ec     Colorpge.obj
 0002:0000b5fc       $chain$0$?SendMessageToDescendants@CWnd@@QEAAXPEAUHWND__@@I_K_JHH@Z 000000014004a5fc     Colorpge.obj
 0002:0000b610       $chain$1$?SendMessageToDescendants@CWnd@@QEAAXPEAUHWND__@@I_K_JHH@Z 000000014004a610     Colorpge.obj
 0002:0000b620       $unwind$?OnInitDialog@CDialog@@UEAAHXZ 000000014004a620     Colorpge.obj
 0002:0000b630       $chain$0$?AfxDlgProc@CWnd@@SA_JPEAUHWND__@@I_K_J@Z 000000014004a630     Colorpge.obj
 0002:0000b644       $chain$2$?AfxDlgProc@CWnd@@SA_JPEAUHWND__@@I_K_J@Z 000000014004a644     Colorpge.obj
 0002:0000b658       $chain$3$?AfxDlgProc@CWnd@@SA_JPEAUHWND__@@I_K_J@Z 000000014004a658     Colorpge.obj
 0002:0000b668       $chain$0$?AfxPropPageCallback@CPropertyPageMTL@@SAIPEAUHWND__@@IPEAU_PROPSHEETPAGEW@@@Z 000000014004a668     Colorpge.obj
 0002:0000b67c       $chain$1$?AfxPropPageCallback@CPropertyPageMTL@@SAIPEAUHWND__@@IPEAU_PROPSHEETPAGEW@@@Z 000000014004a67c     Colorpge.obj
 0002:0000b68c       $unwind$?OnToolHitTest@CWnd@@UEBA_JVCPoint@WTL@@PEAUtagTOOLINFOW@@@Z 000000014004a68c     Colorpge.obj
 0002:0000b68c       $unwind$?AssignCopy@CString@WTL@@IEAAXHPEB_W@Z 000000014004a68c     Colorpge.obj
 0002:0000b69c       $chain$0$?AssignCopy@CString@WTL@@IEAAXHPEB_W@Z 000000014004a69c     Colorpge.obj
 0002:0000b6b0       $chain$1$?AssignCopy@CString@WTL@@IEAAXHPEB_W@Z 000000014004a6b0     Colorpge.obj
 0002:0000b6c0       $unwind$?LoadStringW@CString@WTL@@QEAAHI@Z 000000014004a6c0     Colorpge.obj
 0002:0000b6e0       $unwind$?FromHandle@?$CHandleList@PEAXVCGdiObject@@PEAUHWND__@@@@QEAAPEAVCGdiObject@@QEAXPEAV2@QEAUHWND__@@Q6APEAXPEAX3@Z@Z 000000014004a6e0     Preview.obj
 0002:0000b6e0       $unwind$?FromHandle@?$CHandleList@PEAUHMENU__@@VCMenuMTL@@PEAUHWND__@@@@QEAAPEAVCMenuMTL@@QEAUHMENU__@@PEAV2@QEAUHWND__@@Q6APEAXPEAX3@Z@Z 000000014004a6e0     Colorpge.obj
 0002:0000b6e0       $unwind$?FromHandle@?$CHandleList@PEAUHDC__@@VCDCMTL@@PEAUHWND__@@@@QEAAPEAVCDCMTL@@QEAUHDC__@@PEAV2@QEAUHWND__@@Q6APEAXPEAX3@Z@Z 000000014004a6e0     Shapesvw.obj
 0002:0000b6f0       $chain$1$?FromHandle@?$CHandleList@PEAUHMENU__@@VCMenuMTL@@PEAUHWND__@@@@QEAAPEAVCMenuMTL@@QEAUHMENU__@@PEAV2@QEAUHWND__@@Q6APEAXPEAX3@Z@Z 000000014004a6f0     Colorpge.obj
 0002:0000b6f0       $chain$1$?FromHandle@?$CHandleList@PEAUHDC__@@VCDCMTL@@PEAUHWND__@@@@QEAAPEAVCDCMTL@@QEAUHDC__@@PEAV2@QEAUHWND__@@Q6APEAXPEAX3@Z@Z 000000014004a6f0     Shapesvw.obj
 0002:0000b6f0       $chain$1$?FromHandle@?$CHandleList@PEAXVCGdiObject@@PEAUHWND__@@@@QEAAPEAVCGdiObject@@QEAXPEAV2@QEAUHWND__@@Q6APEAXPEAX3@Z@Z 000000014004a6f0     Preview.obj
 0002:0000b708       $chain$2$?FromHandle@?$CHandleList@PEAUHMENU__@@VCMenuMTL@@PEAUHWND__@@@@QEAAPEAVCMenuMTL@@QEAUHMENU__@@PEAV2@QEAUHWND__@@Q6APEAXPEAX3@Z@Z 000000014004a708     Colorpge.obj
 0002:0000b708       $chain$2$?FromHandle@?$CHandleList@PEAUHDC__@@VCDCMTL@@PEAUHWND__@@@@QEAAPEAVCDCMTL@@QEAUHDC__@@PEAV2@QEAUHWND__@@Q6APEAXPEAX3@Z@Z 000000014004a708     Shapesvw.obj
 0002:0000b708       $chain$2$?FromHandle@?$CHandleList@PEAXVCGdiObject@@PEAUHWND__@@@@QEAAPEAVCGdiObject@@QEAXPEAV2@QEAUHWND__@@Q6APEAXPEAX3@Z@Z 000000014004a708     Preview.obj
 0002:0000b718       $chain$3$?FromHandle@?$CHandleList@PEAXVCGdiObject@@PEAUHWND__@@@@QEAAPEAVCGdiObject@@QEAXPEAV2@QEAUHWND__@@Q6APEAXPEAX3@Z@Z 000000014004a718     Preview.obj
 0002:0000b718       $chain$3$?FromHandle@?$CHandleList@PEAUHMENU__@@VCMenuMTL@@PEAUHWND__@@@@QEAAPEAVCMenuMTL@@QEAUHMENU__@@PEAV2@QEAUHWND__@@Q6APEAXPEAX3@Z@Z 000000014004a718     Colorpge.obj
 0002:0000b718       $chain$3$?FromHandle@?$CHandleList@PEAUHDC__@@VCDCMTL@@PEAUHWND__@@@@QEAAPEAVCDCMTL@@QEAUHDC__@@PEAV2@QEAUHWND__@@Q6APEAXPEAX3@Z@Z 000000014004a718     Shapesvw.obj
 0002:0000b730       $unwind$?CanCloseFrame@CDocument@@QEAAHPEAVCFrameWnd@@@Z 000000014004a730     Mainfrm.obj
 0002:0000b730       $unwind$?_AfxTopChildWindowFromPoint@CWnd@@SAPEAUHWND__@@PEAU2@UtagPOINT@@@Z 000000014004a730     Colorpge.obj
 0002:0000b730       $unwind$?ScrollToDevicePosition@CScrollView@@QEAAXUtagPOINT@@@Z 000000014004a730     Shapesvw.obj
 0002:0000b740       $chain$0$?OnToolHitTest@CWnd@@UEBA_JVCPoint@WTL@@PEAUtagTOOLINFOW@@@Z 000000014004a740     Colorpge.obj
 0002:0000b754       $chain$1$?OnToolHitTest@CWnd@@UEBA_JVCPoint@WTL@@PEAUtagTOOLINFOW@@@Z 000000014004a754     Colorpge.obj
 0002:0000b764       $unwind$?Create@CWnd@@UEAAHPEB_W0KAEBUtagRECT@@PEAV1@IPEAUCCreateContext@@@Z 000000014004a764     Colorpge.obj
 0002:0000b764       $unwind$?CreateEx@CMiniFrameWnd@@UEAAHKPEB_W0KAEBUtagRECT@@PEAVCWnd@@I@Z 000000014004a764     Mainfrm.obj
 0002:0000b77c       $unwind$?Enable@CCmdUI@@UEAAXH@Z 000000014004a77c     Colorpge.obj
 0002:0000b788       $chain$0$?Enable@CCmdUI@@UEAAXH@Z 000000014004a788     Colorpge.obj
 0002:0000b79c       $chain$1$?Enable@CCmdUI@@UEAAXH@Z 000000014004a79c     Colorpge.obj
 0002:0000b7ac       $unwind$?AfxSetWindowText@CAfx@@SAXPEAUHWND__@@PEB_W@Z 000000014004a7ac     Colorpge.obj
 0002:0000b7c0       $unwind$?OnCommand@CWnd@@UEAAH_K_J@Z 000000014004a7c0     Colorpge.obj
 0002:0000b7d4       $unwind$?OnNotify@CWnd@@UEAAH_K_JPEA_J@Z 000000014004a7d4     Colorpge.obj
 0002:0000b7ec       $unwind$?ReflectChildNotify@CWnd@@QEAAHI_K_JPEA_J@Z 000000014004a7ec     Colorpge.obj
 0002:0000b7ec       $unwind$?DoModal@CPropertySheetMTL@@UEAA_JXZ 000000014004a7ec     Propsht.obj
 0002:0000b7f4       $chain$0$?ReflectChildNotify@CWnd@@QEAAHI_K_JPEA_J@Z 000000014004a7f4     Colorpge.obj
 0002:0000b808       $chain$1$?ReflectChildNotify@CWnd@@QEAAHI_K_JPEA_J@Z 000000014004a808     Colorpge.obj
 0002:0000b818       $unwind$?Create@CDockBar@@QEAAHPEAVCWnd@@KI@Z 000000014004a818     Mainfrm.obj
 0002:0000b818       $unwind$__crtLCMapStringA  000000014004a818     LIBCMT:a_map.obj
 0002:0000b818       $unwind$?OnNcDestroy@CWnd@@QEAAXXZ 000000014004a818     Colorpge.obj
 0002:0000b828       $unwind$?_ProcessWindowMessage@CWnd@@UEAAHPEAUHWND__@@I_K_JAEA_J@Z 000000014004a828     Colorpge.obj
 0002:0000b844       $stateUnwindMap$?_ProcessWindowMessage@CWnd@@UEAAHPEAUHWND__@@I_K_JAEA_J@Z 000000014004a844     Colorpge.obj
 0002:0000b844       $stateUnwindMap$?_ProcessWindowMessage@CScrollView@@UEAAHPEAUHWND__@@I_K_JAEA_J@Z 000000014004a844     Stdafx.obj
 0002:0000b844       $stateUnwindMap$?_ProcessWindowMessage@CPreviewView@@UEAAHPEAUHWND__@@I_K_JAEA_J@Z 000000014004a844     Stdafx.obj
 0002:0000b850       $ip2state$?_ProcessWindowMessage@CWnd@@UEAAHPEAUHWND__@@I_K_JAEA_J@Z 000000014004a850     Colorpge.obj
 0002:0000b868       $unwind$?WindowProc@CWnd@@UEAA_JI_K_J@Z 000000014004a868     Colorpge.obj
 0002:0000b868       $unwind$?_WindowProc@CCommonWnd@@UEAAHPEAUHWND__@@I_K_JAEA_J@Z 000000014004a868     Propdlg.obj
 0002:0000b868       $unwind$?WindowProc@_AFX_MOUSEANCHORWND@@UEAA_JI_K_J@Z 000000014004a868     Stdafx.obj
 0002:0000b87c       $unwind$??0CTime@@QEAA@AEBU_FILETIME@@H@Z 000000014004a87c     Shapedoc.obj
 0002:0000b87c       $unwind$?AfxWindowProc@CWnd@@SA_JPEAUHWND__@@I_K_J@Z 000000014004a87c     Colorpge.obj
 0002:0000b87c       $unwind$?_AfxAbortProc@CPrintingDialog@@SAHPEAUHDC__@@H@Z 000000014004a87c     Shapesvw.obj
 0002:0000b884       $unwind$?FromHandle@?$CHandleHashList@PEAUHWND__@@VCWMHnd@@PEAU1@$0BB@@@QEAAPEAVCWMHnd@@QEAUHWND__@@PEAV2@0Q6APEAXPEAX2@Z@Z 000000014004a884     Colorpge.obj
 0002:0000b894       $chain$1$?FromHandle@?$CHandleHashList@PEAUHWND__@@VCWMHnd@@PEAU1@$0BB@@@QEAAPEAVCWMHnd@@QEAUHWND__@@PEAV2@0Q6APEAXPEAX2@Z@Z 000000014004a894     Colorpge.obj
 0002:0000b8ac       $chain$2$?FromHandle@?$CHandleHashList@PEAUHWND__@@VCWMHnd@@PEAU1@$0BB@@@QEAAPEAVCWMHnd@@QEAUHWND__@@PEAV2@0Q6APEAXPEAX2@Z@Z 000000014004a8ac     Colorpge.obj
 0002:0000b8bc       $chain$3$?FromHandle@?$CHandleHashList@PEAUHWND__@@VCWMHnd@@PEAU1@$0BB@@@QEAAPEAVCWMHnd@@QEAUHWND__@@PEAV2@0Q6APEAXPEAX2@Z@Z 000000014004a8bc     Colorpge.obj
 0002:0000b8d4       $chain$4$?FromHandle@?$CHandleHashList@PEAUHWND__@@VCWMHnd@@PEAU1@$0BB@@@QEAAPEAVCWMHnd@@QEAUHWND__@@PEAV2@0Q6APEAXPEAX2@Z@Z 000000014004a8d4     Colorpge.obj
 0002:0000b8e8       $chain$5$?FromHandle@?$CHandleHashList@PEAUHWND__@@VCWMHnd@@PEAU1@$0BB@@@QEAAPEAVCWMHnd@@QEAUHWND__@@PEAV2@0Q6APEAXPEAX2@Z@Z 000000014004a8e8     Colorpge.obj
 0002:0000b8f8       $unwind$?AfxSubclassWindow@CWnd@@QEAAHPEAUHWND__@@PEAUtagCREATESTRUCTW@@@Z 000000014004a8f8     Colorpge.obj
 0002:0000b908       $chain$0$?AfxSubclassWindow@CWnd@@QEAAHPEAUHWND__@@PEAUtagCREATESTRUCTW@@@Z 000000014004a908     Colorpge.obj
 0002:0000b91c       $chain$1$?AfxSubclassWindow@CWnd@@QEAAHPEAUHWND__@@PEAUtagCREATESTRUCTW@@@Z 000000014004a91c     Colorpge.obj
 0002:0000b92c       $unwind$?CreateEx@CWnd@@UEAAHKPEB_W0KHHHHPEAUHWND__@@PEAUHMENU__@@PEAX@Z 000000014004a92c     Colorpge.obj
 0002:0000b940       $chain$1$?CreateEx@CWnd@@UEAAHKPEB_W0KHHHHPEAUHWND__@@PEAUHMENU__@@PEAX@Z 000000014004a940     Colorpge.obj
 0002:0000b954       $chain$2$?CreateEx@CWnd@@UEAAHKPEB_W0KHHHHPEAUHWND__@@PEAUHMENU__@@PEAX@Z 000000014004a954     Colorpge.obj
 0002:0000b964       $unwind$??1?$CList@PEAUHWND__@@PEAU1@@@QEAA@XZ 000000014004a964     Mainfrm.obj
 0002:0000b964       $unwind$?OnCreate@CMainFrame@@QEAAHPEAUtagCREATESTRUCTW@@@Z 000000014004a964     Mainfrm.obj
 0002:0000b964       $unwind$?AfxPropSheetCallback@CPropertySheetMTL@@SAHPEAUHWND__@@I_J@Z 000000014004a964     Propsht.obj
 0002:0000b964       $unwind$??1CModuleThreadState@@QEAA@XZ 000000014004a964     Propdlg.obj
 0002:0000b964       $unwind$??1CMultiDocTemplate@@UEAA@XZ 000000014004a964     Propdlg.obj
 0002:0000b964       $unwind$??1?$CList@PEAVCFrameWnd@@AEBQEAV1@@@QEAA@XZ 000000014004a964     Propdlg.obj
 0002:0000b964       $unwind$??1?$CList@PEAXPEAX@@QEAA@XZ 000000014004a964     Mainfrm.obj
 0002:0000b964       $unwind$??1?$CList@PEAUCRuntimeClass@@AEBQEAU1@@@QEAA@XZ 000000014004a964     Colorpge.obj
 0002:0000b964       $unwind$?LoadTemplate@CMultiDocTemplate@@UEAAXXZ 000000014004a964     Propdlg.obj
 0002:0000b96c       $chain$0$??1?$CList@PEAXPEAX@@QEAA@XZ 000000014004a96c     Mainfrm.obj
 0002:0000b96c       $chain$0$??1?$CList@PEAVCFrameWnd@@AEBQEAV1@@@QEAA@XZ 000000014004a96c     Propdlg.obj
 0002:0000b96c       $chain$0$??1?$CList@PEAUCRuntimeClass@@AEBQEAU1@@@QEAA@XZ 000000014004a96c     Colorpge.obj
 0002:0000b96c       $chain$0$??1?$CList@PEAUHWND__@@PEAU1@@@QEAA@XZ 000000014004a96c     Mainfrm.obj
 0002:0000b980       $chain$1$??1?$CList@PEAUCRuntimeClass@@AEBQEAU1@@@QEAA@XZ 000000014004a980     Colorpge.obj
 0002:0000b980       $chain$1$??1?$CList@PEAVCFrameWnd@@AEBQEAV1@@@QEAA@XZ 000000014004a980     Propdlg.obj
 0002:0000b980       $chain$1$??1?$CList@PEAUHWND__@@PEAU1@@@QEAA@XZ 000000014004a980     Mainfrm.obj
 0002:0000b980       $chain$1$??1?$CList@PEAXPEAX@@QEAA@XZ 000000014004a980     Mainfrm.obj
 0002:0000b990       $unwind$??1CModuleState@@QEAA@XZ 000000014004a990     Colorpge.obj
 0002:0000b9a0       $stateUnwindMap$??1CModuleState@@QEAA@XZ 000000014004a9a0     Colorpge.obj
 0002:0000b9a8       $ip2state$??1CModuleState@@QEAA@XZ 000000014004a9a8     Colorpge.obj
 0002:0000b9c0       $unwind$?AllocBuffer@CString@WTL@@IEAAHH@Z 000000014004a9c0     Colorpge.obj
 0002:0000b9d4       $stateUnwindMap$?EnsureSchemaMapExists@CArchive@@QEAAXPEAPEAV?$CArray@W4LoadArrayObjType@CArchive@@AEBW412@@@@Z 000000014004a9d4     Shapedoc.obj
 0002:0000b9d4       $stateUnwindMap$?OnFilePrintPreview@CView@@QEAAXXZ 000000014004a9d4     Shapesvw.obj
 0002:0000b9d4       $stateUnwindMap$?ReadObject@CArchive@@QEAAPEAVCObject@@PEBUCRuntimeClass@@@Z 000000014004a9d4     Shapedoc.obj
 0002:0000b9d4       $stateUnwindMap$?AllocBuffer@CString@WTL@@IEAAHH@Z 000000014004a9d4     Colorpge.obj
 0002:0000b9e4       $tryMap$?AllocBuffer@CString@WTL@@IEAAHH@Z 000000014004a9e4     Colorpge.obj
 0002:0000b9f8       $handlerMap$0$?AllocBuffer@CString@WTL@@IEAAHH@Z 000000014004a9f8     Colorpge.obj
 0002:0000ba10       $ip2state$?AllocBuffer@CString@WTL@@IEAAHH@Z 000000014004aa10     Colorpge.obj
 0002:0000ba30       $unwind$?catch$0@?0??AllocBuffer@CString@WTL@@IEAAHH@Z@4HA 000000014004aa30     Colorpge.obj
 0002:0000ba40       $unwind$?ConcatCopy@CString@WTL@@IEAAHHPEB_WH0@Z 000000014004aa40     Colorpge.obj
 0002:0000ba54       $chain$0$?ConcatCopy@CString@WTL@@IEAAHHPEB_WH0@Z 000000014004aa54     Colorpge.obj
 0002:0000ba68       $chain$1$?ConcatCopy@CString@WTL@@IEAAHHPEB_WH0@Z 000000014004aa68     Colorpge.obj
 0002:0000ba7c       $chain$2$?ConcatCopy@CString@WTL@@IEAAHHPEB_WH0@Z 000000014004aa7c     Colorpge.obj
 0002:0000ba8c       $chain$3$?ConcatCopy@CString@WTL@@IEAAHHPEB_WH0@Z 000000014004aa8c     Colorpge.obj
 0002:0000ba9c       $unwind$?OnUpdateMDIWindowCmd@CMDIFrameWnd@@QEAAXPEAVCCmdUI@@@Z 000000014004aa9c     Mainfrm.obj
 0002:0000ba9c       $unwind$_strdup            000000014004aa9c     LIBCMT:strdup.obj
 0002:0000ba9c       $unwind$?ProcessShellCommand@CWinApp@@QEAAHAEAVCCommandLineInfo@@@Z 000000014004aa9c     Propdlg.obj
 0002:0000ba9c       $unwind$?IsTopParentActive@CWnd@@QEAAHXZ 000000014004aa9c     Mainfrm.obj
 0002:0000ba9c       $unwind$?ConcatInPlace@CString@WTL@@IEAAXHPEB_W@Z 000000014004aa9c     Colorpge.obj
 0002:0000ba9c       $unwind$_wcsdup            000000014004aa9c     LIBCMT:wcsdup.obj
 0002:0000ba9c       $unwind$?SelectStockObject@CPreviewDC@@QEAAPEAVCGdiObject@@H@Z 000000014004aa9c     Shapesvw.obj
 0002:0000ba9c       $unwind$?SelectObject@CDCMTL@@QEAAPEAVCBrushMTL@@PEAV2@@Z 000000014004aa9c     Shapeobj.obj
 0002:0000ba9c       $unwind$?SelectObject@CDCMTL@@QEAAPEAVCPenMTL@@PEAV2@@Z 000000014004aa9c     Shapeobj.obj
 0002:0000baac       $unwind$?_AfxRegisterClass@CAfx@@SAHPEAUtagWNDCLASSW@@@Z 000000014004aaac     Colorpge.obj
 0002:0000bab4       $chain$0$?_AfxRegisterClass@CAfx@@SAHPEAUtagWNDCLASSW@@@Z 000000014004aab4     Colorpge.obj
 0002:0000bac8       $chain$1$?_AfxRegisterClass@CAfx@@SAHPEAUtagWNDCLASSW@@@Z 000000014004aac8     Colorpge.obj
 0002:0000bad8       $unwind$?_AfxEndDeferRegisterClass@CAfx@@SAHJ@Z 000000014004aad8     Colorpge.obj
 0002:0000baec       $chain$2$?_AfxEndDeferRegisterClass@CAfx@@SAHJ@Z 000000014004aaec     Colorpge.obj
 0002:0000bb00       $chain$3$?_AfxEndDeferRegisterClass@CAfx@@SAHJ@Z 000000014004ab00     Colorpge.obj
 0002:0000bb10       $unwind$?RemoveOwner@?$CHandleHashList@PEAUHWND__@@VCWMHnd@@PEAU1@$0BB@@@QEAAHQEAUHWND__@@@Z 000000014004ab10     Colorpge.obj
 0002:0000bb10       $unwind$?SetScrollSizes@CScrollView@@QEAAXHUtagSIZE@@AEBU2@1@Z 000000014004ab10     Shapesvw.obj
 0002:0000bb2c       $unwind$?RemoveOwner@?$CHandleList@PEAUHDC__@@VCDCMTL@@PEAUHWND__@@@@QEAAHQEAUHWND__@@@Z 000000014004ab2c     Colorpge.obj
 0002:0000bb2c       $unwind$?RemoveOwner@?$CHandleList@PEAXXPEAUHWND__@@@@QEAAHQEAUHWND__@@@Z 000000014004ab2c     Colorpge.obj
 0002:0000bb2c       $unwind$?RemoveOwner@?$CHandleList@PEAUHMENU__@@VCMenuMTL@@PEAUHWND__@@@@QEAAHQEAUHWND__@@@Z 000000014004ab2c     Colorpge.obj
 0002:0000bb2c       $unwind$?RemoveOwner@?$CHandleList@PEAXVCGdiObject@@PEAUHWND__@@@@QEAAHQEAUHWND__@@@Z 000000014004ab2c     Colorpge.obj
 0002:0000bb3c       $chain$1$?RemoveOwner@?$CHandleList@PEAXVCGdiObject@@PEAUHWND__@@@@QEAAHQEAUHWND__@@@Z 000000014004ab3c     Colorpge.obj
 0002:0000bb3c       $chain$1$?RemoveOwner@?$CHandleList@PEAUHDC__@@VCDCMTL@@PEAUHWND__@@@@QEAAHQEAUHWND__@@@Z 000000014004ab3c     Colorpge.obj
 0002:0000bb3c       $chain$1$?RemoveOwner@?$CHandleList@PEAUHMENU__@@VCMenuMTL@@PEAUHWND__@@@@QEAAHQEAUHWND__@@@Z 000000014004ab3c     Colorpge.obj
 0002:0000bb3c       $chain$1$?RemoveOwner@?$CHandleList@PEAXXPEAUHWND__@@@@QEAAHQEAUHWND__@@@Z 000000014004ab3c     Colorpge.obj
 0002:0000bb54       $chain$2$?RemoveOwner@?$CHandleList@PEAXVCGdiObject@@PEAUHWND__@@@@QEAAHQEAUHWND__@@@Z 000000014004ab54     Colorpge.obj
 0002:0000bb54       $chain$2$?RemoveOwner@?$CHandleList@PEAUHMENU__@@VCMenuMTL@@PEAUHWND__@@@@QEAAHQEAUHWND__@@@Z 000000014004ab54     Colorpge.obj
 0002:0000bb54       $chain$2$?RemoveOwner@?$CHandleList@PEAXXPEAUHWND__@@@@QEAAHQEAUHWND__@@@Z 000000014004ab54     Colorpge.obj
 0002:0000bb54       $chain$2$?RemoveOwner@?$CHandleList@PEAUHDC__@@VCDCMTL@@PEAUHWND__@@@@QEAAHQEAUHWND__@@@Z 000000014004ab54     Colorpge.obj
 0002:0000bb64       $unwind$?RemoveHandleWnd@CWinApp@@QEAAPEAUHWND__@@PEAU2@@Z 000000014004ab64     Colorpge.obj
 0002:0000bb74       $unwind$?OnCmdMsg@CCmdTarget@@UEAAHIHPEAXPEAUAFX_CMDHANDLERINFO@@@Z 000000014004ab74     Colorpge.obj
 0002:0000bb7c       $chain$0$?OnCmdMsg@CCmdTarget@@UEAAHIHPEAXPEAUAFX_CMDHANDLERINFO@@@Z 000000014004ab7c     Colorpge.obj
 0002:0000bb90       $chain$1$?OnCmdMsg@CCmdTarget@@UEAAHIHPEAXPEAUAFX_CMDHANDLERINFO@@@Z 000000014004ab90     Colorpge.obj
 0002:0000bba0       $unwind$??0CPropertyPageMTL@@QEAA@IIK@Z 000000014004aba0     Colorpge.obj
 0002:0000bbb4       $stateUnwindMap$??0CPropertyPageMTL@@QEAA@IIK@Z 000000014004abb4     Colorpge.obj
 0002:0000bbd8       $ip2state$??0CPropertyPageMTL@@QEAA@IIK@Z 000000014004abd8     Colorpge.obj
 0002:0000bc08       $unwind$?_ProcessWindowMessage@CMainFrame@@UEAAHPEAUHWND__@@I_K_JAEA_J@Z 000000014004ac08     Mainfrm.obj
 0002:0000bc24       $unwind$??0CMainFrame@@QEAA@XZ 000000014004ac24     Mainfrm.obj
 0002:0000bc3c       $stateUnwindMap$??0CMainFrame@@QEAA@XZ 000000014004ac3c     Mainfrm.obj
 0002:0000bc50       $ip2state$??0CMainFrame@@QEAA@XZ 000000014004ac50     Mainfrm.obj
 0002:0000bc70       $unwind$??1CMainFrame@@UEAA@XZ 000000014004ac70     Mainfrm.obj
 0002:0000bc88       $stateUnwindMap$??1CMainFrame@@UEAA@XZ 000000014004ac88     Mainfrm.obj
 0002:0000bcd0       $ip2state$??1CMainFrame@@UEAA@XZ 000000014004acd0     Mainfrm.obj
 0002:0000bd40       $chain$0$?OnCreate@CMainFrame@@QEAAHPEAUtagCREATESTRUCTW@@@Z 000000014004ad40     Mainfrm.obj
 0002:0000bd54       $chain$2$?OnCreate@CMainFrame@@QEAAHPEAUtagCREATESTRUCTW@@@Z 000000014004ad54     Mainfrm.obj
 0002:0000bd68       $unwind$?OnMiniFramePropertySheet@CMainFrame@@QEAAXXZ 000000014004ad68     Mainfrm.obj
 0002:0000bd80       $stateUnwindMap$?OnMiniFramePropertySheet@CMainFrame@@QEAAXXZ 000000014004ad80     Mainfrm.obj
 0002:0000bd90       $ip2state$?OnMiniFramePropertySheet@CMainFrame@@QEAAXXZ 000000014004ad90     Mainfrm.obj
 0002:0000bdc8       $unwind$?AllocElements@CStatusBar@@QEAAHHH@Z 000000014004adc8     Mainfrm.obj
 0002:0000bdd8       $chain$0$?AllocElements@CStatusBar@@QEAAHHH@Z 000000014004add8     Mainfrm.obj
 0002:0000bdec       $chain$1$?AllocElements@CStatusBar@@QEAAHHH@Z 000000014004adec     Mainfrm.obj
 0002:0000be00       $chain$2$?AllocElements@CStatusBar@@QEAAHHH@Z 000000014004ae00     Mainfrm.obj
 0002:0000be10       $chain$3$?AllocElements@CStatusBar@@QEAAHHH@Z 000000014004ae10     Mainfrm.obj
 0002:0000be20       $unwind$?SetIndicators@CStatusBar@@QEAAHPEBIH@Z 000000014004ae20     Mainfrm.obj
 0002:0000be40       $stateUnwindMap$?SetIndicators@CStatusBar@@QEAAHPEBIH@Z 000000014004ae40     Mainfrm.obj
 0002:0000be48       $ip2state$?SetIndicators@CStatusBar@@QEAAHPEBIH@Z 000000014004ae48     Mainfrm.obj
 0002:0000be60       $unwind$?SetButtons@CToolBar@@QEAAHPEBIH@Z 000000014004ae60     Mainfrm.obj
 0002:0000be78       $unwind$?AfxLoadSysColorBitmap@@YAPEAUHBITMAP__@@PEAUHINSTANCE__@@PEAUHRSRC__@@H@Z 000000014004ae78     Mainfrm.obj
 0002:0000be78       $unwind$__crtGetShowWindowMode 000000014004ae78     LIBCMT:winapisupp.obj
 0002:0000be80       $chain$2$?AfxLoadSysColorBitmap@@YAPEAUHBITMAP__@@PEAUHINSTANCE__@@PEAUHRSRC__@@H@Z 000000014004ae80     Mainfrm.obj
 0002:0000be9c       $chain$9$?AfxLoadSysColorBitmap@@YAPEAUHBITMAP__@@PEAUHINSTANCE__@@PEAUHRSRC__@@H@Z 000000014004ae9c     Mainfrm.obj
 0002:0000becc       $chain$10$?AfxLoadSysColorBitmap@@YAPEAUHBITMAP__@@PEAUHINSTANCE__@@PEAUHRSRC__@@H@Z 000000014004aecc     Mainfrm.obj
 0002:0000bee0       $unwind$?AddReplaceBitmap@CToolBar@@QEAAHPEAUHBITMAP__@@@Z 000000014004aee0     Mainfrm.obj
 0002:0000bef0       $unwind$?_GetEstablisherFrame@@YAPEA_KPEA_KPEAU_xDISPATCHER_CONTEXT@@PEBU_s_FuncInfo@@0@Z 000000014004aef0     LIBCMT:trnsctrl.obj
 0002:0000bef0       $unwind$?OnSetSizeHelper@CToolBar@@QEAA_JAEAVCSize@WTL@@_J@Z 000000014004aef0     Mainfrm.obj
 0002:0000bef0       $unwind$?OnScroll@CScrollView@@UEAAHIIH@Z 000000014004aef0     Stdafx.obj
 0002:0000bf08       $unwind$?OnPreserveSizingPolicyHelper@CToolBar@@QEAA_J_K_J@Z 000000014004af08     Mainfrm.obj
 0002:0000bf20       $chain$0$?OnPreserveSizingPolicyHelper@CToolBar@@QEAA_J_K_J@Z 000000014004af20     Mainfrm.obj
 0002:0000bf34       $chain$1$?OnPreserveSizingPolicyHelper@CToolBar@@QEAA_J_K_J@Z 000000014004af34     Mainfrm.obj
 0002:0000bf44       $unwind$??_GCControlBar@@UEAAPEAXI@Z 000000014004af44     Mainfrm.obj
 0002:0000bf44       $unwind$??_GCToolBar@@UEAAPEAXI@Z 000000014004af44     Mainfrm.obj
 0002:0000bf44       $unwind$??_GCStatusBar@@UEAAPEAXI@Z 000000014004af44     Mainfrm.obj
 0002:0000bf58       $stateUnwindMap$??_GCStatusBar@@UEAAPEAXI@Z 000000014004af58     Mainfrm.obj
 0002:0000bf58       $stateUnwindMap$??1CView@@UEAA@XZ 000000014004af58     Shapesvw.obj
 0002:0000bf58       $stateUnwindMap$??_GCControlBar@@UEAAPEAXI@Z 000000014004af58     Mainfrm.obj
 0002:0000bf58       $stateUnwindMap$??_GCToolBar@@UEAAPEAXI@Z 000000014004af58     Mainfrm.obj
 0002:0000bf58       $stateUnwindMap$??1CControlBar@@UEAA@XZ 000000014004af58     Mainfrm.obj
 0002:0000bf58       $stateUnwindMap$??_GCShapesView@@UEAAPEAXI@Z 000000014004af58     Shapesvw.obj
 0002:0000bf58       $stateUnwindMap$??1CStatusBar@@UEAA@XZ 000000014004af58     Mainfrm.obj
 0002:0000bf58       $stateUnwindMap$??_GCView@@UEAAPEAXI@Z 000000014004af58     Shapesvw.obj
 0002:0000bf70       $ip2state$??_GCStatusBar@@UEAAPEAXI@Z 000000014004af70     Mainfrm.obj
 0002:0000bf70       $ip2state$??_GCControlBar@@UEAAPEAXI@Z 000000014004af70     Mainfrm.obj
 0002:0000bf70       $ip2state$??_GCToolBar@@UEAAPEAXI@Z 000000014004af70     Mainfrm.obj
 0002:0000bfa0       $unwind$?OnToolHitTest@CToolBar@@UEBA_JVCPoint@WTL@@PEAUtagTOOLINFOW@@@Z 000000014004afa0     Mainfrm.obj
 0002:0000bfac       $chain$2$?OnToolHitTest@CToolBar@@UEBA_JVCPoint@WTL@@PEAUtagTOOLINFOW@@@Z 000000014004afac     Mainfrm.obj
 0002:0000bfc8       $chain$3$?OnToolHitTest@CToolBar@@UEBA_JVCPoint@WTL@@PEAUtagTOOLINFOW@@@Z 000000014004afc8     Mainfrm.obj
 0002:0000bfd8       $chain$4$?OnToolHitTest@CToolBar@@UEBA_JVCPoint@WTL@@PEAUtagTOOLINFOW@@@Z 000000014004afd8     Mainfrm.obj
 0002:0000bff4       $unwind$?getSystemCP@@YAHH@Z 000000014004aff4     LIBCMT:mbctype.obj
 0002:0000bff4       $unwind$?_ProcessWindowMessage@CMiniFrameWnd@@UEAAHPEAUHWND__@@I_K_JAEA_J@Z 000000014004aff4     Minifrm.obj
 0002:0000bff4       $unwind$isleadbyte         000000014004aff4     LIBCMT:_wctype.obj
 0002:0000bff4       $unwind$_isleadbyte_l      000000014004aff4     LIBCMT:_wctype.obj
 0002:0000bff4       $unwind$?_ProcessWindowMessage@CControlBar@@UEAAHPEAUHWND__@@I_K_JAEA_J@Z 000000014004aff4     Mainfrm.obj
 0002:0000bff4       $unwind$?FindData@?$CMapList@PEAXPEAXV?$CPair@PEAXPEAX@@$0A@@@QEAAAEAV?$CPair@PEAXPEAX@@QEAXH@Z 000000014004aff4     Shapedoc.obj
 0002:0000bff4       $unwind$?ExitInstance@CWinApp@@UEAAHXZ 000000014004aff4     Propdlg.obj
 0002:0000bff4       $unwind$?OnBarStyleChange@CToolBar@@UEAAXKK@Z 000000014004aff4     Mainfrm.obj
 0002:0000bff4       $unwind$_cropzeros_l       000000014004aff4     LIBCMT:cvt.obj
 0002:0000bff4       $unwind$??2@YAPEAX_K@Z     000000014004aff4     LIBCMT:new.obj
 0002:0000bff4       $unwind$_forcdecpt_l       000000014004aff4     LIBCMT:cvt.obj
 0002:0000bff4       $unwind$isdigit            000000014004aff4     LIBCMT:_ctype.obj
 0002:0000bffc       $unwind$?OnUpdateCmdUI@CToolBar@@UEAAXPEAVCFrameWnd@@H@Z 000000014004affc     Mainfrm.obj
 0002:0000c010       $chain$0$?OnUpdateCmdUI@CToolBar@@UEAAXPEAVCFrameWnd@@H@Z 000000014004b010     Mainfrm.obj
 0002:0000c024       $chain$1$?OnUpdateCmdUI@CToolBar@@UEAAXPEAVCFrameWnd@@H@Z 000000014004b024     Mainfrm.obj
 0002:0000c034       $unwind$?WrapToolBar@CToolBar@@QEAAHPEAU_TBBUTTON@@HH@Z 000000014004b034     Mainfrm.obj
 0002:0000c04c       $unwind$?SizeToolBar@CToolBar@@QEAAXPEAU_TBBUTTON@@HHH@Z 000000014004b04c     Mainfrm.obj
 0002:0000c064       $chain$0$?SizeToolBar@CToolBar@@QEAAXPEAU_TBBUTTON@@HHH@Z 000000014004b064     Mainfrm.obj
 0002:0000c078       $chain$1$?SizeToolBar@CToolBar@@QEAAXPEAU_TBBUTTON@@HHH@Z 000000014004b078     Mainfrm.obj
 0002:0000c088       $unwind$?CalcSize@CToolBar@@QEAA?AVCSize@WTL@@PEAU_TBBUTTON@@H@Z 000000014004b088     Mainfrm.obj
 0002:0000c09c       $chain$1$?CalcSize@CToolBar@@QEAA?AVCSize@WTL@@PEAU_TBBUTTON@@H@Z 000000014004b09c     Mainfrm.obj
 0002:0000c0b4       $chain$2$?CalcSize@CToolBar@@QEAA?AVCSize@WTL@@PEAU_TBBUTTON@@H@Z 000000014004b0b4     Mainfrm.obj
 0002:0000c0c4       $unwind$?_SetButton@CToolBar@@QEAAXHPEAU_TBBUTTON@@@Z 000000014004b0c4     Mainfrm.obj
 0002:0000c0d4       $chain$1$?_SetButton@CToolBar@@QEAAXHPEAU_TBBUTTON@@@Z 000000014004b0d4     Mainfrm.obj
 0002:0000c0ec       $chain$2$?_SetButton@CToolBar@@QEAAXHPEAU_TBBUTTON@@@Z 000000014004b0ec     Mainfrm.obj
 0002:0000c0fc       $unwind$?CalcLayout@CToolBar@@QEAA?AVCSize@WTL@@KH@Z 000000014004b0fc     Mainfrm.obj
 0002:0000c118       $unwind$?Create@CMiniFrameWnd@@UEAAHPEB_W0KAEBUtagRECT@@PEAVCWnd@@I@Z 000000014004b118     Minifrm.obj
 0002:0000c118       $unwind$_cfltcvt           000000014004b118     LIBCMT:cvt.obj
 0002:0000c118       $unwind$?TextOutW@CPreviewDC@@UEAAHHHPEB_WH@Z 000000014004b118     Shapesvw.obj
 0002:0000c118       $unwind$__initconout       000000014004b118     LIBCMT:initcon.obj
 0002:0000c118       $unwind$?OnBarStyleChange@CStatusBar@@UEAAXKK@Z 000000014004b118     Mainfrm.obj
 0002:0000c118       $unwind$?Create@CToolBar@@UEAAHPEAVCWnd@@KI@Z 000000014004b118     Mainfrm.obj
 0002:0000c120       $unwind$?_AfxGetDropDownWidth@CToolBar@@SAHXZ 000000014004b120     Mainfrm.obj
 0002:0000c128       $chain$2$?_AfxGetDropDownWidth@CToolBar@@SAHXZ 000000014004b128     Mainfrm.obj
 0002:0000c144       $chain$3$?_AfxGetDropDownWidth@CToolBar@@SAHXZ 000000014004b144     Mainfrm.obj
 0002:0000c154       $unwind$?OnSetCursor@CPreviewView@@QEAAHPEAVCWnd@@II@Z 000000014004b154     Stdafx.obj
 0002:0000c154       $unwind$?SetSizes@CToolBar@@QEAAXUtagSIZE@@0@Z 000000014004b154     Mainfrm.obj
 0002:0000c15c       $unwind$?CreateEx@CStatusBar@@UEAAHPEAVCWnd@@KKI@Z 000000014004b15c     Mainfrm.obj
 0002:0000c15c       $unwind$?CreateEx@CToolBar@@UEAAHPEAVCWnd@@KKVCRect@WTL@@I@Z 000000014004b15c     Mainfrm.obj
 0002:0000c170       $unwind$??1CStatusBar@@UEAA@XZ 000000014004b170     Mainfrm.obj
 0002:0000c170       $unwind$??1CControlBar@@UEAA@XZ 000000014004b170     Mainfrm.obj
 0002:0000c180       $ip2state$??1CStatusBar@@UEAA@XZ 000000014004b180     Mainfrm.obj
 0002:0000c180       $ip2state$??1CControlBar@@UEAA@XZ 000000014004b180     Mainfrm.obj
 0002:0000c1b0       $unwind$??0CControlBar@@QEAA@XZ 000000014004b1b0     Mainfrm.obj
 0002:0000c1c4       $stateUnwindMap$??0CControlBar@@QEAA@XZ 000000014004b1c4     Mainfrm.obj
 0002:0000c1d0       $ip2state$??0CControlBar@@QEAA@XZ 000000014004b1d0     Mainfrm.obj
 0002:0000c1e8       $unwind$?OnGetText@CStatusBar@@QEAAHHPEA_W@Z 000000014004b1e8     Mainfrm.obj
 0002:0000c1f8       $unwind$?DrawBorders@CControlBar@@QEAAXPEAVCDCMTL@@AEAVCRect@WTL@@@Z 000000014004b1f8     Mainfrm.obj
 0002:0000c208       $chain$4$?DrawBorders@CControlBar@@QEAAXPEAVCDCMTL@@AEAVCRect@WTL@@@Z 000000014004b208     Mainfrm.obj
 0002:0000c22c       $chain$5$?DrawBorders@CControlBar@@QEAAXPEAVCDCMTL@@AEAVCRect@WTL@@@Z 000000014004b22c     Mainfrm.obj
 0002:0000c244       $chain$6$?DrawBorders@CControlBar@@QEAAXPEAVCDCMTL@@AEAVCRect@WTL@@@Z 000000014004b244     Mainfrm.obj
 0002:0000c258       $chain$7$?DrawBorders@CControlBar@@QEAAXPEAVCDCMTL@@AEAVCRect@WTL@@@Z 000000014004b258     Mainfrm.obj
 0002:0000c268       $unwind$?FillSolidRect@?$CDCT@$00@WTL@@QEAAXHHHHK@Z 000000014004b268     Mainfrm.obj
 0002:0000c274       $unwind$?Draw3dRect@?$CDCT@$00@WTL@@QEAAXHHHHKK@Z 000000014004b274     Mainfrm.obj
 0002:0000c290       $unwind$?EraseNonClient@CControlBar@@QEAAXXZ 000000014004b290     Mainfrm.obj
 0002:0000c2a8       $unwind$?OnSetText@CStatusBar@@QEAAHPEB_W@Z 000000014004b2a8     Mainfrm.obj
 0002:0000c2b4       $chain$2$?OnSetText@CStatusBar@@QEAAHPEB_W@Z 000000014004b2b4     Mainfrm.obj
 0002:0000c2d0       $chain$4$?OnSetText@CStatusBar@@QEAAHPEB_W@Z 000000014004b2d0     Mainfrm.obj
 0002:0000c2ec       $unwind$?_ProcessWindowMessage@CStatusBar@@UEAAHPEAUHWND__@@I_K_JAEA_J@Z 000000014004b2ec     Mainfrm.obj
 0002:0000c2ec       $unwind$?GetTopLevelFrame@CWnd@@QEAAPEAVCFrameWnd@@XZ 000000014004b2ec     Mainfrm.obj
 0002:0000c2f4       $chain$0$?_ProcessWindowMessage@CStatusBar@@UEAAHPEAUHWND__@@I_K_JAEA_J@Z 000000014004b2f4     Mainfrm.obj
 0002:0000c308       $chain$1$?_ProcessWindowMessage@CStatusBar@@UEAAHPEAUHWND__@@I_K_JAEA_J@Z 000000014004b308     Mainfrm.obj
 0002:0000c318       $unwind$?OnCreate@CControlBar@@QEAAHPEAUtagCREATESTRUCTW@@@Z 000000014004b318     Mainfrm.obj
 0002:0000c324       $chain$1$?OnCreate@CControlBar@@QEAAHPEAUtagCREATESTRUCTW@@@Z 000000014004b324     Mainfrm.obj
 0002:0000c338       $chain$2$?OnCreate@CControlBar@@QEAAHPEAUtagCREATESTRUCTW@@@Z 000000014004b338     Mainfrm.obj
 0002:0000c348       $unwind$?UpdateAllViews@CDocument@@QEAAXPEAVCView@@_JPEAVCObject@@@Z 000000014004b348     Shapedoc.obj
 0002:0000c348       $unwind$__free_lconv_num   000000014004b348     LIBCMT:initnum.obj
 0002:0000c348       $unwind$free               000000014004b348     LIBCMT:free.obj
 0002:0000c348       $unwind$?OnLButtonDown@CControlBar@@QEAAXIVCPoint@WTL@@@Z 000000014004b348     Mainfrm.obj
 0002:0000c350       $unwind$?ReDockControlBar@CDockBar@@QEAAXPEAVCControlBar@@PEBUtagRECT@@@Z 000000014004b350     Mainfrm.obj
 0002:0000c364       $chain$0$?ReDockControlBar@CDockBar@@QEAAXPEAVCControlBar@@PEBUtagRECT@@@Z 000000014004b364     Mainfrm.obj
 0002:0000c378       $chain$1$?ReDockControlBar@CDockBar@@QEAAXPEAVCControlBar@@PEBUtagRECT@@@Z 000000014004b378     Mainfrm.obj
 0002:0000c38c       $chain$2$?ReDockControlBar@CDockBar@@QEAAXPEAVCControlBar@@PEBUtagRECT@@@Z 000000014004b38c     Mainfrm.obj
 0002:0000c39c       $chain$3$?ReDockControlBar@CDockBar@@QEAAXPEAVCControlBar@@PEBUtagRECT@@@Z 000000014004b39c     Mainfrm.obj
 0002:0000c3ac       $unwind$?ReDockControlBar@CFrameWnd@@QEAAXPEAVCControlBar@@PEAVCDockBar@@PEBUtagRECT@@@Z 000000014004b3ac     Mainfrm.obj
 0002:0000c3bc       $chain$3$?ReDockControlBar@CFrameWnd@@QEAAXPEAVCControlBar@@PEAVCDockBar@@PEBUtagRECT@@@Z 000000014004b3bc     Mainfrm.obj
 0002:0000c3dc       $chain$4$?ReDockControlBar@CFrameWnd@@QEAAXPEAVCControlBar@@PEAVCDockBar@@PEBUtagRECT@@@Z 000000014004b3dc     Mainfrm.obj
 0002:0000c3ec       $unwind$?ToggleDocking@CDockContext@@QEAAXXZ 000000014004b3ec     Mainfrm.obj
 0002:0000c3f8       $unwind$?OnTimer@CControlBar@@QEAAX_K@Z 000000014004b3f8     Mainfrm.obj
 0002:0000c404       $chain$5$?OnTimer@CControlBar@@QEAAX_K@Z 000000014004b404     Mainfrm.obj
 0002:0000c42c       $chain$6$?OnTimer@CControlBar@@QEAAX_K@Z 000000014004b42c     Mainfrm.obj
 0002:0000c440       $chain$7$?OnTimer@CControlBar@@QEAAX_K@Z 000000014004b440     Mainfrm.obj
 0002:0000c450       $unwind$?OnSizeParent@CControlBar@@QEAA_J_K_J@Z 000000014004b450     Mainfrm.obj
 0002:0000c45c       $chain$2$?OnSizeParent@CControlBar@@QEAA_J_K_J@Z 000000014004b45c     Mainfrm.obj
 0002:0000c478       $chain$3$?OnSizeParent@CControlBar@@QEAA_J_K_J@Z 000000014004b478     Mainfrm.obj
 0002:0000c488       $unwind$?OnIdleUpdateCmdUI@CControlBar@@QEAA_J_K_J@Z 000000014004b488     Mainfrm.obj
 0002:0000c494       $chain$0$?OnIdleUpdateCmdUI@CControlBar@@QEAA_J_K_J@Z 000000014004b494     Mainfrm.obj
 0002:0000c4a8       $chain$1$?OnIdleUpdateCmdUI@CControlBar@@QEAA_J_K_J@Z 000000014004b4a8     Mainfrm.obj
 0002:0000c4b8       $unwind$?Create@CMiniDockFrameWnd@@QEAAHPEAVCWnd@@K@Z 000000014004b4b8     Mainfrm.obj
 0002:0000c4d8       $stateUnwindMap$?Create@CMiniDockFrameWnd@@QEAAHPEAVCWnd@@K@Z 000000014004b4d8     Mainfrm.obj
 0002:0000c4e0       $ip2state$?Create@CMiniDockFrameWnd@@QEAAHPEAVCWnd@@K@Z 000000014004b4e0     Mainfrm.obj
 0002:0000c4f8       $unwind$?Create@CToolTipCtrlMTL@@QEAAHPEAVCWnd@@K@Z 000000014004b4f8     Mainfrm.obj
 0002:0000c4f8       $unwind$_strnicoll_l       000000014004b4f8     LIBCMT:strnicol.obj
 0002:0000c50c       $unwind$??_GCToolTipCtrlMTL@@UEAAPEAXI@Z 000000014004b50c     Mainfrm.obj
 0002:0000c520       $ip2state$??_GCToolTipCtrlMTL@@UEAAPEAXI@Z 000000014004b520     Mainfrm.obj
 0002:0000c540       $unwind$?_AfxRelayToolTipMessage@CWnd@@SAXPEAVCToolTipCtrlMTL@@PEAUtagMSG@@@Z 000000014004b540     Mainfrm.obj
 0002:0000c54c       $unwind$?FilterToolTipMessage@CWnd@@QEAAXPEAUtagMSG@@@Z 000000014004b54c     Mainfrm.obj
 0002:0000c560       $chain$0$?FilterToolTipMessage@CWnd@@QEAAXPEAUtagMSG@@@Z 000000014004b560     Mainfrm.obj
 0002:0000c574       $chain$5$?FilterToolTipMessage@CWnd@@QEAAXPEAUtagMSG@@@Z 000000014004b574     Mainfrm.obj
 0002:0000c574       $chain$1$?FilterToolTipMessage@CWnd@@QEAAXPEAUtagMSG@@@Z 000000014004b574     Mainfrm.obj
 0002:0000c584       $chain$2$?FilterToolTipMessage@CWnd@@QEAAXPEAUtagMSG@@@Z 000000014004b584     Mainfrm.obj
 0002:0000c598       $chain$3$?FilterToolTipMessage@CWnd@@QEAAXPEAUtagMSG@@@Z 000000014004b598     Mainfrm.obj
 0002:0000c5ac       $chain$4$?FilterToolTipMessage@CWnd@@QEAAXPEAUtagMSG@@@Z 000000014004b5ac     Mainfrm.obj
 0002:0000c5bc       $unwind$?_EnableToolTips@CWnd@@QEAAHHI@Z 000000014004b5bc     Mainfrm.obj
 0002:0000c5c8       $chain$0$?_EnableToolTips@CWnd@@QEAAHHI@Z 000000014004b5c8     Mainfrm.obj
 0002:0000c5dc       $chain$1$?_EnableToolTips@CWnd@@QEAAHHI@Z 000000014004b5dc     Mainfrm.obj
 0002:0000c5ec       $unwind$?InsertAt@?$CArray@W4LoadArrayObjType@CArchive@@AEBW412@@@QEAAX_JAEBW4LoadArrayObjType@CArchive@@0@Z 000000014004b5ec     Shapedoc.obj
 0002:0000c5ec       $unwind$?AllocCopy@CString@WTL@@IEBAHAEAV12@HHH@Z 000000014004b5ec     Propdlg.obj
 0002:0000c5ec       $unwind$?InsertAt@?$CArray@PEAXAEBQEAX@@QEAAX_JAEBQEAX0@Z 000000014004b5ec     Mainfrm.obj
 0002:0000c600       $unwind$?Insert@CDockBar@@QEAAHPEAVCControlBar@@VCRect@WTL@@VCPoint@4@@Z 000000014004b600     Mainfrm.obj
 0002:0000c618       $unwind$?SetSize@?$CArray@W4LoadArrayObjType@CArchive@@AEBW412@@@QEAAX_J0@Z 000000014004b618     Shapedoc.obj
 0002:0000c618       $unwind$?SetSize@?$CArray@PEAXAEBQEAX@@QEAAX_J0@Z 000000014004b618     Mainfrm.obj
 0002:0000c618       $unwind$?SetSize@?$CArray@HAEBH@@QEAAX_J0@Z 000000014004b618     Mainfrm.obj
 0002:0000c628       $chain$0$?SetSize@?$CArray@PEAXAEBQEAX@@QEAAX_J0@Z 000000014004b628     Mainfrm.obj
 0002:0000c63c       $chain$1$?SetSize@?$CArray@PEAXAEBQEAX@@QEAAX_J0@Z 000000014004b63c     Mainfrm.obj
 0002:0000c64c       $unwind$?DockControlBar@CDockBar@@QEAAXPEAVCControlBar@@PEBUtagRECT@@@Z 000000014004b64c     Mainfrm.obj
 0002:0000c65c       $chain$0$?DockControlBar@CDockBar@@QEAAXPEAVCControlBar@@PEBUtagRECT@@@Z 000000014004b65c     Mainfrm.obj
 0002:0000c670       $chain$3$?DockControlBar@CDockBar@@QEAAXPEAVCControlBar@@PEBUtagRECT@@@Z 000000014004b670     Mainfrm.obj
 0002:0000c68c       $chain$4$?DockControlBar@CDockBar@@QEAAXPEAVCControlBar@@PEBUtagRECT@@@Z 000000014004b68c     Mainfrm.obj
 0002:0000c6a4       $chain$5$?DockControlBar@CDockBar@@QEAAXPEAVCControlBar@@PEBUtagRECT@@@Z 000000014004b6a4     Mainfrm.obj
 0002:0000c6bc       $chain$6$?DockControlBar@CDockBar@@QEAAXPEAVCControlBar@@PEBUtagRECT@@@Z 000000014004b6bc     Mainfrm.obj
 0002:0000c6cc       $unwind$?FloatControlBar@CFrameWnd@@QEAAXPEAVCControlBar@@VCPoint@WTL@@K@Z 000000014004b6cc     Mainfrm.obj
 0002:0000c6e0       $chain$0$?RemovePlaceHolder@CDockBar@@QEAAXPEAVCControlBar@@@Z 000000014004b6e0     Mainfrm.obj
 0002:0000c6f4       $chain$1$?RemovePlaceHolder@CDockBar@@QEAAXPEAVCControlBar@@@Z 000000014004b6f4     Mainfrm.obj
 0002:0000c704       $unwind$?RemoveControlBar@CDockBar@@QEAAHPEAVCControlBar@@HH@Z 000000014004b704     Mainfrm.obj
 0002:0000c710       $chain$3$?RemoveControlBar@CDockBar@@QEAAHPEAVCControlBar@@HH@Z 000000014004b710     Mainfrm.obj
 0002:0000c730       $chain$4$?RemoveControlBar@CDockBar@@QEAAHPEAVCControlBar@@HH@Z 000000014004b730     Mainfrm.obj
 0002:0000c748       $unwind$?PreTranslateMessage@CControlBar@@UEAAHPEAUtagMSG@@@Z 000000014004b748     Mainfrm.obj
 0002:0000c758       $chain$0$?PreTranslateMessage@CControlBar@@UEAAHPEAUtagMSG@@@Z 000000014004b758     Mainfrm.obj
 0002:0000c76c       $chain$3$?PreTranslateMessage@CControlBar@@UEAAHPEAUtagMSG@@@Z 000000014004b76c     Mainfrm.obj
 0002:0000c788       $chain$4$?PreTranslateMessage@CControlBar@@UEAAHPEAUtagMSG@@@Z 000000014004b788     Mainfrm.obj
 0002:0000c798       $chain$5$?PreTranslateMessage@CControlBar@@UEAAHPEAUtagMSG@@@Z 000000014004b798     Mainfrm.obj
 0002:0000c7a8       $unwind$?ShowControlBar@CFrameWnd@@QEAAXPEAVCControlBar@@HH@Z 000000014004b7a8     Mainfrm.obj
 0002:0000c7a8       $unwind$_strnicmp_l        000000014004b7a8     LIBCMT:strnicmp.obj
 0002:0000c7a8       $unwind$?__SehTransFilter@@YAHPEAU_EXCEPTION_POINTERS@@PEAUEHExceptionRecord@@PEA_KPEAU_CONTEXT@@PEAU_xDISPATCHER_CONTEXT@@PEBU_s_FuncInfo@@PEAH@Z 000000014004b7a8     LIBCMT:trnsctrl.obj
 0002:0000c7a8       $unwind$?WindowProc@CControlBar@@UEAA_JI_K_J@Z 000000014004b7a8     Mainfrm.obj
 0002:0000c7a8       $unwind$?OnFloatStatus@CMiniFrameWnd@@QEAA_J_K_J@Z 000000014004b7a8     Minifrm.obj
 0002:0000c7a8       $unwind$?OnEraseBkgnd@CShapePreviewWnd@@AEAAHPEAVCDCMTL@@@Z 000000014004b7a8     Preview.obj
 0002:0000c7bc       $chain$0$?SetSize@?$CArray@HAEBH@@QEAAX_J0@Z 000000014004b7bc     Mainfrm.obj
 0002:0000c7bc       $chain$0$?SetSize@?$CArray@W4LoadArrayObjType@CArchive@@AEBW412@@@QEAAX_J0@Z 000000014004b7bc     Shapedoc.obj
 0002:0000c7d0       $chain$1$?SetSize@?$CArray@HAEBH@@QEAAX_J0@Z 000000014004b7d0     Mainfrm.obj
 0002:0000c7d0       $chain$1$?SetSize@?$CArray@W4LoadArrayObjType@CArchive@@AEBW412@@@QEAAX_J0@Z 000000014004b7d0     Shapedoc.obj
 0002:0000c7e0       $unwind$?UpdateAllPanes@CStatusBar@@QEAAXHH@Z 000000014004b7e0     Mainfrm.obj
 0002:0000c804       $stateUnwindMap$?UpdateAllPanes@CStatusBar@@QEAAXHH@Z 000000014004b804     Mainfrm.obj
 0002:0000c810       $ip2state$?UpdateAllPanes@CStatusBar@@QEAAXHH@Z 000000014004b810     Mainfrm.obj
 0002:0000c828       $unwind$?SetPaneStyle@CStatusBar@@QEAAXHI@Z 000000014004b828     Mainfrm.obj
 0002:0000c840       $unwind$?OnSetDefID@CPropertySheetMTL@@QEAA_J_K_J@Z 000000014004b840     Propsht.obj
 0002:0000c840       $unwind$_recalloc_crt      000000014004b840     LIBCMT:crtheap.obj
 0002:0000c840       $unwind$?SetPaneText@CStatusBar@@QEAAHHPEB_WH@Z 000000014004b840     Mainfrm.obj
 0002:0000c840       $unwind$?DoPrintDialog@CWinApp@@QEAA_JPEAVCPrintDialogMTL@@@Z 000000014004b840     Propdlg.obj
 0002:0000c858       $unwind$?UpdateDialogControls@CWnd@@QEAAXPEAVCCmdTarget@@H@Z 000000014004b858     Mainfrm.obj
 0002:0000c87c       $stateUnwindMap$?UpdateDialogControls@CWnd@@QEAAXPEAVCCmdTarget@@H@Z 000000014004b87c     Mainfrm.obj
 0002:0000c898       $ip2state$?UpdateDialogControls@CWnd@@QEAAXPEAVCCmdTarget@@H@Z 000000014004b898     Mainfrm.obj
 0002:0000c8c8       $unwind$?OnUpdateCmdUI@CStatusBar@@UEAAXPEAVCFrameWnd@@H@Z 000000014004b8c8     Mainfrm.obj
 0002:0000c8d8       $chain$1$?OnUpdateCmdUI@CStatusBar@@UEAAXPEAVCFrameWnd@@H@Z 000000014004b8d8     Mainfrm.obj
 0002:0000c8f0       $chain$2$?OnUpdateCmdUI@CStatusBar@@UEAAXPEAVCFrameWnd@@H@Z 000000014004b8f0     Mainfrm.obj
 0002:0000c900       $unwind$?CalcFixedLayout@CStatusBar@@UEAA?AVCSize@WTL@@HH@Z 000000014004b900     Mainfrm.obj
 0002:0000c900       $unwind$?AfxRegisterWndClass@CAfx@@SAPEB_WIPEAUHICON__@@PEAUHBRUSH__@@0@Z 000000014004b900     Mainfrm.obj
 0002:0000c91c       $unwind$??0CFrameWnd@@QEAA@XZ 000000014004b91c     Mainfrm.obj
 0002:0000c92c       $stateUnwindMap$??0CFrameWnd@@QEAA@XZ 000000014004b92c     Mainfrm.obj
 0002:0000c948       $ip2state$??0CFrameWnd@@QEAA@XZ 000000014004b948     Mainfrm.obj
 0002:0000c970       $unwind$?OnMDIActivate@CMDIChildWnd@@QEAAXHPEAVCWnd@@0@Z 000000014004b970     Stdafx.obj
 0002:0000c970       $unwind$?CalcPageDisplaySize@CPreviewView@@QEAA?AVCSize@WTL@@XZ 000000014004b970     Stdafx.obj
 0002:0000c970       $unwind$?OnCmdMsg@CMDIFrameWnd@@UEAAHIHPEAXPEAUAFX_CMDHANDLERINFO@@@Z 000000014004b970     Mainfrm.obj
 0002:0000c988       $unwind$?PreTranslateMessage@CMDIFrameWnd@@UEAAHPEAUtagMSG@@@Z 000000014004b988     Mainfrm.obj
 0002:0000c998       $unwind$?OnWindowPosChanging@CMDIChildWnd@@QEAAXPEAUtagWINDOWPOS@@@Z 000000014004b998     Stdafx.obj
 0002:0000c998       $unwind$?OnCreateClient@CMDIFrameWnd@@UEAAHPEAUtagCREATESTRUCTW@@PEAUCCreateContext@@@Z 000000014004b998     Mainfrm.obj
 0002:0000c9a4       $chain$0$?OnCreateClient@CMDIFrameWnd@@UEAAHPEAUtagCREATESTRUCTW@@PEAUCCreateContext@@@Z 000000014004b9a4     Mainfrm.obj
 0002:0000c9b8       $chain$1$?OnCreateClient@CMDIFrameWnd@@UEAAHPEAUtagCREATESTRUCTW@@PEAUCCreateContext@@@Z 000000014004b9b8     Mainfrm.obj
 0002:0000c9c8       $unwind$?CreateClient@CMDIFrameWnd@@UEAAHPEAUtagCREATESTRUCTW@@PEAVCMenuMTL@@@Z 000000014004b9c8     Mainfrm.obj
 0002:0000c9d0       $chain$1$?CreateClient@CMDIFrameWnd@@UEAAHPEAUtagCREATESTRUCTW@@PEAVCMenuMTL@@@Z 000000014004b9d0     Mainfrm.obj
 0002:0000c9e8       $chain$2$?CreateClient@CMDIFrameWnd@@UEAAHPEAUtagCREATESTRUCTW@@PEAVCMenuMTL@@@Z 000000014004b9e8     Mainfrm.obj
 0002:0000c9fc       $chain$3$?CreateClient@CMDIFrameWnd@@UEAAHPEAUtagCREATESTRUCTW@@PEAVCMenuMTL@@@Z 000000014004b9fc     Mainfrm.obj
 0002:0000ca0c       $chain$4$?CreateClient@CMDIFrameWnd@@UEAAHPEAUtagCREATESTRUCTW@@PEAVCMenuMTL@@@Z 000000014004ba0c     Mainfrm.obj
 0002:0000ca1c       $unwind$?GetWindowMenuPopup@CMDIFrameWnd@@UEAAPEAUHMENU__@@PEAU2@@Z 000000014004ba1c     Mainfrm.obj
 0002:0000ca24       $chain$3$?GetWindowMenuPopup@CMDIFrameWnd@@UEAAPEAUHMENU__@@PEAU2@@Z 000000014004ba24     Mainfrm.obj
 0002:0000ca44       $chain$5$?GetWindowMenuPopup@CMDIFrameWnd@@UEAAPEAUHMENU__@@PEAU2@@Z 000000014004ba44     Mainfrm.obj
 0002:0000ca64       $unwind$?GetIconWndClass@CFrameWnd@@QEAAPEB_WKI@Z 000000014004ba64     Mainfrm.obj
 0002:0000ca78       $unwind$?ShowOwnedWindows@CFrameWnd@@QEAAXH@Z 000000014004ba78     Mainfrm.obj
 0002:0000ca88       $chain$1$?ShowOwnedWindows@CFrameWnd@@QEAAXH@Z 000000014004ba88     Mainfrm.obj
 0002:0000caa0       $chain$2$?ShowOwnedWindows@CFrameWnd@@QEAAXH@Z 000000014004baa0     Mainfrm.obj
 0002:0000cab0       $unwind$?OnSetPreviewMode@CFrameWnd@@UEAAXHPEAUCPrintPreviewState@@@Z 000000014004bab0     Mainfrm.obj
 0002:0000cac0       $chain$1$?OnSetPreviewMode@CFrameWnd@@UEAAXHPEAUCPrintPreviewState@@@Z 000000014004bac0     Mainfrm.obj
 0002:0000cad8       $chain$2$?OnSetPreviewMode@CFrameWnd@@UEAAXHPEAUCPrintPreviewState@@@Z 000000014004bad8     Mainfrm.obj
 0002:0000caec       $chain$3$?OnSetPreviewMode@CFrameWnd@@UEAAXHPEAUCPrintPreviewState@@@Z 000000014004baec     Mainfrm.obj
 0002:0000cafc       $chain$4$?OnSetPreviewMode@CFrameWnd@@UEAAXHPEAUCPrintPreviewState@@@Z 000000014004bafc     Mainfrm.obj
 0002:0000cb0c       $unwind$??1CFrameWnd@@UEAA@XZ 000000014004bb0c     Mainfrm.obj
 0002:0000cb20       $stateUnwindMap$??1CFrameWnd@@UEAA@XZ 000000014004bb20     Mainfrm.obj
 0002:0000cb50       $ip2state$??1CFrameWnd@@UEAA@XZ 000000014004bb50     Mainfrm.obj
 0002:0000cb90       $unwind$?Create@CFrameWnd@@UEAAHPEB_W0KAEBUtagRECT@@PEAVCWnd@@0KPEAUCCreateContext@@@Z 000000014004bb90     Mainfrm.obj
 0002:0000cba8       $chain$0$?Create@CFrameWnd@@UEAAHPEB_W0KAEBUtagRECT@@PEAVCWnd@@0KPEAUCCreateContext@@@Z 000000014004bba8     Mainfrm.obj
 0002:0000cbbc       $chain$1$?Create@CFrameWnd@@UEAAHPEB_W0KAEBUtagRECT@@PEAVCWnd@@0KPEAUCCreateContext@@@Z 000000014004bbbc     Mainfrm.obj
 0002:0000cbcc       $unwind$?LoadFrame@CFrameWnd@@UEAAHIKPEAVCWnd@@PEAUCCreateContext@@@Z 000000014004bbcc     Mainfrm.obj
 0002:0000cbf0       $stateUnwindMap$?LoadFrame@CFrameWnd@@UEAAHIKPEAVCWnd@@PEAUCCreateContext@@@Z 000000014004bbf0     Mainfrm.obj
 0002:0000cc00       $ip2state$?LoadFrame@CFrameWnd@@UEAAHIKPEAVCWnd@@PEAUCCreateContext@@@Z 000000014004bc00     Mainfrm.obj
 0002:0000cc28       $unwind$?OnWindowNew@CMDIFrameWnd@@QEAAXXZ 000000014004bc28     Mainfrm.obj
 0002:0000cc44       $stateUnwindMap$?OnWindowNew@CMDIFrameWnd@@QEAAXXZ 000000014004bc44     Mainfrm.obj
 0002:0000cc50       $ip2state$?OnWindowNew@CMDIFrameWnd@@QEAAXXZ 000000014004bc50     Mainfrm.obj
 0002:0000cc68       $unwind$?PreTranslateMessage@CMDIChildWnd@@UEAAHPEAUtagMSG@@@Z 000000014004bc68     Stdafx.obj
 0002:0000cc68       $unwind$??0CString@WTL@@QEAA@PEB_W@Z 000000014004bc68     Propdlg.obj
 0002:0000cc68       $unwind$?WriteObject@CArchive@@QEAAXPEBVCObject@@@Z 000000014004bc68     Shapedoc.obj
 0002:0000cc68       $unwind$?SaveAllModified@CDocManager@@QEAAHXZ 000000014004bc68     Mainfrm.obj
 0002:0000cc68       $unwind$?Serialize@CShape@@UEAAXAEAVCArchive@@@Z 000000014004bc68     Shapeobj.obj
 0002:0000cc74       $unwind$?CloseAllDocuments@CDocTemplate@@QEAAXH@Z 000000014004bc74     Mainfrm.obj
 0002:0000cc7c       $chain$3$?CloseAllDocuments@CDocTemplate@@QEAAXH@Z 000000014004bc7c     Mainfrm.obj
 0002:0000cc9c       $chain$4$?CloseAllDocuments@CDocTemplate@@QEAAXH@Z 000000014004bc9c     Mainfrm.obj
 0002:0000ccac       $chain$0$?OnCloseDocument@CDocument@@QEAAXXZ 000000014004bcac     Mainfrm.obj
 0002:0000ccc0       $chain$1$?OnCloseDocument@CDocument@@QEAAXXZ 000000014004bcc0     Mainfrm.obj
 0002:0000ccd4       $chain$2$?OnCloseDocument@CDocument@@QEAAXXZ 000000014004bcd4     Mainfrm.obj
 0002:0000cce4       $chain$3$?OnCloseDocument@CDocument@@QEAAXXZ 000000014004bce4     Mainfrm.obj
 0002:0000ccf4       $unwind$?OnClose@CFrameWnd@@QEAAXXZ 000000014004bcf4     Mainfrm.obj
 0002:0000cd04       $chain$2$?OnClose@CFrameWnd@@QEAAXXZ 000000014004bd04     Mainfrm.obj
 0002:0000cd18       $chain$3$?OnClose@CFrameWnd@@QEAAXXZ 000000014004bd18     Mainfrm.obj
 0002:0000cd28       $unwind$?CreateView@CFrameWnd@@QEAAPEAVCWnd@@PEAUCCreateContext@@I@Z 000000014004bd28     Mainfrm.obj
 0002:0000cd38       $chain$0$?CreateView@CFrameWnd@@QEAAPEAVCWnd@@PEAUCCreateContext@@I@Z 000000014004bd38     Mainfrm.obj
 0002:0000cd4c       $chain$2$?CreateView@CFrameWnd@@QEAAPEAVCWnd@@PEAUCCreateContext@@I@Z 000000014004bd4c     Mainfrm.obj
 0002:0000cd60       $chain$3$?CreateView@CFrameWnd@@QEAAPEAVCWnd@@PEAUCCreateContext@@I@Z 000000014004bd60     Mainfrm.obj
 0002:0000cd70       $unwind$?DestroyDockBars@CFrameWnd@@QEAAXXZ 000000014004bd70     Mainfrm.obj
 0002:0000cd94       $stateUnwindMap$?DestroyDockBars@CFrameWnd@@QEAAXXZ 000000014004bd94     Mainfrm.obj
 0002:0000cda8       $ip2state$?DestroyDockBars@CFrameWnd@@QEAAXXZ 000000014004bda8     Mainfrm.obj
 0002:0000cdd0       $chain$0$?OnDestroy@CFrameWnd@@QEAAXXZ 000000014004bdd0     Mainfrm.obj
 0002:0000cde4       $chain$1$?OnDestroy@CFrameWnd@@QEAAXXZ 000000014004bde4     Mainfrm.obj
 0002:0000cdf4       $unwind$?ShowAppMessageBox@CWinApp@@SAHPEAV1@PEB_WII@Z 000000014004bdf4     Mainfrm.obj
 0002:0000ce0c       $unwind$?AfxMessageBox@@YAHIII@Z 000000014004be0c     Mainfrm.obj
 0002:0000ce20       $stateUnwindMap$?AfxMessageBox@@YAHIII@Z 000000014004be20     Mainfrm.obj
 0002:0000ce20       $stateUnwindMap$?OnFileOpen@CDocManager@@UEAAXXZ 000000014004be20     Propdlg.obj
 0002:0000ce28       $ip2state$?AfxMessageBox@@YAHIII@Z 000000014004be28     Mainfrm.obj
 0002:0000ce40       $unwind$?OnDropFiles@CFrameWnd@@QEAAXPEAUHDROP__@@@Z 000000014004be40     Mainfrm.obj
 0002:0000ce58       $chain$1$?GetTopLevelParent@CWnd@@QEAAPEAV1@XZ 000000014004be58     Mainfrm.obj
 0002:0000ce70       $chain$2$?GetTopLevelParent@CWnd@@QEAAPEAV1@XZ 000000014004be70     Mainfrm.obj
 0002:0000ce80       $unwind$?OnIdle@CCmdUI@@QEAAHPEAVCCmdTarget@@H@Z 000000014004be80     Mainfrm.obj
 0002:0000ce94       $unwind$?OnInitMenuPopup@CFrameWnd@@QEAAXPEAVCMenuMTL@@IH@Z 000000014004be94     Mainfrm.obj
 0002:0000cea0       $chain$3$?OnInitMenuPopup@CFrameWnd@@QEAAXPEAVCMenuMTL@@IH@Z 000000014004bea0     Mainfrm.obj
 0002:0000cec0       $chain$4$?OnInitMenuPopup@CFrameWnd@@QEAAXPEAVCMenuMTL@@IH@Z 000000014004bec0     Mainfrm.obj
 0002:0000ced4       $chain$5$?OnInitMenuPopup@CFrameWnd@@QEAAXPEAVCMenuMTL@@IH@Z 000000014004bed4     Mainfrm.obj
 0002:0000cee4       $chain$6$?OnInitMenuPopup@CFrameWnd@@QEAAXPEAVCMenuMTL@@IH@Z 000000014004bee4     Mainfrm.obj
 0002:0000cef4       $chain$1$?GetTopLevelFrame@CWnd@@QEAAPEAVCFrameWnd@@XZ 000000014004bef4     Mainfrm.obj
 0002:0000cf0c       $chain$4$?GetTopLevelFrame@CWnd@@QEAAPEAVCFrameWnd@@XZ 000000014004bf0c     Mainfrm.obj
 0002:0000cf0c       $chain$2$?GetTopLevelFrame@CWnd@@QEAAPEAVCFrameWnd@@XZ 000000014004bf0c     Mainfrm.obj
 0002:0000cf1c       $chain$3$?GetTopLevelFrame@CWnd@@QEAAPEAVCFrameWnd@@XZ 000000014004bf1c     Mainfrm.obj
 0002:0000cf34       $unwind$?CenterOnPoint@CScrollView@@QEAAXVCPoint@WTL@@@Z 000000014004bf34     Stdafx.obj
 0002:0000cf34       $unwind$?GetDescendantWindow@CWnd@@QEAAPEAV1@PEAUHWND__@@HH@Z 000000014004bf34     Mainfrm.obj
 0002:0000cf48       $unwind$?OnSetMessageString@CFrameWnd@@QEAA_J_K_J@Z 000000014004bf48     Mainfrm.obj
 0002:0000cf68       $stateUnwindMap$?OnSetMessageString@CFrameWnd@@QEAA_J_K_J@Z 000000014004bf68     Mainfrm.obj
 0002:0000cf70       $ip2state$?OnSetMessageString@CFrameWnd@@QEAA_J_K_J@Z 000000014004bf70     Mainfrm.obj
 0002:0000cf88       $unwind$?UpdateFrameTitleForDocument@CFrameWnd@@QEAAXPEB_W@Z 000000014004bf88     Mainfrm.obj
 0002:0000cfac       $stateUnwindMap$?UpdateFrameTitleForDocument@CFrameWnd@@QEAAXPEB_W@Z 000000014004bfac     Mainfrm.obj
 0002:0000cfb8       $ip2state$?UpdateFrameTitleForDocument@CFrameWnd@@QEAAXPEB_W@Z 000000014004bfb8     Mainfrm.obj
 0002:0000cfd0       $unwind$?GetControlBar@CFrameWnd@@QEAAPEAVCControlBar@@I@Z 000000014004bfd0     Mainfrm.obj
 0002:0000cfd0       $unwind$?AtlWinModuleTerm@ATL@@YAJPEAU_ATL_WIN_MODULE70@1@PEAUHINSTANCE__@@@Z 000000014004bfd0     Propdlg.obj
 0002:0000cfd0       $unwind$?FillBuffer@CArchive@@QEAAXI@Z 000000014004bfd0     Shapedoc.obj
 0002:0000cfd8       $chain$1$?GetControlBar@CFrameWnd@@QEAAPEAVCControlBar@@I@Z 000000014004bfd8     Mainfrm.obj
 0002:0000cff0       $chain$3$?GetControlBar@CFrameWnd@@QEAAPEAVCControlBar@@I@Z 000000014004bff0     Mainfrm.obj
 0002:0000d008       $chain$1$?GetParentFrame@CWnd@@QEAAPEAVCFrameWnd@@XZ 000000014004c008     Mainfrm.obj
 0002:0000d020       $chain$3$?GetParentFrame@CWnd@@QEAAPEAVCFrameWnd@@XZ 000000014004c020     Mainfrm.obj
 0002:0000d038       $chain$4$?GetParentFrame@CWnd@@QEAAPEAVCFrameWnd@@XZ 000000014004c038     Mainfrm.obj
 0002:0000d048       $unwind$?AfxRepositionWindow@CAfx@@SAXPEAUAFX_SIZEPARENTPARAMS@@PEAUHWND__@@PEBUtagRECT@@@Z 000000014004c048     Mainfrm.obj
 0002:0000d05c       $unwind$?RepositionBars@CWnd@@QEAAXIIIIPEAUtagRECT@@PEBU2@H@Z 000000014004c05c     Mainfrm.obj
 0002:0000d070       $chain$0$?RepositionBars@CWnd@@QEAAXIIIIPEAUtagRECT@@PEBU2@H@Z 000000014004c070     Mainfrm.obj
 0002:0000d084       $chain$1$?RepositionBars@CWnd@@QEAAXIIIIPEAUtagRECT@@PEBU2@H@Z 000000014004c084     Mainfrm.obj
 0002:0000d098       $chain$2$?RepositionBars@CWnd@@QEAAXIIIIPEAUtagRECT@@PEBU2@H@Z 000000014004c098     Mainfrm.obj
 0002:0000d0a8       $chain$3$?RepositionBars@CWnd@@QEAAXIIIIPEAUtagRECT@@PEBU2@H@Z 000000014004c0a8     Mainfrm.obj
 0002:0000d0b8       $unwind$?RecalcLayout@CFrameWnd@@UEAAXH@Z 000000014004c0b8     Mainfrm.obj
 0002:0000d0c0       $unwind$?_AtlGetStringResourceImage@CAfx@@SAPEBUATLSTRINGRESOURCEIMAGE@ATL@@PEAUHINSTANCE__@@PEAUHRSRC__@@I@Z 000000014004c0c0     Mainfrm.obj
 0002:0000d0d4       $unwind$?AfxExtractSubString@CAfx@@SAHAEAVCString@WTL@@PEB_WH_W@Z 000000014004c0d4     Mainfrm.obj
 0002:0000d0d4       $unwind$?AddShape@CShapesDoc@@QEAAXPEAVCShape@@@Z 000000014004c0d4     Shapedoc.obj
 0002:0000d0e4       $chain$0$?AfxExtractSubString@CAfx@@SAHAEAVCString@WTL@@PEB_WH_W@Z 000000014004c0e4     Mainfrm.obj
 0002:0000d0f8       $chain$1$?AfxExtractSubString@CAfx@@SAHAEAVCString@WTL@@PEB_WH_W@Z 000000014004c0f8     Mainfrm.obj
 0002:0000d108       $chain$2$?AfxExtractSubString@CAfx@@SAHAEAVCString@WTL@@PEB_WH_W@Z 000000014004c108     Mainfrm.obj
 0002:0000d11c       $unwind$?OnToolTipText@CFrameWnd@@QEAAHIPEAUtagNMHDR@@PEA_J@Z 000000014004c11c     Mainfrm.obj
 0002:0000d140       $stateUnwindMap$?OnToolTipText@CFrameWnd@@QEAAHIPEAUtagNMHDR@@PEA_J@Z 000000014004c140     Mainfrm.obj
 0002:0000d148       $ip2state$?OnToolTipText@CFrameWnd@@QEAAHIPEAUtagNMHDR@@PEA_J@Z 000000014004c148     Mainfrm.obj
 0002:0000d160       $unwind$?OnUpdateKeyIndicator@CFrameWnd@@QEAAXPEAVCCmdUI@@@Z 000000014004c160     Mainfrm.obj
 0002:0000d16c       $unwind$?_ProcessWindowMessage@CFrameWnd@@UEAAHPEAUHWND__@@I_K_JAEA_J@Z 000000014004c16c     Mainfrm.obj
 0002:0000d190       $stateUnwindMap$?_ProcessWindowMessage@CFrameWnd@@UEAAHPEAUHWND__@@I_K_JAEA_J@Z 000000014004c190     Mainfrm.obj
 0002:0000d1b0       $ip2state$?_ProcessWindowMessage@CFrameWnd@@UEAAHPEAUHWND__@@I_K_JAEA_J@Z 000000014004c1b0     Mainfrm.obj
 0002:0000d1f8       $unwind$?_ProcessWindowMessage@CMDIFrameWnd@@UEAAHPEAUHWND__@@I_K_JAEA_J@Z 000000014004c1f8     Mainfrm.obj
 0002:0000d218       $unwind$?OnCreate@CShapePropSheetFrame@@IEAAHPEAUtagCREATESTRUCTW@@@Z 000000014004c218     Minifrm.obj
 0002:0000d228       $stateUnwindMap$?OnCreate@CShapePropSheetFrame@@IEAAHPEAUtagCREATESTRUCTW@@@Z 000000014004c228     Minifrm.obj
 0002:0000d230       $ip2state$?OnCreate@CShapePropSheetFrame@@IEAAHPEAUtagCREATESTRUCTW@@@Z 000000014004c230     Minifrm.obj
 0002:0000d248       $unwind$??1CMiniFrameWnd@@UEAA@XZ 000000014004c248     Minifrm.obj
 0002:0000d258       $stateUnwindMap$??1CMiniFrameWnd@@UEAA@XZ 000000014004c258     Minifrm.obj
 0002:0000d260       $ip2state$??1CMiniFrameWnd@@UEAA@XZ 000000014004c260     Minifrm.obj
 0002:0000d278       $chain$2$?OnNcCreate@CMiniFrameWnd@@QEAAHPEAUtagCREATESTRUCTW@@@Z 000000014004c278     Minifrm.obj
 0002:0000d294       $chain$3$?OnNcCreate@CMiniFrameWnd@@QEAAHPEAUtagCREATESTRUCTW@@@Z 000000014004c294     Minifrm.obj
 0002:0000d2a4       $unwind$?OnNcHitTest@CMiniFrameWnd@@QEAA_JVCPoint@WTL@@@Z 000000014004c2a4     Minifrm.obj
 0002:0000d2b8       $unwind$?_AfxCommDlgProc@CCommonDialog@@SA_KPEAUHWND__@@I_K_J@Z 000000014004c2b8     Propdlg.obj
 0002:0000d2b8       $unwind$?HandleFloatingSysCommand@CWnd@@QEAAHI_J@Z 000000014004c2b8     Minifrm.obj
 0002:0000d2cc       $chain$0$?HandleFloatingSysCommand@CWnd@@QEAAHI_J@Z 000000014004c2cc     Minifrm.obj
 0002:0000d2e0       $chain$1$?HandleFloatingSysCommand@CWnd@@QEAAHI_J@Z 000000014004c2e0     Minifrm.obj
 0002:0000d2f0       $unwind$?_ProcessWindowMessage@CShapePreviewWnd@@UEAAHPEAUHWND__@@I_K_JAEA_J@Z 000000014004c2f0     Preview.obj
 0002:0000d308       $ip2state$?_ProcessWindowMessage@CShapePreviewWnd@@UEAAHPEAUHWND__@@I_K_JAEA_J@Z 000000014004c308     Preview.obj
 0002:0000d320       $unwind$?OnPaint@CShapePreviewWnd@@AEAAXXZ 000000014004c320     Preview.obj
 0002:0000d340       $stateUnwindMap$?OnPaint@CShapePreviewWnd@@AEAAXXZ 000000014004c340     Preview.obj
 0002:0000d348       $ip2state$?OnPaint@CShapePreviewWnd@@AEAAXXZ 000000014004c348     Preview.obj
 0002:0000d360       $unwind$?InitInstance@CPropDlgApp@@UEAAHXZ 000000014004c360     Propdlg.obj
 0002:0000d380       $stateUnwindMap$?InitInstance@CPropDlgApp@@UEAAHXZ 000000014004c380     Propdlg.obj
 0002:0000d3b0       $ip2state$?InitInstance@CPropDlgApp@@UEAAHXZ 000000014004c3b0     Propdlg.obj
 0002:0000d410       $unwind$?OnAppAbout@CPropDlgApp@@QEAAXXZ 000000014004c410     Propdlg.obj
 0002:0000d420       $stateUnwindMap$?OnAppAbout@CPropDlgApp@@QEAAXXZ 000000014004c420     Propdlg.obj
 0002:0000d438       $ip2state$?OnAppAbout@CPropDlgApp@@QEAAXXZ 000000014004c438     Propdlg.obj
 0002:0000d468       $unwind$??HWTL@@YA?AVCString@0@AEBV10@PEB_W@Z 000000014004c468     Propdlg.obj
 0002:0000d480       $stateUnwindMap$??HWTL@@YA?AVCString@0@AEBV10@0@Z 000000014004c480     Propdlg.obj
 0002:0000d480       $stateUnwindMap$??HWTL@@YA?AVCString@0@AEBV10@PEB_W@Z 000000014004c480     Propdlg.obj
 0002:0000d488       $ip2state$??HWTL@@YA?AVCString@0@AEBV10@PEB_W@Z 000000014004c488     Propdlg.obj
 0002:0000d498       $unwind$?fin$0@?0??_Type_info_dtor@type_info@@CAXPEAV1@@Z@4HA 000000014004c498     LIBCMT:typname.obj
 0002:0000d498       $unwind$?dtor$2@?0??UpdatePrinterSelection@CWinApp@@QEAAXH@Z@4HA 000000014004c498     Propdlg.obj
 0002:0000d498       $unwind$?dtor$1@?0??UpdatePrinterSelection@CWinApp@@QEAAXH@Z@4HA 000000014004c498     Propdlg.obj
 0002:0000d498       $unwind$__updatetlocinfo$fin$0 000000014004c498     LIBCMT:localref.obj
 0002:0000d498       $unwind$__FrameUnwindToState$fin$1 000000014004c498     LIBCMT:frame.obj
 0002:0000d498       $unwind$_fcloseall$fin$0   000000014004c498     LIBCMT:closeall.obj
 0002:0000d498       $unwind$raise$fin$0        000000014004c498     LIBCMT:winsig.obj
 0002:0000d498       $unwind$__tmainCRTStartup$filt$0 000000014004c498     LIBCMT:wwincrt0.obj
 0002:0000d498       $unwind$?fin$0@?0???_L@YAXPEAX_KHP6AX0@Z2@Z@4HA 000000014004c498     LIBCMT:ehvecctr.obj
 0002:0000d498       $unwind$?filt$0@?0??__ArrayUnwind@@YAXPEAX_KHP6AX0@Z@Z@4HA 000000014004c498     LIBCMT:ehvecdtr.obj
 0002:0000d498       $unwind$?fin$0@?0???_M@YAXPEAX_KHP6AX0@Z@Z@4HA 000000014004c498     LIBCMT:ehvecdtr.obj
 0002:0000d498       $unwind$_locterm$fin$0     000000014004c498     LIBCMT:wsetloca.obj
 0002:0000d498       $unwind$?dtor$0@?0???HWTL@@YA?AVCString@0@AEBV10@PEB_W@Z@4HA 000000014004c498     Propdlg.obj
 0002:0000d498       $unwind$fclose$fin$0       000000014004c498     LIBCMT:fclose.obj
 0002:0000d498       $unwind$?dtor$0@?0??Mid@CString@WTL@@QEBA?AV12@HH@Z@4HA 000000014004c498     Propdlg.obj
 0002:0000d498       $unwind$doexit$fin$0       000000014004c498     LIBCMT:crt0dat.obj
 0002:0000d498       $unwind$__updatetmbcinfo$fin$0 000000014004c498     LIBCMT:mbctype.obj
 0002:0000d498       $unwind$_isindst$fin$0     000000014004c498     LIBCMT:tzset.obj
 0002:0000d498       $unwind$__FrameUnwindToState$filt$0 000000014004c498     LIBCMT:frame.obj
 0002:0000d498       $unwind$__tzset$fin$0      000000014004c498     LIBCMT:tzset.obj
 0002:0000d498       $unwind$_write$fin$0       000000014004c498     LIBCMT:write.obj
 0002:0000d498       $unwind$_close$fin$0       000000014004c498     LIBCMT:close.obj
 0002:0000d498       $unwind$_IsNonwritableInCurrentImage$filt$0 000000014004c498     LIBCMT:pesect.obj
 0002:0000d498       $unwind$_initptd$fin$0     000000014004c498     LIBCMT:tidtable.obj
 0002:0000d498       $unwind$__CxxCallCatchBlock$filt$0 000000014004c498     LIBCMT:frame.obj
 0002:0000d498       $unwind$flsall$fin$1       000000014004c498     LIBCMT:fflush.obj
 0002:0000d498       $unwind$_onexit$fin$0      000000014004c498     LIBCMT:onexit.obj
 0002:0000d498       $unwind$_initptd$fin$1     000000014004c498     LIBCMT:tidtable.obj
 0002:0000d498       $unwind$_setmbcp$fin$0     000000014004c498     LIBCMT:mbctype.obj
 0002:0000d498       $unwind$_mtinitlocknum$fin$0 000000014004c498     LIBCMT:mlock.obj
 0002:0000d498       $unwind$_commit$fin$0      000000014004c498     LIBCMT:commit.obj
 0002:0000d498       $unwind$__lock_fhandle$fin$0 000000014004c498     LIBCMT:osfinfo.obj
 0002:0000d498       $unwind$_ioinit$fin$0      000000014004c498     LIBCMT:ioinit.obj
 0002:0000d498       $unwind$__DestructExceptionObject$filt$0 000000014004c498     LIBCMT:frame.obj
 0002:0000d498       $unwind$_freefls$fin$0     000000014004c498     LIBCMT:tidtable.obj
 0002:0000d498       $unwind$_freefls$fin$1     000000014004c498     LIBCMT:tidtable.obj
 0002:0000d498       $unwind$flsall$fin$0       000000014004c498     LIBCMT:fflush.obj
 0002:0000d498       $unwind$?dtor$0@?0???HWTL@@YA?AVCString@0@AEBV10@0@Z@4HA 000000014004c498     Propdlg.obj
 0002:0000d4a0       $unwind$?AfxDelRegTreeHelper@CAfx@@SAJPEAUHKEY__@@AEBVCString@WTL@@PEAVCAtlTransactionManager@ATL@@@Z 000000014004c4a0     Propdlg.obj
 0002:0000d4b8       $stateUnwindMap$?AfxDelRegTreeHelper@CAfx@@SAJPEAUHKEY__@@AEBVCString@WTL@@PEAVCAtlTransactionManager@ATL@@@Z 000000014004c4b8     Propdlg.obj
 0002:0000d4c8       $ip2state$?AfxDelRegTreeHelper@CAfx@@SAJPEAUHKEY__@@AEBVCString@WTL@@PEAVCAtlTransactionManager@ATL@@@Z 000000014004c4c8     Propdlg.obj
 0002:0000d4f0       $unwind$?Unregister@CWinApp@@QEAAHXZ 000000014004c4f0     Propdlg.obj
 0002:0000d508       $stateUnwindMap$?Unregister@CWinApp@@QEAAHXZ 000000014004c508     Propdlg.obj
 0002:0000d528       $ip2state$?Unregister@CWinApp@@QEAAHXZ 000000014004c528     Propdlg.obj
 0002:0000d558       $chain$1$?ParseParam@CCommandLineInfo@@UEAAXPEB_WHH@Z 000000014004c558     Propdlg.obj
 0002:0000d570       $chain$2$?ParseParam@CCommandLineInfo@@UEAAXPEB_WHH@Z 000000014004c570     Propdlg.obj
 0002:0000d584       $chain$3$?ParseParam@CCommandLineInfo@@UEAAXPEB_WHH@Z 000000014004c584     Propdlg.obj
 0002:0000d594       $chain$4$?ParseParam@CCommandLineInfo@@UEAAXPEB_WHH@Z 000000014004c594     Propdlg.obj
 0002:0000d5a4       $unwind$?EnableShellOpen@CWinApp@@QEAAXXZ 000000014004c5a4     Propdlg.obj
 0002:0000d5c4       $stateUnwindMap$?EnableShellOpen@CWinApp@@QEAAXXZ 000000014004c5c4     Propdlg.obj
 0002:0000d5d8       $ip2state$?EnableShellOpen@CWinApp@@QEAAXXZ 000000014004c5d8     Propdlg.obj
 0002:0000d600       $unwind$??0CDocTemplate@@QEAA@IPEAUCRuntimeClass@@00@Z 000000014004c600     Propdlg.obj
 0002:0000d610       $stateUnwindMap$??0CDocTemplate@@QEAA@IPEAUCRuntimeClass@@00@Z 000000014004c610     Propdlg.obj
 0002:0000d618       $ip2state$??0CDocTemplate@@QEAA@IPEAUCRuntimeClass@@00@Z 000000014004c618     Propdlg.obj
 0002:0000d630       $chain$0$?CreateNewDocument@CDocTemplate@@UEAAPEAVCDocument@@XZ 000000014004c630     Propdlg.obj
 0002:0000d644       $chain$2$?CreateNewDocument@CDocTemplate@@UEAAPEAVCDocument@@XZ 000000014004c644     Propdlg.obj
 0002:0000d658       $unwind$?CreateNewFrame@CDocTemplate@@UEAAPEAVCFrameWnd@@PEAVCDocument@@PEAV2@@Z 000000014004c658     Propdlg.obj
 0002:0000d660       $chain$0$?CreateNewFrame@CDocTemplate@@UEAAPEAVCFrameWnd@@PEAVCDocument@@PEAV2@@Z 000000014004c660     Propdlg.obj
 0002:0000d674       $chain$2$?CreateNewFrame@CDocTemplate@@UEAAPEAVCFrameWnd@@PEAVCDocument@@PEAV2@@Z 000000014004c674     Propdlg.obj
 0002:0000d688       $unwind$?InitialUpdateFrame@CFrameWnd@@QEAAXPEAVCDocument@@H@Z 000000014004c688     Propdlg.obj
 0002:0000d694       $chain$3$?InitialUpdateFrame@CFrameWnd@@QEAAXPEAVCDocument@@H@Z 000000014004c694     Propdlg.obj
 0002:0000d6b4       $chain$4$?InitialUpdateFrame@CFrameWnd@@QEAAXPEAVCDocument@@H@Z 000000014004c6b4     Propdlg.obj
 0002:0000d6c4       $unwind$?OpenDocumentFile@CMultiDocTemplate@@UEAAPEAVCDocument@@PEB_WHH@Z 000000014004c6c4     Propdlg.obj
 0002:0000d6e8       $stateUnwindMap$?OpenDocumentFile@CMultiDocTemplate@@UEAAPEAVCDocument@@PEB_WHH@Z 000000014004c6e8     Propdlg.obj
 0002:0000d6f0       $ip2state$?OpenDocumentFile@CMultiDocTemplate@@UEAAPEAVCDocument@@PEB_WHH@Z 000000014004c6f0     Propdlg.obj
 0002:0000d718       $chain$0$??1CMultiDocTemplate@@UEAA@XZ 000000014004c718     Propdlg.obj
 0002:0000d72c       $chain$1$??1CMultiDocTemplate@@UEAA@XZ 000000014004c72c     Propdlg.obj
 0002:0000d73c       $unwind$?UpdateFrameCounts@CDocument@@QEAAXXZ 000000014004c73c     Propdlg.obj
 0002:0000d74c       $chain$0$?UpdateFrameCounts@CDocument@@QEAAXXZ 000000014004c74c     Propdlg.obj
 0002:0000d760       $chain$1$?UpdateFrameCounts@CDocument@@QEAAXXZ 000000014004c760     Propdlg.obj
 0002:0000d770       $unwind$?SetDefaultTitle@CMultiDocTemplate@@UEAAXPEAVCDocument@@@Z 000000014004c770     Propdlg.obj
 0002:0000d794       $stateUnwindMap$?SetDefaultTitle@CMultiDocTemplate@@UEAAXPEAVCDocument@@@Z 000000014004c794     Propdlg.obj
 0002:0000d794       $stateUnwindMap$?ReadList@CRecentFileList@@UEAAXXZ 000000014004c794     Propdlg.obj
 0002:0000d7a0       $ip2state$?SetDefaultTitle@CMultiDocTemplate@@UEAAXPEAVCDocument@@@Z 000000014004c7a0     Propdlg.obj
 0002:0000d7b8       $chain$0$?LoadTemplate@CMultiDocTemplate@@UEAAXXZ 000000014004c7b8     Propdlg.obj
 0002:0000d7cc       $chain$1$?LoadTemplate@CMultiDocTemplate@@UEAAXXZ 000000014004c7cc     Propdlg.obj
 0002:0000d7dc       $unwind$??0CRecentFileList@@QEAA@IPEB_W0HH@Z 000000014004c7dc     Propdlg.obj
 0002:0000d7f8       $stateUnwindMap$??0CRecentFileList@@QEAA@IPEB_W0HH@Z 000000014004c7f8     Propdlg.obj
 0002:0000d818       $ip2state$??0CRecentFileList@@QEAA@IPEB_W0HH@Z 000000014004c818     Propdlg.obj
 0002:0000d850       $unwind$?Add@CRecentFileList@@UEAAXPEB_W@Z 000000014004c850     Propdlg.obj
 0002:0000d868       $chain$0$?Add@CRecentFileList@@UEAAXPEB_W@Z 000000014004c868     Propdlg.obj
 0002:0000d87c       $chain$1$?Add@CRecentFileList@@UEAAXPEB_W@Z 000000014004c87c     Propdlg.obj
 0002:0000d890       $chain$2$?Add@CRecentFileList@@UEAAXPEB_W@Z 000000014004c890     Propdlg.obj
 0002:0000d8a0       $chain$3$?Add@CRecentFileList@@UEAAXPEB_W@Z 000000014004c8a0     Propdlg.obj
 0002:0000d8b0       $unwind$?GetProfileStringW@CWinApp@@QEAA?AVCString@WTL@@PEB_W00@Z 000000014004c8b0     Propdlg.obj
 0002:0000d8c0       $unwind$?ReadList@CRecentFileList@@UEAAXXZ 000000014004c8c0     Propdlg.obj
 0002:0000d8e0       $ip2state$?ReadList@CRecentFileList@@UEAAXXZ 000000014004c8e0     Propdlg.obj
 0002:0000d8f8       $unwind$??1CRecentFileList@@UEAA@XZ 000000014004c8f8     Propdlg.obj
 0002:0000d910       $stateUnwindMap$??1CRecentFileList@@UEAA@XZ 000000014004c910     Propdlg.obj
 0002:0000d928       $ip2state$??1CRecentFileList@@UEAA@XZ 000000014004c928     Propdlg.obj
 0002:0000d950       $unwind$??1CCommandLineInfo@@QEAA@XZ 000000014004c950     Propdlg.obj
 0002:0000d968       $stateUnwindMap$??1CCommandLineInfo@@QEAA@XZ 000000014004c968     Propdlg.obj
 0002:0000d980       $ip2state$??1CCommandLineInfo@@QEAA@XZ 000000014004c980     Propdlg.obj
 0002:0000d9a8       $unwind$??1CWinApp@@QEAA@XZ 000000014004c9a8     Propdlg.obj
 0002:0000d9c0       $stateUnwindMap$??1CWinApp@@QEAA@XZ 000000014004c9c0     Propdlg.obj
 0002:0000d9d8       $ip2state$??1CWinApp@@QEAA@XZ 000000014004c9d8     Propdlg.obj
 0002:0000da00       $unwind$??0CModuleThreadState@@QEAA@XZ 000000014004ca00     Propdlg.obj
 0002:0000da10       $stateUnwindMap$??0CModuleThreadState@@QEAA@XZ 000000014004ca10     Propdlg.obj
 0002:0000da18       $ip2state$??0CModuleThreadState@@QEAA@XZ 000000014004ca18     Propdlg.obj
 0002:0000da30       $chain$0$??1CModuleThreadState@@QEAA@XZ 000000014004ca30     Propdlg.obj
 0002:0000da44       $chain$1$??1CModuleThreadState@@QEAA@XZ 000000014004ca44     Propdlg.obj
 0002:0000da54       $unwind$?OnIdle@CWinApp@@UEAAHH@Z 000000014004ca54     Propdlg.obj
 0002:0000da6c       $chain$0$?OnIdle@CWinApp@@UEAAHH@Z 000000014004ca6c     Propdlg.obj
 0002:0000da80       $chain$1$?OnIdle@CWinApp@@UEAAHH@Z 000000014004ca80     Propdlg.obj
 0002:0000da90       $unwind$?WriteList@CRecentFileList@@UEAAXXZ 000000014004ca90     Propdlg.obj
 0002:0000daa0       $chain$1$?WriteList@CRecentFileList@@UEAAXXZ 000000014004caa0     Propdlg.obj
 0002:0000dab8       $chain$2$?WriteList@CRecentFileList@@UEAAXXZ 000000014004cab8     Propdlg.obj
 0002:0000dac8       $unwind$??0CWinApp@@QEAA@XZ 000000014004cac8     Propdlg.obj
 0002:0000dad8       $stateUnwindMap$??0CWinApp@@QEAA@XZ 000000014004cad8     Propdlg.obj
 0002:0000dae8       $ip2state$??0CWinApp@@QEAA@XZ 000000014004cae8     Propdlg.obj
 0002:0000db08       $unwind$?GetMenuStringW@CMenuMTL@@QEBAHIAEAVCString@WTL@@I@Z 000000014004cb08     Propdlg.obj
 0002:0000db1c       $chain$0$?GetMenuStringW@CMenuMTL@@QEBAHIAEAVCString@WTL@@I@Z 000000014004cb1c     Propdlg.obj
 0002:0000db30       $chain$1$?GetMenuStringW@CMenuMTL@@QEBAHIAEAVCString@WTL@@I@Z 000000014004cb30     Propdlg.obj
 0002:0000db40       $unwind$?AfxGetFileTitle@CAfx@@SAIPEB_WPEA_WI@Z 000000014004cb40     Propdlg.obj
 0002:0000db58       $unwind$?GetDisplayName@CRecentFileList@@UEBAHAEAVCString@WTL@@HPEB_WHH@Z 000000014004cb58     Propdlg.obj
 0002:0000db68       $chain$1$?GetDisplayName@CRecentFileList@@UEBAHAEAVCString@WTL@@HPEB_WHH@Z 000000014004cb68     Propdlg.obj
 0002:0000db80       $chain$3$?GetDisplayName@CRecentFileList@@UEBAHAEAVCString@WTL@@HPEB_WHH@Z 000000014004cb80     Propdlg.obj
 0002:0000db98       $chain$4$?GetDisplayName@CRecentFileList@@UEBAHAEAVCString@WTL@@HPEB_WHH@Z 000000014004cb98     Propdlg.obj
 0002:0000dbac       $chain$5$?GetDisplayName@CRecentFileList@@UEBAHAEAVCString@WTL@@HPEB_WHH@Z 000000014004cbac     Propdlg.obj
 0002:0000dbc0       $chain$6$?GetDisplayName@CRecentFileList@@UEBAHAEAVCString@WTL@@HPEB_WHH@Z 000000014004cbc0     Propdlg.obj
 0002:0000dbd0       $chain$8$?GetDisplayName@CRecentFileList@@UEBAHAEAVCString@WTL@@HPEB_WHH@Z 000000014004cbd0     Propdlg.obj
 0002:0000dbe0       $unwind$??HWTL@@YA?AVCString@0@AEBV10@0@Z 000000014004cbe0     Propdlg.obj
 0002:0000dbf0       $ip2state$??HWTL@@YA?AVCString@0@AEBV10@0@Z 000000014004cbf0     Propdlg.obj
 0002:0000dc00       $unwind$?UpdateMenu@CRecentFileList@@UEAAXPEAVCCmdUI@@@Z 000000014004cc00     Propdlg.obj
 0002:0000dc20       $stateUnwindMap$?UpdateMenu@CRecentFileList@@UEAAXPEAVCCmdUI@@@Z 000000014004cc20     Propdlg.obj
 0002:0000dc38       $ip2state$?UpdateMenu@CRecentFileList@@UEAAXPEAVCCmdUI@@@Z 000000014004cc38     Propdlg.obj
 0002:0000dc70       $unwind$?Remove@CRecentFileList@@UEAAXH@Z 000000014004cc70     Propdlg.obj
 0002:0000dc7c       $chain$1$?Remove@CRecentFileList@@UEAAXH@Z 000000014004cc7c     Propdlg.obj
 0002:0000dc94       $chain$5$?Remove@CRecentFileList@@UEAAXH@Z 000000014004cc94     Propdlg.obj
 0002:0000dcb4       $chain$6$?Remove@CRecentFileList@@UEAAXH@Z 000000014004ccb4     Propdlg.obj
 0002:0000dcc4       $chain$7$?Remove@CRecentFileList@@UEAAXH@Z 000000014004ccc4     Propdlg.obj
 0002:0000dcd4       $unwind$?_ProcessWindowMessage@CWinApp@@UEAAHPEAUHWND__@@I_K_JAEA_J@Z 000000014004ccd4     Propdlg.obj
 0002:0000dcec       $unwind$?HookProc@CCommonDialogImplBase@WTL@@SA_KPEAUHWND__@@I_K_J@Z 000000014004ccec     Propdlg.obj
 0002:0000dd04       $unwind$?OnPrintSetup@?$CPrintDialogImpl@VCPrintDialog@WTL@@@WTL@@QEAA_JGGPEAUHWND__@@AEAH@Z 000000014004cd04     Propdlg.obj
 0002:0000dd1c       $unwind$?WindowProc@?$CWindowImplBaseT@VCWindow@ATL@@V?$CWinTraits@$0FGAAAAAA@$0A@@2@@ATL@@SA_JPEAUHWND__@@I_K_J@Z 000000014004cd1c     Propdlg.obj
 0002:0000dd34       $unwind$?UpdatePrinterSelection@CWinApp@@QEAAXH@Z 000000014004cd34     Propdlg.obj
 0002:0000dd54       $stateUnwindMap$?UpdatePrinterSelection@CWinApp@@QEAAXH@Z 000000014004cd54     Propdlg.obj
 0002:0000dd70       $ip2state$?UpdatePrinterSelection@CWinApp@@QEAAXH@Z 000000014004cd70     Propdlg.obj
 0002:0000ddb8       $unwind$?AfxGlobalFree@@YAXPEAX@Z 000000014004cdb8     Propdlg.obj
 0002:0000ddc0       $chain$0$?AfxGlobalFree@@YAXPEAX@Z 000000014004cdc0     Propdlg.obj
 0002:0000ddd4       $chain$1$?AfxGlobalFree@@YAXPEAX@Z 000000014004cdd4     Propdlg.obj
 0002:0000dde4       $chain$2$?AtlWinModuleTerm@ATL@@YAJPEAU_ATL_WIN_MODULE70@1@PEAUHINSTANCE__@@@Z 000000014004cde4     Propdlg.obj
 0002:0000de00       $chain$3$?AtlWinModuleTerm@ATL@@YAJPEAU_ATL_WIN_MODULE70@1@PEAUHINSTANCE__@@@Z 000000014004ce00     Propdlg.obj
 0002:0000de10       $chain$4$?AtlWinModuleTerm@ATL@@YAJPEAU_ATL_WIN_MODULE70@1@PEAUHINSTANCE__@@@Z 000000014004ce10     Propdlg.obj
 0002:0000de2c       $chain$0$?DoModal@?$CPrintDialogImpl@VCPrintDialog@WTL@@@WTL@@QEAA_JPEAUHWND__@@@Z 000000014004ce2c     Propdlg.obj
 0002:0000de40       $chain$2$?DoModal@?$CPrintDialogImpl@VCPrintDialog@WTL@@@WTL@@QEAA_JPEAUHWND__@@@Z 000000014004ce40     Propdlg.obj
 0002:0000de54       $unwind$?OnFilePrintSetup@CWinApp@@QEAAXXZ 000000014004ce54     Propdlg.obj
 0002:0000de68       $stateUnwindMap$?OnFilePrintSetup@CWinApp@@QEAAXXZ 000000014004ce68     Propdlg.obj
 0002:0000de70       $ip2state$?OnFilePrintSetup@CWinApp@@QEAAXXZ 000000014004ce70     Propdlg.obj
 0002:0000de88       $chain$0$?_AfxCommDlgProc@CCommonDialog@@SA_KPEAUHWND__@@I_K_J@Z 000000014004ce88     Propdlg.obj
 0002:0000de9c       $chain$1$?_AfxCommDlgProc@CCommonDialog@@SA_KPEAUHWND__@@I_K_J@Z 000000014004ce9c     Propdlg.obj
 0002:0000deac       $unwind$??0CFileDialogMTL@@QEAA@HPEB_W0K0PEAVCWnd@@KH@Z 000000014004ceac     Propdlg.obj
 0002:0000ded0       $stateUnwindMap$??0CFileDialogMTL@@QEAA@HPEB_W0K0PEAVCWnd@@KH@Z 000000014004ced0     Propdlg.obj
 0002:0000dee0       $ip2state$??0CFileDialogMTL@@QEAA@HPEB_W0K0PEAVCWnd@@KH@Z 000000014004cee0     Propdlg.obj
 0002:0000df00       $unwind$??1CFileDialogMTL@@UEAA@XZ 000000014004cf00     Propdlg.obj
 0002:0000df10       $stateUnwindMap$??1CFileDialogMTL@@UEAA@XZ 000000014004cf10     Propdlg.obj
 0002:0000df30       $ip2state$??1CFileDialogMTL@@UEAA@XZ 000000014004cf30     Propdlg.obj
 0002:0000df68       $unwind$?Tokenize@CAfx@@SA?AVCString@WTL@@AEAV23@PEA_WAEAH@Z 000000014004cf68     Propdlg.obj
 0002:0000df80       $unwind$?Mid@CString@WTL@@QEBA?AV12@HH@Z 000000014004cf80     Propdlg.obj
 0002:0000df90       $stateUnwindMap$?Mid@CString@WTL@@QEBA?AV12@HH@Z 000000014004cf90     Propdlg.obj
 0002:0000df98       $ip2state$?Mid@CString@WTL@@QEBA?AV12@HH@Z 000000014004cf98     Propdlg.obj
 0002:0000dfa8       $unwind$?_AfxAppendFilterSuffix@@YAXAEAVCString@WTL@@AEAUtagOFNW@@PEAVCDocTemplate@@PEAV12@@Z 000000014004cfa8     Propdlg.obj
 0002:0000dfc8       $stateUnwindMap$?_AfxAppendFilterSuffix@@YAXAEAVCString@WTL@@AEAUtagOFNW@@PEAVCDocTemplate@@PEAV12@@Z 000000014004cfc8     Propdlg.obj
 0002:0000dff0       $ip2state$?_AfxAppendFilterSuffix@@YAXAEAVCString@WTL@@AEAUtagOFNW@@PEAVCDocTemplate@@PEAV12@@Z 000000014004cff0     Propdlg.obj
 0002:0000e038       $unwind$?ApplyOFNToShellDialog@CFileDialogMTL@@QEAAXXZ 000000014004d038     Propdlg.obj
 0002:0000e058       $stateUnwindMap$?ApplyOFNToShellDialog@CFileDialogMTL@@QEAAXXZ 000000014004d058     Propdlg.obj
 0002:0000e090       $ip2state$?ApplyOFNToShellDialog@CFileDialogMTL@@QEAAXXZ 000000014004d090     Propdlg.obj
 0002:0000e118       $unwind$?GetPathName@CFileDialogMTL@@QEAA?AVCString@WTL@@XZ 000000014004d118     Propdlg.obj
 0002:0000e138       $stateUnwindMap$?GetPathName@CFileDialogMTL@@QEAA?AVCString@WTL@@XZ 000000014004d138     Propdlg.obj
 0002:0000e148       $ip2state$?GetPathName@CFileDialogMTL@@QEAA?AVCString@WTL@@XZ 000000014004d148     Propdlg.obj
 0002:0000e170       $unwind$?UpdateOFNFromShellDialog@CFileDialogMTL@@UEAAXXZ 000000014004d170     Propdlg.obj
 0002:0000e190       $stateUnwindMap$?UpdateOFNFromShellDialog@CFileDialogMTL@@UEAAXXZ 000000014004d190     Propdlg.obj
 0002:0000e1c0       $ip2state$?UpdateOFNFromShellDialog@CFileDialogMTL@@UEAAXXZ 000000014004d1c0     Propdlg.obj
 0002:0000e228       $unwind$?DoPromptFileName@CDocManager@@QEAAHAEAVCString@WTL@@IKHPEAVCDocTemplate@@@Z 000000014004d228     Propdlg.obj
 0002:0000e24c       $stateUnwindMap$?DoPromptFileName@CDocManager@@QEAAHAEAVCString@WTL@@IKHPEAVCDocTemplate@@@Z 000000014004d24c     Propdlg.obj
 0002:0000e280       $ip2state$?DoPromptFileName@CDocManager@@QEAAHAEAVCString@WTL@@IKHPEAVCDocTemplate@@@Z 000000014004d280     Propdlg.obj
 0002:0000e2d8       $unwind$?_AfxFullPath2@CAfx@@SAHPEA_WPEB_WPEAVCFileException@@@Z 000000014004d2d8     Propdlg.obj
 0002:0000e2fc       $stateUnwindMap$?OnUpdateNumPageChange@CPreviewView@@QEAAXPEAVCCmdUI@@@Z 000000014004d2fc     Stdafx.obj
 0002:0000e2fc       $stateUnwindMap$?_AfxFullPath2@CAfx@@SAHPEA_WPEB_WPEAVCFileException@@@Z 000000014004d2fc     Propdlg.obj
 0002:0000e2fc       $stateUnwindMap$?AfxResolveShortcut@@YAHPEAVCWMHnd@@PEB_WPEA_WH@Z 000000014004d2fc     Propdlg.obj
 0002:0000e308       $ip2state$?_AfxFullPath2@CAfx@@SAHPEA_WPEB_WPEAVCFileException@@@Z 000000014004d308     Propdlg.obj
 0002:0000e320       $unwind$?AfxStringFromCLSID@CAfx@@SA?AVCString@WTL@@AEBU_GUID@@@Z 000000014004d320     Propdlg.obj
 0002:0000e33c       $unwind$?AfxGetInProcServer@CAfx@@SAHPEB_WAEAVCString@WTL@@@Z 000000014004d33c     Propdlg.obj
 0002:0000e34c       $unwind$?GetClassObject@AFX_COM@@QEAAJAEBU_GUID@@0PEAPEAX@Z 000000014004d34c     Propdlg.obj
 0002:0000e364       $stateUnwindMap$?GetClassObject@AFX_COM@@QEAAJAEBU_GUID@@0PEAPEAX@Z 000000014004d364     Propdlg.obj
 0002:0000e378       $ip2state$?GetClassObject@AFX_COM@@QEAAJAEBU_GUID@@0PEAPEAX@Z 000000014004d378     Propdlg.obj
 0002:0000e3a0       $chain$0$??0CString@WTL@@QEAA@PEB_W@Z 000000014004d3a0     Propdlg.obj
 0002:0000e3b4       $chain$1$??0CString@WTL@@QEAA@PEB_W@Z 000000014004d3b4     Propdlg.obj
 0002:0000e3c4       $unwind$?AfxResolveShortcut@@YAHPEAVCWMHnd@@PEB_WPEA_WH@Z 000000014004d3c4     Propdlg.obj
 0002:0000e3e8       $ip2state$?AfxResolveShortcut@@YAHPEAVCWMHnd@@PEB_WPEA_WH@Z 000000014004d3e8     Propdlg.obj
 0002:0000e410       $unwind$?AfxComparePath@CAfx@@SAHPEB_W0@Z 000000014004d410     Propdlg.obj
 0002:0000e420       $chain$0$?AfxComparePath@CAfx@@SAHPEB_W0@Z 000000014004d420     Propdlg.obj
 0002:0000e434       $chain$2$?AfxComparePath@CAfx@@SAHPEB_W0@Z 000000014004d434     Propdlg.obj
 0002:0000e448       $unwind$?MatchDocType@CDocTemplate@@UEAA?AW4Confidence@1@PEB_WAEAPEAVCDocument@@@Z 000000014004d448     Propdlg.obj
 0002:0000e460       $stateUnwindMap$?MatchDocType@CDocTemplate@@UEAA?AW4Confidence@1@PEB_WAEAPEAVCDocument@@@Z 000000014004d460     Propdlg.obj
 0002:0000e468       $ip2state$?MatchDocType@CDocTemplate@@UEAA?AW4Confidence@1@PEB_WAEAPEAVCDocument@@@Z 000000014004d468     Propdlg.obj
 0002:0000e480       $unwind$?OpenDocumentFile@CDocManager@@QEAAPEAVCDocument@@PEB_WH@Z 000000014004d480     Propdlg.obj
 0002:0000e494       $chain$3$?OpenDocumentFile@CDocManager@@QEAAPEAVCDocument@@PEB_WH@Z 000000014004d494     Propdlg.obj
 0002:0000e4a8       $chain$4$?OpenDocumentFile@CDocManager@@QEAAPEAVCDocument@@PEB_WH@Z 000000014004d4a8     Propdlg.obj
 0002:0000e4b8       $unwind$?OnFileOpen@CDocManager@@UEAAXXZ 000000014004d4b8     Propdlg.obj
 0002:0000e4c8       $ip2state$?OnFileOpen@CDocManager@@UEAAXXZ 000000014004d4c8     Propdlg.obj
 0002:0000e4e0       $unwind$?OnInitDialog@CNewTypeDlg@@UEAAHXZ 000000014004d4e0     Propdlg.obj
 0002:0000e500       $stateUnwindMap$?OnInitDialog@CNewTypeDlg@@UEAAHXZ 000000014004d500     Propdlg.obj
 0002:0000e508       $ip2state$?OnInitDialog@CNewTypeDlg@@UEAAHXZ 000000014004d508     Propdlg.obj
 0002:0000e530       $unwind$?PreTranslateMessage@CWinApp@@UEAAHPEAUtagMSG@@@Z 000000014004d530     Propdlg.obj
 0002:0000e540       $chain$0$?PreTranslateMessage@CWinApp@@UEAAHPEAUtagMSG@@@Z 000000014004d540     Propdlg.obj
 0002:0000e554       $chain$1$?PreTranslateMessage@CWinApp@@UEAAHPEAUtagMSG@@@Z 000000014004d554     Propdlg.obj
 0002:0000e564       $unwind$?OnFileNew@CDocManager@@UEAAXXZ 000000014004d564     Propdlg.obj
 0002:0000e580       $stateUnwindMap$?OnFileNew@CDocManager@@UEAAXXZ 000000014004d580     Propdlg.obj
 0002:0000e5b0       $ip2state$?OnFileNew@CDocManager@@UEAAXXZ 000000014004d5b0     Propdlg.obj
 0002:0000e608       $unwind$??0CModalShapePropSheet@@QEAA@PEAVCWnd@@@Z 000000014004d608     Propsht.obj
 0002:0000e624       $stateUnwindMap$??0CModalShapePropSheet@@QEAA@PEAVCWnd@@@Z 000000014004d624     Propsht.obj
 0002:0000e648       $ip2state$??0CModalShapePropSheet@@QEAA@PEAVCWnd@@@Z 000000014004d648     Propsht.obj
 0002:0000e678       $unwind$??1CModalShapePropSheet@@UEAA@XZ 000000014004d678     Propsht.obj
 0002:0000e68c       $stateUnwindMap$??1CModalShapePropSheet@@UEAA@XZ 000000014004d68c     Propsht.obj
 0002:0000e6c0       $ip2state$??1CModalShapePropSheet@@UEAA@XZ 000000014004d6c0     Propsht.obj
 0002:0000e700       $unwind$?OnInitDialog@CModalShapePropSheet@@UEAAHXZ 000000014004d700     Propsht.obj
 0002:0000e700       $unwind$__crtCompareStringA 000000014004d700     LIBCMT:a_cmp.obj
 0002:0000e700       $unwind$?Load@CRuntimeClass@@SAPEAU1@AEAVCArchive@@PEAI@Z 000000014004d700     Shapedoc.obj
 0002:0000e700       $unwind$__crtGetStringTypeA 000000014004d700     LIBCMT:a_str.obj
 0002:0000e710       $unwind$?AddPage@CPropertySheetMTL@@QEAAXPEAVCPropertyPageMTL@@@Z 000000014004d710     Propsht.obj
 0002:0000e724       $chain$0$?AddPage@CPropertySheetMTL@@QEAAXPEAVCPropertyPageMTL@@@Z 000000014004d724     Propsht.obj
 0002:0000e738       $chain$1$?AddPage@CPropertySheetMTL@@QEAAXPEAVCPropertyPageMTL@@@Z 000000014004d738     Propsht.obj
 0002:0000e748       $chain$2$?AddPage@CPropertySheetMTL@@QEAAXPEAVCPropertyPageMTL@@@Z 000000014004d748     Propsht.obj
 0002:0000e75c       $unwind$??1CPropertySheetMTL@@UEAA@XZ 000000014004d75c     Propsht.obj
 0002:0000e770       $stateUnwindMap$??1CPropertySheetMTL@@UEAA@XZ 000000014004d770     Propsht.obj
 0002:0000e790       $ip2state$??1CPropertySheetMTL@@UEAA@XZ 000000014004d790     Propsht.obj
 0002:0000e7c8       $unwind$?OnCommand@CPropertySheetMTL@@UEAAH_K_J@Z 000000014004d7c8     Propsht.obj
 0002:0000e7dc       $chain$0$?AfxPropSheetCallback@CPropertySheetMTL@@SAHPEAUHWND__@@I_J@Z 000000014004d7dc     Propsht.obj
 0002:0000e7f0       $chain$2$?AfxPropSheetCallback@CPropertySheetMTL@@SAHPEAUHWND__@@I_J@Z 000000014004d7f0     Propsht.obj
 0002:0000e804       $unwind$?IsFontInstalled@CPropertyPageMTL@@SAHPEB_W@Z 000000014004d804     Propsht.obj
 0002:0000e810       $unwind$?AfxGetPropSheetFont@CPropertyPageMTL@@SAHAEAVCString@WTL@@AEAGH@Z 000000014004d810     Propsht.obj
 0002:0000e820       $chain$0$?AfxGetPropSheetFont@CPropertyPageMTL@@SAHAEAVCString@WTL@@AEAGH@Z 000000014004d820     Propsht.obj
 0002:0000e834       $chain$2$?AfxGetPropSheetFont@CPropertyPageMTL@@SAHAEAVCString@WTL@@AEAGH@Z 000000014004d834     Propsht.obj
 0002:0000e84c       $chain$3$?AfxGetPropSheetFont@CPropertyPageMTL@@SAHAEAVCString@WTL@@AEAGH@Z 000000014004d84c     Propsht.obj
 0002:0000e85c       $chain$4$?AfxGetPropSheetFont@CPropertyPageMTL@@SAHAEAVCString@WTL@@AEAGH@Z 000000014004d85c     Propsht.obj
 0002:0000e86c       $unwind$?SetFont@CDialogTemplate@@QEAAHPEB_WG@Z 000000014004d86c     Propsht.obj
 0002:0000e888       $unwind$?_AfxChangePropPageFont@CPropertyPageMTL@@SAPEAUDLGTEMPLATE@@PEBU2@H@Z 000000014004d888     Propsht.obj
 0002:0000e8a8       $stateUnwindMap$?_AfxChangePropPageFont@CPropertyPageMTL@@SAPEAUDLGTEMPLATE@@PEBU2@H@Z 000000014004d8a8     Propsht.obj
 0002:0000e8b8       $ip2state$?_AfxChangePropPageFont@CPropertyPageMTL@@SAPEAUDLGTEMPLATE@@PEBU2@H@Z 000000014004d8b8     Propsht.obj
 0002:0000e8f0       $unwind$?BuildPropPageArray@CPropertySheetMTL@@UEAAXXZ 000000014004d8f0     Propsht.obj
 0002:0000e904       $chain$1$?BuildPropPageArray@CPropertySheetMTL@@UEAAXXZ 000000014004d904     Propsht.obj
 0002:0000e91c       $chain$2$?BuildPropPageArray@CPropertySheetMTL@@UEAAXXZ 000000014004d91c     Propsht.obj
 0002:0000e92c       $chain$3$?BuildPropPageArray@CPropertySheetMTL@@UEAAXXZ 000000014004d92c     Propsht.obj
 0002:0000e944       $chain$5$?DoModal@CPropertySheetMTL@@UEAA_JXZ 000000014004d944     Propsht.obj
 0002:0000e96c       $chain$6$?DoModal@CPropertySheetMTL@@UEAA_JXZ 000000014004d96c     Propsht.obj
 0002:0000e988       $chain$7$?DoModal@CPropertySheetMTL@@UEAA_JXZ 000000014004d988     Propsht.obj
 0002:0000e9a0       $chain$8$?DoModal@CPropertySheetMTL@@UEAA_JXZ 000000014004d9a0     Propsht.obj
 0002:0000e9b4       $unwind$??0CPropertySheetMTL@@QEAA@IPEAVCWnd@@I@Z 000000014004d9b4     Propsht.obj
 0002:0000e9d0       $stateUnwindMap$??0CPropertySheetMTL@@QEAA@IPEAVCWnd@@I@Z 000000014004d9d0     Propsht.obj
 0002:0000e9e8       $ip2state$??0CPropertySheetMTL@@QEAA@IPEAVCWnd@@I@Z 000000014004d9e8     Propsht.obj
 0002:0000ea10       $unwind$?OnInitDialog@CPropertySheetMTL@@UEAAHXZ 000000014004da10     Propsht.obj
 0002:0000ea1c       $chain$2$?OnInitDialog@CPropertySheetMTL@@UEAAHXZ 000000014004da1c     Propsht.obj
 0002:0000ea38       $chain$3$?OnInitDialog@CPropertySheetMTL@@UEAAHXZ 000000014004da38     Propsht.obj
 0002:0000ea4c       $chain$4$?OnInitDialog@CPropertySheetMTL@@UEAAHXZ 000000014004da4c     Propsht.obj
 0002:0000ea60       $chain$5$?OnInitDialog@CPropertySheetMTL@@UEAAHXZ 000000014004da60     Propsht.obj
 0002:0000ea70       $chain$6$?OnInitDialog@CPropertySheetMTL@@UEAAHXZ 000000014004da70     Propsht.obj
 0002:0000ea80       $chain$7$?OnInitDialog@CPropertySheetMTL@@UEAAHXZ 000000014004da80     Propsht.obj
 0002:0000ea90       $unwind$?_ProcessWindowMessage@CPropertySheetMTL@@UEAAHPEAUHWND__@@I_K_JAEA_J@Z 000000014004da90     Propsht.obj
 0002:0000eaa8       $ip2state$?_ProcessWindowMessage@CPropertySheetMTL@@UEAAHPEAUHWND__@@I_K_JAEA_J@Z 000000014004daa8     Propsht.obj
 0002:0000eac0       $unwind$??0CModelessShapePropSheet@@QEAA@PEAVCWnd@@@Z 000000014004dac0     Propsht2.obj
 0002:0000ead8       $stateUnwindMap$??0CModelessShapePropSheet@@QEAA@PEAVCWnd@@@Z 000000014004dad8     Propsht2.obj
 0002:0000eaf0       $ip2state$??0CModelessShapePropSheet@@QEAA@PEAVCWnd@@@Z 000000014004daf0     Propsht2.obj
 0002:0000eb18       $unwind$??_GCModelessShapePropSheet@@UEAAPEAXI@Z 000000014004db18     Propsht2.obj
 0002:0000eb2c       $stateUnwindMap$??_GCModelessShapePropSheet@@UEAAPEAXI@Z 000000014004db2c     Propsht2.obj
 0002:0000eb40       $ip2state$??_GCModelessShapePropSheet@@UEAAPEAXI@Z 000000014004db40     Propsht2.obj
 0002:0000eb60       $unwind$?SetSheetPropsFromShape@CModelessShapePropSheet@@QEAAXPEAVCShape@@@Z 000000014004db60     Propsht2.obj
 0002:0000eb70       $unwind$?Serialize@?$CTypedPtrList@V?$CList@PEAVCObject@@AEBQEAV1@@@PEAVCShape@@@@QEAAXAEAVCArchive@@@Z 000000014004db70     Shapedoc.obj
 0002:0000eb7c       $chain$0$?Serialize@?$CTypedPtrList@V?$CList@PEAVCObject@@AEBQEAV1@@@PEAVCShape@@@@QEAAXAEAVCArchive@@@Z 000000014004db7c     Shapedoc.obj
 0002:0000eb90       $chain$3$?Serialize@?$CTypedPtrList@V?$CList@PEAVCObject@@AEBQEAV1@@@PEAVCShape@@@@QEAAXAEAVCArchive@@@Z 000000014004db90     Shapedoc.obj
 0002:0000ebac       $chain$4$?Serialize@?$CTypedPtrList@V?$CList@PEAVCObject@@AEBQEAV1@@@PEAVCShape@@@@QEAAXAEAVCArchive@@@Z 000000014004dbac     Shapedoc.obj
 0002:0000ebbc       $chain$5$?Serialize@?$CTypedPtrList@V?$CList@PEAVCObject@@AEBQEAV1@@@PEAVCShape@@@@QEAAXAEAVCArchive@@@Z 000000014004dbbc     Shapedoc.obj
 0002:0000ebcc       $unwind$?OnOpenDocument@CDocument@@UEAAHPEB_W@Z 000000014004dbcc     Shapedoc.obj
 0002:0000ebec       $stateUnwindMap$?OnOpenDocument@CDocument@@UEAAHPEB_W@Z 000000014004dbec     Shapedoc.obj
 0002:0000ec1c       $tryMap$?OnOpenDocument@CDocument@@UEAAHPEB_W@Z 000000014004dc1c     Shapedoc.obj
 0002:0000ec30       $handlerMap$0$?OnOpenDocument@CDocument@@UEAAHPEB_W@Z 000000014004dc30     Shapedoc.obj
 0002:0000ec50       $ip2state$?OnOpenDocument@CDocument@@UEAAHPEB_W@Z 000000014004dc50     Shapedoc.obj
 0002:0000ecc0       $unwind$?catch$0@?0??OnOpenDocument@CDocument@@UEAAHPEB_W@Z@4HA 000000014004dcc0     Shapedoc.obj
 0002:0000ecd4       $unwind$?Read@CArchive@@QEAAIPEAXI@Z 000000014004dcd4     Shapedoc.obj
 0002:0000ecec       $chain$4$?Read@CArchive@@QEAAIPEAXI@Z 000000014004dcec     Shapedoc.obj
 0002:0000ed04       $chain$5$?Read@CArchive@@QEAAIPEAXI@Z 000000014004dd04     Shapedoc.obj
 0002:0000ed14       $unwind$?ReadClass@CArchive@@QEAAPEAUCRuntimeClass@@PEBU2@PEAIPEAK@Z 000000014004dd14     Shapedoc.obj
 0002:0000ed20       $chain$1$?ReadClass@CArchive@@QEAAPEAUCRuntimeClass@@PEBU2@PEAIPEAK@Z 000000014004dd20     Shapedoc.obj
 0002:0000ed38       $chain$3$?ReadClass@CArchive@@QEAAPEAUCRuntimeClass@@PEBU2@PEAIPEAK@Z 000000014004dd38     Shapedoc.obj
 0002:0000ed50       $chain$4$?ReadClass@CArchive@@QEAAPEAUCRuntimeClass@@PEBU2@PEAIPEAK@Z 000000014004dd50     Shapedoc.obj
 0002:0000ed60       $chain$5$?ReadClass@CArchive@@QEAAPEAUCRuntimeClass@@PEBU2@PEAIPEAK@Z 000000014004dd60     Shapedoc.obj
 0002:0000ed70       $chain$6$?ReadClass@CArchive@@QEAAPEAUCRuntimeClass@@PEBU2@PEAIPEAK@Z 000000014004dd70     Shapedoc.obj
 0002:0000ed88       $chain$7$?ReadClass@CArchive@@QEAAPEAUCRuntimeClass@@PEBU2@PEAIPEAK@Z 000000014004dd88     Shapedoc.obj
 0002:0000eda8       $unwind$?ReadObject@CArchive@@QEAAPEAVCObject@@PEBUCRuntimeClass@@@Z 000000014004dda8     Shapedoc.obj
 0002:0000edc0       $tryMap$?ReadObject@CArchive@@QEAAPEAVCObject@@PEBUCRuntimeClass@@@Z 000000014004ddc0     Shapedoc.obj
 0002:0000edd4       $handlerMap$0$?ReadObject@CArchive@@QEAAPEAVCObject@@PEBUCRuntimeClass@@@Z 000000014004ddd4     Shapedoc.obj
 0002:0000ede8       $ip2state$?ReadObject@CArchive@@QEAAPEAVCObject@@PEBUCRuntimeClass@@@Z 000000014004dde8     Shapedoc.obj
 0002:0000ee10       $unwind$?catch$0@?0??ReadObject@CArchive@@QEAAPEAVCObject@@PEBUCRuntimeClass@@@Z@4HA 000000014004de10     Shapedoc.obj
 0002:0000ee20       $chain$1$?FillBuffer@CArchive@@QEAAXI@Z 000000014004de20     Shapedoc.obj
 0002:0000ee38       $chain$3$?FillBuffer@CArchive@@QEAAXI@Z 000000014004de38     Shapedoc.obj
 0002:0000ee50       $chain$4$?FillBuffer@CArchive@@QEAAXI@Z 000000014004de50     Shapedoc.obj
 0002:0000ee60       $chain$5$?FillBuffer@CArchive@@QEAAXI@Z 000000014004de60     Shapedoc.obj
 0002:0000ee70       $unwind$?EnsureSchemaMapExists@CArchive@@QEAAXPEAPEAV?$CArray@W4LoadArrayObjType@CArchive@@AEBW412@@@@Z 000000014004de70     Shapedoc.obj
 0002:0000ee88       $tryMap$?EnsureSchemaMapExists@CArchive@@QEAAXPEAPEAV?$CArray@W4LoadArrayObjType@CArchive@@AEBW412@@@@Z 000000014004de88     Shapedoc.obj
 0002:0000ee9c       $handlerMap$0$?EnsureSchemaMapExists@CArchive@@QEAAXPEAPEAV?$CArray@W4LoadArrayObjType@CArchive@@AEBW412@@@@Z 000000014004de9c     Shapedoc.obj
 0002:0000eeb0       $ip2state$?EnsureSchemaMapExists@CArchive@@QEAAXPEAPEAV?$CArray@W4LoadArrayObjType@CArchive@@AEBW412@@@@Z 000000014004deb0     Shapedoc.obj
 0002:0000eee0       $unwind$?catch$0@?0??EnsureSchemaMapExists@CArchive@@QEAAXPEAPEAV?$CArray@W4LoadArrayObjType@CArchive@@AEBW412@@@@Z@4HA 000000014004dee0     Shapedoc.obj
 0002:0000eef4       $unwind$?MapObject@CArchive@@QEAAXPEBVCObject@@@Z 000000014004def4     Shapedoc.obj
 0002:0000ef00       $chain$0$?MapObject@CArchive@@QEAAXPEBVCObject@@@Z 000000014004df00     Shapedoc.obj
 0002:0000ef14       $chain$1$?MapObject@CArchive@@QEAAXPEBVCObject@@@Z 000000014004df14     Shapedoc.obj
 0002:0000ef24       $unwind$?Write@CArchive@@QEAAXPEBXI@Z 000000014004df24     Shapedoc.obj
 0002:0000ef34       $chain$1$?Write@CArchive@@QEAAXPEBXI@Z 000000014004df34     Shapedoc.obj
 0002:0000ef4c       $chain$2$?Write@CArchive@@QEAAXPEBXI@Z 000000014004df4c     Shapedoc.obj
 0002:0000ef5c       $unwind$?WriteClass@CArchive@@QEAAXPEBUCRuntimeClass@@@Z 000000014004df5c     Shapedoc.obj
 0002:0000ef5c       $unwind$?_AtlCreateDC@WTL@@YAPEAUHDC__@@PEAX0@Z 000000014004df5c     Shapesvw.obj
 0002:0000ef68       $chain$0$?WriteClass@CArchive@@QEAAXPEBUCRuntimeClass@@@Z 000000014004df68     Shapedoc.obj
 0002:0000ef7c       $chain$6$?WriteClass@CArchive@@QEAAXPEBUCRuntimeClass@@@Z 000000014004df7c     Shapedoc.obj
 0002:0000ef7c       $chain$2$?WriteClass@CArchive@@QEAAXPEBUCRuntimeClass@@@Z 000000014004df7c     Shapedoc.obj
 0002:0000ef7c       $chain$4$?WriteClass@CArchive@@QEAAXPEBUCRuntimeClass@@@Z 000000014004df7c     Shapedoc.obj
 0002:0000ef90       $chain$5$?WriteClass@CArchive@@QEAAXPEBUCRuntimeClass@@@Z 000000014004df90     Shapedoc.obj
 0002:0000efa0       $unwind$?AfxThrowArchiveException@CArchive@@SAXHPEB_W@Z 000000014004dfa0     Shapedoc.obj
 0002:0000efb8       $stateUnwindMap$?AfxThrowArchiveException@CArchive@@SAXHPEB_W@Z 000000014004dfb8     Shapedoc.obj
 0002:0000efc8       $ip2state$?AfxThrowArchiveException@CArchive@@SAXHPEB_W@Z 000000014004dfc8     Shapedoc.obj
 0002:0000eff0       $chain$1$?FindData@?$CMapList@PEAXPEAXV?$CPair@PEAXPEAX@@$0A@@@QEAAAEAV?$CPair@PEAXPEAX@@QEAXH@Z 000000014004dff0     Shapedoc.obj
 0002:0000f008       $chain$2$?FindData@?$CMapList@PEAXPEAXV?$CPair@PEAXPEAX@@$0A@@@QEAAAEAV?$CPair@PEAXPEAX@@QEAXH@Z 000000014004e008     Shapedoc.obj
 0002:0000f018       $chain$0$?WriteObject@CArchive@@QEAAXPEBVCObject@@@Z 000000014004e018     Shapedoc.obj
 0002:0000f02c       $chain$4$?WriteObject@CArchive@@QEAAXPEBVCObject@@@Z 000000014004e02c     Shapedoc.obj
 0002:0000f02c       $chain$2$?WriteObject@CArchive@@QEAAXPEBVCObject@@@Z 000000014004e02c     Shapedoc.obj
 0002:0000f02c       $chain$6$?WriteObject@CArchive@@QEAAXPEBVCObject@@@Z 000000014004e02c     Shapedoc.obj
 0002:0000f040       $chain$5$?WriteObject@CArchive@@QEAAXPEBVCObject@@@Z 000000014004e040     Shapedoc.obj
 0002:0000f050       $unwind$?AfxFormatStrings@CAfx@@SAXAEAVCString@WTL@@PEB_WPEBQEB_WH@Z 000000014004e050     Shapedoc.obj
 0002:0000f05c       $chain$2$?AfxFormatStrings@CAfx@@SAXAEAVCString@WTL@@PEB_WPEBQEB_WH@Z 000000014004e05c     Shapedoc.obj
 0002:0000f078       $chain$4$?AfxFormatStrings@CAfx@@SAXAEAVCString@WTL@@PEB_WPEBQEB_WH@Z 000000014004e078     Shapedoc.obj
 0002:0000f090       $chain$5$?AfxFormatStrings@CAfx@@SAXAEAVCString@WTL@@PEB_WPEBQEB_WH@Z 000000014004e090     Shapedoc.obj
 0002:0000f0a0       $chain$6$?AfxFormatStrings@CAfx@@SAXAEAVCString@WTL@@PEB_WPEBQEB_WH@Z 000000014004e0a0     Shapedoc.obj
 0002:0000f0b0       $unwind$?SaveModified@CDocument@@UEAAHXZ 000000014004e0b0     Shapedoc.obj
 0002:0000f0d0       $stateUnwindMap$?SaveModified@CDocument@@UEAAHXZ 000000014004e0d0     Shapedoc.obj
 0002:0000f0f0       $ip2state$?SaveModified@CDocument@@UEAAHXZ 000000014004e0f0     Shapedoc.obj
 0002:0000f138       $chain$1$?CDocumentDestruct@CDocument@@QEAAXXZ 000000014004e138     Shapedoc.obj
 0002:0000f150       $chain$2$?CDocumentDestruct@CDocument@@QEAAXXZ 000000014004e150     Shapedoc.obj
 0002:0000f160       $unwind$??1CDocument@@UEAA@XZ 000000014004e160     Shapedoc.obj
 0002:0000f178       $stateUnwindMap$??1CDocument@@UEAA@XZ 000000014004e178     Shapedoc.obj
 0002:0000f190       $ip2state$??1CDocument@@UEAA@XZ 000000014004e190     Shapedoc.obj
 0002:0000f1b8       $unwind$??0CArchive@@QEAA@PEAVCFile@@IHPEAX@Z 000000014004e1b8     Shapedoc.obj
 0002:0000f1d0       $stateUnwindMap$??0CArchive@@QEAA@PEAVCFile@@IHPEAX@Z 000000014004e1d0     Shapedoc.obj
 0002:0000f1e0       $ip2state$??0CArchive@@QEAA@PEAVCFile@@IHPEAX@Z 000000014004e1e0     Shapedoc.obj
 0002:0000f208       $unwind$?GetStatus@CFile@@QEBAHAEAUCFileStatus@@@Z 000000014004e208     Shapedoc.obj
 0002:0000f214       $unwind$?GetFilePath@CFile@@UEBA?AVCString@WTL@@XZ 000000014004e214     Shapedoc.obj
 0002:0000f224       $unwind$?Open@CFile@@UEAAHPEB_WIPEAVCFileException@@@Z 000000014004e224     Shapedoc.obj
 0002:0000f244       $unwind$?Write@CFile@@UEAAXPEBXI@Z 000000014004e244     Shapedoc.obj
 0002:0000f260       $stateUnwindMap$?Write@CFile@@UEAAXPEBXI@Z 000000014004e260     Shapedoc.obj
 0002:0000f270       $ip2state$?Write@CFile@@UEAAXPEBXI@Z 000000014004e270     Shapedoc.obj
 0002:0000f298       $unwind$??0CFileException@@QEAA@HJPEB_W@Z 000000014004e298     Shapedoc.obj
 0002:0000f2b0       $stateUnwindMap$??0CFileException@@QEAA@HJPEB_W@Z 000000014004e2b0     Shapedoc.obj
 0002:0000f2b8       $ip2state$??0CFileException@@QEAA@HJPEB_W@Z 000000014004e2b8     Shapedoc.obj
 0002:0000f2d0       $unwind$?ThrowOsError@CFileException@@SAXJPEB_W@Z 000000014004e2d0     Shapedoc.obj
 0002:0000f2e8       $stateUnwindMap$?ThrowOsError@CFileException@@SAXJPEB_W@Z 000000014004e2e8     Shapedoc.obj
 0002:0000f2e8       $stateUnwindMap$?Close@CFile@@UEAAXXZ 000000014004e2e8     Shapedoc.obj
 0002:0000f2f0       $ip2state$?ThrowOsError@CFileException@@SAXJPEB_W@Z 000000014004e2f0     Shapedoc.obj
 0002:0000f308       $unwind$?Close@CFile@@UEAAXXZ 000000014004e308     Shapedoc.obj
 0002:0000f320       $ip2state$?Close@CFile@@UEAAXXZ 000000014004e320     Shapedoc.obj
 0002:0000f338       $unwind$??_GCFile@@QEAAPEAXI@Z 000000014004e338     Shapedoc.obj
 0002:0000f348       $stateUnwindMap$??_GCFile@@QEAAPEAXI@Z 000000014004e348     Shapedoc.obj
 0002:0000f350       $ip2state$??_GCFile@@QEAAPEAXI@Z 000000014004e350     Shapedoc.obj
 0002:0000f368       $unwind$?OnSaveDocument@CDocument@@UEAAHPEB_W@Z 000000014004e368     Shapedoc.obj
 0002:0000f388       $stateUnwindMap$?OnSaveDocument@CDocument@@UEAAHPEB_W@Z 000000014004e388     Shapedoc.obj
 0002:0000f3b0       $ip2state$?OnSaveDocument@CDocument@@UEAAHPEB_W@Z 000000014004e3b0     Shapedoc.obj
 0002:0000f3f8       $unwind$?SetPathName@CDocument@@UEAAXPEB_WH@Z 000000014004e3f8     Shapedoc.obj
 0002:0000f404       $chain$0$?SetPathName@CDocument@@UEAAXPEB_WH@Z 000000014004e404     Shapedoc.obj
 0002:0000f418       $chain$2$?SetPathName@CDocument@@UEAAXPEB_WH@Z 000000014004e418     Shapedoc.obj
 0002:0000f430       $chain$3$?SetPathName@CDocument@@UEAAXPEB_WH@Z 000000014004e430     Shapedoc.obj
 0002:0000f444       $chain$4$?SetPathName@CDocument@@UEAAXPEB_WH@Z 000000014004e444     Shapedoc.obj
 0002:0000f454       $chain$5$?SetPathName@CDocument@@UEAAXPEB_WH@Z 000000014004e454     Shapedoc.obj
 0002:0000f468       $chain$6$?SetPathName@CDocument@@UEAAXPEB_WH@Z 000000014004e468     Shapedoc.obj
 0002:0000f478       $unwind$?DoSave@CDocument@@UEAAHPEB_WH@Z 000000014004e478     Shapedoc.obj
 0002:0000f498       $stateUnwindMap$?DoSave@CDocument@@UEAAHPEB_WH@Z 000000014004e498     Shapedoc.obj
 0002:0000f4c0       $ip2state$?DoSave@CDocument@@UEAAHPEB_WH@Z 000000014004e4c0     Shapedoc.obj
 0002:0000f508       $unwind$?Draw@CShape@@QEAAXPEAVCDCMTL@@H@Z 000000014004e508     Shapeobj.obj
 0002:0000f528       $stateUnwindMap$?Draw@CShape@@QEAAXPEAVCDCMTL@@H@Z 000000014004e528     Shapeobj.obj
 0002:0000f538       $ip2state$?Draw@CShape@@QEAAXPEAVCDCMTL@@H@Z 000000014004e538     Shapeobj.obj
 0002:0000f560       $chain$0$?Serialize@CShape@@UEAAXAEAVCArchive@@@Z 000000014004e560     Shapeobj.obj
 0002:0000f574       $chain$1$?Serialize@CShape@@UEAAXAEAVCArchive@@@Z 000000014004e574     Shapeobj.obj
 0002:0000f584       $unwind$?_ProcessWindowMessage@CShapesView@@UEAAHPEAUHWND__@@I_K_JAEA_J@Z 000000014004e584     Shapesvw.obj
 0002:0000f590       $chain$0$?_ProcessWindowMessage@CShapesView@@UEAAHPEAUHWND__@@I_K_JAEA_J@Z 000000014004e590     Shapesvw.obj
 0002:0000f5a4       $chain$6$?_ProcessWindowMessage@CShapesView@@UEAAHPEAUHWND__@@I_K_JAEA_J@Z 000000014004e5a4     Shapesvw.obj
 0002:0000f5c8       $unwind$??_GCShapesView@@UEAAPEAXI@Z 000000014004e5c8     Shapesvw.obj
 0002:0000f5c8       $unwind$??_GCView@@UEAAPEAXI@Z 000000014004e5c8     Shapesvw.obj
 0002:0000f5e0       $ip2state$??_GCView@@UEAAPEAXI@Z 000000014004e5e0     Shapesvw.obj
 0002:0000f5e0       $ip2state$??_GCShapesView@@UEAAPEAXI@Z 000000014004e5e0     Shapesvw.obj
 0002:0000f610       $unwind$?OnDraw@CShapesView@@UEAAXPEAVCDCMTL@@@Z 000000014004e610     Shapesvw.obj
 0002:0000f610       $unwind$_CallSETranslator$filt$0 000000014004e610     LIBCMT:trnsctrl.obj
 0002:0000f610       $unwind$_tzset_nolock$fin$0 000000014004e610     LIBCMT:tzset.obj
 0002:0000f618       $chain$1$?OnDraw@CShapesView@@UEAAXPEAVCDCMTL@@@Z 000000014004e618     Shapesvw.obj
 0002:0000f630       $chain$2$?OnDraw@CShapesView@@UEAAXPEAVCDCMTL@@@Z 000000014004e630     Shapesvw.obj
 0002:0000f644       $chain$3$?OnDraw@CShapesView@@UEAAXPEAVCDCMTL@@@Z 000000014004e644     Shapesvw.obj
 0002:0000f654       $chain$4$?OnDraw@CShapesView@@UEAAXPEAVCDCMTL@@@Z 000000014004e654     Shapesvw.obj
 0002:0000f664       $unwind$?OnLButtonDown@CShapesView@@IEAAXIVCPoint@WTL@@@Z 000000014004e664     Shapesvw.obj
 0002:0000f688       $stateUnwindMap$?OnLButtonDown@CShapesView@@IEAAXIVCPoint@WTL@@@Z 000000014004e688     Shapesvw.obj
 0002:0000f690       $ip2state$?OnLButtonDown@CShapesView@@IEAAXIVCPoint@WTL@@@Z 000000014004e690     Shapesvw.obj
 0002:0000f6a8       $unwind$?OnSimplePropertySheet@CShapesView@@IEAAXXZ 000000014004e6a8     Shapesvw.obj
 0002:0000f6bc       $stateUnwindMap$?OnSimplePropertySheet@CShapesView@@IEAAXXZ 000000014004e6bc     Shapesvw.obj
 0002:0000f6d8       $ip2state$?OnSimplePropertySheet@CShapesView@@IEAAXXZ 000000014004e6d8     Shapesvw.obj
 0002:0000f710       $unwind$?OnPropertySheetWithPreview@CShapesView@@IEAAXXZ 000000014004e710     Shapesvw.obj
 0002:0000f720       $stateUnwindMap$?CreateObject@CPreviewView@@SAPEAVCObject@@XZ 000000014004e720     Stdafx.obj
 0002:0000f720       $stateUnwindMap$?CreateObject@CMiniFrameWnd@@SAPEAVCObject@@XZ 000000014004e720     Stdafx.obj
 0002:0000f720       $stateUnwindMap$?CreateObject@CFrameWnd@@SAPEAVCObject@@XZ 000000014004e720     Stdafx.obj
 0002:0000f720       $stateUnwindMap$?OnPropertySheetWithPreview@CShapesView@@IEAAXXZ 000000014004e720     Shapesvw.obj
 0002:0000f720       $stateUnwindMap$?CreateObject@CMDIChildWnd@@SAPEAVCObject@@XZ 000000014004e720     Stdafx.obj
 0002:0000f720       $stateUnwindMap$?CreateObject@CMDIFrameWnd@@SAPEAVCObject@@XZ 000000014004e720     Stdafx.obj
 0002:0000f728       $ip2state$?OnPropertySheetWithPreview@CShapesView@@IEAAXXZ 000000014004e728     Shapesvw.obj
 0002:0000f740       $unwind$?OnChangeObjectProps@CShapesView@@IEAA_J_K_J@Z 000000014004e740     Shapesvw.obj
 0002:0000f748       $chain$0$?_AtlCreateDC@WTL@@YAPEAUHDC__@@PEAX0@Z 000000014004e748     Shapesvw.obj
 0002:0000f75c       $chain$2$?_AtlCreateDC@WTL@@YAPEAUHDC__@@PEAX0@Z 000000014004e75c     Shapesvw.obj
 0002:0000f770       $unwind$?DoPreparePrinting@CView@@QEAAHPEAUCPrintInfo@@@Z 000000014004e770     Shapesvw.obj
 0002:0000f780       $unwind$?Create@CDialogBar@@UEAAHPEAVCWnd@@PEB_WII@Z 000000014004e780     Shapesvw.obj
 0002:0000f798       $unwind$??1CDialogBar@@UEAA@XZ 000000014004e798     Shapesvw.obj
 0002:0000f7a8       $stateUnwindMap$??1CDialogBar@@UEAA@XZ 000000014004e7a8     Shapesvw.obj
 0002:0000f7d0       $ip2state$??1CDialogBar@@UEAA@XZ 000000014004e7d0     Shapesvw.obj
 0002:0000f810       $unwind$?OnMouseActivate@CView@@QEAAHPEAVCWnd@@II@Z 000000014004e810     Shapesvw.obj
 0002:0000f81c       $chain$0$?OnMouseActivate@CView@@QEAAHPEAVCWnd@@II@Z 000000014004e81c     Shapesvw.obj
 0002:0000f830       $chain$1$?OnMouseActivate@CView@@QEAAHPEAVCWnd@@II@Z 000000014004e830     Shapesvw.obj
 0002:0000f844       $chain$2$?OnMouseActivate@CView@@QEAAHPEAVCWnd@@II@Z 000000014004e844     Shapesvw.obj
 0002:0000f854       $chain$4$?OnMouseActivate@CView@@QEAAHPEAVCWnd@@II@Z 000000014004e854     Shapesvw.obj
 0002:0000f868       $chain$5$?OnMouseActivate@CView@@QEAAHPEAVCWnd@@II@Z 000000014004e868     Shapesvw.obj
 0002:0000f878       $unwind$?OnPaint@CView@@QEAAXXZ 000000014004e878     Shapesvw.obj
 0002:0000f890       $stateUnwindMap$?OnPaint@CView@@QEAAXXZ 000000014004e890     Shapesvw.obj
 0002:0000f898       $ip2state$?OnPaint@CView@@QEAAXXZ 000000014004e898     Shapesvw.obj
 0002:0000f8b0       $unwind$?_ProcessWindowMessage@CView@@UEAAHPEAUHWND__@@I_K_JAEA_J@Z 000000014004e8b0     Shapesvw.obj
 0002:0000f8c8       $ip2state$?_ProcessWindowMessage@CView@@UEAAHPEAUHWND__@@I_K_JAEA_J@Z 000000014004e8c8     Shapesvw.obj
 0002:0000f8e0       $unwind$??1CView@@UEAA@XZ  000000014004e8e0     Shapesvw.obj
 0002:0000f8f0       $ip2state$??1CView@@UEAA@XZ 000000014004e8f0     Shapesvw.obj
 0002:0000f920       $unwind$?MirrorFont@CPreviewDC@@QEAAXXZ 000000014004e920     Shapesvw.obj
 0002:0000f92c       $chain$0$?MirrorFont@CPreviewDC@@QEAAXXZ 000000014004e92c     Shapesvw.obj
 0002:0000f940       $chain$3$?MirrorFont@CPreviewDC@@QEAAXXZ 000000014004e940     Shapesvw.obj
 0002:0000f95c       $chain$4$?MirrorFont@CPreviewDC@@QEAAXXZ 000000014004e95c     Shapesvw.obj
 0002:0000f974       $chain$5$?MirrorFont@CPreviewDC@@QEAAXXZ 000000014004e974     Shapesvw.obj
 0002:0000f98c       $chain$6$?MirrorFont@CPreviewDC@@QEAAXXZ 000000014004e98c     Shapesvw.obj
 0002:0000f99c       $unwind$?ComputeDeltas@CPreviewDC@@QEAA?AVCSize@WTL@@AEAHPEB_WAEAIHIPEAHHPEA_W30@Z 000000014004e99c     Shapesvw.obj
 0002:0000f9b4       $unwind$?ExtTextOutW@CPreviewDC@@QEAAHHHIPEBUtagRECT@@PEB_WIPEAH@Z 000000014004e9b4     Shapesvw.obj
 0002:0000f9d8       $stateUnwindMap$?ExtTextOutW@CPreviewDC@@QEAAHHHIPEBUtagRECT@@PEB_WIPEAH@Z 000000014004e9d8     Shapesvw.obj
 0002:0000f9e8       $ip2state$?ExtTextOutW@CPreviewDC@@QEAAHHHIPEBUtagRECT@@PEB_WIPEAH@Z 000000014004e9e8     Shapesvw.obj
 0002:0000fa10       $unwind$??0CPreviewDC@@QEAA@XZ 000000014004ea10     Shapesvw.obj
 0002:0000fa24       $stateUnwindMap$??0CPreviewDC@@QEAA@XZ 000000014004ea24     Shapesvw.obj
 0002:0000fa30       $ip2state$??0CPreviewDC@@QEAA@XZ 000000014004ea30     Shapesvw.obj
 0002:0000fa48       $unwind$?GetScrollBarState@CScrollView@@QEAAXVCSize@WTL@@AEAV23@1AEAVCPoint@3@H@Z 000000014004ea48     Shapesvw.obj
 0002:0000fa5c       $unwind$?ScrollWindow@CWMHnd@@QEAAXHHPEBUtagRECT@@0@Z 000000014004ea5c     Shapesvw.obj
 0002:0000fa70       $chain$0$?ScrollWindow@CWMHnd@@QEAAXHHPEBUtagRECT@@0@Z 000000014004ea70     Shapesvw.obj
 0002:0000fa84       $chain$1$?ScrollWindow@CWMHnd@@QEAAXHHPEBUtagRECT@@0@Z 000000014004ea84     Shapesvw.obj
 0002:0000fa94       $unwind$?UpdateBars@CScrollView@@QEAAXXZ 000000014004ea94     Shapesvw.obj
 0002:0000faa0       $chain$5$?UpdateBars@CScrollView@@QEAAXXZ 000000014004eaa0     Shapesvw.obj
 0002:0000fac8       $chain$6$?UpdateBars@CScrollView@@QEAAXXZ 000000014004eac8     Shapesvw.obj
 0002:0000fad8       $chain$0$?SetCurrentPage@CPreviewView@@QEAAXIH@Z 000000014004ead8     Shapesvw.obj
 0002:0000faec       $chain$1$?SetCurrentPage@CPreviewView@@QEAAXIH@Z 000000014004eaec     Shapesvw.obj
 0002:0000fb00       $chain$2$?SetCurrentPage@CPreviewView@@QEAAXIH@Z 000000014004eb00     Shapesvw.obj
 0002:0000fb10       $chain$3$?SetCurrentPage@CPreviewView@@QEAAXIH@Z 000000014004eb10     Shapesvw.obj
 0002:0000fb20       $unwind$?SetPrintView@CPreviewView@@QEAAHPEAVCView@@@Z 000000014004eb20     Shapesvw.obj
 0002:0000fb38       $stateUnwindMap$?SetPrintView@CPreviewView@@QEAAHPEAVCView@@@Z 000000014004eb38     Shapesvw.obj
 0002:0000fb48       $ip2state$?SetPrintView@CPreviewView@@QEAAHPEAVCView@@@Z 000000014004eb48     Shapesvw.obj
 0002:0000fb70       $unwind$?OnEndPrintPreview@CView@@UEAAXPEAVCDCMTL@@PEAUCPrintInfo@@UtagPOINT@@PEAVCPreviewView@@@Z 000000014004eb70     Shapesvw.obj
 0002:0000fb88       $unwind$?OnActivateView@CView@@UEAAXHPEAV1@0@Z 000000014004eb88     Shapesvw.obj
 0002:0000fb90       $unwind$?DoPrintPreview@CView@@QEAAHIPEAV1@PEAUCRuntimeClass@@PEAUCPrintPreviewState@@@Z 000000014004eb90     Shapesvw.obj
 0002:0000fbb0       $stateUnwindMap$?DoPrintPreview@CView@@QEAAHIPEAV1@PEAUCRuntimeClass@@PEAUCPrintPreviewState@@@Z 000000014004ebb0     Shapesvw.obj
 0002:0000fbb8       $ip2state$?DoPrintPreview@CView@@QEAAHIPEAV1@PEAUCRuntimeClass@@PEAUCPrintPreviewState@@@Z 000000014004ebb8     Shapesvw.obj
 0002:0000fbd0       $unwind$?OnFilePrintPreview@CView@@QEAAXXZ 000000014004ebd0     Shapesvw.obj
 0002:0000fbe4       $tryMap$?OnFilePrintPreview@CView@@QEAAXXZ 000000014004ebe4     Shapesvw.obj
 0002:0000fbf8       $handlerMap$0$?OnFilePrintPreview@CView@@QEAAXXZ 000000014004ebf8     Shapesvw.obj
 0002:0000fc10       $ip2state$?OnFilePrintPreview@CView@@QEAAXXZ 000000014004ec10     Shapesvw.obj
 0002:0000fc38       $unwind$?catch$0@?0??OnFilePrintPreview@CView@@QEAAXXZ@4HA 000000014004ec38     Shapesvw.obj
 0002:0000fc48       $unwind$??0CPrintInfo@@QEAA@XZ 000000014004ec48     Shapesvw.obj
 0002:0000fc60       $stateUnwindMap$??1CPrintInfo@@QEAA@XZ 000000014004ec60     Shapesvw.obj
 0002:0000fc60       $stateUnwindMap$??0CPrintInfo@@QEAA@XZ 000000014004ec60     Shapesvw.obj
 0002:0000fc68       $ip2state$??0CPrintInfo@@QEAA@XZ 000000014004ec68     Shapesvw.obj
 0002:0000fc80       $unwind$??1CPrintInfo@@QEAA@XZ 000000014004ec80     Shapesvw.obj
 0002:0000fc90       $ip2state$??1CPrintInfo@@QEAA@XZ 000000014004ec90     Shapesvw.obj
 0002:0000fca8       $unwind$?OnFilePrint@CView@@QEAAXXZ 000000014004eca8     Shapesvw.obj
 0002:0000fcc8       $stateUnwindMap$?OnFilePrint@CView@@QEAAXXZ 000000014004ecc8     Shapesvw.obj
 0002:0000fd70       $ip2state$?OnFilePrint@CView@@QEAAXXZ 000000014004ed70     Shapesvw.obj
 0002:0000fef8       $unwind$?ClipToPage@CPreviewDC@@QEAAXXZ 000000014004eef8     Stdafx.obj
 0002:0000fef8       $unwind$_wsetargv          000000014004eef8     LIBCMT:wstdargv.obj
 0002:0000ff08       $chain$0$?MirrorMappingMode@CPreviewDC@@QEAAXH@Z 000000014004ef08     Stdafx.obj
 0002:0000ff1c       $chain$1$?MirrorMappingMode@CPreviewDC@@QEAAXH@Z 000000014004ef1c     Stdafx.obj
 0002:0000ff30       $chain$2$?MirrorMappingMode@CPreviewDC@@QEAAXH@Z 000000014004ef30     Stdafx.obj
 0002:0000ff40       $chain$3$?MirrorMappingMode@CPreviewDC@@QEAAXH@Z 000000014004ef40     Stdafx.obj
 0002:0000ff50       $unwind$?MirrorViewportOrg@CPreviewDC@@QEAAXXZ 000000014004ef50     Stdafx.obj
 0002:0000ff58       $chain$1$?MirrorViewportOrg@CPreviewDC@@QEAAXXZ 000000014004ef58     Stdafx.obj
 0002:0000ff70       $chain$2$?MirrorViewportOrg@CPreviewDC@@QEAAXXZ 000000014004ef70     Stdafx.obj
 0002:0000ff80       $unwind$?CreateEx@CImage@@QEAAHHHHKPEBKK@Z 000000014004ef80     Stdafx.obj
 0002:0000ff9c       $unwind$?UpdateBitmapInfo@CImage@@QEAAXW4DIBOrientation@1@@Z 000000014004ef9c     Stdafx.obj
 0002:0000ffac       $unwind$?GetScrollLimit@CWMHnd@@QEAAHH@Z 000000014004efac     Stdafx.obj
 0002:0000ffbc       $unwind$?OnPaint@_AFX_MOUSEANCHORWND@@QEAAXXZ 000000014004efbc     Stdafx.obj
 0002:0000ffd0       $unwind$??0CScrollView@@QEAA@XZ 000000014004efd0     Stdafx.obj
 0002:0000ffe4       $stateUnwindMap$??0CScrollView@@QEAA@XZ 000000014004efe4     Stdafx.obj
 0002:0000fff0       $ip2state$??0CScrollView@@QEAA@XZ 000000014004eff0     Stdafx.obj
 0002:00010008       $unwind$??1CScrollView@@UEAA@XZ 000000014004f008     Stdafx.obj
 0002:00010018       $stateUnwindMap$??1CScrollView@@UEAA@XZ 000000014004f018     Stdafx.obj
 0002:00010040       $ip2state$??1CScrollView@@UEAA@XZ 000000014004f040     Stdafx.obj
 0002:00010080       $unwind$?OnPrepareDC@CScrollView@@UEAAXPEAVCDCMTL@@PEAUCPrintInfo@@@Z 000000014004f080     Stdafx.obj
 0002:00010094       $unwind$?OnPrintClient@CScrollView@@QEAA_JPEAVCDCMTL@@I@Z 000000014004f094     Stdafx.obj
 0002:000100b8       $stateUnwindMap$?OnPrintClient@CScrollView@@QEAA_JPEAVCDCMTL@@I@Z 000000014004f0b8     Stdafx.obj
 0002:000100c8       $ip2state$?OnPrintClient@CScrollView@@QEAA_JPEAVCDCMTL@@I@Z 000000014004f0c8     Stdafx.obj
 0002:000100f0       $unwind$?OnScrollBy@CScrollView@@UEAAHVCSize@WTL@@H@Z 000000014004f0f0     Stdafx.obj
 0002:00010108       $unwind$?CCalcWindowRect@CScrollView@@UEAAXPEAUtagRECT@@I@Z 000000014004f108     Stdafx.obj
 0002:00010114       $chain$0$?CCalcWindowRect@CScrollView@@UEAAXPEAUtagRECT@@I@Z 000000014004f114     Stdafx.obj
 0002:00010128       $chain$3$?CCalcWindowRect@CScrollView@@UEAAXPEAUtagRECT@@I@Z 000000014004f128     Stdafx.obj
 0002:00010144       $chain$4$?CCalcWindowRect@CScrollView@@UEAAXPEAUtagRECT@@I@Z 000000014004f144     Stdafx.obj
 0002:00010158       $chain$5$?CCalcWindowRect@CScrollView@@UEAAXPEAUtagRECT@@I@Z 000000014004f158     Stdafx.obj
 0002:00010168       $unwind$?DoMouseWheel@CScrollView@@QEAAHIFVCPoint@WTL@@@Z 000000014004f168     Stdafx.obj
 0002:00010180       $unwind$?HandleMButtonDown@CScrollView@@QEAA_J_K_J@Z 000000014004f180     Stdafx.obj
 0002:00010194       $unwind$?_ProcessWindowMessage@CScrollView@@UEAAHPEAUHWND__@@I_K_JAEA_J@Z 000000014004f194     Stdafx.obj
 0002:000101b0       $ip2state$?_ProcessWindowMessage@CScrollView@@UEAAHPEAUHWND__@@I_K_JAEA_J@Z 000000014004f1b0     Stdafx.obj
 0002:000101c8       $unwind$?Create@_AFX_MOUSEANCHORWND@@QEAAHPEAVCScrollView@@@Z 000000014004f1c8     Stdafx.obj
 0002:000101ec       $stateUnwindMap$?Create@_AFX_MOUSEANCHORWND@@QEAAHPEAVCScrollView@@@Z 000000014004f1ec     Stdafx.obj
 0002:000101f8       $ip2state$?Create@_AFX_MOUSEANCHORWND@@QEAAHPEAVCScrollView@@@Z 000000014004f1f8     Stdafx.obj
 0002:00010210       $unwind$??1CPreviewView@@UEAA@XZ 000000014004f210     Stdafx.obj
 0002:00010224       $stateUnwindMap$??1CPreviewView@@UEAA@XZ 000000014004f224     Stdafx.obj
 0002:00010238       $ip2state$??1CPreviewView@@UEAA@XZ 000000014004f238     Stdafx.obj
 0002:00010258       $unwind$?OnActivateView@CPreviewView@@UEAAXHPEAVCView@@0@Z 000000014004f258     Stdafx.obj
 0002:00010260       $chain$1$?OnActivateView@CPreviewView@@UEAAXHPEAVCView@@0@Z 000000014004f260     Stdafx.obj
 0002:00010278       $chain$2$?OnActivateView@CPreviewView@@UEAAXHPEAVCView@@0@Z 000000014004f278     Stdafx.obj
 0002:00010288       $unwind$?OnDraw@CPreviewView@@UEAAXPEAVCDCMTL@@@Z 000000014004f288     Stdafx.obj
 0002:000102ac       $stateUnwindMap$?OnDraw@CPreviewView@@UEAAXPEAVCDCMTL@@@Z 000000014004f2ac     Stdafx.obj
 0002:000102c0       $ip2state$?OnDraw@CPreviewView@@UEAAXPEAVCDCMTL@@@Z 000000014004f2c0     Stdafx.obj
 0002:000102e8       $unwind$?OnEraseBkgnd@CPreviewView@@QEAAHPEAVCDCMTL@@@Z 000000014004f2e8     Stdafx.obj
 0002:00010300       $stateUnwindMap$?OnEraseBkgnd@CPreviewView@@QEAAHPEAVCDCMTL@@@Z 000000014004f300     Stdafx.obj
 0002:00010308       $ip2state$?OnEraseBkgnd@CPreviewView@@QEAAHPEAVCDCMTL@@@Z 000000014004f308     Stdafx.obj
 0002:00010320       $unwind$?OnUpdateNumPageChange@CPreviewView@@QEAAXPEAVCCmdUI@@@Z 000000014004f320     Stdafx.obj
 0002:00010340       $ip2state$?OnUpdateNumPageChange@CPreviewView@@QEAAXPEAVCCmdUI@@@Z 000000014004f340     Stdafx.obj
 0002:00010358       $unwind$?CalcScaleRatio@CPreviewView@@UEAA?AVCSize@WTL@@V23@0@Z 000000014004f358     Stdafx.obj
 0002:00010368       $unwind$?DoZoom@CPreviewView@@QEAAXIVCPoint@WTL@@@Z 000000014004f368     Stdafx.obj
 0002:00010374       $chain$0$?DoZoom@CPreviewView@@QEAAXIVCPoint@WTL@@@Z 000000014004f374     Stdafx.obj
 0002:00010388       $chain$1$?DoZoom@CPreviewView@@QEAAXIVCPoint@WTL@@@Z 000000014004f388     Stdafx.obj
 0002:00010398       $unwind$?FindPageRect@CPreviewView@@QEAAHAEAVCPoint@WTL@@AEAI@Z 000000014004f398     Stdafx.obj
 0002:000103ac       $unwind$?PositionPage@CPreviewView@@UEAAXI@Z 000000014004f3ac     Stdafx.obj
 0002:000103c0       $unwind$?SetScaledSize@CPreviewView@@QEAAXI@Z 000000014004f3c0     Stdafx.obj
 0002:000103d0       $unwind$?_ProcessWindowMessage@CPreviewView@@UEAAHPEAUHWND__@@I_K_JAEA_J@Z 000000014004f3d0     Stdafx.obj
 0002:000103f0       $ip2state$?_ProcessWindowMessage@CPreviewView@@UEAAHPEAUHWND__@@I_K_JAEA_J@Z 000000014004f3f0     Stdafx.obj
 0002:00010408       $unwind$?OnMouseActivate@CMDIChildWnd@@QEAAHPEAVCWnd@@II@Z 000000014004f408     Stdafx.obj
 0002:00010414       $chain$1$?OnMouseActivate@CMDIChildWnd@@QEAAHPEAVCWnd@@II@Z 000000014004f414     Stdafx.obj
 0002:0001042c       $chain$2$?OnMouseActivate@CMDIChildWnd@@QEAAHPEAVCWnd@@II@Z 000000014004f42c     Stdafx.obj
 0002:00010440       $chain$3$?OnMouseActivate@CMDIChildWnd@@QEAAHPEAVCWnd@@II@Z 000000014004f440     Stdafx.obj
 0002:00010450       $chain$4$?OnMouseActivate@CMDIChildWnd@@QEAAHPEAVCWnd@@II@Z 000000014004f450     Stdafx.obj
 0002:00010464       $chain$5$?OnMouseActivate@CMDIChildWnd@@QEAAHPEAVCWnd@@II@Z 000000014004f464     Stdafx.obj
 0002:00010474       $unwind$?OnUpdateFrameTitle@CMDIChildWnd@@UEAAXH@Z 000000014004f474     Stdafx.obj
 0002:00010484       $chain$0$?OnUpdateFrameTitle@CMDIChildWnd@@UEAAXH@Z 000000014004f484     Stdafx.obj
 0002:00010498       $chain$1$?OnUpdateFrameTitle@CMDIChildWnd@@UEAAXH@Z 000000014004f498     Stdafx.obj
 0002:000104a8       $chain$0$?OnWindowPosChanging@CMDIChildWnd@@QEAAXPEAUtagWINDOWPOS@@@Z 000000014004f4a8     Stdafx.obj
 0002:000104bc       $chain$1$?OnWindowPosChanging@CMDIChildWnd@@QEAAXPEAUtagWINDOWPOS@@@Z 000000014004f4bc     Stdafx.obj
 0002:000104cc       $unwind$?ActivateFrame@CMDIChildWnd@@UEAAXH@Z 000000014004f4cc     Stdafx.obj
 0002:000104d8       $chain$2$?ActivateFrame@CMDIChildWnd@@UEAAXH@Z 000000014004f4d8     Stdafx.obj
 0002:000104f4       $chain$3$?ActivateFrame@CMDIChildWnd@@UEAAXH@Z 000000014004f4f4     Stdafx.obj
 0002:00010508       $chain$4$?ActivateFrame@CMDIChildWnd@@UEAAXH@Z 000000014004f508     Stdafx.obj
 0002:00010518       $chain$5$?ActivateFrame@CMDIChildWnd@@UEAAXH@Z 000000014004f518     Stdafx.obj
 0002:00010528       $unwind$?DestroyWindow@CMDIChildWnd@@UEAAHXZ 000000014004f528     Stdafx.obj
 0002:0001053c       $chain$3$?DestroyWindow@CMDIChildWnd@@UEAAHXZ 000000014004f53c     Stdafx.obj
 0002:00010550       $chain$4$?DestroyWindow@CMDIChildWnd@@UEAAHXZ 000000014004f550     Stdafx.obj
 0002:00010560       $chain$0$?PreTranslateMessage@CMDIChildWnd@@UEAAHPEAUtagMSG@@@Z 000000014004f560     Stdafx.obj
 0002:00010574       $chain$2$?PreTranslateMessage@CMDIChildWnd@@UEAAHPEAUtagMSG@@@Z 000000014004f574     Stdafx.obj
 0002:00010588       $chain$3$?PreTranslateMessage@CMDIChildWnd@@UEAAHPEAUtagMSG@@@Z 000000014004f588     Stdafx.obj
 0002:00010598       $unwind$?UpdateClientEdge@CMDIChildWnd@@QEAAHPEAUtagRECT@@@Z 000000014004f598     Stdafx.obj
 0002:000105ac       $chain$0$?UpdateClientEdge@CMDIChildWnd@@QEAAHPEAUtagRECT@@@Z 000000014004f5ac     Stdafx.obj
 0002:000105c0       $chain$1$?UpdateClientEdge@CMDIChildWnd@@QEAAHPEAUtagRECT@@@Z 000000014004f5c0     Stdafx.obj
 0002:000105d0       $unwind$?_ProcessWindowMessage@CMDIChildWnd@@UEAAHPEAUHWND__@@I_K_JAEA_J@Z 000000014004f5d0     Stdafx.obj
 0002:000105e0       $chain$2$?_ProcessWindowMessage@CMDIChildWnd@@UEAAHPEAUHWND__@@I_K_JAEA_J@Z 000000014004f5e0     Stdafx.obj
 0002:000105fc       $unwind$?LoadFrame@CMDIChildWnd@@UEAAHIKPEAVCWnd@@PEAUCCreateContext@@@Z 000000014004f5fc     Stdafx.obj
 0002:0001061c       $stateUnwindMap$?LoadFrame@CMDIChildWnd@@UEAAHIKPEAVCWnd@@PEAUCCreateContext@@@Z 000000014004f61c     Stdafx.obj
 0002:00010630       $ip2state$?LoadFrame@CMDIChildWnd@@UEAAHIKPEAVCWnd@@PEAUCCreateContext@@@Z 000000014004f630     Stdafx.obj
 0002:00010658       $unwind$?OnTimer@_AFX_MOUSEANCHORWND@@QEAAX_K@Z 000000014004f658     Stdafx.obj
 0002:00010668       $chain$1$?OnTimer@_AFX_MOUSEANCHORWND@@QEAAX_K@Z 000000014004f668     Stdafx.obj
 0002:0001067c       $chain$3$?OnTimer@_AFX_MOUSEANCHORWND@@QEAAX_K@Z 000000014004f67c     Stdafx.obj
 0002:00010690       $unwind$?SetCurrentHandles@CWinApp@@QEAAXXZ 000000014004f690     Stdafx.obj
 0002:000106a0       $chain$4$?SetCurrentHandles@CWinApp@@QEAAXXZ 000000014004f6a0     Stdafx.obj
 0002:000106c4       $chain$5$?SetCurrentHandles@CWinApp@@QEAAXXZ 000000014004f6c4     Stdafx.obj
 0002:000106d4       $unwind$?Create@CMDIChildWnd@@UEAAHPEB_W0KAEBUtagRECT@@PEAVCMDIFrameWnd@@PEAUCCreateContext@@@Z 000000014004f6d4     Stdafx.obj
 0002:000106f4       $unwind$?OnDisplayPageNumber@CPreviewView@@UEAAXII@Z 000000014004f6f4     Stdafx.obj
 0002:00010714       $stateUnwindMap$?OnDisplayPageNumber@CPreviewView@@UEAAXII@Z 000000014004f714     Stdafx.obj
 0002:00010720       $ip2state$?OnDisplayPageNumber@CPreviewView@@UEAAXII@Z 000000014004f720     Stdafx.obj
 0002:00010738       $unwind$?CreateObject@CFrameWnd@@SAPEAVCObject@@XZ 000000014004f738     Stdafx.obj
 0002:00010748       $ip2state$?CreateObject@CFrameWnd@@SAPEAVCObject@@XZ 000000014004f748     Stdafx.obj
 0002:00010760       $unwind$?CreateObject@CMiniFrameWnd@@SAPEAVCObject@@XZ 000000014004f760     Stdafx.obj
 0002:00010770       $ip2state$?CreateObject@CMiniFrameWnd@@SAPEAVCObject@@XZ 000000014004f770     Stdafx.obj
 0002:00010788       $unwind$?CreateObject@CMDIFrameWnd@@SAPEAVCObject@@XZ 000000014004f788     Stdafx.obj
 0002:00010798       $ip2state$?CreateObject@CMDIFrameWnd@@SAPEAVCObject@@XZ 000000014004f798     Stdafx.obj
 0002:000107b0       $unwind$?CreateObject@CMDIChildWnd@@SAPEAVCObject@@XZ 000000014004f7b0     Stdafx.obj
 0002:000107c0       $ip2state$?CreateObject@CMDIChildWnd@@SAPEAVCObject@@XZ 000000014004f7c0     Stdafx.obj
 0002:000107d8       $unwind$?CreateObject@CPreviewView@@SAPEAVCObject@@XZ 000000014004f7d8     Stdafx.obj
 0002:000107e8       $ip2state$?CreateObject@CPreviewView@@SAPEAVCObject@@XZ 000000014004f7e8     Stdafx.obj
 0002:00010800       $unwind$__tmainCRTStartup  000000014004f800     LIBCMT:wwincrt0.obj
 0002:00010828       $unwind$_onexit            000000014004f828     LIBCMT:onexit.obj
 0002:00010858       $unwind$strrchr            000000014004f858     LIBCMT:wcschr.obj
 0002:00010858       $unwind$strchr             000000014004f858     LIBCMT:wcschr.obj
 0002:00010858       $unwind$wcschr             000000014004f858     LIBCMT:wcschr.obj
 0002:00010860       $xdatasym                  000000014004f860     LIBCMT:memcpy.obj
 0002:00010864       $unwind$??_M@YAXPEAX_KHP6AX0@Z@Z 000000014004f864     LIBCMT:ehvecdtr.obj
 0002:0001088c       $unwind$?__ArrayUnwind@@YAXPEAX_KHP6AX0@Z@Z 000000014004f88c     LIBCMT:ehvecdtr.obj
 0002:000108b4       $unwind$??_L@YAXPEAX_KHP6AX0@Z2@Z 000000014004f8b4     LIBCMT:ehvecctr.obj
 0002:000108e0       $unwind$doexit             000000014004f8e0     LIBCMT:crt0dat.obj
 0002:00010910       $unwind$_make__time64_t    000000014004f910     LIBCMT:mktime64.obj
 0002:00010930       $xdatasym                  000000014004f930     LIBCMT:memset.obj
 0002:00010934       $unwind$_freefls           000000014004f934     LIBCMT:tidtable.obj
 0002:00010968       $unwind$_initptd           000000014004f968     LIBCMT:tidtable.obj
 0002:0001099c       $unwind$_ioinit            000000014004f99c     LIBCMT:ioinit.obj
 0002:000109e4       $unwind$wparse_cmdline     000000014004f9e4     LIBCMT:wstdargv.obj
 0002:000109fc       $unwind$_wsetenvp          000000014004f9fc     LIBCMT:wstdenvp.obj
 0002:00010a14       $unwind$_NMSG_WRITE        000000014004fa14     LIBCMT:crt0msg.obj
 0002:00010a38       $unwind$__security_init_cookie 000000014004fa38     LIBCMT:gs_support.obj
 0002:00010a44       $unwind$__crtCaptureCurrentContext 000000014004fa44     LIBCMT:winapisupp.obj
 0002:00010a50       $unwind$__crtCapturePreviousContext 000000014004fa50     LIBCMT:winapisupp.obj
