 propdlg

 Timestamp is 590d7346 (Sat May 06 15:55:02 2017)

 Preferred load address is 0000000140000000

 Start         Length     Name                   Class
 0001:00000000 000000fcH .text$di                CODE
 0001:00000100 0003cdc8H .text$mn                CODE
 0001:0003ced0 0000154cH .text$x                 CODE
 0001:0003e420 00000244H .text$yd                CODE
 0002:00000000 00000b30H .idata$5                DATA
 0002:00000b30 00000008H .CRT$XCA                DATA
 0002:00000b38 00000008H .CRT$XCL                DATA
 0002:00000b40 00000038H .CRT$XCU                DATA
 0002:00000b78 00000008H .CRT$XCZ                DATA
 0002:00000b80 00000008H .CRT$XIA                DATA
 0002:00000b88 00000020H .CRT$XIC                DATA
 0002:00000ba8 00000008H .CRT$XIY                DATA
 0002:00000bb0 00000008H .CRT$XIZ                DATA
 0002:00000bb8 00000008H .CRT$XPA                DATA
 0002:00000bc0 00000010H .CRT$XPX                DATA
 0002:00000bd0 00000008H .CRT$XPXA               DATA
 0002:00000bd8 00000008H .CRT$XPZ                DATA
 0002:00000be0 00000008H .CRT$XTA                DATA
 0002:00000be8 00000008H .CRT$XTZ                DATA
 0002:00000bf0 0000a9e0H .rdata                  DATA
 0002:0000b5d0 000032bcH .rdata$r                DATA
 0002:0000e890 00000008H .rtc$IAA                DATA
 0002:0000e898 00000008H .rtc$IZZ                DATA
 0002:0000e8a0 00000008H .rtc$TAA                DATA
 0002:0000e8a8 00000008H .rtc$TZZ                DATA
 0002:0000e8b0 000069a8H .xdata                  DATA
 0002:00015258 000002ccH .xdata$x                DATA
 0002:00015528 00000000H ATL$__a                 DATA
 0002:00015528 00000000H ATL$__z                 DATA
 0002:00015528 00000000H .edata                  DATA
 0002:00015528 000000c8H .idata$2                DATA
 0002:000155f0 00000014H .idata$3                DATA
 0002:00015608 00000b30H .idata$4                DATA
 0002:00016138 000017c2H .idata$6                DATA
 0003:00000000 000018d0H .data                   DATA
 0003:000018d0 000010b0H .data$r                 DATA
 0003:00002980 00002a98H .bss                    DATA
 0004:00000000 000042fcH .pdata                  DATA
 0005:00000000 000016a8H .rsrc$01                DATA
 0005:000016b0 00007b70H .rsrc$02                DATA

  Address         Publics by Value              Rva+Base               Lib:Object

 0000:00000000       __guard_fids_count         0000000000000000     <absolute>
 0000:00000000       ___safe_se_handler_count   0000000000000000     <absolute>
 0000:00000000       __guard_flags              0000000000000000     <absolute>
 0000:00000000       __guard_fids_table         0000000000000000     <absolute>
 0000:00000000       ___safe_se_handler_table   0000000000000000     <absolute>
 0000:00000000       __ImageBase                0000000140000000     <linker-defined>
 0001:00000100       ??_GCPropertyPageMTL@@UEAAPEAXI@Z 0000000140001100 f i Colorpge.obj
 0001:00000100       ??_GCColorPage@@UEAAPEAXI@Z 0000000140001100 f i Colorpge.obj
 0001:00000100       ??_ECColorPage@@UEAAPEAXI@Z 0000000140001100 f i * CIL library *:* CIL module *
 0001:00000100       ??_ECPropertyPageMTL@@UEAAPEAXI@Z 0000000140001100 f i * CIL library *:* CIL module *
 0001:00000100       ??_GCStylePage@@UEAAPEAXI@Z 0000000140001100 f i Stylepge.obj
 0001:00000100       ??_ECStylePage@@UEAAPEAXI@Z 0000000140001100 f i * CIL library *:* CIL module *
 0001:00000130       ??1CColorPage@@UEAA@XZ     0000000140001130 f i Colorpge.obj
 0001:00000130       ??1CStylePage@@UEAA@XZ     0000000140001130 f i Propsht.obj
 0001:00000140       ?DoDataExchange@CColorPage@@MEAAXPEAVCDataExchange@@@Z 0000000140001140 f   Colorpge.obj
 0001:00000160       ?OnStyleClicked@CStylePage@@IEAAXI@Z 0000000140001160 f   Stylepge.obj
 0001:00000160       ?OnColorClicked@CColorPage@@IEAAXI@Z 0000000140001160 f   Colorpge.obj
 0001:00000300       ?_ProcessWindowMessage@CColorPage@@UEAAHPEAUHWND__@@I_K_JAEA_J@Z 0000000140001300 f i Colorpge.obj
 0001:00000360       ?DDX_Radio@@YAXPEAVCDataExchange@@HAEAH@Z 0000000140001360 f i Colorpge.obj
 0001:00000450       ??1CPropertyPageMTL@@UEAA@XZ 0000000140001450 f i Colorpge.obj
 0001:00000530       ?OnCtlColor@CPropertyPageMTL@@QEAAPEAUHBRUSH__@@PEAVCDCMTL@@PEAVCWnd@@I@Z 0000000140001530 f i Colorpge.obj
 0001:00000530       ?OnCtlColor@CPropertySheetMTL@@QEAAPEAUHBRUSH__@@PEAVCDCMTL@@PEAVCWnd@@I@Z 0000000140001530 f i Propsht.obj
 0001:000005f0       ?_ProcessWindowMessage@CPropertyPageMTL@@UEAAHPEAUHWND__@@I_K_JAEA_J@Z 00000001400015f0 f i Colorpge.obj
 0001:00000710       ?PreTranslateMessage@CPropertyPageMTL@@UEAAHPEAUtagMSG@@@Z 0000000140001710 f i Colorpge.obj
 0001:00000710       ?PreTranslateMessage@CWnd@@UEAAHPEAUtagMSG@@@Z 0000000140001710 f i Colorpge.obj
 0001:00000750       ?MapWizardResult@CPropertyPageMTL@@QEAA_J_J@Z 0000000140001750 f i Colorpge.obj
 0001:000007d0       ?OnNotify@CPropertyPageMTL@@UEAAH_K_JPEA_J@Z 00000001400017d0 f i Colorpge.obj
 0001:00000a40       ?GetSafeOwner_@CWnd@@SAPEAUHWND__@@PEAU2@PEAPEAU2@@Z 0000000140001a40 f i Colorpge.obj
 0001:00000b44       ??_9CDialog@@$BOI@AA       0000000140001b44 f i Colorpge.obj
 0001:00000b50       ??_9CDialog@@$BPA@AA       0000000140001b50 f i Colorpge.obj
 0001:00000b60       ?_ProcessWindowMessage@CDialog@@UEAAHPEAUHWND__@@I_K_JAEA_J@Z 0000000140001b60 f i Colorpge.obj
 0001:00000c10       ?OnCmdMsg@CPropertySheetMTL@@UEAAHIHPEAXPEAUAFX_CMDHANDLERINFO@@@Z 0000000140001c10 f i Propsht.obj
 0001:00000c10       ?OnCmdMsg@CDialog@@UEAAHIHPEAXPEAUAFX_CMDHANDLERINFO@@@Z 0000000140001c10 f i Colorpge.obj
 0001:00000cd0       ??_GCAboutDlg@@UEAAPEAXI@Z 0000000140001cd0 f i Propdlg.obj
 0001:00000cd0       ??_ECDialog@@UEAAPEAXI@Z   0000000140001cd0 f i * CIL library *:* CIL module *
 0001:00000cd0       ??_ECAboutDlg@@UEAAPEAXI@Z 0000000140001cd0 f i * CIL library *:* CIL module *
 0001:00000cd0       ??_GCPrintingDialog@@UEAAPEAXI@Z 0000000140001cd0 f i Shapesvw.obj
 0001:00000cd0       ??_GCShapePreviewWnd@@UEAAPEAXI@Z 0000000140001cd0 f i Preview.obj
 0001:00000cd0       ??_ECNewTypeDlg@@UEAAPEAXI@Z 0000000140001cd0 f i * CIL library *:* CIL module *
 0001:00000cd0       ??_ECWnd@@UEAAPEAXI@Z      0000000140001cd0 f i * CIL library *:* CIL module *
 0001:00000cd0       ??_ECPrintingDialog@@UEAAPEAXI@Z 0000000140001cd0 f i * CIL library *:* CIL module *
 0001:00000cd0       ??_ECShapePreviewWnd@@UEAAPEAXI@Z 0000000140001cd0 f i * CIL library *:* CIL module *
 0001:00000cd0       ??_GCDialog@@UEAAPEAXI@Z   0000000140001cd0 f i Colorpge.obj
 0001:00000cd0       ??_GCWnd@@UEAAPEAXI@Z      0000000140001cd0 f i Colorpge.obj
 0001:00000cd0       ??_GCNewTypeDlg@@UEAAPEAXI@Z 0000000140001cd0 f i Propdlg.obj
 0001:00000d00       ?PreTranslateMessage@CDialog@@UEAAHPEAUtagMSG@@@Z 0000000140001d00 f i Colorpge.obj
 0001:00000e10       ?OnOK@CDialog@@UEAAXXZ     0000000140001e10 f i Colorpge.obj
 0001:00000ea0       ?OnCancel@CDialog@@UEAAXXZ 0000000140001ea0 f i Colorpge.obj
 0001:00000ee0       ?Create@CDialog@@UEAAHIPEAVCWnd@@@Z 0000000140001ee0 f i Colorpge.obj
 0001:00000ef0       ?CreateIndirect@CDialog@@UEAAHPEAXPEAVCWnd@@PEAUHINSTANCE__@@@Z 0000000140001ef0 f i Colorpge.obj
 0001:00000f70       ??1CCommonDialog@@UEAA@XZ  0000000140001f70 f i Propdlg.obj
 0001:00000f70       ??1CDialog@@UEAA@XZ        0000000140001f70 f i Colorpge.obj
 0001:00000f70       ??1CNewTypeDlg@@UEAA@XZ    0000000140001f70 f i Propdlg.obj
 0001:00000f70       ??1CPrintingDialog@@UEAA@XZ 0000000140001f70 f i Shapesvw.obj
 0001:00000f70       ??1CAboutDlg@@UEAA@XZ      0000000140001f70 f i Propdlg.obj
 0001:00000f70       ??1CShapePreviewWnd@@UEAA@XZ 0000000140001f70 f i Preview.obj
 0001:00000f80       ?classHandleFuncCDialog@CDialog@@SAPEAXPEAX0@Z 0000000140001f80 f i Colorpge.obj
 0001:00001020       ?CreateDlgIndirect@CWnd@@QEAAHPEBUDLGTEMPLATE@@PEAV1@PEAUHINSTANCE__@@@Z 0000000140002020 f i Colorpge.obj
 0001:000010d0       ?CreateDlg@CWnd@@QEAAHPEB_WPEAV1@@Z 00000001400020d0 f i Colorpge.obj
 0001:00001170       ?Create@CDialog@@UEAAHPEB_WPEAVCWnd@@@Z 0000000140002170 f i Colorpge.obj
 0001:000011c0       ?IsIdleMessage@CWinApp@@SAHPEAUtagMSG@@@Z 00000001400021c0 f i Colorpge.obj
 0001:000011f0       ?RunModalLoop@CWnd@@QEAAHK@Z 00000001400021f0 f i Colorpge.obj
 0001:000013b0       ?DoModal@CDialog@@UEAA_JXZ 00000001400023b0 f i Colorpge.obj
 0001:00001730       ?OnEndPrinting@CView@@UEAAXPEAVCDCMTL@@PEAUCPrintInfo@@@Z 0000000140002730 f i Shapesvw.obj
 0001:00001730       ?OnCancel@CPropertyPageMTL@@UEAAXXZ 0000000140002730 f i Colorpge.obj
 0001:00001730       ?OnBarStyleChange@CControlBar@@UEAAXKK@Z 0000000140002730 f i Mainfrm.obj
 0001:00001730       ?DoDataExchange@CAboutDlg@@MEAAXPEAVCDataExchange@@@Z 0000000140002730 f i Propdlg.obj
 0001:00001730       ?Serialize@CObject@@UEAAXAEAVCArchive@@@Z 0000000140002730 f i Colorpge.obj
 0001:00001730       ?OnTypeChange@CFileDialogMTL@@UEAAXXZ 0000000140002730 f i Propdlg.obj
 0001:00001730       ?OnBeginPrinting@CView@@UEAAXPEAVCDCMTL@@PEAUCPrintInfo@@@Z 0000000140002730 f i Shapesvw.obj
 0001:00001730       ?OnDraw@CView@@UEAAXPEAVCDCMTL@@@Z 0000000140002730 f i Shapesvw.obj
 0001:00001730       ?DeleteContents@CDocument@@UEAAXXZ 0000000140002730 f i Shapedoc.obj
 0001:00001730       ?OnFinalMessage@?$CWindowImplBaseT@VCWindow@ATL@@V?$CWinTraits@$0FGAAAAAA@$0A@@2@@ATL@@UEAAXPEAUHWND__@@@Z 0000000140002730 f i Propdlg.obj
 0001:00001730       ?OnLBSelChangedNotify@CFileDialogMTL@@UEAAXIII@Z 0000000140002730 f i Propdlg.obj
 0001:00001730       ?PreCloseFrame@CDocument@@UEAAXPEAVCFrameWnd@@@Z 0000000140002730 f i Shapedoc.obj
 0001:00001730       ?OnBeginPrinting@CShapesView@@MEAAXPEAVCDCMTL@@PEAUCPrintInfo@@@Z 0000000140002730 f i Shapesvw.obj
 0001:00001730       ?OnEndPrinting@CShapesView@@MEAAXPEAVCDCMTL@@PEAUCPrintInfo@@@Z 0000000140002730 f i Shapesvw.obj
 0001:00001730       ?OnFileNameChange@CFileDialogMTL@@UEAAXXZ 0000000140002730 f i Propdlg.obj
 0001:00001730       ?OnDocumentEvent@CDocument@@UEAAXW4DocumentEvent@1@@Z 0000000140002730 f i Shapedoc.obj
 0001:00001730       ?SetText@CTestCmdUI@@UEAAXPEB_W@Z 0000000140002730 f i Colorpge.obj
 0001:00001730       ?DoDataExchange@CWMHnd@@UEAAXPEAVCDataExchange@@@Z 0000000140002730 f i Colorpge.obj
 0001:00001730       ?OnShowMenuBar@CFrameWnd@@UEAAXXZ 0000000140002730 f i Mainfrm.obj
 0001:00001730       ?SetRadio@CTestCmdUI@@UEAAXH@Z 0000000140002730 f i Colorpge.obj
 0001:00001730       ?OnHideMenuBar@CFrameWnd@@UEAAXXZ 0000000140002730 f i Mainfrm.obj
 0001:00001730       ?SetText@CToolCmdUI@@UEAAXPEB_W@Z 0000000140002730 f i Mainfrm.obj
 0001:00001730       ?RegisterShellFileTypes@CDocManager@@UEAAXH@Z 0000000140002730 f i Propdlg.obj
 0001:00001730       ?OnFolderChange@CFileDialogMTL@@UEAAXXZ 0000000140002730 f i Propdlg.obj
 0001:00001730       ?OnOK@CPropertyPageMTL@@UEAAXXZ 0000000140002730 f i Colorpge.obj
 0001:00001730       ?OnActivateFrame@CView@@UEAAXIPEAVCFrameWnd@@@Z 0000000140002730 f i Shapesvw.obj
 0001:00001730       ?PostNcDestroy@CWMHnd@@UEAAXXZ 0000000140002730 f i Colorpge.obj
 0001:00001730       ?SetCheck@CTestCmdUI@@UEAAXH@Z 0000000140002730 f i Colorpge.obj
 0001:00001740       ?OnApply@CPropertyPageMTL@@UEAAHXZ 0000000140002740 f i Colorpge.obj
 0001:00001760       ?OnKillActive@CPropertyPageMTL@@UEAAHXZ 0000000140002760 f i Colorpge.obj
 0001:000017c0       ?InitInstance@CWinApp@@UEAAHXZ 00000001400027c0 f i Propdlg.obj
 0001:000017c0       ?IsFrameWnd@CFrameWnd@@UEAAHXZ 00000001400027c0 f i Mainfrm.obj
 0001:000017c0       ?OnPreparePrinting@CView@@UEAAHPEAUCPrintInfo@@@Z 00000001400027c0 f i Shapesvw.obj
 0001:000017c0       ?OnQueryCancel@CPropertyPageMTL@@UEAAHXZ 00000001400027c0 f i Colorpge.obj
 0001:000017d0       ?OnReset@CPropertyPageMTL@@UEAAXXZ 00000001400027d0 f i Colorpge.obj
 0001:000017e0       ?OnSetActive@CPropertyPageMTL@@UEAAHXZ 00000001400027e0 f i Colorpge.obj
 0001:00001850       ?_ProcessWindowMessage@CPrintDialogMTL@@UEAAHPEAUHWND__@@I_K_JAEA_J@Z 0000000140002850 f i Propdlg.obj
 0001:00001850       ?IsTabbedMDIChild@CMDIChildWnd@@UEAAHXZ 0000000140002850 f i Stdafx.obj
 0001:00001850       ?IsDockBar@CControlBar@@UEBAHXZ 0000000140002850 f i Mainfrm.obj
 0001:00001850       ?GetDefaultAccelerator@CDocument@@UEAAPEAUHACCEL__@@XZ 0000000140002850 f i Shapedoc.obj
 0001:00001850       ?OnScroll@CView@@UEAAHIIH@Z 0000000140002850 f i Shapesvw.obj
 0001:00001850       ?IsFrameWnd@CWMHnd@@UEAAHXZ 0000000140002850 f i Colorpge.obj
 0001:00001850       ?OnShareViolation@CFileDialogMTL@@UEAAIPEB_W@Z 0000000140002850 f i Propdlg.obj
 0001:00001850       ?OnWizardNext@CPropertyPageMTL@@UEAA_JXZ 0000000140002850 f i Colorpge.obj
 0001:00001850       ?GetScrollBarCtrl@CWMHnd@@UEBAPEAVCScrollBarMTL@@H@Z 0000000140002850 f i Colorpge.obj
 0001:00001850       ?PreTranslateMessage@CWMHnd@@UEAAHPEAUtagMSG@@@Z 0000000140002850 f i Colorpge.obj
 0001:00001850       ?OnFileNameOK@CFileDialogMTL@@UEAAHXZ 0000000140002850 f i Propdlg.obj
 0001:00001850       ?OnWizardBack@CPropertyPageMTL@@UEAA_JXZ 0000000140002850 f i Colorpge.obj
 0001:00001850       ?OnScrollBy@CView@@UEAAHVCSize@WTL@@H@Z 0000000140002850 f i Shapesvw.obj
 0001:00001850       ?_ProcessWindowMessage@CCmdTarget@@UEAAHPEAUHWND__@@I_K_JAEA_J@Z 0000000140002850 f i Colorpge.obj
 0001:00001860       ?OnWizardFinish@CPropertyPageMTL@@UEAAHXZ 0000000140002860 f i Colorpge.obj
 0001:00001900       ?OnWizardFinishEx@CPropertyPageMTL@@UEAAPEAUHWND__@@XZ 0000000140002900 f i Colorpge.obj
 0001:00001920       ?GetParentSheet@CPropertyPageMTL@@UEAAPEAVCPropertySheetMTL@@XZ 0000000140002920 f i Colorpge.obj
 0001:00001ac0       ?AfxThrowMemoryException@@YAXXZ 0000000140002ac0 f i Colorpge.obj
 0001:00001b60       ?CenterWindow@CWindow@ATL@@QEAAHPEAUHWND__@@@Z 0000000140002b60 f i Colorpge.obj
 0001:00001d40       ?SendMessageToDescendants@CWnd@@QEAAXPEAUHWND__@@I_K_JHH@Z 0000000140002d40 f i Colorpge.obj
 0001:00001f20       ?ExecuteDlgInit@CWnd@@QEAAHPEAX@Z 0000000140002f20 f i Colorpge.obj
 0001:00002030       ?ExecuteDlgInit@CWnd@@QEAAHPEB_W@Z 0000000140003030 f i Colorpge.obj
 0001:000020d0       ?OnInitDialog@CDialog@@UEAAHXZ 00000001400030d0 f i Colorpge.obj
 0001:00002180       ?AfxDlgProc@CWnd@@SA_JPEAUHWND__@@I_K_J@Z 0000000140003180 f i Colorpge.obj
 0001:00002200       ?AfxPropPageCallback@CPropertyPageMTL@@SAIPEAUHWND__@@IPEAU_PROPSHEETPAGEW@@@Z 0000000140003200 f i Colorpge.obj
 0001:00002250       ?AssignCopy@CString@WTL@@IEAAXHPEB_W@Z 0000000140003250 f i Colorpge.obj
 0001:00002330       ?GetBuffer@CString@WTL@@QEAAPEA_WH@Z 0000000140003330 f i Colorpge.obj
 0001:00002410       ?CopyBeforeWrite@CString@WTL@@IEAAXXZ 0000000140003410 f i Colorpge.obj
 0001:000024d0       ?LoadStringW@CString@WTL@@QEAAHI@Z 00000001400034d0 f i Colorpge.obj
 0001:00002610       ?WindowProc@CWnd@@UEAA_JI_K_J@Z 0000000140003610 f i Colorpge.obj
 0001:00002680       ?_AfxTopChildWindowFromPoint@CWnd@@SAPEAUHWND__@@PEAU2@UtagPOINT@@@Z 0000000140003680 f i Colorpge.obj
 0001:00002770       ?OnToolHitTest@CWnd@@UEBA_JVCPoint@WTL@@PEAUtagTOOLINFOW@@@Z 0000000140003770 f i Colorpge.obj
 0001:00002820       ?FromHandlePermanent@CWnd@@SAPEAV1@PEAUHWND__@@@Z 0000000140003820 f i Colorpge.obj
 0001:00002890       ?GetParent@CWnd@@QEAAPEAV1@XZ 0000000140003890 f i Colorpge.obj
 0001:00002a10       ?Enable@CCmdUI@@UEAAXH@Z   0000000140003a10 f i Colorpge.obj
 0001:00002ac0       ?SetCheck@CCmdUI@@UEAAXH@Z 0000000140003ac0 f i Colorpge.obj
 0001:00002b50       ?SetRadio@CCmdUI@@UEAAXH@Z 0000000140003b50 f i Colorpge.obj
 0001:00002bb0       ?AfxSetWindowText@CAfx@@SAXPEAUHWND__@@PEB_W@Z 0000000140003bb0 f i Colorpge.obj
 0001:00002c50       ?SetText@CCmdUI@@UEAAXPEB_W@Z 0000000140003c50 f i Colorpge.obj
 0001:00002cd0       ?Enable@CTestCmdUI@@UEAAXH@Z 0000000140003cd0 f i Colorpge.obj
 0001:00002ce0       ?OnCommand@CWnd@@UEAAH_K_J@Z 0000000140003ce0 f i Colorpge.obj
 0001:00002e10       ??_GCDCMTL@@UEAAPEAXI@Z    0000000140003e10 f i Colorpge.obj
 0001:00002e10       ??_ECDCMTL@@UEAAPEAXI@Z    0000000140003e10 f i * CIL library *:* CIL module *
 0001:00002e90       ?SetAttribDC@CDCMTL@@UEAAXPEAUHDC__@@@Z 0000000140003e90 f i Colorpge.obj
 0001:00002ea0       ?ReleaseAttribDC@CDCMTL@@UEAAXXZ 0000000140003ea0 f i Colorpge.obj
 0001:00002eb0       ?SaveDC@CDCMTL@@UEAAHXZ    0000000140003eb0 f i Colorpge.obj
 0001:00002f00       ?RestoreDC@CDCMTL@@UEAAHH@Z 0000000140003f00 f i Colorpge.obj
 0001:00002f60       ?TextOutW@CDCMTL@@UEAAHHHPEB_WH@Z 0000000140003f60 f i Colorpge.obj
 0001:00002f70       ??1?$CDCT@$00@WTL@@QEAA@XZ 0000000140003f70 f i Colorpge.obj
 0001:00002f90       ?RemoveHandle@?$CHandleList@PEAUHDC__@@VCDCMTL@@PEAUHWND__@@@@QEAAPEAUHDC__@@QEAU2@@Z 0000000140003f90 f i Colorpge.obj
 0001:00002f90       ?RemoveHandle@?$CHandleList@PEAXVCGdiObject@@PEAUHWND__@@@@QEAAPEAXQEAX@Z 0000000140003f90 f i Preview.obj
 0001:00002f90       ?RemoveHandle@?$CHandleList@PEAUHMENU__@@VCMenuMTL@@PEAUHWND__@@@@QEAAPEAUHMENU__@@QEAU2@@Z 0000000140003f90 f i Colorpge.obj
 0001:00003010       ??1CDCMTL@@UEAA@XZ         0000000140004010 f i Colorpge.obj
 0001:00003080       ?UnsubclassWindow@CWMHnd@@QEAAPEAUHWND__@@XZ 0000000140004080 f i Colorpge.obj
 0001:00003100       ?OnNcDestroy@CWnd@@QEAAXXZ 0000000140004100 f i Colorpge.obj
 0001:000031e0       ?_ProcessWindowMessage@CWnd@@UEAAHPEAUHWND__@@I_K_JAEA_J@Z 00000001400041e0 f i Colorpge.obj
 0001:00003500       ?OnWndMsg@CWnd@@UEAAHI_K_JPEA_J@Z 0000000140004500 f i Colorpge.obj
 0001:000035a0       ?ReflectChildNotify@CWnd@@QEAAHI_K_JPEA_J@Z 00000001400045a0 f i Colorpge.obj
 0001:000036e0       ?OnChildNotify@CWnd@@UEAAHI_K_JPEA_J@Z 00000001400046e0 f i Colorpge.obj
 0001:000036f0       ?OnNotify@CWnd@@UEAAH_K_JPEA_J@Z 00000001400046f0 f i Colorpge.obj
 0001:000037d0       ?Create@CWnd@@UEAAHPEB_W0KAEBUtagRECT@@PEAV1@IPEAUCCreateContext@@@Z 00000001400047d0 f i Colorpge.obj
 0001:00003890       ?AtlWinModuleExtractCreateWndData@ATL@@YAPEAXPEAU_ATL_WIN_MODULE70@1@@Z 0000000140004890 f i Colorpge.obj
 0001:00003910       ?AtlWinModuleTerm@ATL@@YAJPEAU_ATL_WIN_MODULE70@1@PEAUHINSTANCE__@@@Z 0000000140004910 f i Colorpge.obj
 0001:000039f0       ?_AtlInitializeCriticalSectionEx@ATL@@YAHPEAU_RTL_CRITICAL_SECTION@@KK@Z 00000001400049f0 f i Colorpge.obj
 0001:00003a00       ??0CAtlWinModule@ATL@@QEAA@XZ 0000000140004a00 f i Colorpge.obj
 0001:00003aa0       ?Init@CDynamicStdCallThunk@ATL@@QEAAH_KPEAX@Z 0000000140004aa0 f i Colorpge.obj
 0001:00003b30       ?AfxWindowProc@CWMHnd@@SA_JPEAUHWND__@@I_K_J@Z 0000000140004b30 f i Colorpge.obj
 0001:00003b90       ?FromHandle@?$CHandleHashList@PEAUHWND__@@VCWMHnd@@PEAU1@$0BB@@@QEAAPEAVCWMHnd@@QEAUHWND__@@PEAV2@0Q6APEAXPEAX2@Z@Z 0000000140004b90 f i Colorpge.obj
 0001:00003cd0       ??_GCWMHnd@@UEAAPEAXI@Z    0000000140004cd0 f i Colorpge.obj
 0001:00003cd0       ??_ECWMHnd@@UEAAPEAXI@Z    0000000140004cd0 f i * CIL library *:* CIL module *
 0001:00003d50       ?classHandleFuncCWMHnd@CWMHnd@@SAPEAXPEAX0@Z 0000000140004d50 f i Colorpge.obj
 0001:00003dd0       ?SubclassWindow@CWMHnd@@QEAAHPEAUHWND__@@PEAUtagCREATESTRUCTW@@@Z 0000000140004dd0 f i Colorpge.obj
 0001:00003ed0       ?CbtFilterHook@CWnd@@SA_JH_K_J@Z 0000000140004ed0 f i Colorpge.obj
 0001:00003f70       ?HookWindowCreate@CWnd@@SAHPEAV1@G@Z 0000000140004f70 f i Colorpge.obj
 0001:00004020       ?CreateEx@CWnd@@UEAAHKPEB_W0KHHHHPEAUHWND__@@PEAUHMENU__@@PEAX@Z 0000000140005020 f i Colorpge.obj
 0001:000041a0       ??0CString@WTL@@QEAA@XZ    00000001400051a0 f i Colorpge.obj
 0001:000041b0       ??1?$CList@PEAVCFrameWnd@@AEBQEAV1@@@QEAA@XZ 00000001400051b0 f i Propdlg.obj
 0001:000041b0       ??1?$CList@PEAXPEAX@@QEAA@XZ 00000001400051b0 f i Mainfrm.obj
 0001:000041b0       ??1?$CList@PEAUCRuntimeClass@@AEBQEAU1@@@QEAA@XZ 00000001400051b0 f i Colorpge.obj
 0001:000041b0       ??1?$CList@PEAUHWND__@@PEAU1@@@QEAA@XZ 00000001400051b0 f i Mainfrm.obj
 0001:000041e0       ??1CString@WTL@@QEAA@XZ    00000001400051e0 f i Colorpge.obj
 0001:000041e0       ??1CStringW@@QEAA@XZ       00000001400051e0 f i Propdlg.obj
 0001:00004210       ??1CModuleState@@QEAA@XZ   0000000140005210 f i Colorpge.obj
 0001:00004290       ?AfxGetModuleState@@YAPEAVCModuleState@@XZ 0000000140005290 f i Colorpge.obj
 0001:00004300       ?AllocBuffer@CString@WTL@@IEAAHH@Z 0000000140005300 f i Colorpge.obj
 0001:00004390       ?ConcatCopy@CString@WTL@@IEAAHHPEB_WH0@Z 0000000140005390 f i Colorpge.obj
 0001:00004450       ?AtlThrowImpl@ATL@@YAXJ@Z  0000000140005450 f i Colorpge.obj
 0001:00004470       ?memcpy_x@SecureHelper@WTL@@YAXPEAX_KPEBX1@Z 0000000140005470 f i Colorpge.obj
 0001:000044c0       ?ConcatInPlace@CString@WTL@@IEAAXHPEB_W@Z 00000001400054c0 f i Colorpge.obj
 0001:000045c0       ?AfxEndDeferRegisterClass@CAfx@@SAHJ@Z 00000001400055c0 f i Colorpge.obj
 0001:00004b60       ?PreCreateWindow@CWnd@@UEAAHAEAUtagCREATESTRUCTW@@@Z 0000000140005b60 f i Colorpge.obj
 0001:00004bb0       ?ContinueModal@CWnd@@UEAAHXZ 0000000140005bb0 f i Colorpge.obj
 0001:00004bc0       ?EndModalLoop@CWnd@@UEAAXH@Z 0000000140005bc0 f i Colorpge.obj
 0001:00004bf0       ?WindowProc@CWMHnd@@UEAA_JI_K_J@Z 0000000140005bf0 f i Colorpge.obj
 0001:00004c00       ?CalcWindowRect@CWMHnd@@UEAAXPEAUtagRECT@@I@Z 0000000140005c00 f i Colorpge.obj
 0001:00004c70       ?EnableWindow@CWMHnd@@UEAAXH@Z 0000000140005c70 f i Colorpge.obj
 0001:00004c90       ?FromHandle@?$CHandleList@PEAUHMENU__@@VCMenuMTL@@PEAUHWND__@@@@QEAAPEAVCMenuMTL@@QEAUHMENU__@@PEAV2@QEAUHWND__@@Q6APEAXPEAX3@Z@Z 0000000140005c90 f i Colorpge.obj
 0001:00004d70       ??_ECMenuMTL@@UEAAPEAXI@Z  0000000140005d70 f i * CIL library *:* CIL module *
 0001:00004d70       ??_GCMenuMTL@@UEAAPEAXI@Z  0000000140005d70 f i Colorpge.obj
 0001:00004e00       ??1?$CMenuT@$00@WTL@@QEAA@XZ 0000000140005e00 f i Colorpge.obj
 0001:00004e30       ??1CMenuMTL@@UEAA@XZ       0000000140005e30 f i Colorpge.obj
 0001:00004ea0       ?classHandleFuncCMenuMTL@CMenuMTL@@SAPEAXPEAX0@Z 0000000140005ea0 f i Colorpge.obj
 0001:00004f00       ?GetMenu@CWMHnd@@UEBAPEAVCMenuMTL@@XZ 0000000140005f00 f i Colorpge.obj
 0001:00004f40       ?SetMenu@CWMHnd@@UEAAHPEAVCMenuMTL@@@Z 0000000140005f40 f i Colorpge.obj
 0001:00004f60       ?GetCurrentMessage@CCmdTarget@@UEBAPEBU_ATL_MSG@ATL@@XZ 0000000140005f60 f i Colorpge.obj
 0001:00004f70       ?DefWindowProcW@CWMHnd@@UEAA_JI_K_J@Z 0000000140005f70 f i Colorpge.obj
 0001:00004fa0       ?OnInitDialog@CWMHnd@@UEAAHXZ 0000000140005fa0 f i Colorpge.obj
 0001:00004fa0       ?OnCancel@CCommonDialog@@UEAAXXZ 0000000140005fa0 f i Propdlg.obj
 0001:00004fd0       ??1CWndProcThunk@ATL@@QEAA@XZ 0000000140005fd0 f i Colorpge.obj
 0001:00004fe0       ?RemoveHandle@?$CHandleHashList@PEAUHWND__@@VCWMHnd@@PEAU1@$0BB@@@QEAAPEAUHWND__@@QEAU2@@Z 0000000140005fe0 f i Colorpge.obj
 0001:000050a0       ?RemoveOwner@?$CHandleHashList@PEAUHWND__@@VCWMHnd@@PEAU1@$0BB@@@QEAAHQEAUHWND__@@@Z 00000001400060a0 f i Colorpge.obj
 0001:00005160       ?RemoveOwner@?$CHandleList@PEAUHMENU__@@VCMenuMTL@@PEAUHWND__@@@@QEAAHQEAUHWND__@@@Z 0000000140006160 f i Colorpge.obj
 0001:00005160       ?RemoveOwner@?$CHandleList@PEAXVCGdiObject@@PEAUHWND__@@@@QEAAHQEAUHWND__@@@Z 0000000140006160 f i Colorpge.obj
 0001:00005160       ?RemoveOwner@?$CHandleList@PEAUHDC__@@VCDCMTL@@PEAUHWND__@@@@QEAAHQEAUHWND__@@@Z 0000000140006160 f i Colorpge.obj
 0001:00005160       ?RemoveOwner@?$CHandleList@PEAXXPEAUHWND__@@@@QEAAHQEAUHWND__@@@Z 0000000140006160 f i Colorpge.obj
 0001:000051f0       ?RemoveHandleWnd@CModuleThreadState@@QEAAPEAUHWND__@@PEAU2@@Z 00000001400061f0 f i Colorpge.obj
 0001:00005290       ?DestroyWindow@CWnd@@UEAAHXZ 0000000140006290 f i Colorpge.obj
 0001:00005290       ?DestroyWindow@CWMHnd@@UEAAHXZ 0000000140006290 f i Colorpge.obj
 0001:000052b0       ??1CWnd@@UEAA@XZ           00000001400062b0 f i Colorpge.obj
 0001:00005380       ?classHandleFuncCWnd@CWnd@@SAPEAXPEAX0@Z 0000000140006380 f i Colorpge.obj
 0001:00005410       ?GetActiveWindow@CWnd@@SAPEAV1@XZ 0000000140006410 f i Colorpge.obj
 0001:00005590       ?OnCmdMsg@CCmdTarget@@UEAAHIHPEAXPEAUAFX_CMDHANDLERINFO@@@Z 0000000140006590 f i Colorpge.obj
 0001:000056e0       ?AfxHelpEnabled@@YAHXZ     00000001400066e0 f i Colorpge.obj
 0001:00005770       ?CommonConstruct@CPropertyPageMTL@@QEAAXPEB_WI@Z 0000000140006770 f i Colorpge.obj
 0001:00005820       ??0CPropertyPageMTL@@QEAA@IIK@Z 0000000140006820 f i Colorpge.obj
 0001:00005900       ?GetRuntimeClass@CMainFrame@@UEBAPEAUCRuntimeClass@@XZ 0000000140006900 f   Mainfrm.obj
 0001:00005910       ?_ProcessWindowMessage@CMainFrame@@UEAAHPEAUHWND__@@I_K_JAEA_J@Z 0000000140006910 f i Mainfrm.obj
 0001:00005a50       ??0CMainFrame@@QEAA@XZ     0000000140006a50 f   Mainfrm.obj
 0001:00005ad0       ??_ECMainFrame@@UEAAPEAXI@Z 0000000140006ad0 f i * CIL library *:* CIL module *
 0001:00005ad0       ??_GCMainFrame@@UEAAPEAXI@Z 0000000140006ad0 f i Mainfrm.obj
 0001:00005b40       ?OnCreate@CMainFrame@@QEAAHPEAUtagCREATESTRUCTW@@@Z 0000000140006b40 f   Mainfrm.obj
 0001:00005c20       ?OnMiniFramePropertySheet@CMainFrame@@QEAAXXZ 0000000140006c20 f   Mainfrm.obj
 0001:00005de0       ?AllocElements@CStatusBar@@QEAAHHH@Z 0000000140006de0 f i Mainfrm.obj
 0001:00005ec0       ?SetIndicators@CStatusBar@@QEAAHPEBIH@Z 0000000140006ec0 f i Mainfrm.obj
 0001:00006110       ?SetButtons@CToolBar@@QEAAHPEBIH@Z 0000000140007110 f i Mainfrm.obj
 0001:00006240       ?AfxLoadSysColorBitmap@@YAPEAUHBITMAP__@@PEAUHINSTANCE__@@PEAUHRSRC__@@H@Z 0000000140007240 f i Mainfrm.obj
 0001:000064f0       ?AddReplaceBitmap@CToolBar@@QEAAHPEAUHBITMAP__@@@Z 00000001400074f0 f i Mainfrm.obj
 0001:000065e0       ?LoadBitmapW@CToolBar@@QEAAHPEB_W@Z 00000001400075e0 f i Mainfrm.obj
 0001:00006670       ?OnPaint@CToolBar@@QEAAXXZ 0000000140007670 f i Mainfrm.obj
 0001:00006700       ?OnSetBitmapSize@CToolBar@@QEAA_J_K_J@Z 0000000140007700 f i Mainfrm.obj
 0001:00006710       ?OnSetSizeHelper@CToolBar@@QEAA_JAEAVCSize@WTL@@_J@Z 0000000140007710 f i Mainfrm.obj
 0001:00006840       ?OnSetButtonSize@CToolBar@@QEAA_J_K_J@Z 0000000140007840 f i Mainfrm.obj
 0001:00006850       ?OnPreserveSizingPolicyHelper@CToolBar@@QEAA_J_K_J@Z 0000000140007850 f i Mainfrm.obj
 0001:00006a20       ?OnPreserveZeroBorderHelper@CToolBar@@QEAA_J_K_J@Z 0000000140007a20 f i Mainfrm.obj
 0001:00006b30       ?_ProcessWindowMessage@CToolBar@@UEAAHPEAUHWND__@@I_K_JAEA_J@Z 0000000140007b30 f i Mainfrm.obj
 0001:00006e10       ??_ECControlBar@@UEAAPEAXI@Z 0000000140007e10 f i * CIL library *:* CIL module *
 0001:00006e10       ??_ECToolBar@@UEAAPEAXI@Z  0000000140007e10 f i * CIL library *:* CIL module *
 0001:00006e10       ??_ECStatusBar@@UEAAPEAXI@Z 0000000140007e10 f i * CIL library *:* CIL module *
 0001:00006e10       ??_GCToolBar@@UEAAPEAXI@Z  0000000140007e10 f i Mainfrm.obj
 0001:00006e10       ??_GCStatusBar@@UEAAPEAXI@Z 0000000140007e10 f i Mainfrm.obj
 0001:00006e10       ??_GCControlBar@@UEAAPEAXI@Z 0000000140007e10 f i Mainfrm.obj
 0001:00006e40       ?OnToolHitTest@CToolBar@@UEBA_JVCPoint@WTL@@PEAUtagTOOLINFOW@@@Z 0000000140007e40 f i Mainfrm.obj
 0001:00006f70       ?OnBarStyleChange@CToolBar@@UEAAXKK@Z 0000000140007f70 f i Mainfrm.obj
 0001:00006fc0       ?Enable@CToolCmdUI@@UEAAXH@Z 0000000140007fc0 f i Mainfrm.obj
 0001:00007040       ?SetButtonStyle@CToolBar@@QEAAXHI@Z 0000000140008040 f i Mainfrm.obj
 0001:000070c0       ?SetCheck@CToolCmdUI@@UEAAXH@Z 00000001400080c0 f i Mainfrm.obj
 0001:00007150       ?OnUpdateCmdUI@CToolBar@@UEAAXPEAVCFrameWnd@@H@Z 0000000140008150 f i Mainfrm.obj
 0001:000072e0       ?WrapToolBar@CToolBar@@QEAAHPEAU_TBBUTTON@@HH@Z 00000001400082e0 f i Mainfrm.obj
 0001:00007400       ?SizeToolBar@CToolBar@@QEAAXPEAU_TBBUTTON@@HHH@Z 0000000140008400 f i Mainfrm.obj
 0001:000075d0       ?CalcSize@CToolBar@@QEAA?AVCSize@WTL@@PEAU_TBBUTTON@@H@Z 00000001400085d0 f i Mainfrm.obj
 0001:00007730       ?_SetButton@CToolBar@@QEAAXHPEAU_TBBUTTON@@@Z 0000000140008730 f i Mainfrm.obj
 0001:00007920       ?CalcDynamicLayout@CToolBar@@UEAA?AVCSize@WTL@@HK@Z 0000000140008920 f i Mainfrm.obj
 0001:00007980       ?CalcLayout@CToolBar@@QEAA?AVCSize@WTL@@KH@Z 0000000140008980 f i Mainfrm.obj
 0001:00007fe0       ?CalcFixedLayout@CToolBar@@UEAA?AVCSize@WTL@@HH@Z 0000000140008fe0 f i Mainfrm.obj
 0001:00008020       ?Create@CToolBar@@UEAAHPEAVCWnd@@KI@Z 0000000140009020 f i Mainfrm.obj
 0001:00008070       ?_AfxGetDropDownWidth@CToolBar@@SAHXZ 0000000140009070 f i Mainfrm.obj
 0001:00008170       ?SetSizes@CToolBar@@QEAAXUtagSIZE@@0@Z 0000000140009170 f i Mainfrm.obj
 0001:00008210       ?CreateEx@CToolBar@@UEAAHPEAVCWnd@@KKVCRect@WTL@@I@Z 0000000140009210 f i Mainfrm.obj
 0001:00008350       ??0CToolBar@@QEAA@XZ       0000000140009350 f i Mainfrm.obj
 0001:000083e0       ??1CStatusBar@@UEAA@XZ     00000001400093e0 f i Mainfrm.obj
 0001:000083f0       ??0_AUX_DATA@@QEAA@XZ      00000001400093f0 f i Mainfrm.obj
 0001:00008500       ??0CControlBar@@QEAA@XZ    0000000140009500 f i Mainfrm.obj
 0001:000085c0       ?OnGetText@CStatusBar@@QEAAHHPEA_W@Z 00000001400095c0 f i Mainfrm.obj
 0001:00008650       ?OnNcCalcSize@CStatusBar@@QEAAXHPEAUtagNCCALCSIZE_PARAMS@@@Z 0000000140009650 f i Mainfrm.obj
 0001:00008710       ??_GCWindowDCMTL@@UEAAPEAXI@Z 0000000140009710 f i Mainfrm.obj
 0001:00008710       ??_ECWindowDCMTL@@UEAAPEAXI@Z 0000000140009710 f i * CIL library *:* CIL module *
 0001:00008740       ??1CWindowDCMTL@@UEAA@XZ   0000000140009740 f i Mainfrm.obj
 0001:000087c0       ?DrawBorders@CControlBar@@QEAAXPEAVCDCMTL@@AEAVCRect@WTL@@@Z 00000001400097c0 f i Mainfrm.obj
 0001:00008bd0       ?FillSolidRect@?$CDCT@$00@WTL@@QEAAXHHHHK@Z 0000000140009bd0 f i Mainfrm.obj
 0001:00008c60       ?Draw3dRect@?$CDCT@$00@WTL@@QEAAXHHHHKK@Z 0000000140009c60 f i Mainfrm.obj
 0001:00008e50       ?DrawNonThemedGripper@CControlBar@@QEAAHPEAVCDCMTL@@AEBVCRect@WTL@@@Z 0000000140009e50 f i Mainfrm.obj
 0001:00008f10       ?EraseNonClient@CControlBar@@QEAAXXZ 0000000140009f10 f i Mainfrm.obj
 0001:00009150       ?OnSetText@CStatusBar@@QEAAHPEB_W@Z 000000014000a150 f i Mainfrm.obj
 0001:00009260       ?OnSetMinHeight@CStatusBar@@QEAA_J_K_J@Z 000000014000a260 f i Mainfrm.obj
 0001:000092a0       ?_ProcessWindowMessage@CStatusBar@@UEAAHPEAUHWND__@@I_K_JAEA_J@Z 000000014000a2a0 f i Mainfrm.obj
 0001:000094c0       ?OnCreate@CControlBar@@QEAAHPEAUtagCREATESTRUCTW@@@Z 000000014000a4c0 f i Mainfrm.obj
 0001:000095a0       ?OnDestroy@CControlBar@@QEAAXXZ 000000014000a5a0 f i Mainfrm.obj
 0001:00009620       ?OnLButtonDown@CControlBar@@QEAAXIVCPoint@WTL@@@Z 000000014000a620 f i Mainfrm.obj
 0001:000096a0       ?ReDockControlBar@CDockBar@@QEAAXPEAVCControlBar@@PEBUtagRECT@@@Z 000000014000a6a0 f i Mainfrm.obj
 0001:00009a80       ?ReDockControlBar@CFrameWnd@@QEAAXPEAVCControlBar@@PEAVCDockBar@@PEBUtagRECT@@@Z 000000014000aa80 f i Mainfrm.obj
 0001:00009bb0       ?ToggleDocking@CDockContext@@QEAAXXZ 000000014000abb0 f i Mainfrm.obj
 0001:00009d20       ?OnTimer@CControlBar@@QEAAX_K@Z 000000014000ad20 f i Mainfrm.obj
 0001:00009f20       ?RecalcDelayShow@CControlBar@@QEAAKPEAUAFX_SIZEPARENTPARAMS@@@Z 000000014000af20 f i Mainfrm.obj
 0001:00009ff0       ?OnSizeParent@CControlBar@@QEAA_J_K_J@Z 000000014000aff0 f i Mainfrm.obj
 0001:0000a170       ?OnIdleUpdateCmdUI@CControlBar@@QEAA_J_K_J@Z 000000014000b170 f i Mainfrm.obj
 0001:0000a280       ?OnInitialUpdate@CControlBar@@QEAAXXZ 000000014000b280 f i Mainfrm.obj
 0001:0000a290       ?_ProcessWindowMessage@CControlBar@@UEAAHPEAUHWND__@@I_K_JAEA_J@Z 000000014000b290 f i Mainfrm.obj
 0001:0000a410       ?WindowProc@CControlBar@@UEAA_JI_K_J@Z 000000014000b410 f i Mainfrm.obj
 0001:0000a560       ?RemoveControlBar@CFrameWnd@@QEAAXPEAVCControlBar@@@Z 000000014000b560 f i Mainfrm.obj
 0001:0000a5e0       ?GetCapture@CWnd@@SAPEAV1@XZ 000000014000b5e0 f i Mainfrm.obj
 0001:0000a760       ?CreateEx@CMiniFrameWnd@@UEAAHKPEB_W0KAEBUtagRECT@@PEAVCWnd@@I@Z 000000014000b760 f i Mainfrm.obj
 0001:0000a870       ?Create@CDockBar@@QEAAHPEAVCWnd@@KI@Z 000000014000b870 f i Mainfrm.obj
 0001:0000a940       ?Create@CMiniDockFrameWnd@@QEAAHPEAVCWnd@@K@Z 000000014000b940 f i Mainfrm.obj
 0001:0000aba0       ?GetDlgItem@CWnd@@QEAAPEAV1@H@Z 000000014000bba0 f i Mainfrm.obj
 0001:0000ad20       ?GetParentOwner@CWnd@@QEAAPEAV1@XZ 000000014000bd20 f i Mainfrm.obj
 0001:0000af00       ?Create@CToolTipCtrlMTL@@QEAAHPEAVCWnd@@K@Z 000000014000bf00 f i Mainfrm.obj
 0001:0000afa0       ??_ECToolTipCtrlMTL@@UEAAPEAXI@Z 000000014000bfa0 f i * CIL library *:* CIL module *
 0001:0000afa0       ??_GCToolTipCtrlMTL@@UEAAPEAXI@Z 000000014000bfa0 f i Mainfrm.obj
 0001:0000aff0       ?_AfxRelayToolTipMessage@CWnd@@SAXPEAVCToolTipCtrlMTL@@PEAUtagMSG@@@Z 000000014000bff0 f i Mainfrm.obj
 0001:0000b0a0       ?CancelToolTips@CWnd@@QEAAXH@Z 000000014000c0a0 f i Mainfrm.obj
 0001:0000b120       ?FilterToolTipMessage@CWnd@@QEAAXPEAUtagMSG@@@Z 000000014000c120 f i Mainfrm.obj
 0001:0000b8e0       ?_FilterToolTipMessage@CWnd@@SAXPEAUtagMSG@@PEAV1@@Z 000000014000c8e0 f i Mainfrm.obj
 0001:0000b8f0       ?_EnableToolTips@CWnd@@QEAAHHI@Z 000000014000c8f0 f i Mainfrm.obj
 0001:0000ba40       ?InsertAt@?$CArray@PEAXAEBQEAX@@QEAAX_JAEBQEAX0@Z 000000014000ca40 f i Mainfrm.obj
 0001:0000bad0       ?Insert@CDockBar@@QEAAHPEAVCControlBar@@VCRect@WTL@@VCPoint@4@@Z 000000014000cad0 f i Mainfrm.obj
 0001:0000be40       ?SetSize@?$CArray@PEAXAEBQEAX@@QEAAX_J0@Z 000000014000ce40 f i Mainfrm.obj
 0001:0000bf90       ?SetParent@CWnd@@QEAAPEAV1@PEAV1@@Z 000000014000cf90 f i Mainfrm.obj
 0001:0000c120       ?DockControlBar@CDockBar@@QEAAXPEAVCControlBar@@PEBUtagRECT@@@Z 000000014000d120 f i Mainfrm.obj
 0001:0000c450       ?FloatControlBar@CFrameWnd@@QEAAXPEAVCControlBar@@VCPoint@WTL@@K@Z 000000014000d450 f i Mainfrm.obj
 0001:0000c630       ?RemoveAt@?$CArray@PEAXAEBQEAX@@QEAAX_J0@Z 000000014000d630 f i Mainfrm.obj
 0001:0000c670       ?RemovePlaceHolder@CDockBar@@QEAAXPEAVCControlBar@@@Z 000000014000d670 f i Mainfrm.obj
 0001:0000c750       ?RemoveControlBar@CDockBar@@QEAAHPEAVCControlBar@@HH@Z 000000014000d750 f i Mainfrm.obj
 0001:0000c990       ??1CControlBar@@UEAA@XZ    000000014000d990 f i Mainfrm.obj
 0001:0000ca40       ?PostNcDestroy@CControlBar@@UEAAXXZ 000000014000da40 f i Mainfrm.obj
 0001:0000ca60       ?PreTranslateMessage@CControlBar@@UEAAHPEAUtagMSG@@@Z 000000014000da60 f i Mainfrm.obj
 0001:0000cd40       ?PreCreateWindow@CControlBar@@UEAAHAEAUtagCREATESTRUCTW@@@Z 000000014000dd40 f i Mainfrm.obj
 0001:0000cdf0       ?PreCreateWindow@CStatusBar@@UEAAHAEAUtagCREATESTRUCTW@@@Z 000000014000ddf0 f i Mainfrm.obj
 0001:0000ce20       ?OnBarStyleChange@CStatusBar@@UEAAXKK@Z 000000014000de20 f i Mainfrm.obj
 0001:0000ce60       ?Enable@CStatusCmdUI@@UEAAXH@Z 000000014000de60 f i Mainfrm.obj
 0001:0000cea0       ??1?$CArray@PEAXAEBQEAX@@QEAA@XZ 000000014000dea0 f i Propsht.obj
 0001:0000cea0       ??1?$CArray@HAEBH@@QEAA@XZ 000000014000dea0 f i Mainfrm.obj
 0001:0000cee0       ?SetSize@?$CArray@HAEBH@@QEAAX_J0@Z 000000014000dee0 f i Mainfrm.obj
 0001:0000cee0       ?SetSize@?$CArray@W4LoadArrayObjType@CArchive@@AEBW412@@@QEAAX_J0@Z 000000014000dee0 f i Shapedoc.obj
 0001:0000d030       ?UpdateAllPanes@CStatusBar@@QEAAXHH@Z 000000014000e030 f i Mainfrm.obj
 0001:0000d3e0       ?SetPaneStyle@CStatusBar@@QEAAXHI@Z 000000014000e3e0 f i Mainfrm.obj
 0001:0000d4f0       ?SetCheck@CStatusCmdUI@@UEAAXH@Z 000000014000e4f0 f i Mainfrm.obj
 0001:0000d520       ?SetPaneText@CStatusBar@@QEAAHHPEB_WH@Z 000000014000e520 f i Mainfrm.obj
 0001:0000d610       ?SetText@CStatusCmdUI@@UEAAXPEB_W@Z 000000014000e610 f i Mainfrm.obj
 0001:0000d630       ?UpdateDialogControls@CWnd@@QEAAXPEAVCCmdTarget@@H@Z 000000014000e630 f i Mainfrm.obj
 0001:0000d930       ?OnUpdateCmdUI@CStatusBar@@UEAAXPEAVCFrameWnd@@H@Z 000000014000e930 f i Mainfrm.obj
 0001:0000da70       ?CalcFixedLayout@CControlBar@@UEAA?AVCSize@WTL@@HH@Z 000000014000ea70 f i Mainfrm.obj
 0001:0000dab0       ?CalcDynamicLayout@CControlBar@@UEAA?AVCSize@WTL@@HK@Z 000000014000eab0 f i Mainfrm.obj
 0001:0000dae0       ??_ECClientDCMTL@@UEAAPEAXI@Z 000000014000eae0 f i * CIL library *:* CIL module *
 0001:0000dae0       ??_GCClientDCMTL@@UEAAPEAXI@Z 000000014000eae0 f i Mainfrm.obj
 0001:0000db10       ??1CClientDCMTL@@UEAA@XZ   000000014000eb10 f i Mainfrm.obj
 0001:0000db90       ?CalcInsideRect@CControlBar@@QEBAXAEAVCRect@WTL@@H@Z 000000014000eb90 f i Mainfrm.obj
 0001:0000dc50       ?CalcFixedLayout@CStatusBar@@UEAA?AVCSize@WTL@@HH@Z 000000014000ec50 f i Mainfrm.obj
 0001:0000de60       ?ResetTimer@CControlBar@@QEAAX_KI@Z 000000014000ee60 f i Mainfrm.obj
 0001:0000dec0       ?SetStatusText@CControlBar@@UEAAH_J@Z 000000014000eec0 f i Mainfrm.obj
 0001:0000dfe0       ?Create@CStatusBar@@UEAAHPEAVCWnd@@KI@Z 000000014000efe0 f i Mainfrm.obj
 0001:0000e000       ?CreateEx@CStatusBar@@UEAAHPEAVCWnd@@KKI@Z 000000014000f000 f i Mainfrm.obj
 0001:0000e0f0       ??1CMDIFrameWnd@@UEAA@XZ   000000014000f0f0 f i Mainfrm.obj
 0001:0000e100       ?AddFrameWnd@CFrameWnd@@QEAAXXZ 000000014000f100 f i Mainfrm.obj
 0001:0000e190       ??0CFrameWnd@@QEAA@XZ      000000014000f190 f i Mainfrm.obj
 0001:0000e280       ?OnCmdMsg@CMDIFrameWnd@@UEAAHIHPEAXPEAUAFX_CMDHANDLERINFO@@@Z 000000014000f280 f i Mainfrm.obj
 0001:0000e310       ??_ECMDIChildWnd@@UEAAPEAXI@Z 000000014000f310 f i * CIL library *:* CIL module *
 0001:0000e310       ??_GCMDIFrameWnd@@UEAAPEAXI@Z 000000014000f310 f i Mainfrm.obj
 0001:0000e310       ??_GCMDIChildWnd@@UEAAPEAXI@Z 000000014000f310 f i Stdafx.obj
 0001:0000e310       ??_ECFrameWnd@@UEAAPEAXI@Z 000000014000f310 f i * CIL library *:* CIL module *
 0001:0000e310       ??_ECMDIFrameWnd@@UEAAPEAXI@Z 000000014000f310 f i * CIL library *:* CIL module *
 0001:0000e310       ??_GCFrameWnd@@UEAAPEAXI@Z 000000014000f310 f i Mainfrm.obj
 0001:0000e340       ?PreTranslateMessage@CMDIFrameWnd@@UEAAHPEAUtagMSG@@@Z 000000014000f340 f i Mainfrm.obj
 0001:0000e400       ?DefWindowProcW@CMDIFrameWnd@@UEAA_JI_K_J@Z 000000014000f400 f i Mainfrm.obj
 0001:0000e430       ?OnCommand@CMDIFrameWnd@@UEAAH_K_J@Z 000000014000f430 f i Mainfrm.obj
 0001:0000e4d0       ?PreCreateWindow@CMDIFrameWnd@@UEAAHAEAUtagCREATESTRUCTW@@@Z 000000014000f4d0 f i Mainfrm.obj
 0001:0000e500       ?OnCreateClient@CMDIFrameWnd@@UEAAHPEAUtagCREATESTRUCTW@@PEAUCCreateContext@@@Z 000000014000f500 f i Mainfrm.obj
 0001:0000e590       ?GetActiveFrame@CMDIFrameWnd@@UEAAPEAVCFrameWnd@@XZ 000000014000f590 f i Mainfrm.obj
 0001:0000e5b0       ?LoadFrame@CMDIFrameWnd@@UEAAHIKPEAVCWnd@@PEAUCCreateContext@@@Z 000000014000f5b0 f i Mainfrm.obj
 0001:0000e5f0       ?CreateClient@CMDIFrameWnd@@UEAAHPEAUtagCREATESTRUCTW@@PEAVCMenuMTL@@@Z 000000014000f5f0 f i Mainfrm.obj
 0001:0000e730       ?DelayUpdateFrameMenu@CMDIFrameWnd@@UEAAXPEAUHMENU__@@@Z 000000014000f730 f i Mainfrm.obj
 0001:0000e750       ?GetWindowMenuPopup@CMDIFrameWnd@@UEAAPEAUHMENU__@@PEAU2@@Z 000000014000f750 f i Mainfrm.obj
 0001:0000e810       ?OnIdleUpdateCmdUI@CMDIFrameWnd@@QEAAXXZ 000000014000f810 f i Mainfrm.obj
 0001:0000e840       ?AfxRegisterWndClass@CAfx@@SAPEB_WIPEAUHICON__@@PEAUHBRUSH__@@0@Z 000000014000f840 f i Mainfrm.obj
 0001:0000e9d0       ?GetIconWndClass@CFrameWnd@@QEAAPEB_WKI@Z 000000014000f9d0 f i Mainfrm.obj
 0001:0000ea90       ?OnCmdMsg@CFrameWnd@@UEAAHIHPEAXPEAUAFX_CMDHANDLERINFO@@@Z 000000014000fa90 f i Mainfrm.obj
 0001:0000eb40       ?PreTranslateMessage@CFrameWnd@@UEAAHPEAUtagMSG@@@Z 000000014000fb40 f i Mainfrm.obj
 0001:0000ebc0       ?PreCreateWindow@CFrameWnd@@UEAAHAEAUtagCREATESTRUCTW@@@Z 000000014000fbc0 f i Mainfrm.obj
 0001:0000ebc0       ?PreCreateWindow@CMDIChildWnd@@UEAAHAEAUtagCREATESTRUCTW@@@Z 000000014000fbc0 f i Stdafx.obj
 0001:0000ec10       ?AfxIsDescendant@CFrameWnd@@SAHPEAUHWND__@@0@Z 000000014000fc10 f i Mainfrm.obj
 0001:0000ed10       ?ShowOwnedWindows@CFrameWnd@@QEAAXH@Z 000000014000fd10 f i Mainfrm.obj
 0001:0000ef50       ?OnSetPreviewMode@CFrameWnd@@UEAAXHPEAUCPrintPreviewState@@@Z 000000014000ff50 f i Mainfrm.obj
 0001:0000f210       ?GetActiveFrame@CFrameWnd@@UEAAPEAV1@XZ 0000000140010210 f i Mainfrm.obj
 0001:0000f220       ?GetDefaultAccelerator@CFrameWnd@@UEAAPEAUHACCEL__@@XZ 0000000140010220 f i Mainfrm.obj
 0001:0000f260       ?RemoveFrameWnd@CFrameWnd@@QEAAXXZ 0000000140010260 f i Mainfrm.obj
 0001:0000f2f0       ??1CFrameWnd@@UEAA@XZ      00000001400102f0 f i Mainfrm.obj
 0001:0000f380       ?PostNcDestroy@_AFX_MOUSEANCHORWND@@UEAAXXZ 0000000140010380 f i Stdafx.obj
 0001:0000f380       ?PostNcDestroy@CView@@UEAAXXZ 0000000140010380 f i Shapesvw.obj
 0001:0000f380       ?PostNcDestroy@CFrameWnd@@UEAAXXZ 0000000140010380 f i Mainfrm.obj
 0001:0000f380       ?PostNcDestroy@CModelessShapePropSheet@@UEAAXXZ 0000000140010380 f i Propsht2.obj
 0001:0000f3a0       ?Create@CFrameWnd@@UEAAHPEB_W0KAEBUtagRECT@@PEAVCWnd@@0KPEAUCCreateContext@@@Z 00000001400103a0 f i Mainfrm.obj
 0001:0000f4e0       ?LoadFrame@CFrameWnd@@UEAAHIKPEAVCWnd@@PEAUCCreateContext@@@Z 00000001400104e0 f i Mainfrm.obj
 0001:0000f6c0       ?GetForegroundWindow@CWnd@@SAPEAV1@XZ 00000001400106c0 f i Mainfrm.obj
 0001:0000f840       ?GetLastActivePopup@CWnd@@QEAAPEAV1@XZ 0000000140010840 f i Mainfrm.obj
 0001:0000f9c0       ?OnWindowNew@CMDIFrameWnd@@QEAAXXZ 00000001400109c0 f i Mainfrm.obj
 0001:0000fa80       ?MDIGetActive@CMDIFrameWnd@@QEBAPEAVCMDIChildWnd@@PEAH@Z 0000000140010a80 f i Mainfrm.obj
 0001:0000fc60       ?OnUpdateMDIWindowCmd@CMDIFrameWnd@@QEAAXPEAVCCmdUI@@@Z 0000000140010c60 f i Mainfrm.obj
 0001:0000fca0       ?OnMDIWindowCmd@CMDIFrameWnd@@QEAAHI@Z 0000000140010ca0 f i Mainfrm.obj
 0001:0000fd00       ?CanCloseFrame@CDocument@@QEAAHPEAVCFrameWnd@@@Z 0000000140010d00 f i Mainfrm.obj
 0001:0000fdb0       ?SaveAllModified@CDocManager@@QEAAHXZ 0000000140010db0 f i Mainfrm.obj
 0001:0000fe40       ?CloseAllDocuments@CDocTemplate@@QEAAXH@Z 0000000140010e40 f i Mainfrm.obj
 0001:0000ff50       ??1CDocument@@QEAA@XZ      0000000140010f50 f i Mainfrm.obj
 0001:00010040       ?OnCloseDocument@CDocument@@QEAAXXZ 0000000140011040 f i Mainfrm.obj
 0001:00010120       ?OnClose@CFrameWnd@@QEAAXXZ 0000000140011120 f i Mainfrm.obj
 0001:000102f0       ?CreateView@CFrameWnd@@QEAAPEAVCWnd@@PEAUCCreateContext@@I@Z 00000001400112f0 f i Mainfrm.obj
 0001:00010400       ?OnCreateClient@CFrameWnd@@UEAAHPEAUtagCREATESTRUCTW@@PEAUCCreateContext@@@Z 0000000140011400 f i Mainfrm.obj
 0001:00010430       ?OnCreateHelper@CFrameWnd@@QEAAHPEAUtagCREATESTRUCTW@@PEAUCCreateContext@@@Z 0000000140011430 f i Mainfrm.obj
 0001:000104d0       ?EnsureParentFrame@CWnd@@QEAAPEAVCFrameWnd@@XZ 00000001400114d0 f i Mainfrm.obj
 0001:000104d0       ?GetParentFrame@CWnd@@QEAAPEAVCFrameWnd@@XZ 00000001400114d0 f i Mainfrm.obj
 0001:00010530       ?DestroyWindow@CControlBar@@UEAAHXZ 0000000140011530 f i Mainfrm.obj
 0001:000105a0       ?DestroyDockBars@CFrameWnd@@QEAAXXZ 00000001400115a0 f i Mainfrm.obj
 0001:000108e0       ?OnDestroy@CFrameWnd@@QEAAXXZ 00000001400118e0 f i Mainfrm.obj
 0001:00010970       ?SetActiveWindow@CWnd@@QEAAPEAV1@XZ 0000000140011970 f i Mainfrm.obj
 0001:00010af0       ?ActivateFrame@CFrameWnd@@UEAAXH@Z 0000000140011af0 f i Mainfrm.obj
 0001:00010ba0       ?ShowAppMessageBox@CWinApp@@SAHPEAV1@PEB_WII@Z 0000000140011ba0 f i Mainfrm.obj
 0001:00010cf0       ?AfxMessageBox@@YAHIII@Z   0000000140011cf0 f i Mainfrm.obj
 0001:00010d60       ?OnDropFiles@CFrameWnd@@QEAAXPEAUHDROP__@@@Z 0000000140011d60 f i Mainfrm.obj
 0001:00010df0       ?GetOwner@CWnd@@QEAAPEAV1@XZ 0000000140011df0 f i Mainfrm.obj
 0001:00010f80       ?GetTopLevelParent@CWnd@@QEAAPEAV1@XZ 0000000140011f80 f i Mainfrm.obj
 0001:000111c0       ?OnIdle@CCmdUI@@QEAAHPEAVCCmdTarget@@H@Z 00000001400121c0 f i Mainfrm.obj
 0001:00011280       ?OnInitMenuPopup@CFrameWnd@@QEAAXPEAVCMenuMTL@@IH@Z 0000000140012280 f i Mainfrm.obj
 0001:00011510       ?GetTopLevelFrame@CWnd@@QEAAPEAVCFrameWnd@@XZ 0000000140012510 f i Mainfrm.obj
 0001:000115e0       ?SetMenuBarState@CFrameWnd@@QEAAHK@Z 00000001400125e0 f i Mainfrm.obj
 0001:00011640       ?OnMenuSelect@CFrameWnd@@QEAAXIIPEAUHMENU__@@@Z 0000000140012640 f i Mainfrm.obj
 0001:000117f0       ?OnSize@CFrameWnd@@QEAAXIHH@Z 00000001400127f0 f i Mainfrm.obj
 0001:00011840       ?OnPopMessageString@CFrameWnd@@QEAA_J_K_J@Z 0000000140012840 f i Mainfrm.obj
 0001:00011860       ?GetDescendantWindow@CWnd@@QEAAPEAV1@PEAUHWND__@@HH@Z 0000000140012860 f i Mainfrm.obj
 0001:00011a90       ?OnSetMessageString@CFrameWnd@@QEAA_J_K_J@Z 0000000140012a90 f i Mainfrm.obj
 0001:00011c10       ?OnUpdateFrameMenu@CFrameWnd@@UEAAXPEAUHMENU__@@@Z 0000000140012c10 f i Mainfrm.obj
 0001:00011c40       ?UpdateFrameTitleForDocument@CFrameWnd@@QEAAXPEB_W@Z 0000000140012c40 f i Mainfrm.obj
 0001:000120f0       ?OnUpdateFrameTitle@CFrameWnd@@UEAAXH@Z 00000001400130f0 f i Mainfrm.obj
 0001:000121c0       ?OnIdleUpdateCmdUI@CFrameWnd@@QEAAXXZ 00000001400131c0 f i Mainfrm.obj
 0001:00012260       ?OnUpdateControlBarMenu@CFrameWnd@@QEAAXPEAVCCmdUI@@@Z 0000000140013260 f i Mainfrm.obj
 0001:000122b0       ?GetControlBar@CFrameWnd@@QEAAPEAVCControlBar@@I@Z 00000001400132b0 f i Mainfrm.obj
 0001:00012320       ?GetDockingFrame@CControlBar@@QEAAPEAVCFrameWnd@@XZ 0000000140013320 f i Mainfrm.obj
 0001:00012390       ?IsVisible@CControlBar@@UEBAHXZ 0000000140013390 f i Mainfrm.obj
 0001:000123d0       ?AfxRepositionWindow@CAfx@@SAXPEAUAFX_SIZEPARENTPARAMS@@PEAUHWND__@@PEBUtagRECT@@@Z 00000001400133d0 f i Mainfrm.obj
 0001:000124d0       ?RepositionBars@CWnd@@QEAAXIIIIPEAUtagRECT@@PEBU2@H@Z 00000001400134d0 f i Mainfrm.obj
 0001:000127f0       ?RecalcLayout@CFrameWnd@@UEAAXH@Z 00000001400137f0 f i Mainfrm.obj
 0001:00012920       ?ShowControlBar@CFrameWnd@@QEAAXPEAVCControlBar@@HH@Z 0000000140013920 f i Mainfrm.obj
 0001:00012b60       ?OnBarCheck@CFrameWnd@@QEAAHI@Z 0000000140013b60 f i Mainfrm.obj
 0001:00012bb0       ?_AtlGetStringResourceImage@CAfx@@SAPEBUATLSTRINGRESOURCEIMAGE@ATL@@PEAUHINSTANCE__@@PEAUHRSRC__@@I@Z 0000000140013bb0 f i Mainfrm.obj
 0001:00012c50       ?AfxLoadString@CAfx@@SAHIPEA_WI@Z 0000000140013c50 f i Mainfrm.obj
 0001:00012d00       ?Empty@CString@WTL@@QEAAXXZ 0000000140013d00 f i Mainfrm.obj
 0001:00012d80       ?AfxExtractSubString@CAfx@@SAHAEAVCString@WTL@@PEB_WH_W@Z 0000000140013d80 f i Mainfrm.obj
 0001:00012e90       ?OnToolTipText@CFrameWnd@@QEAAHIPEAUtagNMHDR@@PEA_J@Z 0000000140013e90 f i Mainfrm.obj
 0001:00013170       ?OnUpdateKeyIndicator@CFrameWnd@@QEAAXPEAVCCmdUI@@@Z 0000000140014170 f i Mainfrm.obj
 0001:000131e0       ?_ProcessWindowMessage@CFrameWnd@@UEAAHPEAUHWND__@@I_K_JAEA_J@Z 00000001400141e0 f i Mainfrm.obj
 0001:00013a00       ?_ProcessWindowMessage@CMDIFrameWnd@@UEAAHPEAUHWND__@@I_K_JAEA_J@Z 0000000140014a00 f i Mainfrm.obj
 0001:00013d50       ?_ProcessWindowMessage@CShapePropSheetFrame@@UEAAHPEAUHWND__@@I_K_JAEA_J@Z 0000000140014d50 f i Minifrm.obj
 0001:00014130       ??_GCMiniFrameWnd@@UEAAPEAXI@Z 0000000140015130 f i Minifrm.obj
 0001:00014130       ??_ECShapePropSheetFrame@@UEAAPEAXI@Z 0000000140015130 f i * CIL library *:* CIL module *
 0001:00014130       ??_ECMiniFrameWnd@@UEAAPEAXI@Z 0000000140015130 f i * CIL library *:* CIL module *
 0001:00014130       ??_GCShapePropSheetFrame@@UEAAPEAXI@Z 0000000140015130 f i Minifrm.obj
 0001:00014160       ?OnCreate@CShapePropSheetFrame@@IEAAHPEAUtagCREATESTRUCTW@@@Z 0000000140015160 f   Minifrm.obj
 0001:000142b0       ??1CMiniFrameWnd@@UEAA@XZ  00000001400152b0 f i Minifrm.obj
 0001:00014320       ?PreCreateWindow@CMiniFrameWnd@@UEAAHAEAUtagCREATESTRUCTW@@@Z 0000000140015320 f i Minifrm.obj
 0001:00014390       ?Create@CMiniFrameWnd@@UEAAHPEB_W0KAEBUtagRECT@@PEAVCWnd@@I@Z 0000000140015390 f i Minifrm.obj
 0001:000143d0       ?OnNcCreate@CMiniFrameWnd@@QEAAHPEAUtagCREATESTRUCTW@@@Z 00000001400153d0 f i Minifrm.obj
 0001:000144b0       ?OnNcHitTest@CMiniFrameWnd@@QEAA_JVCPoint@WTL@@@Z 00000001400154b0 f i Minifrm.obj
 0001:00014620       ?OnGetMinMaxInfo@CMiniFrameWnd@@QEAAXPEAUtagMINMAXINFO@@@Z 0000000140015620 f i Minifrm.obj
 0001:000146b0       ?HandleFloatingSysCommand@CWnd@@QEAAHI_J@Z 00000001400156b0 f i Minifrm.obj
 0001:000147c0       ?OnSysCommand@CMiniFrameWnd@@QEAAXI_J@Z 00000001400157c0 f i Minifrm.obj
 0001:00014870       ?OnFloatStatus@CMiniFrameWnd@@QEAA_J_K_J@Z 0000000140015870 f i Minifrm.obj
 0001:000149b0       ?OnQueryCenterWnd@CMiniFrameWnd@@QEAA_J_K_J@Z 00000001400159b0 f i Minifrm.obj
 0001:000149f0       ?_ProcessWindowMessage@CMiniFrameWnd@@UEAAHPEAUHWND__@@I_K_JAEA_J@Z 00000001400159f0 f i Minifrm.obj
 0001:00014b80       ?_ProcessWindowMessage@CShapePreviewWnd@@UEAAHPEAUHWND__@@I_K_JAEA_J@Z 0000000140015b80 f i Preview.obj
 0001:00014c70       ?OnPaint@CShapePreviewWnd@@AEAAXXZ 0000000140015c70 f   Preview.obj
 0001:00014db0       ?OnEraseBkgnd@CShapePreviewWnd@@AEAAHPEAVCDCMTL@@@Z 0000000140015db0 f   Preview.obj
 0001:00014f10       ??_GCBrushMTL@@UEAAPEAXI@Z 0000000140015f10 f i Preview.obj
 0001:00014f10       ??_GCBitmapMTL@@UEAAPEAXI@Z 0000000140015f10 f i Stdafx.obj
 0001:00014f10       ??_GCPenMTL@@UEAAPEAXI@Z   0000000140015f10 f i Shapeobj.obj
 0001:00014f10       ??_ECBrushMTL@@UEAAPEAXI@Z 0000000140015f10 f i * CIL library *:* CIL module *
 0001:00014f10       ??_ECRgnMTL@@UEAAPEAXI@Z   0000000140015f10 f i * CIL library *:* CIL module *
 0001:00014f10       ??_GCRgnMTL@@UEAAPEAXI@Z   0000000140015f10 f i Stdafx.obj
 0001:00014f10       ??_ECPenMTL@@UEAAPEAXI@Z   0000000140015f10 f i * CIL library *:* CIL module *
 0001:00014f10       ??_ECBitmapMTL@@UEAAPEAXI@Z 0000000140015f10 f i * CIL library *:* CIL module *
 0001:00014fa0       ??1?$CPenT@$00@WTL@@QEAA@XZ 0000000140015fa0 f i Shapeobj.obj
 0001:00014fa0       ??1?$CBitmapT@$00@WTL@@QEAA@XZ 0000000140015fa0 f i Stdafx.obj
 0001:00014fa0       ??1?$CRgnT@$00@WTL@@QEAA@XZ 0000000140015fa0 f i Stdafx.obj
 0001:00014fa0       ??1?$CBrushT@$00@WTL@@QEAA@XZ 0000000140015fa0 f i Preview.obj
 0001:00014fd0       ??1CRgnMTL@@UEAA@XZ        0000000140015fd0 f i Stdafx.obj
 0001:00014fd0       ??1CBrushMTL@@UEAA@XZ      0000000140015fd0 f i Preview.obj
 0001:00014fd0       ??1CPenMTL@@UEAA@XZ        0000000140015fd0 f i Shapeobj.obj
 0001:00015040       ?classHandleFuncCBrushMTL@CBrushMTL@@SAPEAXPEAX0@Z 0000000140016040 f i Preview.obj
 0001:000150a0       ?FromHandle@?$CHandleList@PEAXVCGdiObject@@PEAUHWND__@@@@QEAAPEAVCGdiObject@@QEAXPEAV2@QEAUHWND__@@Q6APEAXPEAX3@Z@Z 00000001400160a0 f i Preview.obj
 0001:00015180       ??1CPaintDCMTL@@UEAA@XZ    0000000140016180 f i Preview.obj
 0001:00015200       ??_GCPaintDCMTL@@UEAAPEAXI@Z 0000000140016200 f i Preview.obj
 0001:00015200       ??_ECPaintDCMTL@@UEAAPEAXI@Z 0000000140016200 f i * CIL library *:* CIL module *
 0001:00015230       ?_ProcessWindowMessage@CPropDlgApp@@UEAAHPEAUHWND__@@I_K_JAEA_J@Z 0000000140016230 f i Propdlg.obj
 0001:00015350       ?InitInstance@CPropDlgApp@@UEAAHXZ 0000000140016350 f   Propdlg.obj
 0001:000155b0       ?_ProcessWindowMessage@CAboutDlg@@UEAAHPEAUHWND__@@I_K_JAEA_J@Z 00000001400165b0 f i Propdlg.obj
 0001:000155b0       ?_ProcessWindowMessage@CCommonDialog@@UEAAHPEAUHWND__@@I_K_JAEA_J@Z 00000001400165b0 f i Propdlg.obj
 0001:000155c0       ?OnAppAbout@CPropDlgApp@@QEAAXXZ 00000001400165c0 f   Propdlg.obj
 0001:00015640       ??HWTL@@YA?AVCString@0@AEBV10@PEB_W@Z 0000000140016640 f i Propdlg.obj
 0001:000156c0       ?AfxDelRegTreeHelper@CAfx@@SAJPEAUHKEY__@@AEBVCString@WTL@@PEAVCAtlTransactionManager@ATL@@@Z 00000001400166c0 f i Propdlg.obj
 0001:00015920       ?Unregister@CWinApp@@QEAAHXZ 0000000140016920 f i Propdlg.obj
 0001:00015b90       ?ProcessShellCommand@CWinApp@@QEAAHAEAVCCommandLineInfo@@@Z 0000000140016b90 f i Propdlg.obj
 0001:00015d40       ?ParseParam@CCommandLineInfo@@UEAAXPEB_WHH@Z 0000000140016d40 f i Propdlg.obj
 0001:00015e10       ?EnableShellOpen@CWinApp@@QEAAXXZ 0000000140016e10 f i Propdlg.obj
 0001:00015f60       ?GetFirstDocTemplatePosition@CDocManager@@UEBAPEAU__POSITION@@XZ 0000000140016f60 f i Propdlg.obj
 0001:00015f70       ?GetNextDoc@CMultiDocTemplate@@UEBAPEAVCDocument@@AEAPEAU__POSITION@@@Z 0000000140016f70 f i Propdlg.obj
 0001:00015f70       ?GetNextDocTemplate@CDocManager@@UEBAPEAVCDocTemplate@@AEAPEAU__POSITION@@@Z 0000000140016f70 f i Propdlg.obj
 0001:00015f80       ?AddDocTemplate@CWinApp@@QEAAXPEAVCDocTemplate@@@Z 0000000140016f80 f i Propdlg.obj
 0001:00016040       ??0CDocTemplate@@QEAA@IPEAUCRuntimeClass@@00@Z 0000000140017040 f i Propdlg.obj
 0001:000160d0       ??1CDocTemplate@@QEAA@XZ   00000001400170d0 f i Propdlg.obj
 0001:00016100       ?AddDocument@CMultiDocTemplate@@UEAAXPEAVCDocument@@@Z 0000000140017100 f i Propdlg.obj
 0001:00016170       ?GetFirstDocPosition@CMultiDocTemplate@@UEBAPEAU__POSITION@@XZ 0000000140017170 f i Propdlg.obj
 0001:00016180       ?CreateNewDocument@CDocTemplate@@UEAAPEAVCDocument@@XZ 0000000140017180 f i Propdlg.obj
 0001:000161e0       ?OnCmdMsg@CDocTemplate@@UEAAHIHPEAXPEAUAFX_CMDHANDLERINFO@@@Z 00000001400171e0 f i Propdlg.obj
 0001:000161f0       ?CreateNewFrame@CDocTemplate@@UEAAPEAVCFrameWnd@@PEAVCDocument@@PEAV2@@Z 00000001400171f0 f i Propdlg.obj
 0001:000162a0       ??1CWaitCursor@@QEAA@XZ    00000001400172a0 f i Propdlg.obj
 0001:00016300       ?SetActiveView@CFrameWnd@@QEAAXPEAVCView@@H@Z 0000000140017300 f i Propdlg.obj
 0001:000163a0       ?InitialUpdateFrame@CFrameWnd@@QEAAXPEAVCDocument@@H@Z 00000001400173a0 f i Propdlg.obj
 0001:00016530       ?InitialUpdateFrame@CDocTemplate@@UEAAXPEAVCFrameWnd@@PEAVCDocument@@H@Z 0000000140017530 f i Propdlg.obj
 0001:00016550       ?OpenDocumentFile@CMultiDocTemplate@@UEAAPEAVCDocument@@PEB_WHH@Z 0000000140017550 f i Propdlg.obj
 0001:00016760       ?OpenDocumentFile@CMultiDocTemplate@@UEAAPEAVCDocument@@PEB_WH@Z 0000000140017760 f i Propdlg.obj
 0001:00016770       ?RemoveDocument@CMultiDocTemplate@@UEAAXPEAVCDocument@@@Z 0000000140017770 f i Propdlg.obj
 0001:000167f0       ??_ECMultiDocTemplate@@UEAAPEAXI@Z 00000001400177f0 f i * CIL library *:* CIL module *
 0001:000167f0       ??_GCMultiDocTemplate@@UEAAPEAXI@Z 00000001400177f0 f i Propdlg.obj
 0001:00016820       ??1CMultiDocTemplate@@UEAA@XZ 0000000140017820 f i Propdlg.obj
 0001:000168b0       ?UpdateFrameCounts@CDocument@@QEAAXXZ 00000001400178b0 f i Propdlg.obj
 0001:00016a70       ?SetDefaultTitle@CMultiDocTemplate@@UEAAXPEAVCDocument@@@Z 0000000140017a70 f i Propdlg.obj
 0001:00016d10       ?LoadTemplate@CMultiDocTemplate@@UEAAXXZ 0000000140017d10 f i Propdlg.obj
 0001:00016d80       ??0CRecentFileList@@QEAA@IPEB_W0HH@Z 0000000140017d80 f i Propdlg.obj
 0001:00016ea0       ??_ECRecentFileList@@UEAAPEAXI@Z 0000000140017ea0 f i * CIL library *:* CIL module *
 0001:00016ea0       ??_GCRecentFileList@@UEAAPEAXI@Z 0000000140017ea0 f i Propdlg.obj
 0001:00016ed0       ?Add@CRecentFileList@@UEAAXPEB_W@Z 0000000140017ed0 f i Propdlg.obj
 0001:000170a0       ?GetProfileStringW@CWinApp@@QEAA?AVCString@WTL@@PEB_W00@Z 00000001400180a0 f i Propdlg.obj
 0001:00017110       ?ReadList@CRecentFileList@@UEAAXXZ 0000000140018110 f i Propdlg.obj
 0001:00017270       ??1CRecentFileList@@UEAA@XZ 0000000140018270 f i Propdlg.obj
 0001:00017340       ??1CCommandLineInfo@@QEAA@XZ 0000000140018340 f i Propdlg.obj
 0001:00017400       ??1CWinApp@@QEAA@XZ        0000000140018400 f i Propdlg.obj
 0001:00017570       ??1CWinThread@@QEAA@XZ     0000000140018570 f i Propdlg.obj
 0001:00017590       ??0CModuleThreadState@@QEAA@XZ 0000000140018590 f i Propdlg.obj
 0001:00017680       ??1CModuleThreadState@@QEAA@XZ 0000000140018680 f i Propdlg.obj
 0001:000176d0       ?OnIdle@CWinApp@@UEAAHH@Z  00000001400186d0 f i Propdlg.obj
 0001:000178a0       ?WriteList@CRecentFileList@@UEAAXXZ 00000001400188a0 f i Propdlg.obj
 0001:00017980       ?ExitInstance@CWinApp@@UEAAHXZ 0000000140018980 f i Propdlg.obj
 0001:00017a00       ?Run@CWinApp@@UEAAHXZ      0000000140018a00 f i Propdlg.obj
 0001:00017ae0       ??0CWinApp@@QEAA@XZ        0000000140018ae0 f i Propdlg.obj
 0001:00017bb0       ?OnAppExit@CWinApp@@QEAAXXZ 0000000140018bb0 f i Propdlg.obj
 0001:00017bd0       ?GetMenuStringW@CMenuMTL@@QEBAHIAEAVCString@WTL@@I@Z 0000000140018bd0 f i Propdlg.obj
 0001:00017cf0       ?AfxGetFileTitle@CAfx@@SAIPEB_WPEA_WI@Z 0000000140018cf0 f i Propdlg.obj
 0001:00017d90       ?_AfxAbbreviateName@CAfx@@SAXPEA_WHH@Z 0000000140018d90 f i Propdlg.obj
 0001:00017ed0       ?GetDisplayName@CRecentFileList@@UEBAHAEAVCString@WTL@@HPEB_WHH@Z 0000000140018ed0 f i Propdlg.obj
 0001:000180e0       ??HWTL@@YA?AVCString@0@AEBV10@0@Z 00000001400190e0 f i Propdlg.obj
 0001:00018140       ?UpdateMenu@CRecentFileList@@UEAAXPEAVCCmdUI@@@Z 0000000140019140 f i Propdlg.obj
 0001:00018620       ?OnUpdateRecentFileMenu@CWinApp@@QEAAXPEAVCCmdUI@@@Z 0000000140019620 f i Propdlg.obj
 0001:00018650       ?Remove@CRecentFileList@@UEAAXH@Z 0000000140019650 f i Propdlg.obj
 0001:000187a0       ?OnOpenRecentFile@CWinApp@@QEAAHI@Z 00000001400197a0 f i Propdlg.obj
 0001:00018810       ?_ProcessWindowMessage@CWinApp@@UEAAHPEAUHWND__@@I_K_JAEA_J@Z 0000000140019810 f i Propdlg.obj
 0001:00018910       ?GetDriverName@CPrintDialogMTL@@QEBA?AVCString@WTL@@XZ 0000000140019910 f i Propdlg.obj
 0001:00018960       ?GetDeviceName@CPrintDialogMTL@@QEBA?AVCString@WTL@@XZ 0000000140019960 f i Propdlg.obj
 0001:000189b0       ?GetPortName@CPrintDialogMTL@@QEBA?AVCString@WTL@@XZ 00000001400199b0 f i Propdlg.obj
 0001:00018a00       ?HookProc@CCommonDialogImplBase@WTL@@SA_KPEAUHWND__@@I_K_J@Z 0000000140019a00 f i Propdlg.obj
 0001:00018ae0       ?_WindowProc@CCommonWnd@@UEAAHPEAUHWND__@@I_K_JAEA_J@Z 0000000140019ae0 f i Propdlg.obj
 0001:00018b50       ??_GCPrintDialog@WTL@@UEAAPEAXI@Z 0000000140019b50 f i Propdlg.obj
 0001:00018b50       ??_ECPrintDialog@WTL@@UEAAPEAXI@Z 0000000140019b50 f i * CIL library *:* CIL module *
 0001:00018b90       ?OnPrintSetup@?$CPrintDialogImpl@VCPrintDialog@WTL@@@WTL@@QEAA_JGGPEAUHWND__@@AEAH@Z 0000000140019b90 f i Propdlg.obj
 0001:00018c90       ?ProcessWindowMessage@?$CPrintDialogImpl@VCPrintDialog@WTL@@@WTL@@UEAAHPEAUHWND__@@I_K_JAEA_JK@Z 0000000140019c90 f i Propdlg.obj
 0001:00018ce0       ??_ECPrintDialogMTL@@UEAAPEAXI@Z 0000000140019ce0 f i * CIL library *:* CIL module *
 0001:00018ce0       ??_GCPrintDialogMTL@@UEAAPEAXI@Z 0000000140019ce0 f i Propdlg.obj
 0001:00018d1c       ??_ECPrintDialogMTL@@W7EAAPEAXI@Z 0000000140019d1c f i Propdlg.obj
 0001:00018d30       ?WindowProc@?$CWindowImplBaseT@VCWindow@ATL@@V?$CWinTraits@$0FGAAAAAA@$0A@@2@@ATL@@SA_JPEAUHWND__@@I_K_J@Z 0000000140019d30 f i Propdlg.obj
 0001:00018eb0       ?GetWindowProc@?$CWindowImplBaseT@VCWindow@ATL@@V?$CWinTraits@$0FGAAAAAA@$0A@@2@@ATL@@UEAAP6A_JPEAUHWND__@@I_K_J@ZXZ 0000000140019eb0 f i Propdlg.obj
 0001:00018ec0       ??1CPrintDialogMTL@@UEAA@XZ 0000000140019ec0 f i Propdlg.obj
 0001:00018ed0       ?UpdatePrinterSelection@CWinApp@@QEAAXH@Z 0000000140019ed0 f i Propdlg.obj
 0001:00019330       ?AfxGlobalFree@@YAXPEAX@Z  000000014001a330 f i Propdlg.obj
 0001:00019380       ?DoModal@?$CPrintDialogImpl@VCPrintDialog@WTL@@@WTL@@QEAA_JPEAUHWND__@@@Z 000000014001a380 f i Propdlg.obj
 0001:00019440       ?DoPrintDialog@CWinApp@@QEAA_JPEAVCPrintDialogMTL@@@Z 000000014001a440 f i Propdlg.obj
 0001:000195b0       ?OnFilePrintSetup@CWinApp@@QEAAXXZ 000000014001a5b0 f i Propdlg.obj
 0001:000196c0       ?_AfxCommDlgProc@CCommonDialog@@SA_KPEAUHWND__@@I_K_J@Z 000000014001a6c0 f i Propdlg.obj
 0001:00019a10       ??0CFileDialogMTL@@QEAA@HPEB_W0K0PEAVCWnd@@KH@Z 000000014001aa10 f i Propdlg.obj
 0001:00019cc0       ??_ECFileDialogMTL@@UEAAPEAXI@Z 000000014001acc0 f i * CIL library *:* CIL module *
 0001:00019cc0       ??_GCFileDialogMTL@@UEAAPEAXI@Z 000000014001acc0 f i Propdlg.obj
 0001:00019cf0       ?OnNotify@CFileDialogMTL@@UEAAH_K_JPEA_J@Z 000000014001acf0 f i Propdlg.obj
 0001:00019e90       ?OnOK@CCommonDialog@@UEAAXXZ 000000014001ae90 f i Propdlg.obj
 0001:00019f10       ?OnInitDone@CFileDialogMTL@@UEAAXXZ 000000014001af10 f i Propdlg.obj
 0001:00019f30       ??1CFileDialogMTL@@UEAA@XZ 000000014001af30 f i Propdlg.obj
 0001:00019fc0       ?Tokenize@CAfx@@SA?AVCString@WTL@@AEAV23@PEA_WAEAH@Z 000000014001afc0 f i Propdlg.obj
 0001:0001a090       ?Tokenize@@YA?AVCString@WTL@@AEAV12@PEA_WAEAH@Z 000000014001b090 f i Propdlg.obj
 0001:0001a0b0       ?AllocCopy@CString@WTL@@IEBAHAEAV12@HHH@Z 000000014001b0b0 f i Propdlg.obj
 0001:0001a170       ?Mid@CString@WTL@@QEBA?AV12@HH@Z 000000014001b170 f i Propdlg.obj
 0001:0001a1f0       ?Mid@CString@WTL@@QEBA?AV12@H@Z 000000014001b1f0 f i Propdlg.obj
 0001:0001a220       ?_AfxAppendFilterSuffix@@YAXAEAVCString@WTL@@AEAUtagOFNW@@PEAVCDocTemplate@@PEAV12@@Z 000000014001b220 f i Propdlg.obj
 0001:0001a460       ?ApplyOFNToShellDialog@CFileDialogMTL@@QEAAXXZ 000000014001b460 f i Propdlg.obj
 0001:0001abc0       ??4CString@WTL@@QEAAAEAV01@AEBV01@@Z 000000014001bbc0 f i Propdlg.obj
 0001:0001ac50       ?GetPathName@CFileDialogMTL@@QEAA?AVCString@WTL@@XZ 000000014001bc50 f i Propdlg.obj
 0001:0001af30       ?UpdateOFNFromShellDialog@CFileDialogMTL@@UEAAXXZ 000000014001bf30 f i Propdlg.obj
 0001:0001b4f0       ?DoModal@CFileDialogMTL@@UEAA_JXZ 000000014001c4f0 f i Propdlg.obj
 0001:0001b6d0       ?DoPromptFileName@CDocManager@@QEAAHAEAVCString@WTL@@IKHPEAVCDocTemplate@@@Z 000000014001c6d0 f i Propdlg.obj
 0001:0001bc30       ?_AfxFullPath2@CAfx@@SAHPEA_WPEB_WPEAVCFileException@@@Z 000000014001cc30 f i Propdlg.obj
 0001:0001be00       ?AfxStringFromCLSID@CAfx@@SA?AVCString@WTL@@AEBU_GUID@@@Z 000000014001ce00 f i Propdlg.obj
 0001:0001bef0       ?AfxStringFromCLSID@@YA?AVCString@WTL@@AEBU_GUID@@@Z 000000014001cef0 f i Propdlg.obj
 0001:0001bf10       ?AfxGetInProcServer@CAfx@@SAHPEB_WAEAVCString@WTL@@@Z 000000014001cf10 f i Propdlg.obj
 0001:0001c070       ?GetClassObject@AFX_COM@@QEAAJAEBU_GUID@@0PEAPEAX@Z 000000014001d070 f i Propdlg.obj
 0001:0001c180       ??0CString@WTL@@QEAA@PEB_W@Z 000000014001d180 f i Propdlg.obj
 0001:0001c240       ?AfxResolveShortcut@@YAHPEAVCWMHnd@@PEB_WPEA_WH@Z 000000014001d240 f i Propdlg.obj
 0001:0001c430       ?AfxComparePath@CAfx@@SAHPEB_W0@Z 000000014001d430 f i Propdlg.obj
 0001:0001c560       ?MatchDocType@CDocTemplate@@UEAA?AW4Confidence@1@PEB_WAEAPEAVCDocument@@@Z 000000014001d560 f i Propdlg.obj
 0001:0001c670       ?OpenDocumentFile@CDocManager@@QEAAPEAVCDocument@@PEB_WH@Z 000000014001d670 f i Propdlg.obj
 0001:0001c880       ?OpenDocumentFile@CWinApp@@UEAAPEAVCDocument@@PEB_W@Z 000000014001d880 f i Propdlg.obj
 0001:0001c890       ?OnFileOpen@CDocManager@@UEAAXXZ 000000014001d890 f i Propdlg.obj
 0001:0001c910       ?OnFileOpen@CWinApp@@UEAAXXZ 000000014001d910 f i Propdlg.obj
 0001:0001c920       ?_ProcessWindowMessage@CNewTypeDlg@@UEAAHPEAUHWND__@@I_K_JAEA_J@Z 000000014001d920 f i Propdlg.obj
 0001:0001c970       ?GetDocString@CDocTemplate@@UEBAHAEAVCString@WTL@@W4DocStringIndex@1@@Z 000000014001d970 f i Propdlg.obj
 0001:0001c980       ?OnInitDialog@CNewTypeDlg@@UEAAHXZ 000000014001d980 f i Propdlg.obj
 0001:0001cba0       ?OnOK@CNewTypeDlg@@UEAAXXZ 000000014001dba0 f i Propdlg.obj
 0001:0001cc20       ?WalkPreTranslateTree@CWnd@@SAHPEAUHWND__@@PEAUtagMSG@@@Z 000000014001dc20 f i Propdlg.obj
 0001:0001cd00       ?PreTranslateMessage@CWinApp@@UEAAHPEAUtagMSG@@@Z 000000014001dd00 f i Propdlg.obj
 0001:0001cdc0       ?PumpMessage@CWinApp@@UEAAHXZ 000000014001ddc0 f i Propdlg.obj
 0001:0001ce40       ?OnFileNew@CDocManager@@UEAAXXZ 000000014001de40 f i Propdlg.obj
 0001:0001cf10       ?OnFileNew@CWinApp@@UEAAXXZ 000000014001df10 f i Propdlg.obj
 0001:0001cf30       ?GetRuntimeClass@CModalShapePropSheet@@UEBAPEAUCRuntimeClass@@XZ 000000014001df30 f   Propsht.obj
 0001:0001cf40       ?_ProcessWindowMessage@CModalShapePropSheet@@UEAAHPEAUHWND__@@I_K_JAEA_J@Z 000000014001df40 f i Propsht.obj
 0001:0001cfa0       ??0CModalShapePropSheet@@QEAA@PEAVCWnd@@@Z 000000014001dfa0 f   Propsht.obj
 0001:0001d0a0       ??_ECModalShapePropSheet@@UEAAPEAXI@Z 000000014001e0a0 f i * CIL library *:* CIL module *
 0001:0001d0a0       ??_GCModalShapePropSheet@@UEAAPEAXI@Z 000000014001e0a0 f i Propsht.obj
 0001:0001d110       ?OnInitDialog@CModalShapePropSheet@@UEAAHXZ 000000014001e110 f   Propsht.obj
 0001:0001d200       ?SetShapePropsFromSheet@CModelessShapePropSheet@@QEAAXPEAVCShape@@@Z 000000014001e200 f   Propsht2.obj
 0001:0001d200       ?SetShapePropsFromSheet@CModalShapePropSheet@@QEAAXPEAVCShape@@@Z 000000014001e200 f   Propsht.obj
 0001:0001d2a0       ?OnApplyNow@CModalShapePropSheet@@IEAAXXZ 000000014001e2a0 f   Propsht.obj
 0001:0001d3a0       ?AddPage@CPropertySheetMTL@@QEAAXPEAVCPropertyPageMTL@@@Z 000000014001e3a0 f i Propsht.obj
 0001:0001d540       ??1CPropertySheetMTL@@UEAA@XZ 000000014001e540 f i Propsht.obj
 0001:0001d5e0       ??_ECPropertySheetMTL@@UEAAPEAXI@Z 000000014001e5e0 f i * CIL library *:* CIL module *
 0001:0001d5e0       ??_GCPropertySheetMTL@@UEAAPEAXI@Z 000000014001e5e0 f i Propsht.obj
 0001:0001d610       ?PreTranslateMessage@CPropertySheetMTL@@UEAAHPEAUtagMSG@@@Z 000000014001e610 f i Propsht.obj
 0001:0001d760       ?OnCommand@CPropertySheetMTL@@UEAAH_K_J@Z 000000014001e760 f i Propsht.obj
 0001:0001d810       ?AfxPropSheetCallback@CPropertySheetMTL@@SAHPEAUHWND__@@I_J@Z 000000014001e810 f i Propsht.obj
 0001:0001d8a0       ?Create@CPropertySheetMTL@@UEAAHPEAVCWnd@@KK@Z 000000014001e8a0 f i Propsht.obj
 0001:0001da00       ?AfxThrowResourceException@@YAXXZ 000000014001ea00 f i Propsht.obj
 0001:0001daa0       ?FontEnumProc@CPropertyPageMTL@@SAHPEBUtagLOGFONTW@@PEBUtagTEXTMETRICW@@K_J@Z 000000014001eaa0 f i Propsht.obj
 0001:0001dab0       ?IsFontInstalled@CPropertyPageMTL@@SAHPEB_W@Z 000000014001eab0 f i Propsht.obj
 0001:0001db50       ?AfxGetPropSheetFont@CPropertyPageMTL@@SAHAEAVCString@WTL@@AEAGH@Z 000000014001eb50 f i Propsht.obj
 0001:0001dd00       ?GetFont@CDialogTemplate@@SAHPEBUDLGTEMPLATE@@AEAVCString@WTL@@AEAG@Z 000000014001ed00 f i Propsht.obj
 0001:0001ddc0       ?GetTemplateSize@CDialogTemplate@@QEAAIPEBUDLGTEMPLATE@@@Z 000000014001edc0 f i Propsht.obj
 0001:0001df40       ?GetFontSizeField@CDialogTemplate@@SAPEAEPEBUDLGTEMPLATE@@@Z 000000014001ef40 f i Propsht.obj
 0001:0001dfa0       ?SetFont@CDialogTemplate@@QEAAHPEB_WG@Z 000000014001efa0 f i Propsht.obj
 0001:0001e110       ?_AfxChangePropPageFont@CPropertyPageMTL@@SAPEAUDLGTEMPLATE@@PEBU2@H@Z 000000014001f110 f i Propsht.obj
 0001:0001e360       ?PreProcessPageTemplate@CPropertyPageMTL@@QEAAXAEAU_PROPSHEETPAGEW@@H@Z 000000014001f360 f i Propsht.obj
 0001:0001e430       ?BuildPropPageArray@CPropertySheetMTL@@UEAAXXZ 000000014001f430 f i Propsht.obj
 0001:0001e590       ?ContinueModal@CPropertySheetMTL@@UEAAHXZ 000000014001f590 f i Propsht.obj
 0001:0001e5d0       ?DoModal@CPropertySheetMTL@@UEAA_JXZ 000000014001f5d0 f i Propsht.obj
 0001:0001e7f0       ??0CPropertySheetMTL@@QEAA@IPEAVCWnd@@I@Z 000000014001f7f0 f i Propsht.obj
 0001:0001e8e0       ?OnInitDialog@CPropertySheetMTL@@UEAAHXZ 000000014001f8e0 f i Propsht.obj
 0001:0001ec40       ?HandleInitDialog@CPropertySheetMTL@@QEAA_J_K_J@Z 000000014001fc40 f i Propsht.obj
 0001:0001ec60       ?GetActivePage@CPropertySheetMTL@@QEBAPEAVCPropertyPageMTL@@XZ 000000014001fc60 f i Propsht.obj
 0001:0001ee30       ?OnKickIdle@CPropertySheetMTL@@QEAA_J_K_J@Z 000000014001fe30 f i Propsht.obj
 0001:0001ee80       ?OnSetDefID@CPropertySheetMTL@@QEAA_J_K_J@Z 000000014001fe80 f i Propsht.obj
 0001:0001efa0       ?_ProcessWindowMessage@CPropertySheetMTL@@UEAAHPEAUHWND__@@I_K_JAEA_J@Z 000000014001ffa0 f i Propsht.obj
 0001:0001f250       ?GetRuntimeClass@CModelessShapePropSheet@@UEBAPEAUCRuntimeClass@@XZ 0000000140020250 f   Propsht2.obj
 0001:0001f260       ?_ProcessWindowMessage@CModelessShapePropSheet@@UEAAHPEAUHWND__@@I_K_JAEA_J@Z 0000000140020260 f i Propsht2.obj
 0001:0001f270       ??0CModelessShapePropSheet@@QEAA@PEAVCWnd@@@Z 0000000140020270 f   Propsht2.obj
 0001:0001f330       ??_ECModelessShapePropSheet@@UEAAPEAXI@Z 0000000140020330 f i * CIL library *:* CIL module *
 0001:0001f330       ??_GCModelessShapePropSheet@@UEAAPEAXI@Z 0000000140020330 f i Propsht2.obj
 0001:0001f390       ?SetSheetPropsFromShape@CModelessShapePropSheet@@QEAAXPEAVCShape@@@Z 0000000140020390 f   Propsht2.obj
 0001:0001f480       ?CreateObject@CShapesDoc@@SAPEAVCObject@@XZ 0000000140020480 f   Shapedoc.obj
 0001:0001f500       ?GetRuntimeClass@CShapesDoc@@UEBAPEAUCRuntimeClass@@XZ 0000000140020500 f   Shapedoc.obj
 0001:0001f510       ?_ProcessWindowMessage@CShapesDoc@@UEAAHPEAUHWND__@@I_K_JAEA_J@Z 0000000140020510 f i Shapedoc.obj
 0001:0001f520       ??_ECShapesDoc@@UEAAPEAXI@Z 0000000140020520 f i * CIL library *:* CIL module *
 0001:0001f520       ??_GCShapesDoc@@UEAAPEAXI@Z 0000000140020520 f i Shapedoc.obj
 0001:0001f5b0       ?OnNewDocument@CShapesDoc@@MEAAHXZ 00000001400205b0 f   Shapedoc.obj
 0001:0001f630       ?AddShape@CShapesDoc@@QEAAXPEAVCShape@@@Z 0000000140020630 f   Shapedoc.obj
 0001:0001f700       ?Serialize@CShapesDoc@@UEAAXAEAVCArchive@@@Z 0000000140020700 f   Shapedoc.obj
 0001:0001f710       ?Serialize@?$CTypedPtrList@VCObList@@PEAVCShape@@@@QEAAXAEAVCArchive@@@Z 0000000140020710 f i Shapedoc.obj
 0001:0001f800       ?OnOpenDocument@CDocument@@UEAAHPEB_W@Z 0000000140020800 f i Shapedoc.obj
 0001:0001faa0       ?OnCmdMsg@CDocument@@UEAAHIHPEAXPEAUAFX_CMDHANDLERINFO@@@Z 0000000140020aa0 f i Shapedoc.obj
 0001:0001fb20       ?Read@CArchive@@QEAAIPEAXI@Z 0000000140020b20 f i Shapedoc.obj
 0001:0001fc70       ?Load@CRuntimeClass@@SAPEAU1@AEAVCArchive@@PEAI@Z 0000000140020c70 f i Shapedoc.obj
 0001:0001fd60       ?ReadClass@CArchive@@QEAAPEAUCRuntimeClass@@PEBU2@PEAIPEAK@Z 0000000140020d60 f i Shapedoc.obj
 0001:00020020       ?ReadObject@CArchive@@QEAAPEAVCObject@@PEBUCRuntimeClass@@@Z 0000000140021020 f i Shapedoc.obj
 0001:000201f0       ?FillBuffer@CArchive@@QEAAXI@Z 00000001400211f0 f i Shapedoc.obj
 0001:000202c0       ?ReadCount@CArchive@@QEAA_KXZ 00000001400212c0 f i Shapedoc.obj
 0001:00020370       ?AfxThrowNotSupportedException@@YAXXZ 0000000140021370 f i Shapedoc.obj
 0001:00020410       ?EnsureSchemaMapExists@CArchive@@QEAAXPEAPEAV?$CArray@W4LoadArrayObjType@CArchive@@AEBW412@@@@Z 0000000140021410 f i Shapedoc.obj
 0001:00020500       ?InsertAt@?$CArray@W4LoadArrayObjType@CArchive@@AEBW412@@@QEAAX_JAEBW4LoadArrayObjType@CArchive@@0@Z 0000000140021500 f i Shapedoc.obj
 0001:00020580       ?MapObject@CArchive@@QEAAXPEBVCObject@@@Z 0000000140021580 f i Shapedoc.obj
 0001:000206b0       ?Write@CArchive@@QEAAXPEBXI@Z 00000001400216b0 f i Shapedoc.obj
 0001:00020770       ?Store@CRuntimeClass@@QEBAXAEAVCArchive@@@Z 0000000140021770 f i Shapedoc.obj
 0001:00020810       ?WriteClass@CArchive@@QEAAXPEBUCRuntimeClass@@@Z 0000000140021810 f i Shapedoc.obj
 0001:00020930       ?AfxThrowArchiveException@CArchive@@SAXHPEB_W@Z 0000000140021930 f i Shapedoc.obj
 0001:000209c0       ?FindData@?$CMapList@PEAXPEAXV?$CPair@PEAXPEAX@@$0A@@@QEAAAEAV?$CPair@PEAXPEAX@@QEAXH@Z 00000001400219c0 f i Shapedoc.obj
 0001:00020a90       ?WriteObject@CArchive@@QEAAXPEBVCObject@@@Z 0000000140021a90 f i Shapedoc.obj
 0001:00020bb0       ??6CArchive@@QEAAAEAV0@G@Z 0000000140021bb0 f i Shapedoc.obj
 0001:00020bf0       ??6CArchive@@QEAAAEAV0@K@Z 0000000140021bf0 f i Shapedoc.obj
 0001:00020c30       ?WriteCount@CArchive@@QEAAX_K@Z 0000000140021c30 f i Shapedoc.obj
 0001:00020d20       ?UpdateAllViews@CDocument@@QEAAXPEAVCView@@_JPEAVCObject@@@Z 0000000140021d20 f i Shapedoc.obj
 0001:00020d80       ?AfxFormatStrings@CAfx@@SAXAEAVCString@WTL@@PEB_WPEBQEB_WH@Z 0000000140021d80 f i Shapedoc.obj
 0001:00020f10       ?SaveModified@CDocument@@UEAAHXZ 0000000140021f10 f i Shapedoc.obj
 0001:000211c0       ?DoFileSave@CDocument@@QEAAHXZ 00000001400221c0 f i Shapedoc.obj
 0001:00021210       ?OnFileSave@CDocument@@QEAAXXZ 0000000140022210 f i Shapedoc.obj
 0001:00021250       ?GetFile@CDocument@@QEAAPEAVCFile@@PEB_WIPEAVCFileException@@@Z 0000000140022250 f i Shapedoc.obj
 0001:000212f0       ??0CArchive@@QEAA@PEAVCFile@@IHPEAX@Z 00000001400222f0 f i Shapedoc.obj
 0001:000213d0       ??1CArchive@@QEAA@XZ       00000001400223d0 f i Shapedoc.obj
 0001:00021400       ?Flush@CArchive@@QEAAXXZ   0000000140022400 f i Shapedoc.obj
 0001:00021470       ?Abort@CFile@@UEAAXXZ      0000000140022470 f i Shapedoc.obj
 0001:000214a0       ?AfxThrowInvalidArgException@@YAXXZ 00000001400224a0 f i Shapedoc.obj
 0001:00021540       ??0CTime@@QEAA@AEBU_FILETIME@@H@Z 0000000140022540 f i Shapedoc.obj
 0001:00021610       ?GetStatus@CFile@@QEBAHAEAUCFileStatus@@@Z 0000000140022610 f i Shapedoc.obj
 0001:000217a0       ?GetFilePath@CFile@@UEBA?AVCString@WTL@@XZ 00000001400227a0 f i Shapedoc.obj
 0001:000217f0       ?GetLength@CFile@@UEBA_KXZ 00000001400227f0 f i Shapedoc.obj
 0001:00021840       ?Open@CFile@@UEAAHPEB_WIPEAVCFileException@@@Z 0000000140022840 f i Shapedoc.obj
 0001:00021a00       ?Read@CFile@@UEAAIPEAXI@Z  0000000140022a00 f i Shapedoc.obj
 0001:00021a50       ?Write@CFile@@UEAAXPEBXI@Z 0000000140022a50 f i Shapedoc.obj
 0001:00021b40       ?Seek@CFile@@UEAA_K_JI@Z   0000000140022b40 f i Shapedoc.obj
 0001:00021ba0       ??0CFileException@@QEAA@HJPEB_W@Z 0000000140022ba0 f i Shapedoc.obj
 0001:00021c20       ?OsErrorToException@CFileException@@SAHJ@Z 0000000140022c20 f i Shapedoc.obj
 0001:00021dd0       ?ThrowOsError@CFileException@@SAXJPEB_W@Z 0000000140022dd0 f i Shapedoc.obj
 0001:00021e40       ?Close@CFile@@UEAAXXZ      0000000140022e40 f i Shapedoc.obj
 0001:00021ef0       ??_GCFile@@QEAAPEAXI@Z     0000000140022ef0 f i Shapedoc.obj
 0001:00021f60       ?ReleaseFile@CDocument@@UEAAXPEAVCFile@@H@Z 0000000140022f60 f i Shapedoc.obj
 0001:00021fa0       ?SetModifiedFlag@CDocument@@UEAAXH@Z 0000000140022fa0 f i Shapedoc.obj
 0001:00021fb0       ?OnSaveDocument@CDocument@@UEAAHPEB_W@Z 0000000140022fb0 f i Shapedoc.obj
 0001:000221b0       ?GetFirstViewPosition@CDocument@@UEBAPEAU__POSITION@@XZ 00000001400231b0 f i Shapedoc.obj
 0001:000221c0       ?GetNextView@CDocument@@UEBAPEAVCView@@AEAPEAU__POSITION@@@Z 00000001400231c0 f i Shapedoc.obj
 0001:000221e0       ?SetTitle@CDocument@@UEAAXPEB_W@Z 00000001400231e0 f i Shapedoc.obj
 0001:00022230       ?SetPathName@CDocument@@UEAAXPEB_WH@Z 0000000140023230 f i Shapedoc.obj
 0001:00022300       ?DoSave@CDocument@@UEAAHPEB_WH@Z 0000000140023300 f i Shapedoc.obj
 0001:00022660       ?_ProcessWindowMessage@CDocument@@UEAAHPEAUHWND__@@I_K_JAEA_J@Z 0000000140023660 f i Shapedoc.obj
 0001:00022770       ?CreateObject@CShape@@SAPEAVCObject@@XZ 0000000140023770 f   Shapeobj.obj
 0001:000227b0       ?GetRuntimeClass@CShape@@UEBAPEAUCRuntimeClass@@XZ 00000001400237b0 f   Shapeobj.obj
 0001:000227c0       ?Draw@CShape@@QEAAXPEAVCDCMTL@@H@Z 00000001400237c0 f   Shapeobj.obj
 0001:000229f0       ?Serialize@CShape@@UEAAXAEAVCArchive@@@Z 00000001400239f0 f   Shapeobj.obj
 0001:00022b10       ?SelectObject@CDCMTL@@QEAAPEAVCBrushMTL@@PEAV2@@Z 0000000140023b10 f i Shapeobj.obj
 0001:00022b10       ?SelectObject@CDCMTL@@QEAAPEAVCPenMTL@@PEAV2@@Z 0000000140023b10 f i Shapeobj.obj
 0001:00022c60       ??_GCGdiObject@@UEAAPEAXI@Z 0000000140023c60 f i Shapeobj.obj
 0001:00022c60       ??_ECGdiObject@@UEAAPEAXI@Z 0000000140023c60 f i * CIL library *:* CIL module *
 0001:00022ce0       ??1CGdiobj@@QEAA@XZ        0000000140023ce0 f i Shapeobj.obj
 0001:00022d00       ?classHandleFuncCGdiObject@CGdiObject@@SAPEAXPEAX0@Z 0000000140023d00 f i Shapeobj.obj
 0001:00022d60       ?AfxClassInit@@YAXPEAUCRuntimeClass@@@Z 0000000140023d60 f i Shapeobj.obj
 0001:00022de0       ?CreateObject@CShapesView@@SAPEAVCObject@@XZ 0000000140023de0 f   Shapesvw.obj
 0001:00022e40       ?GetRuntimeClass@CShapesView@@UEBAPEAUCRuntimeClass@@XZ 0000000140023e40 f   Shapesvw.obj
 0001:00022e50       ?_ProcessWindowMessage@CShapesView@@UEAAHPEAUHWND__@@I_K_JAEA_J@Z 0000000140023e50 f i Shapesvw.obj
 0001:00023170       ??_GCShapesView@@UEAAPEAXI@Z 0000000140024170 f i Shapesvw.obj
 0001:00023170       ??_GCView@@UEAAPEAXI@Z     0000000140024170 f i Shapesvw.obj
 0001:00023170       ??_ECShapesView@@UEAAPEAXI@Z 0000000140024170 f i * CIL library *:* CIL module *
 0001:00023170       ??_ECView@@UEAAPEAXI@Z     0000000140024170 f i * CIL library *:* CIL module *
 0001:000231d0       ?OnDraw@CShapesView@@UEAAXPEAVCDCMTL@@@Z 00000001400241d0 f   Shapesvw.obj
 0001:000232c0       ?OnPreparePrinting@CShapesView@@MEAAHPEAUCPrintInfo@@@Z 00000001400242c0 f   Shapesvw.obj
 0001:000232d0       ?OnLButtonDown@CShapesView@@IEAAXIVCPoint@WTL@@@Z 00000001400242d0 f   Shapesvw.obj
 0001:000234f0       ?OnSimplePropertySheet@CShapesView@@IEAAXXZ 00000001400244f0 f   Shapesvw.obj
 0001:00023680       ?OnPropertySheetWithPreview@CShapesView@@IEAAXXZ 0000000140024680 f   Shapesvw.obj
 0001:00023740       ?OnUpdatePropertySheetWithPreview@CShapesView@@IEAAXPEAVCCmdUI@@@Z 0000000140024740 f   Shapesvw.obj
 0001:000237c0       ?OnChangeObjectProps@CShapesView@@IEAA_J_K_J@Z 00000001400247c0 f   Shapesvw.obj
 0001:00023940       ?DoPreparePrinting@CView@@QEAAHPEAUCPrintInfo@@@Z 0000000140024940 f i Shapesvw.obj
 0001:00023ae0       ?_AfxPreviewCloseProc@CPrintPreviewState@@SAHPEAVCFrameWnd@@@Z 0000000140024ae0 f i Shapesvw.obj
 0001:00023b00       ??_GCDialogBar@@UEAAPEAXI@Z 0000000140024b00 f i Shapesvw.obj
 0001:00023b00       ??_ECDialogBar@@UEAAPEAXI@Z 0000000140024b00 f i * CIL library *:* CIL module *
 0001:00023b50       ?OnUpdateCmdUI@CDialogBar@@UEAAXPEAVCFrameWnd@@H@Z 0000000140024b50 f i Shapesvw.obj
 0001:00023b60       ?CalcFixedLayout@CDialogBar@@UEAA?AVCSize@WTL@@HH@Z 0000000140024b60 f i Shapesvw.obj
 0001:00023bb0       ?Create@CDialogBar@@UEAAHPEAVCWnd@@PEB_WII@Z 0000000140024bb0 f i Shapesvw.obj
 0001:00023d70       ?Create@CDialogBar@@UEAAHPEAVCWnd@@III@Z 0000000140024d70 f i Shapesvw.obj
 0001:00023d80       ?AddView@CDocument@@QEAAXPEAVCView@@@Z 0000000140024d80 f i Shapesvw.obj
 0001:00023e20       ?OnDestroy@CView@@QEAAXXZ  0000000140024e20 f i Shapesvw.obj
 0001:00023ed0       ?OnMouseActivate@CView@@QEAAHPEAVCWnd@@II@Z 0000000140024ed0 f i Shapesvw.obj
 0001:00023fa0       ?OnPaint@CView@@QEAAXXZ    0000000140024fa0 f i Shapesvw.obj
 0001:000240b0       ?GetSafeHdc@CDCMTL@@QEBAPEAUHDC__@@XZ 00000001400250b0 f i Shapesvw.obj
 0001:000240c0       ??_9CView@@$BBBI@AA        00000001400250c0 f i Shapesvw.obj
 0001:000240d0       ?_ProcessWindowMessage@CView@@UEAAHPEAUHWND__@@I_K_JAEA_J@Z 00000001400250d0 f i Shapesvw.obj
 0001:000242c0       ?OnCmdMsg@CView@@UEAAHIHPEAXPEAUAFX_CMDHANDLERINFO@@@Z 00000001400252c0 f i Shapesvw.obj
 0001:00024340       ?PreCreateWindow@CView@@UEAAHAEAUtagCREATESTRUCTW@@@Z 0000000140025340 f i Shapesvw.obj
 0001:00024390       ?OnInitialUpdate@CView@@UEAAXXZ 0000000140025390 f i Shapesvw.obj
 0001:000243b0       ?OnUpdate@CView@@UEAAXPEAV1@_JPEAVCObject@@@Z 00000001400253b0 f i Shapesvw.obj
 0001:000243d0       ?RemoveView@CDocument@@QEAAXPEAVCView@@@Z 00000001400253d0 f i Shapesvw.obj
 0001:00024480       ??1CView@@UEAA@XZ          0000000140025480 f i Shapesvw.obj
 0001:000244c0       ??1CPreviewDC@@UEAA@XZ     00000001400254c0 f i Shapesvw.obj
 0001:00024550       ??_GCPreviewDC@@UEAAPEAXI@Z 0000000140025550 f i Shapesvw.obj
 0001:00024550       ??_ECPreviewDC@@UEAAPEAXI@Z 0000000140025550 f i * CIL library *:* CIL module *
 0001:00024580       ?SaveDC@CPreviewDC@@UEAAHXZ 0000000140025580 f i Shapesvw.obj
 0001:00024600       ?SelectStockObject@CPreviewDC@@QEAAPEAVCGdiObject@@H@Z 0000000140025600 f i Shapesvw.obj
 0001:00024740       ?MirrorFont@CPreviewDC@@QEAAXXZ 0000000140025740 f i Shapesvw.obj
 0001:00024940       ?RestoreDC@CPreviewDC@@UEAAHH@Z 0000000140025940 f i Shapesvw.obj
 0001:000249a0       ??1?$CAlloc@HAEBH@@QEAA@XZ 00000001400259a0 f i Shapesvw.obj
 0001:000249a0       ??1?$CAlloc@_WAEB_W@@QEAA@XZ 00000001400259a0 f i Shapesvw.obj
 0001:000249e0       ?ComputeDeltas@CPreviewDC@@QEAA?AVCSize@WTL@@AEAHPEB_WAEAIHIPEAHHPEA_W30@Z 00000001400259e0 f i Shapesvw.obj
 0001:00024ca0       ?ExtTextOutW@CPreviewDC@@QEAAHHHIPEBUtagRECT@@PEB_WIPEAH@Z 0000000140025ca0 f i Shapesvw.obj
 0001:00024e50       ?TextOutW@CPreviewDC@@UEAAHHHPEB_WH@Z 0000000140025e50 f i Shapesvw.obj
 0001:00024e70       ??0CPreviewDC@@QEAA@XZ     0000000140025e70 f i Shapesvw.obj
 0001:00024f00       ?GetScrollBarState@CScrollView@@QEAAXVCSize@WTL@@AEAV23@1AEAVCPoint@3@H@Z 0000000140025f00 f i Shapesvw.obj
 0001:000250a0       ?ScrollWindow@CWMHnd@@QEAAXHHPEBUtagRECT@@0@Z 00000001400260a0 f i Shapesvw.obj
 0001:000251d0       ?ScrollToDevicePosition@CScrollView@@QEAAXUtagPOINT@@@Z 00000001400261d0 f i Shapesvw.obj
 0001:000252e0       ?EnableScrollBarCtrl@CWMHnd@@QEAAXHH@Z 00000001400262e0 f i Shapesvw.obj
 0001:00025360       ?UpdateBars@CScrollView@@QEAAXXZ 0000000140026360 f i Shapesvw.obj
 0001:00025710       ?SetScrollSizes@CScrollView@@QEAAXHUtagSIZE@@AEBU2@1@Z 0000000140026710 f i Shapesvw.obj
 0001:00025930       ?SetCurrentPage@CPreviewView@@QEAAXIH@Z 0000000140026930 f i Shapesvw.obj
 0001:00025a30       ?SetPrintView@CPreviewView@@QEAAHPEAVCView@@@Z 0000000140026a30 f i Shapesvw.obj
 0001:00025d30       ?OnEndPrintPreview@CView@@UEAAXPEAVCDCMTL@@PEAUCPrintInfo@@UtagPOINT@@PEAVCPreviewView@@@Z 0000000140026d30 f i Shapesvw.obj
 0001:00025f10       ?OnPreviewClose@CPreviewView@@QEAAXXZ 0000000140026f10 f i Shapesvw.obj
 0001:00025ff0       ?OnActivateView@CView@@UEAAXHPEAV1@0@Z 0000000140026ff0 f i Shapesvw.obj
 0001:00026030       ?DoPrintPreview@CView@@QEAAHIPEAV1@PEAUCRuntimeClass@@PEAUCPrintPreviewState@@@Z 0000000140027030 f i Shapesvw.obj
 0001:00026330       ?OnFilePrintPreview@CView@@QEAAXXZ 0000000140027330 f i Shapesvw.obj
 0001:000263c0       ??0CPrintInfo@@QEAA@XZ     00000001400273c0 f i Shapesvw.obj
 0001:00026500       ??1CPrintInfo@@QEAA@XZ     0000000140027500 f i Shapesvw.obj
 0001:00026590       ?FromHandle@?$CHandleList@PEAUHDC__@@VCDCMTL@@PEAUHWND__@@@@QEAAPEAVCDCMTL@@QEAUHDC__@@PEAV2@QEAUHWND__@@Q6APEAXPEAX3@Z@Z 0000000140027590 f i Shapesvw.obj
 0001:00026680       ?classHandleFuncCDCMTL@CDCMTL@@SAPEAXPEAX0@Z 0000000140027680 f i Shapesvw.obj
 0001:00026700       ?OnInitDialog@CPrintingDialog@@UEAAHXZ 0000000140027700 f i Shapesvw.obj
 0001:00026750       ?OnCancel@CPrintingDialog@@UEAAXXZ 0000000140027750 f i Shapesvw.obj
 0001:000267a0       ?OnPrepareDC@CView@@UEAAXPEAVCDCMTL@@PEAUCPrintInfo@@@Z 00000001400277a0 f i Shapesvw.obj
 0001:000267d0       ?OnPrint@CView@@UEAAXPEAVCDCMTL@@PEAUCPrintInfo@@@Z 00000001400277d0 f i Shapesvw.obj
 0001:000267e0       ?_AfxAbortProc@CPrintingDialog@@SAHPEAUHDC__@@H@Z 00000001400277e0 f i Shapesvw.obj
 0001:00026850       ?OnFilePrint@CView@@QEAAXXZ 0000000140027850 f i Shapesvw.obj
 0001:000274a0       ?classHandleFuncCBitmapMTL@CBitmapMTL@@SAPEAXPEAX0@Z 00000001400284a0 f i Stdafx.obj
 0001:00027500       ?SelectStockObject@CDCMTL@@QEAAPEAVCGdiObject@@H@Z 0000000140028500 f i Stdafx.obj
 0001:00027640       ?_AfxMultMultDivDiv@CPreviewDC@@SAJHHHHH@Z 0000000140028640 f i Stdafx.obj
 0001:00027700       ?ClipToPage@CPreviewDC@@QEAAXXZ 0000000140028700 f i Stdafx.obj
 0001:00027840       ?MirrorMappingMode@CPreviewDC@@QEAAXH@Z 0000000140028840 f i Stdafx.obj
 0001:000279a0       ?MirrorViewportOrg@CPreviewDC@@QEAAXXZ 00000001400289a0 f i Stdafx.obj
 0001:00027ab0       ??1CImage@@UEAA@XZ         0000000140028ab0 f i Stdafx.obj
 0001:00027b40       ?CreateEx@CImage@@QEAAHHHHKPEBKK@Z 0000000140028b40 f i Stdafx.obj
 0001:00027c40       ?UpdateBitmapInfo@CImage@@QEAAXW4DIBOrientation@1@@Z 0000000140028c40 f i Stdafx.obj
 0001:00027d40       ??_ECImage@@UEAAPEAXI@Z    0000000140028d40 f i * CIL library *:* CIL module *
 0001:00027d40       ??_GCImage@@UEAAPEAXI@Z    0000000140028d40 f i Stdafx.obj
 0001:00027d70       ?GetScrollLimit@CWMHnd@@QEAAHH@Z 0000000140028d70 f i Stdafx.obj
 0001:00027e40       ?GetFocus@CWnd@@SAPEAV1@XZ 0000000140028e40 f i Stdafx.obj
 0001:00027fc0       ?SetCapture@CWnd@@QEAAPEAV1@XZ 0000000140028fc0 f i Stdafx.obj
 0001:00028140       ?OnPaint@_AFX_MOUSEANCHORWND@@QEAAXXZ 0000000140029140 f i Stdafx.obj
 0001:00028280       ?WindowProc@_AFX_MOUSEANCHORWND@@UEAA_JI_K_J@Z 0000000140029280 f i Stdafx.obj
 0001:00028390       ??_E_AFX_MOUSEANCHORWND@@UEAAPEAXI@Z 0000000140029390 f i * CIL library *:* CIL module *
 0001:00028390       ??_G_AFX_MOUSEANCHORWND@@UEAAPEAXI@Z 0000000140029390 f i Stdafx.obj
 0001:000283d0       ?_ProcessWindowMessage@_AFX_MOUSEANCHORWND@@UEAAHPEAUHWND__@@I_K_JAEA_J@Z 00000001400293d0 f i Stdafx.obj
 0001:00028410       ??0CScrollView@@QEAA@XZ    0000000140029410 f i Stdafx.obj
 0001:000284c0       ??1CScrollView@@UEAA@XZ    00000001400294c0 f i Stdafx.obj
 0001:00028530       ?OnHScroll@CScrollView@@QEAAXIIPEAVCScrollBarMTL@@@Z 0000000140029530 f i Stdafx.obj
 0001:000285d0       ?OnPrepareDC@CScrollView@@UEAAXPEAVCDCMTL@@PEAUCPrintInfo@@@Z 00000001400295d0 f i Stdafx.obj
 0001:00028830       ?OnPrintClient@CScrollView@@QEAA_JPEAVCDCMTL@@I@Z 0000000140029830 f i Stdafx.obj
 0001:00028b70       ?OnScroll@CScrollView@@UEAAHIIH@Z 0000000140029b70 f i Stdafx.obj
 0001:00028d10       ?OnScrollBy@CScrollView@@UEAAHVCSize@WTL@@H@Z 0000000140029d10 f i Stdafx.obj
 0001:00028f00       ?OnVScroll@CScrollView@@QEAAXIIPEAVCScrollBarMTL@@@Z 0000000140029f00 f i Stdafx.obj
 0001:00028fb0       ?CCalcWindowRect@CScrollView@@UEAAXPEAUtagRECT@@I@Z 0000000140029fb0 f i Stdafx.obj
 0001:000290f0       ?CenterOnPoint@CScrollView@@QEAAXVCPoint@WTL@@@Z 000000014002a0f0 f i Stdafx.obj
 0001:00029220       ?DoMouseWheel@CScrollView@@QEAAHIFVCPoint@WTL@@@Z 000000014002a220 f i Stdafx.obj
 0001:000293d0       ?GetWheelScrollDistance@CScrollView@@UEAA?AVCSize@WTL@@V23@HH@Z 000000014002a3d0 f i Stdafx.obj
 0001:00029430       ?HandleMButtonDown@CScrollView@@QEAA_J_K_J@Z 000000014002a430 f i Stdafx.obj
 0001:00029650       ?SetScaleToFitSize@CScrollView@@QEAAXUtagSIZE@@@Z 000000014002a650 f i Stdafx.obj
 0001:00029770       ??_GCScrollView@@UEAAPEAXI@Z 000000014002a770 f i Stdafx.obj
 0001:00029770       ??_ECScrollView@@UEAAPEAXI@Z 000000014002a770 f i * CIL library *:* CIL module *
 0001:000297a0       ?_ProcessWindowMessage@CScrollView@@UEAAHPEAUHWND__@@I_K_JAEA_J@Z 000000014002a7a0 f i Stdafx.obj
 0001:00029a40       ?Create@_AFX_MOUSEANCHORWND@@QEAAHPEAVCScrollView@@@Z 000000014002aa40 f i Stdafx.obj
 0001:00029bf0       ??0CPreviewView@@QEAA@XZ   000000014002abf0 f i Stdafx.obj
 0001:00029ce0       ??1CPreviewView@@UEAA@XZ   000000014002ace0 f i Stdafx.obj
 0001:00029e00       ?OnActivateView@CPreviewView@@UEAAXHPEAVCView@@0@Z 000000014002ae00 f i Stdafx.obj
 0001:00029e80       ?OnDraw@CPreviewView@@UEAAXPEAVCDCMTL@@@Z 000000014002ae80 f i Stdafx.obj
 0001:0002a630       ?OnEraseBkgnd@CPreviewView@@QEAAHPEAVCDCMTL@@@Z 000000014002b630 f i Stdafx.obj
 0001:0002a730       ?OnNextPage@CPreviewView@@QEAAXXZ 000000014002b730 f i Stdafx.obj
 0001:0002a750       ?OnPrepareDC@CPreviewView@@UEAAXPEAVCDCMTL@@PEAUCPrintInfo@@@Z 000000014002b750 f i Stdafx.obj
 0001:0002a7a0       ?OnPrevPage@CPreviewView@@QEAAXXZ 000000014002b7a0 f i Stdafx.obj
 0001:0002a7c0       ?OnSetCursor@CPreviewView@@QEAAHPEAVCWnd@@II@Z 000000014002b7c0 f i Stdafx.obj
 0001:0002a8a0       ?OnSize@CPreviewView@@QEAAXIHH@Z 000000014002b8a0 f i Stdafx.obj
 0001:0002a980       ?OnUpdateNextPage@CPreviewView@@QEAAXPEAVCCmdUI@@@Z 000000014002b980 f i Stdafx.obj
 0001:0002a9c0       ?OnUpdateNumPageChange@CPreviewView@@QEAAXPEAVCCmdUI@@@Z 000000014002b9c0 f i Stdafx.obj
 0001:0002aab0       ?OnUpdatePrevPage@CPreviewView@@QEAAXPEAVCCmdUI@@@Z 000000014002bab0 f i Stdafx.obj
 0001:0002aae0       ?OnUpdateZoomIn@CPreviewView@@QEAAXPEAVCCmdUI@@@Z 000000014002bae0 f i Stdafx.obj
 0001:0002ab00       ?OnUpdateZoomOut@CPreviewView@@QEAAXPEAVCCmdUI@@@Z 000000014002bb00 f i Stdafx.obj
 0001:0002ab20       ?OnZoomIn@CPreviewView@@QEAAXXZ 000000014002bb20 f i Stdafx.obj
 0001:0002ab50       ?OnZoomOut@CPreviewView@@QEAAXXZ 000000014002bb50 f i Stdafx.obj
 0001:0002ab80       ?OnVScroll@CPreviewView@@QEAAXIIPEAVCScrollBarMTL@@@Z 000000014002bb80 f i Stdafx.obj
 0001:0002acd0       ?CalcPageDisplaySize@CPreviewView@@QEAA?AVCSize@WTL@@XZ 000000014002bcd0 f i Stdafx.obj
 0001:0002ae20       ?CalcScaleRatio@CPreviewView@@UEAA?AVCSize@WTL@@V23@0@Z 000000014002be20 f i Stdafx.obj
 0001:0002ae80       ?DoZoom@CPreviewView@@QEAAXIVCPoint@WTL@@@Z 000000014002be80 f i Stdafx.obj
 0001:0002b060       ?FindPageRect@CPreviewView@@QEAAHAEAVCPoint@WTL@@AEAI@Z 000000014002c060 f i Stdafx.obj
 0001:0002b240       ?PositionPage@CPreviewView@@UEAAXI@Z 000000014002c240 f i Stdafx.obj
 0001:0002b320       ?SetScaledSize@CPreviewView@@QEAAXI@Z 000000014002c320 f i Stdafx.obj
 0001:0002b4c0       ??_GCPreviewView@@UEAAPEAXI@Z 000000014002c4c0 f i Stdafx.obj
 0001:0002b4c0       ??_ECPreviewView@@UEAAPEAXI@Z 000000014002c4c0 f i * CIL library *:* CIL module *
 0001:0002b4f0       ?_ProcessWindowMessage@CPreviewView@@UEAAHPEAUHWND__@@I_K_JAEA_J@Z 000000014002c4f0 f i Stdafx.obj
 0001:0002bb10       ?DefWindowProcW@CMDIChildWnd@@UEAA_JI_K_J@Z 000000014002cb10 f i Stdafx.obj
 0001:0002bb20       ?OnMDIActivate@CMDIChildWnd@@QEAAXHPEAVCWnd@@0@Z 000000014002cb20 f i Stdafx.obj
 0001:0002bc00       ?OnToolTipText@CMDIChildWnd@@QEAAHIPEAUtagNMHDR@@PEA_J@Z 000000014002cc00 f i Stdafx.obj
 0001:0002bc60       ?OnUpdateFrameMenu@CMDIChildWnd@@QEAAXHPEAVCWnd@@PEAUHMENU__@@@Z 000000014002cc60 f i Stdafx.obj
 0001:0002bd00       ?OnUpdateFrameTitle@CMDIChildWnd@@UEAAXH@Z 000000014002cd00 f i Stdafx.obj
 0001:0002be70       ?OnWindowPosChanging@CMDIChildWnd@@QEAAXPEAUtagWINDOWPOS@@@Z 000000014002ce70 f i Stdafx.obj
 0001:0002bf40       ?ActivateFrame@CMDIChildWnd@@UEAAXH@Z 000000014002cf40 f i Stdafx.obj
 0001:0002c0c0       ?DestroyWindow@CMDIChildWnd@@UEAAHXZ 000000014002d0c0 f i Stdafx.obj
 0001:0002c180       ?GetMDIFrame@CMDIChildWnd@@QEAAPEAVCMDIFrameWnd@@XZ 000000014002d180 f i Stdafx.obj
 0001:0002c300       ?PreTranslateMessage@CMDIChildWnd@@UEAAHPEAUtagMSG@@@Z 000000014002d300 f i Stdafx.obj
 0001:0002c3a0       ?UpdateClientEdge@CMDIChildWnd@@QEAAHPEAUtagRECT@@@Z 000000014002d3a0 f i Stdafx.obj
 0001:0002c4f0       ?_ProcessWindowMessage@CMDIChildWnd@@UEAAHPEAUHWND__@@I_K_JAEA_J@Z 000000014002d4f0 f i Stdafx.obj
 0001:0002cae0       ?LoadFrame@CMDIChildWnd@@UEAAHIKPEAVCWnd@@PEAUCCreateContext@@@Z 000000014002dae0 f i Stdafx.obj
 0001:0002cca0       ?OnTimer@_AFX_MOUSEANCHORWND@@QEAAX_K@Z 000000014002dca0 f i Stdafx.obj
 0001:0002cf50       ?SetCurrentHandles@CWinApp@@QEAAXXZ 000000014002df50 f i Stdafx.obj
 0001:0002d260       ?Create@CMDIChildWnd@@UEAAHPEB_W0KAEBUtagRECT@@PEAVCMDIFrameWnd@@PEAUCCreateContext@@@Z 000000014002e260 f i Stdafx.obj
 0001:0002d460       ?OnDisplayPageNumber@CPreviewView@@UEAAXII@Z 000000014002e460 f i Stdafx.obj
 0001:0002d540       ?OnNumPageChange@CPreviewView@@QEAAXXZ 000000014002e540 f i Stdafx.obj
 0001:0002d580       ?OnPreviewPrint@CPreviewView@@QEAAXXZ 000000014002e580 f i Stdafx.obj
 0001:0002d600       ?GetRuntimeClass@CCmdTarget@@UEBAPEAUCRuntimeClass@@XZ 000000014002e600 f   Stdafx.obj
 0001:0002d610       ?CreateObject@CWnd@@SAPEAVCObject@@XZ 000000014002e610 f   Stdafx.obj
 0001:0002d660       ?GetRuntimeClass@CWnd@@UEBAPEAUCRuntimeClass@@XZ 000000014002e660 f   Stdafx.obj
 0001:0002d670       ?GetRuntimeClass@CDialog@@UEBAPEAUCRuntimeClass@@XZ 000000014002e670 f   Stdafx.obj
 0001:0002d680       ?CreateObject@CFrameWnd@@SAPEAVCObject@@XZ 000000014002e680 f   Stdafx.obj
 0001:0002d6c0       ?GetRuntimeClass@CFrameWnd@@UEBAPEAUCRuntimeClass@@XZ 000000014002e6c0 f   Stdafx.obj
 0001:0002d6d0       ?GetRuntimeClass@CView@@UEBAPEAUCRuntimeClass@@XZ 000000014002e6d0 f   Stdafx.obj
 0001:0002d6e0       ?GetRuntimeClass@CMultiDocTemplate@@UEBAPEAUCRuntimeClass@@XZ 000000014002e6e0 f   Stdafx.obj
 0001:0002d6f0       ?GetRuntimeClass@CControlBar@@UEBAPEAUCRuntimeClass@@XZ 000000014002e6f0 f   Stdafx.obj
 0001:0002d700       ?GetRuntimeClass@CToolBar@@UEBAPEAUCRuntimeClass@@XZ 000000014002e700 f   Stdafx.obj
 0001:0002d710       ?CreateObject@CMiniFrameWnd@@SAPEAVCObject@@XZ 000000014002e710 f   Stdafx.obj
 0001:0002d770       ?GetRuntimeClass@CMiniFrameWnd@@UEBAPEAUCRuntimeClass@@XZ 000000014002e770 f   Stdafx.obj
 0001:0002d780       ?CreateObject@CMDIFrameWnd@@SAPEAVCObject@@XZ 000000014002e780 f   Stdafx.obj
 0001:0002d7d0       ?GetRuntimeClass@CMDIFrameWnd@@UEBAPEAUCRuntimeClass@@XZ 000000014002e7d0 f   Stdafx.obj
 0001:0002d7e0       ?CreateObject@CMDIChildWnd@@SAPEAVCObject@@XZ 000000014002e7e0 f   Stdafx.obj
 0001:0002d840       ?GetRuntimeClass@CMDIChildWnd@@UEBAPEAUCRuntimeClass@@XZ 000000014002e840 f   Stdafx.obj
 0001:0002d850       ?GetRuntimeClass@CScrollView@@UEBAPEAUCRuntimeClass@@XZ 000000014002e850 f   Stdafx.obj
 0001:0002d860       ?CreateObject@CPreviewView@@SAPEAVCObject@@XZ 000000014002e860 f   Stdafx.obj
 0001:0002d890       ?GetRuntimeClass@CPreviewView@@UEBAPEAUCRuntimeClass@@XZ 000000014002e890 f   Stdafx.obj
 0001:0002d8a0       ?GetRuntimeClass@CPropertyPageMTL@@UEBAPEAUCRuntimeClass@@XZ 000000014002e8a0 f   Stdafx.obj
 0001:0002d8b0       ?GetRuntimeClass@CPropertySheetMTL@@UEBAPEAUCRuntimeClass@@XZ 000000014002e8b0 f   Stdafx.obj
 0001:0002d8c0       ?GetRuntimeClass@CFileDialogMTL@@UEBAPEAUCRuntimeClass@@XZ 000000014002e8c0 f   Stdafx.obj
 0001:0002d8d0       ?GetRuntimeClass@CToolTipCtrlMTL@@UEBAPEAUCRuntimeClass@@XZ 000000014002e8d0 f   Stdafx.obj
 0001:0002d8e0       wWinMain                   000000014002e8e0 f   Stdafx.obj
 0001:0002d950       ?DoDataExchange@CStylePage@@MEAAXPEAVCDataExchange@@@Z 000000014002e950 f   Stylepge.obj
 0001:0002d970       ?_ProcessWindowMessage@CStylePage@@UEAAHPEAUHWND__@@I_K_JAEA_J@Z 000000014002e970 f i Stylepge.obj
 0001:0002d9c4       ?__AllocStdCallThunk@ATL@@YAPEAXXZ 000000014002e9c4 f   atls:atlthunk.obj
 0001:0002da88       ?__FreeStdCallThunk@ATL@@YAXPEAX@Z 000000014002ea88 f   atls:atlthunk.obj
 0001:0002db18       ??0CAtlBaseModule@ATL@@QEAA@XZ 000000014002eb18 f   atls:atlbase.obj
 0001:0002dbc0       ??1CAtlBaseModule@ATL@@QEAA@XZ 000000014002ebc0 f   atls:atlbase.obj
 0001:0002ddac       wWinMainCRTStartup         000000014002edac f   LIBCMT:wwincrt0.obj
 0001:0002ddc0       ??3@YAXPEAX@Z              000000014002edc0 f   LIBCMT:delete.obj
 0001:0002ddc8       ??8type_info@@QEBA_NAEBV0@@Z 000000014002edc8 f   LIBCMT:typinfo.obj
 0001:0002dde8       ??_Gtype_info@@UEAAPEAXI@Z 000000014002ede8 f i LIBCMT:typinfo.obj
 0001:0002dde8       ??_Etype_info@@UEAAPEAXI@Z 000000014002ede8 f i LIBCMT:typinfo.obj
 0001:0002de24       ??0bad_alloc@std@@QEAA@AEBV01@@Z 000000014002ee24 f i LIBCMT:new.obj
 0001:0002de48       ??1bad_alloc@std@@UEAA@XZ  000000014002ee48 f i LIBCMT:new.obj
 0001:0002de58       ??2@YAPEAX_K@Z             000000014002ee58 f   LIBCMT:new.obj
 0001:0002dec4       ??_Gbad_alloc@std@@UEAAPEAXI@Z 000000014002eec4 f i LIBCMT:new.obj
 0001:0002dec4       ??_Ebad_alloc@std@@UEAAPEAXI@Z 000000014002eec4 f i LIBCMT:new.obj
 0001:0002df00       memcpy_s                   000000014002ef00 f   LIBCMT:memcpy_s.obj
 0001:0002df88       ??_V@YAXPEAX@Z             000000014002ef88 f   LIBCMT:delete2.obj
 0001:0002df90       ??_U@YAPEAX_K@Z            000000014002ef90 f   LIBCMT:new2.obj
 0001:0002df98       __onexitinit               000000014002ef98 f   LIBCMT:onexit.obj
 0001:0002dfdc       _onexit                    000000014002efdc f   LIBCMT:onexit.obj
 0001:0002e0e8       atexit                     000000014002f0e8 f   LIBCMT:onexit.obj
 0001:0002e100       free                       000000014002f100 f   LIBCMT:free.obj
 0001:0002e140       malloc                     000000014002f140 f   LIBCMT:malloc.obj
 0001:0002e1f8       wcsncpy                    000000014002f1f8 f   LIBCMT:wcsncpy.obj
 0001:0002e240       wcschr                     000000014002f240 f   LIBCMT:wcschr.obj
 0001:0002e2e0       memcpy                     000000014002f2e0 f   LIBCMT:memcpy.obj
 0001:0002e2e0       memmove                    000000014002f2e0 f   LIBCMT:memcpy.obj
 0001:0002e848       _purecall                  000000014002f848 f   LIBCMT:purevirt.obj
 0001:0002e874       calloc                     000000014002f874 f   LIBCMT:calloc.obj
 0001:0002e8b8       wcsrchr                    000000014002f8b8 f   LIBCMT:wcsrchr.obj
 0001:0002e968       wcscspn                    000000014002f968 f   LIBCMT:wcscspn.obj
 0001:0002e9a8       wcsspn                     000000014002f9a8 f   LIBCMT:wcsspn.obj
 0001:0002e9ec       ??_M@YAXPEAX_KHP6AX0@Z@Z   000000014002f9ec f   LIBCMT:ehvecdtr.obj
 0001:0002ea4c       ?__ArrayUnwind@@YAXPEAX_KHP6AX0@Z@Z 000000014002fa4c f   LIBCMT:ehvecdtr.obj
 0001:0002ea98       ??_L@YAXPEAX_KHP6AX0@Z2@Z  000000014002fa98 f   LIBCMT:ehvecctr.obj
 0001:0002eb00       __crtCorExitProcess        000000014002fb00 f   LIBCMT:crt0dat.obj
 0001:0002eb44       __crtExitProcess           000000014002fb44 f   LIBCMT:crt0dat.obj
 0001:0002eb5c       _amsg_exit                 000000014002fb5c f   LIBCMT:crt0dat.obj
 0001:0002eb84       _c_exit                    000000014002fb84 f   LIBCMT:crt0dat.obj
 0001:0002eb94       _cexit                     000000014002fb94 f   LIBCMT:crt0dat.obj
 0001:0002eba4       _cinit                     000000014002fba4 f   LIBCMT:crt0dat.obj
 0001:0002ec3c       _exit                      000000014002fc3c f   LIBCMT:crt0dat.obj
 0001:0002ec48       _init_pointers             000000014002fc48 f   LIBCMT:crt0dat.obj
 0001:0002ecf4       _initterm_e                000000014002fcf4 f   LIBCMT:crt0dat.obj
 0001:0002ed30       _lockexit                  000000014002fd30 f   LIBCMT:crt0dat.obj
 0001:0002ed3c       _unlockexit                000000014002fd3c f   LIBCMT:crt0dat.obj
 0001:0002eee0       exit                       000000014002fee0 f   LIBCMT:crt0dat.obj
 0001:0002eeec       realloc                    000000014002feec f   LIBCMT:realloc.obj
 0001:0002f274       _mktime64                  0000000140030274 f   LIBCMT:mktime64.obj
 0001:0002f280       wcspbrk                    0000000140030280 f   LIBCMT:wcspbrk.obj
 0001:0002f2b8       _wcsdup                    00000001400302b8 f   LIBCMT:wcsdup.obj
 0001:0002f330       _recalloc                  0000000140030330 f   LIBCMT:recalloc.obj
 0001:0002f3d0       memset                     00000001400303d0 f   LIBCMT:memset.obj
 0001:0002f5fc       ?__CxxUnhandledExceptionFilter@@YAJPEAU_EXCEPTION_POINTERS@@@Z 00000001400305fc f   LIBCMT:unhandld.obj
 0001:0002f634       __CxxSetUnhandledExceptionFilter 0000000140030634 f   LIBCMT:unhandld.obj
 0001:0002f64c       _XcptFilter                000000014003064c f   LIBCMT:winxfltr.obj
 0001:0002f818       _freefls                   0000000140030818 f   LIBCMT:tidtable.obj
 0001:0002f94c       _getptd                    000000014003094c f   LIBCMT:tidtable.obj
 0001:0002f970       _getptd_noexit             0000000140030970 f   LIBCMT:tidtable.obj
 0001:0002f9f4       _initptd                   00000001400309f4 f   LIBCMT:tidtable.obj
 0001:0002fab8       _mtinit                    0000000140030ab8 f   LIBCMT:tidtable.obj
 0001:0002fb38       _mtterm                    0000000140030b38 f   LIBCMT:tidtable.obj
 0001:0002fb5c       _heap_init                 0000000140030b5c f   LIBCMT:heapinit.obj
 0001:0002fb7c       _ioinit                    0000000140030b7c f   LIBCMT:ioinit.obj
 0001:0002feac       _wsetargv                  0000000140030eac f   LIBCMT:wstdargv.obj
 0001:00030134       _wsetenvp                  0000000140031134 f   LIBCMT:wstdenvp.obj
 0001:0003026c       _FF_MSGBANNER              000000014003126c f   LIBCMT:crt0msg.obj
 0001:000302b0       _GET_RTERRMSG              00000001400312b0 f   LIBCMT:crt0msg.obj
 0001:000302e0       _NMSG_WRITE                00000001400312e0 f   LIBCMT:crt0msg.obj
 0001:00030550       __set_app_type             0000000140031550 f   LIBCMT:errmode.obj
 0001:00030558       _set_error_mode            0000000140031558 f   LIBCMT:errmode.obj
 0001:00030598       __security_init_cookie     0000000140031598 f   LIBCMT:gs_support.obj
 0001:00030644       _RTC_Initialize            0000000140031644 f   LIBCMT:initsect.obj
 0001:0003067c       _RTC_Terminate             000000014003167c f   LIBCMT:initsect.obj
 0001:000306b4       __crtGetEnvironmentStringsW 00000001400316b4 f   LIBCMT:w_env.obj
 0001:00030738       __crtCaptureCurrentContext 0000000140031738 f   LIBCMT:winapisupp.obj
 0001:000307a8       __crtCapturePreviousContext 00000001400317a8 f   LIBCMT:winapisupp.obj
 0001:0003081c       __crtFlsAlloc              000000014003181c f   LIBCMT:winapisupp.obj
 0001:00030838       __crtFlsFree               0000000140031838 f   LIBCMT:winapisupp.obj
 0001:00030854       __crtFlsGetValue           0000000140031854 f   LIBCMT:winapisupp.obj
 0001:00030870       __crtFlsSetValue           0000000140031870 f   LIBCMT:winapisupp.obj
 0001:0003088c       __crtGetShowWindowMode     000000014003188c f   LIBCMT:winapisupp.obj
 0001:000308b8       __crtInitializeCriticalSectionEx 00000001400318b8 f   LIBCMT:winapisupp.obj
 0001:000308e4       __crtIsPackagedApp         00000001400318e4 f   LIBCMT:winapisupp.obj
 0001:00030930       __crtLoadWinApiPointers    0000000140031930 f   LIBCMT:winapisupp.obj
 0001:00030d2c       __crtSetUnhandledExceptionFilter 0000000140031d2c f   LIBCMT:winapisupp.obj
 0001:00030d34       __crtSleep                 0000000140031d34 f   LIBCMT:winapisupp.obj
 0001:00030d3c       __crtTerminateProcess      0000000140031d3c f   LIBCMT:winapisupp.obj
 0001:00030d5c       __crtUnhandledException    0000000140031d5c f   LIBCMT:winapisupp.obj
 0001:00030d7c       _wwincmdln                 0000000140031d7c f   LIBCMT:wwncmdln.obj
 0001:00030dd4       __C_specific_handler       0000000140031dd4 f   LIBCMT:chandler.obj
 0001:00030fd0       strcmp                     0000000140031fd0 f   LIBCMT:strcmp.obj
 0001:00031038       ?_Type_info_dtor@type_info@@CAXPEAV1@@Z 0000000140032038 f   LIBCMT:typname.obj
 0001:000310a4       ??0exception@std@@QEAA@AEBQEBD@Z 00000001400320a4 f   LIBCMT:stdexcpt.obj
 0001:000310d4       ??0exception@std@@QEAA@AEBQEBDH@Z 00000001400320d4 f   LIBCMT:stdexcpt.obj
 0001:000310f0       ??0exception@std@@QEAA@AEBV01@@Z 00000001400320f0 f   LIBCMT:stdexcpt.obj
 0001:0003111c       ??1exception@std@@UEAA@XZ  000000014003211c f   LIBCMT:stdexcpt.obj
 0001:0003112c       ??4exception@std@@QEAAAEAV01@AEBV01@@Z 000000014003212c f   LIBCMT:stdexcpt.obj
 0001:00031170       ??_Eexception@std@@UEAAPEAXI@Z 0000000140032170 f i LIBCMT:stdexcpt.obj
 0001:00031170       ??_Gexception@std@@UEAAPEAXI@Z 0000000140032170 f i LIBCMT:stdexcpt.obj
 0001:000311ac       ?_Copy_str@exception@std@@AEAAXPEBD@Z 00000001400321ac f   LIBCMT:stdexcpt.obj
 0001:00031208       ?_Tidy@exception@std@@AEAAXXZ 0000000140032208 f   LIBCMT:stdexcpt.obj
 0001:00031230       ?what@exception@std@@UEBAPEBDXZ 0000000140032230 f   LIBCMT:stdexcpt.obj
 0001:00031244       _callnewh                  0000000140032244 f   LIBCMT:handler.obj
 0001:00031278       _initp_heap_handler        0000000140032278 f   LIBCMT:handler.obj
 0001:00031280       _CxxThrowException         0000000140032280 f   LIBCMT:throw.obj
 0001:00031348       _call_reportfault          0000000140032348 f   LIBCMT:invarg.obj
 0001:0003143c       _initp_misc_invarg         000000014003243c f   LIBCMT:invarg.obj
 0001:00031444       _invalid_parameter         0000000140032444 f   LIBCMT:invarg.obj
 0001:000314ac       _invalid_parameter_noinfo  00000001400324ac f   LIBCMT:invarg.obj
 0001:000314cc       _invoke_watson             00000001400324cc f   LIBCMT:invarg.obj
 0001:00031508       __doserrno                 0000000140032508 f   LIBCMT:dosmap.obj
 0001:00031528       _dosmaperr                 0000000140032528 f   LIBCMT:dosmap.obj
 0001:00031578       _errno                     0000000140032578 f   LIBCMT:dosmap.obj
 0001:00031598       _get_errno_from_oserr      0000000140032598 f   LIBCMT:dosmap.obj
 0001:000315e8       _msize                     00000001400325e8 f   LIBCMT:msize.obj
 0001:00031624       _calloc_crt                0000000140032624 f   LIBCMT:crtheap.obj
 0001:000316a4       _malloc_crt                00000001400326a4 f   LIBCMT:crtheap.obj
 0001:00031720       _realloc_crt               0000000140032720 f   LIBCMT:crtheap.obj
 0001:000317a4       _recalloc_crt              00000001400327a4 f   LIBCMT:crtheap.obj
 0001:00031828       __isa_available_init       0000000140032828 f   LIBCMT:cpu_disp.obj
 0001:000319cc       _set_abort_behavior        00000001400329cc f   LIBCMT:abort.obj
 0001:000319e8       abort                      00000001400329e8 f   LIBCMT:abort.obj
 0001:00031a40       _initp_misc_purevirt       0000000140032a40 f   LIBCMT:inithelp.obj
 0001:00031a48       _calloc_impl               0000000140032a48 f   LIBCMT:calloc_impl.obj
 0001:00031ae4       ?_inconsistency@@YAXXZ     0000000140032ae4 f   LIBCMT:hooks.obj
 0001:00031b04       ?terminate@@YAXXZ          0000000140032b04 f   LIBCMT:hooks.obj
 0001:00031b24       _initp_eh_hooks            0000000140032b24 f   LIBCMT:hooks.obj
 0001:00031b44       _lock                      0000000140032b44 f   LIBCMT:mlock.obj
 0001:00031b88       _mtdeletelocks             0000000140032b88 f   LIBCMT:mlock.obj
 0001:00031c10       _mtinitlocknum             0000000140032c10 f   LIBCMT:mlock.obj
 0001:00031cd0       _mtinitlocks               0000000140032cd0 f   LIBCMT:mlock.obj
 0001:00031d34       _unlock                    0000000140032d34 f   LIBCMT:mlock.obj
 0001:00031d50       _FindPESection             0000000140032d50 f   LIBCMT:pesect.obj
 0001:00031da0       _IsNonwritableInCurrentImage 0000000140032da0 f   LIBCMT:pesect.obj
 0001:00031df0       _ValidateImageBase         0000000140032df0 f   LIBCMT:pesect.obj
 0001:00031e20       _initp_misc_cfltcvt_tab    0000000140032e20 f   LIBCMT:cmiscdat.obj
 0001:00031e5c       __get_sigabrt              0000000140032e5c f   LIBCMT:winsig.obj
 0001:00031e6c       _initp_misc_winsig         0000000140032e6c f   LIBCMT:winsig.obj
 0001:00031e8c       raise                      0000000140032e8c f   LIBCMT:winsig.obj
 0001:000320c0       _initp_misc_rand_s         00000001400330c0 f   LIBCMT:rand_s.obj
 0001:000320c8       __initmbctable             00000001400330c8 f   LIBCMT:mbctype.obj
 0001:000320f0       ??0_LocaleUpdate@@QEAA@PEAUlocaleinfo_struct@@@Z 00000001400330f0 f i LIBCMT:mbctype.obj
 0001:0003248c       __updatetmbcinfo           000000014003348c f   LIBCMT:mbctype.obj
 0001:00032548       _setmbcp                   0000000140033548 f   LIBCMT:mbctype.obj
 0001:0003278c       _setmbcp_nolock            000000014003378c f   LIBCMT:mbctype.obj
 0001:00032a3c       __daylight                 0000000140033a3c f   LIBCMT:timeset.obj
 0001:00032a44       __dstbias                  0000000140033a44 f   LIBCMT:timeset.obj
 0001:00032a4c       __timezone                 0000000140033a4c f   LIBCMT:timeset.obj
 0001:00032a54       __tzname                   0000000140033a54 f   LIBCMT:timeset.obj
 0001:00032a5c       _get_daylight              0000000140033a5c f   LIBCMT:timeset.obj
 0001:00032a8c       _get_dstbias               0000000140033a8c f   LIBCMT:timeset.obj
 0001:00032abc       _get_timezone              0000000140033abc f   LIBCMT:timeset.obj
 0001:00032aec       _gmtime64_s                0000000140033aec f   LIBCMT:gmtime64.obj
 0001:00032dbc       _localtime64_s             0000000140033dbc f   LIBCMT:loctim64.obj
 0001:000330c8       __tzset                    00000001400340c8 f   LIBCMT:tzset.obj
 0001:00033104       _isindst                   0000000140034104 f   LIBCMT:tzset.obj
 0001:00033b14       __GSHandlerCheck           0000000140034b14 f   LIBCMT:gshandler.obj
 0001:00033b34       __GSHandlerCheckCommon     0000000140034b34 f   LIBCMT:gshandler.obj
 0001:00033bb0       __security_check_cookie    0000000140034bb0 f   LIBCMT:amdsecgs.obj
 0001:00033bd0       wcscpy_s                   0000000140034bd0 f   LIBCMT:wcscpy_s.obj
 0001:00033c3c       wcslen                     0000000140034c3c f   LIBCMT:wcslen.obj
 0001:00033c58       __addlocaleref             0000000140034c58 f   LIBCMT:localref.obj
 0001:00033ce4       __freetlocinfo             0000000140034ce4 f   LIBCMT:localref.obj
 0001:00033e7c       __removelocaleref          0000000140034e7c f   LIBCMT:localref.obj
 0001:00033f20       __updatetlocinfo           0000000140034f20 f   LIBCMT:localref.obj
 0001:00033f98       _updatetlocinfoEx_nolock   0000000140034f98 f   LIBCMT:localref.obj
 0001:00034010       _local_unwind              0000000140035010 f   LIBCMT:jmpuwind.obj
 0001:00034040       _NLG_Notify                0000000140035040 f   LIBCMT:jmpuwind.obj
 0001:00034060       __NLG_Dispatch2            0000000140035060 f   LIBCMT:jmpuwind.obj
 0001:00034070       __NLG_Return2              0000000140035070 f   LIBCMT:jmpuwind.obj
 0001:00034074       __initstdio                0000000140035074 f   LIBCMT:_file.obj
 0001:0003410c       __endstdio                 000000014003510c f   LIBCMT:_file.obj
 0001:0003413c       _lock_file                 000000014003513c f   LIBCMT:_file.obj
 0001:000341a4       _lock_file2                00000001400351a4 f   LIBCMT:_file.obj
 0001:000341d8       _unlock_file               00000001400351d8 f   LIBCMT:_file.obj
 0001:00034228       _unlock_file2              0000000140035228 f   LIBCMT:_file.obj
 0001:00034260       strlen                     0000000140035260 f   LIBCMT:strlen.obj
 0001:00034308       wcscat_s                   0000000140035308 f   LIBCMT:wcscat_s.obj
 0001:00034390       wcsncpy_s                  0000000140035390 f   LIBCMT:wcsncpy_s.obj
 0001:0003445c       __crtMessageBoxW           000000014003545c f   LIBCMT:crtmboxw.obj
 0001:000346d0       strcpy_s                   00000001400356d0 f   LIBCMT:strcpy_s.obj
 0001:00034734       __crt_debugger_hook        0000000140035734 f   LIBCMT:dbghook.obj
 0001:0003473c       strncpy_s                  000000014003573c f   LIBCMT:strncpy_s.obj
 0001:000347f8       GetTableIndexFromLocaleName 00000001400357f8 f   LIBCMT:winapinls.obj
 0001:00034884       __crtCompareStringEx       0000000140035884 f   LIBCMT:winapinls.obj
 0001:00034914       __crtDownlevelLocaleNameToLCID 0000000140035914 f   LIBCMT:winapinls.obj
 0001:00034948       __crtLCMapStringEx         0000000140035948 f   LIBCMT:winapinls.obj
 0001:000349d8       __wcsnicmp_ascii           00000001400359d8 f   LIBCMT:winapinls.obj
 0001:00034a30       _fptrap                    0000000140035a30 f   LIBCMT:crt0fp.obj
 0001:00034d28       __crtLCMapStringA          0000000140035d28 f   LIBCMT:a_map.obj
 0001:00034f38       __crtGetStringTypeA        0000000140035f38 f   LIBCMT:a_str.obj
 0001:00034fb4       _fileno                    0000000140035fb4 f   LIBCMT:fileno.obj
 0001:00034fdc       _isatty                    0000000140035fdc f   LIBCMT:isatty.obj
 0001:0003503c       _fflush_nolock             000000014003603c f   LIBCMT:fflush.obj
 0001:00035088       _flush                     0000000140036088 f   LIBCMT:fflush.obj
 0001:00035104       _flushall                  0000000140036104 f   LIBCMT:fflush.obj
 0001:000351f8       atol                       00000001400361f8 f   LIBCMT:atox.obj
 0001:00035204       _getenv_helper_nolock      0000000140036204 f   LIBCMT:getenv.obj
 0001:000352a8       ___lc_codepage_func        00000001400362a8 f   LIBCMT:initctyp.obj
 0001:000352e0       __raise_securityfailure    00000001400362e0 f   LIBCMT:gs_report.obj
 0001:0003532c       __report_gsfailure         000000014003632c f   LIBCMT:gs_report.obj
 0001:00035400       __free_lconv_mon           0000000140036400 f   LIBCMT:initmon.obj
 0001:0003550c       __free_lconv_num           000000014003650c f   LIBCMT:initnum.obj
 0001:00035578       __free_lc_time             0000000140036578 f   LIBCMT:inittime.obj
 0001:00035974       _fcloseall                 0000000140036974 f   LIBCMT:closeall.obj
 0001:00035a30       __chkstk                   0000000140036a30 f   LIBCMT:chkstk.obj
 0001:00035a30       _alloca_probe              0000000140036a30 f   LIBCMT:chkstk.obj
 0001:00035a80       _commit                    0000000140036a80 f   LIBCMT:commit.obj
 0001:00035b58       _write                     0000000140036b58 f   LIBCMT:write.obj
 0001:00035c3c       _write_nolock              0000000140036c3c f   LIBCMT:write.obj
 0001:0003666c       strtol                     000000014003766c f   LIBCMT:strtol.obj
 0001:0003669c       __wtomb_environ            000000014003769c f   LIBCMT:wtombenv.obj
 0001:00036790       _mbsnbicoll                0000000140037790 f   LIBCMT:mbsnbico.obj
 0001:00036798       _mbsnbicoll_l              0000000140037798 f   LIBCMT:mbsnbico.obj
 0001:00036898       _locterm                   0000000140037898 f   LIBCMT:wsetloca.obj
 0001:000368e0       _fclose_nolock             00000001400378e0 f   LIBCMT:fclose.obj
 0001:0003695c       fclose                     000000014003795c f   LIBCMT:fclose.obj
 0001:000369c4       __lock_fhandle             00000001400379c4 f   LIBCMT:osfinfo.obj
 0001:00036a5c       _free_osfhnd               0000000140037a5c f   LIBCMT:osfinfo.obj
 0001:00036b08       _get_osfhandle             0000000140037b08 f   LIBCMT:osfinfo.obj
 0001:00036b7c       _unlock_fhandle            0000000140037b7c f   LIBCMT:osfinfo.obj
 0001:00036ba8       _isleadbyte_l              0000000140037ba8 f i LIBCMT:_wctype.obj
 0001:00036bec       isleadbyte                 0000000140037bec f i LIBCMT:_wctype.obj
 0001:00036c34       _lseeki64_nolock           0000000140037c34 f   LIBCMT:lseeki64.obj
 0001:00036cc8       _mbtowc_l                  0000000140037cc8 f   LIBCMT:mbtowc.obj
 0001:00036e1c       mbtowc                     0000000140037e1c f   LIBCMT:mbtowc.obj
 0001:00036e24       _putwch_nolock             0000000140037e24 f   LIBCMT:putwch.obj
 0001:00036e80       _isctype_l                 0000000140037e80 f   LIBCMT:isctype.obj
 0001:00036f5c       __crt_atoflt_l             0000000140037f5c f   LIBCMT:atodbl.obj
 0001:0003702c       _atodbl_l                  000000014003802c f   LIBCMT:atodbl.obj
 0001:000370f4       _atoflt_l                  00000001400380f4 f   LIBCMT:atodbl.obj
 0001:000370fc       _fpmath                    00000001400380fc f   LIBCMT:fpinit.obj
 0001:00037104       _cfltcvt_init              0000000140038104 f   LIBCMT:fpinit.obj
 0001:0003718c       __crtsetenv                000000014003818c f   LIBCMT:setenv.obj
 0001:00037540       _strnicoll_l               0000000140038540 f   LIBCMT:strnicol.obj
 0001:000379a8       __crtCompareStringA        00000001400389a8 f   LIBCMT:a_cmp.obj
 0001:00037a50       memcmp                     0000000140038a50 f   LIBCMT:memcmp.obj
 0001:00037b18       _close                     0000000140038b18 f   LIBCMT:close.obj
 0001:00037bdc       _close_nolock              0000000140038bdc f   LIBCMT:close.obj
 0001:00037c98       _freebuf                   0000000140038c98 f   LIBCMT:_freebuf.obj
 0001:00037cd0       __termconout               0000000140038cd0 f   LIBCMT:initcon.obj
 0001:00037cf0       __initconout               0000000140038cf0 f   LIBCMT:initcon.obj
 0001:00037d30       _ld12tod                   0000000140038d30 f   LIBCMT:intrncvt.obj
 0001:000382e8       _ld12tof                   00000001400392e8 f   LIBCMT:intrncvt.obj
 0001:000388a0       __strgtold12_l             00000001400398a0 f   LIBCMT:strgtold.obj
 0001:00039104       _cfltcvt                   000000014003a104 f   LIBCMT:cvt.obj
 0001:00039128       _cfltcvt_l                 000000014003a128 f   LIBCMT:cvt.obj
 0001:000391a8       _cftoa_l                   000000014003a1a8 f   LIBCMT:cvt.obj
 0001:00039754       _cftoe_l                   000000014003a754 f   LIBCMT:cvt.obj
 0001:000399b0       _cftof_l                   000000014003a9b0 f   LIBCMT:cvt.obj
 0001:00039a84       _cftog_l                   000000014003aa84 f   LIBCMT:cvt.obj
 0001:00039bb8       _cropzeros                 000000014003abb8 f   LIBCMT:cvt.obj
 0001:00039bc0       _cropzeros_l               000000014003abc0 f   LIBCMT:cvt.obj
 0001:00039c58       _fassign                   000000014003ac58 f   LIBCMT:cvt.obj
 0001:00039c60       _fassign_l                 000000014003ac60 f   LIBCMT:cvt.obj
 0001:00039ca0       _forcdecpt                 000000014003aca0 f   LIBCMT:cvt.obj
 0001:00039ca8       _forcdecpt_l               000000014003aca8 f   LIBCMT:cvt.obj
 0001:00039d28       _positive                  000000014003ad28 f   LIBCMT:cvt.obj
 0001:00039d3c       _strdup                    000000014003ad3c f   LIBCMT:strdup.obj
 0001:00039dac       _mbschr                    000000014003adac f   LIBCMT:mbschr.obj
 0001:00039db4       _mbschr_l                  000000014003adb4 f   LIBCMT:mbschr.obj
 0001:00039e74       __ascii_strnicmp           000000014003ae74 f   LIBCMT:strnicmp.obj
 0001:00039ebc       _strnicmp_l                000000014003aebc f   LIBCMT:strnicmp.obj
 0001:00039f98       __mtold12                  000000014003af98 f   LIBCMT:mantold.obj
 0001:0003a1bc       isdigit                    000000014003b1bc f i LIBCMT:_ctype.obj
 0001:0003a238       _tolower_l                 000000014003b238 f   LIBCMT:tolower.obj
 0001:0003a38c       tolower                    000000014003b38c f   LIBCMT:tolower.obj
 0001:0003a3ac       strrchr                    000000014003b3ac f   LIBCMT:strrchr.obj
 0001:0003a4f0       _fptostr                   000000014003b4f0 f   LIBCMT:_fptostr.obj
 0001:0003a5bc       __dtold                    000000014003b5bc f   LIBCMT:cfout.obj
 0001:0003a68c       _fltout2                   000000014003b68c f   LIBCMT:cfout.obj
 0001:0003a744       strchr                     000000014003b744 f   LIBCMT:strchr.obj
 0001:0003a7d0       $I10_OUTPUT                000000014003b7d0 f   LIBCMT:x10fout.obj
 0001:0003b2a8       RtlUnwindEx                000000014003c2a8 f   kernel32:KERNEL32.dll
 0001:0003b2ae       IsProcessorFeaturePresent  000000014003c2ae f   kernel32:KERNEL32.dll
 0001:0003b2b4       ?_GetEstablisherFrame@@YAPEA_KPEA_KPEAU_xDISPATCHER_CONTEXT@@PEBU_s_FuncInfo@@0@Z 000000014003c2b4 f   LIBCMT:trnsctrl.obj
 0001:0003b380       ?_GetRangeOfTrysToCheck@@YAPEBU_s_TryBlockMapEntry@@PEA_KPEBU_s_FuncInfo@@HHPEAI2PEAU_xDISPATCHER_CONTEXT@@@Z 000000014003c380 f   LIBCMT:trnsctrl.obj
 0001:0003b4ac       ?__FrameUnwindToEmptyState@@YAXPEA_KPEAU_xDISPATCHER_CONTEXT@@PEBU_s_FuncInfo@@@Z 000000014003c4ac f   LIBCMT:trnsctrl.obj
 0001:0003b540       ?__SehTransFilter@@YAHPEAU_EXCEPTION_POINTERS@@PEAUEHExceptionRecord@@PEA_KPEAU_CONTEXT@@PEAU_xDISPATCHER_CONTEXT@@PEBU_s_FuncInfo@@PEAH@Z 000000014003c540 f   LIBCMT:trnsctrl.obj
 0001:0003b5e4       _CallSETranslator          000000014003c5e4 f   LIBCMT:trnsctrl.obj
 0001:0003b638       _CreateFrameInfo           000000014003c638 f   LIBCMT:trnsctrl.obj
 0001:0003b67c       _FindAndUnlinkFrame        000000014003c67c f   LIBCMT:trnsctrl.obj
 0001:0003b6dc       _GetImageBase              000000014003c6dc f   LIBCMT:trnsctrl.obj
 0001:0003b6f4       _GetThrowImageBase         000000014003c6f4 f   LIBCMT:trnsctrl.obj
 0001:0003b70c       _IsExceptionObjectToBeDestroyed 000000014003c70c f   LIBCMT:trnsctrl.obj
 0001:0003b740       _SetImageBase              000000014003c740 f   LIBCMT:trnsctrl.obj
 0001:0003b75c       _SetThrowImageBase         000000014003c75c f   LIBCMT:trnsctrl.obj
 0001:0003b778       _UnwindNestedFrames        000000014003c778 f   LIBCMT:trnsctrl.obj
 0001:0003b89c       __CxxFrameHandler3         000000014003c89c f   LIBCMT:trnsctrl.obj
 0001:0003b924       __DestructExceptionObject  000000014003c924 f   LIBCMT:frame.obj
 0001:0003b994       ??0bad_exception@std@@QEAA@AEBV01@@Z 000000014003c994 f i LIBCMT:frame.obj
 0001:0003b9b8       ??1bad_exception@std@@UEAA@XZ 000000014003c9b8 f i LIBCMT:frame.obj
 0001:0003b9c8       ??_Ebad_exception@std@@UEAAPEAXI@Z 000000014003c9c8 f i LIBCMT:frame.obj
 0001:0003b9c8       ??_Gbad_exception@std@@UEAAPEAXI@Z 000000014003c9c8 f i LIBCMT:frame.obj
 0001:0003c2bc       __AdjustPointer            000000014003d2bc f   LIBCMT:frame.obj
 0001:0003c2e0       __BuildCatchObject         000000014003d2e0 f   LIBCMT:frame.obj
 0001:0003c398       __BuildCatchObjectHelper   000000014003d398 f   LIBCMT:frame.obj
 0001:0003c5e8       __CxxCallCatchBlock        000000014003d5e8 f   LIBCMT:frame.obj
 0001:0003c7ec       __FrameUnwindFilter        000000014003d7ec f   LIBCMT:frame.obj
 0001:0003c840       __FrameUnwindToState       000000014003d840 f   LIBCMT:frame.obj
 0001:0003c9d4       __InternalCxxFrameHandler  000000014003d9d4 f   LIBCMT:frame.obj
 0001:0003cbf8       __TypeMatch                000000014003dbf8 f   LIBCMT:frame.obj
 0001:0003cd28       ?__GetCurrentState@@YAHPEA_KPEAU_xDISPATCHER_CONTEXT@@PEBU_s_FuncInfo@@@Z 000000014003dd28 f   LIBCMT:ehstate.obj
 0001:0003cd50       ?__GetUnwindTryBlock@@YAHPEA_KPEAU_xDISPATCHER_CONTEXT@@PEBU_s_FuncInfo@@@Z 000000014003dd50 f   LIBCMT:ehstate.obj
 0001:0003cd7c       ?__SetState@@YAXPEA_KPEAU_xDISPATCHER_CONTEXT@@PEBU_s_FuncInfo@@H@Z 000000014003dd7c f   LIBCMT:ehstate.obj
 0001:0003cd88       ?__SetUnwindTryBlock@@YAXPEA_KPEAU_xDISPATCHER_CONTEXT@@PEBU_s_FuncInfo@@H@Z 000000014003dd88 f   LIBCMT:ehstate.obj
 0001:0003cdc4       ?__StateFromControlPc@@YAHPEBU_s_FuncInfo@@PEAU_xDISPATCHER_CONTEXT@@@Z 000000014003ddc4 f   LIBCMT:ehstate.obj
 0001:0003cdcc       ?__StateFromIp@@YAHPEBU_s_FuncInfo@@PEAU_xDISPATCHER_CONTEXT@@_J@Z 000000014003ddcc f   LIBCMT:ehstate.obj
 0001:0003ce58       ?_ValidateRead@@YAHPEBXI@Z 000000014003de58 f   LIBCMT:validate.obj
 0001:0003ce58       ?_ValidateExecute@@YAHP6A_JXZ@Z 000000014003de58 f   LIBCMT:validate.obj
 0001:0003ce58       ?_ValidateWrite@@YAHPEAXI@Z 000000014003de58 f   LIBCMT:validate.obj
 0001:0003ce80       _CallSettingFrame          000000014003de80 f   LIBCMT:handlers.obj
 0001:0003cec0       _GetNextInstrOffset        000000014003dec0 f   LIBCMT:handlers.obj
 0001:0003e470       ??__FcModuleState@?1??GetCModuleState@CWinApp@@SAPEAVCModuleState@@XZ@YAXXZ 000000014003f470 f i Colorpge.obj
 0001:0003e490       ??__F_afxPropPageFontInfo@?1??_GetAfxPropPageFontInfo@CPropertyPageMTL@@SAAEAU_AFX_PROPPAGEFONTINFO@@XZ@YAXXZ 000000014003f490 f i Propsht.obj
 0002:00000000       __imp_RegCloseKey          0000000140040000     advapi32:ADVAPI32.dll
 0002:00000008       __imp_RegOpenKeyExW        0000000140040008     advapi32:ADVAPI32.dll
 0002:00000010       __imp_RegQueryValueW       0000000140040010     advapi32:ADVAPI32.dll
 0002:00000018       __imp_RegDeleteKeyW        0000000140040018     advapi32:ADVAPI32.dll
 0002:00000020       __imp_RegEnumKeyW          0000000140040020     advapi32:ADVAPI32.dll
 0002:00000028       __imp_RegQueryValueExW     0000000140040028     advapi32:ADVAPI32.dll
 0002:00000030       \177ADVAPI32_NULL_THUNK_DATA 0000000140040030     advapi32:ADVAPI32.dll
 0002:00000038       __imp_PropertySheetW       0000000140040038     comctl32:COMCTL32.dll
 0002:00000040       __imp_DestroyPropertySheetPage 0000000140040040     comctl32:COMCTL32.dll
 0002:00000048       __imp_CreatePropertySheetPageW 0000000140040048     comctl32:COMCTL32.dll
 0002:00000050       __imp_InitCommonControlsEx 0000000140040050     comctl32:COMCTL32.dll
 0002:00000058       \177COMCTL32_NULL_THUNK_DATA 0000000140040058     comctl32:COMCTL32.dll
 0002:00000060       __imp_GetOpenFileNameW     0000000140040060     comdlg32:COMDLG32.dll
 0002:00000068       __imp_PrintDlgW            0000000140040068     comdlg32:COMDLG32.dll
 0002:00000070       __imp_CommDlgExtendedError 0000000140040070     comdlg32:COMDLG32.dll
 0002:00000078       __imp_GetSaveFileNameW     0000000140040078     comdlg32:COMDLG32.dll
 0002:00000080       __imp_GetFileTitleW        0000000140040080     comdlg32:COMDLG32.dll
 0002:00000088       \177COMDLG32_NULL_THUNK_DATA 0000000140040088     comdlg32:COMDLG32.dll
 0002:00000090       __imp_GetDeviceCaps        0000000140040090     gdi32:GDI32.dll
 0002:00000098       __imp_GetCharWidthW        0000000140040098     gdi32:GDI32.dll
 0002:000000a0       __imp_CreateFontW          00000001400400a0     gdi32:GDI32.dll
 0002:000000a8       __imp_GetObjectW           00000001400400a8     gdi32:GDI32.dll
 0002:000000b0       __imp_StretchDIBits        00000001400400b0     gdi32:GDI32.dll
 0002:000000b8       __imp_CreateCompatibleDC   00000001400400b8     gdi32:GDI32.dll
 0002:000000c0       __imp_CreateCompatibleBitmap 00000001400400c0     gdi32:GDI32.dll
 0002:000000c8       __imp_GetTextExtentPoint32W 00000001400400c8     gdi32:GDI32.dll
 0002:000000d0       __imp_EnumFontFamiliesExW  00000001400400d0     gdi32:GDI32.dll
 0002:000000d8       __imp_CreatePen            00000001400400d8     gdi32:GDI32.dll
 0002:000000e0       __imp_CreateSolidBrush     00000001400400e0     gdi32:GDI32.dll
 0002:000000e8       __imp_Rectangle            00000001400400e8     gdi32:GDI32.dll
 0002:000000f0       __imp_Ellipse              00000001400400f0     gdi32:GDI32.dll
 0002:000000f8       __imp_RoundRect            00000001400400f8     gdi32:GDI32.dll
 0002:00000100       __imp_AbortDoc             0000000140040100     gdi32:GDI32.dll
 0002:00000108       __imp_EndDoc               0000000140040108     gdi32:GDI32.dll
 0002:00000110       __imp_EndPage              0000000140040110     gdi32:GDI32.dll
 0002:00000118       __imp_StartPage            0000000140040118     gdi32:GDI32.dll
 0002:00000120       __imp_DPtoLP               0000000140040120     gdi32:GDI32.dll
 0002:00000128       __imp_StartDocW            0000000140040128     gdi32:GDI32.dll
 0002:00000130       __imp_SetAbortProc         0000000140040130     gdi32:GDI32.dll
 0002:00000138       __imp_CreateDCW            0000000140040138     gdi32:GDI32.dll
 0002:00000140       __imp_ExcludeClipRect      0000000140040140     gdi32:GDI32.dll
 0002:00000148       __imp_SetMapMode           0000000140040148     gdi32:GDI32.dll
 0002:00000150       __imp_MoveToEx             0000000140040150     gdi32:GDI32.dll
 0002:00000158       __imp_GetCurrentPositionEx 0000000140040158     gdi32:GDI32.dll
 0002:00000160       __imp_GetTextAlign         0000000140040160     gdi32:GDI32.dll
 0002:00000168       __imp_CreateFontIndirectW  0000000140040168     gdi32:GDI32.dll
 0002:00000170       __imp_GetViewportExtEx     0000000140040170     gdi32:GDI32.dll
 0002:00000178       __imp_GetWindowExtEx       0000000140040178     gdi32:GDI32.dll
 0002:00000180       __imp_GetTextFaceW         0000000140040180     gdi32:GDI32.dll
 0002:00000188       __imp_GetStockObject       0000000140040188     gdi32:GDI32.dll
 0002:00000190       __imp_GetClipBox           0000000140040190     gdi32:GDI32.dll
 0002:00000198       __imp_SetViewportExtEx     0000000140040198     gdi32:GDI32.dll
 0002:000001a0       __imp_Escape               00000001400401a0     gdi32:GDI32.dll
 0002:000001a8       __imp_CreateDIBSection     00000001400401a8     gdi32:GDI32.dll
 0002:000001b0       __imp_SetWindowExtEx       00000001400401b0     gdi32:GDI32.dll
 0002:000001b8       __imp_LineTo               00000001400401b8     gdi32:GDI32.dll
 0002:000001c0       __imp_SetViewportOrgEx     00000001400401c0     gdi32:GDI32.dll
 0002:000001c8       __imp_PatBlt               00000001400401c8     gdi32:GDI32.dll
 0002:000001d0       __imp_GetViewportOrgEx     00000001400401d0     gdi32:GDI32.dll
 0002:000001d8       __imp_GetWindowOrgEx       00000001400401d8     gdi32:GDI32.dll
 0002:000001e0       __imp_BitBlt               00000001400401e0     gdi32:GDI32.dll
 0002:000001e8       __imp_SetWindowOrgEx       00000001400401e8     gdi32:GDI32.dll
 0002:000001f0       __imp_CreateEllipticRgn    00000001400401f0     gdi32:GDI32.dll
 0002:000001f8       __imp_GetBkColor           00000001400401f8     gdi32:GDI32.dll
 0002:00000200       __imp_IntersectClipRect    0000000140040200     gdi32:GDI32.dll
 0002:00000208       __imp_ExtTextOutW          0000000140040208     gdi32:GDI32.dll
 0002:00000210       __imp_SetBkColor           0000000140040210     gdi32:GDI32.dll
 0002:00000218       __imp_DeleteObject         0000000140040218     gdi32:GDI32.dll
 0002:00000220       __imp_GetTextMetricsW      0000000140040220     gdi32:GDI32.dll
 0002:00000228       __imp_SelectObject         0000000140040228     gdi32:GDI32.dll
 0002:00000230       __imp_SaveDC               0000000140040230     gdi32:GDI32.dll
 0002:00000238       __imp_RestoreDC            0000000140040238     gdi32:GDI32.dll
 0002:00000240       __imp_LPtoDP               0000000140040240     gdi32:GDI32.dll
 0002:00000248       __imp_DeleteDC             0000000140040248     gdi32:GDI32.dll
 0002:00000250       __imp_TextOutW             0000000140040250     gdi32:GDI32.dll
 0002:00000258       \177GDI32_NULL_THUNK_DATA  0000000140040258     gdi32:GDI32.dll
 0002:00000260       __imp_GetConsoleCP         0000000140040260     kernel32:KERNEL32.dll
 0002:00000268       __imp_FlushFileBuffers     0000000140040268     kernel32:KERNEL32.dll
 0002:00000270       __imp_GetStringTypeW       0000000140040270     kernel32:KERNEL32.dll
 0002:00000278       __imp_LCMapStringW         0000000140040278     kernel32:KERNEL32.dll
 0002:00000280       __imp_CompareStringW       0000000140040280     kernel32:KERNEL32.dll
 0002:00000288       __imp_GetTimeZoneInformation 0000000140040288     kernel32:KERNEL32.dll
 0002:00000290       __imp_GetCPInfo            0000000140040290     kernel32:KERNEL32.dll
 0002:00000298       __imp_GetOEMCP             0000000140040298     kernel32:KERNEL32.dll
 0002:000002a0       __imp_GetACP               00000001400402a0     kernel32:KERNEL32.dll
 0002:000002a8       __imp_IsValidCodePage      00000001400402a8     kernel32:KERNEL32.dll
 0002:000002b0       __imp_HeapSize             00000001400402b0     kernel32:KERNEL32.dll
 0002:000002b8       __imp_IsProcessorFeaturePresent 00000001400402b8     kernel32:KERNEL32.dll
 0002:000002c0       __imp_RtlPcToFileHeader    00000001400402c0     kernel32:KERNEL32.dll
 0002:000002c8       __imp_RtlUnwindEx          00000001400402c8     kernel32:KERNEL32.dll
 0002:000002d0       __imp_TlsFree              00000001400402d0     kernel32:KERNEL32.dll
 0002:000002d8       __imp_GetConsoleMode       00000001400402d8     kernel32:KERNEL32.dll
 0002:000002e0       __imp_TlsGetValue          00000001400402e0     kernel32:KERNEL32.dll
 0002:000002e8       __imp_TlsAlloc             00000001400402e8     kernel32:KERNEL32.dll
 0002:000002f0       __imp_TerminateProcess     00000001400402f0     kernel32:KERNEL32.dll
 0002:000002f8       __imp_Sleep                00000001400402f8     kernel32:KERNEL32.dll
 0002:00000300       __imp_InitializeCriticalSectionAndSpinCount 0000000140040300     kernel32:KERNEL32.dll
 0002:00000308       __imp_SetUnhandledExceptionFilter 0000000140040308     kernel32:KERNEL32.dll
 0002:00000310       __imp_UnhandledExceptionFilter 0000000140040310     kernel32:KERNEL32.dll
 0002:00000318       __imp_RtlVirtualUnwind     0000000140040318     kernel32:KERNEL32.dll
 0002:00000320       __imp_RtlLookupFunctionEntry 0000000140040320     kernel32:KERNEL32.dll
 0002:00000328       __imp_RtlCaptureContext    0000000140040328     kernel32:KERNEL32.dll
 0002:00000330       __imp_FreeEnvironmentStringsW 0000000140040330     kernel32:KERNEL32.dll
 0002:00000338       __imp_GetEnvironmentStringsW 0000000140040338     kernel32:KERNEL32.dll
 0002:00000340       __imp_GetSystemTimeAsFileTime 0000000140040340     kernel32:KERNEL32.dll
 0002:00000348       __imp_GetCurrentProcessId  0000000140040348     kernel32:KERNEL32.dll
 0002:00000350       __imp_QueryPerformanceCounter 0000000140040350     kernel32:KERNEL32.dll
 0002:00000358       __imp_GetStartupInfoW      0000000140040358     kernel32:KERNEL32.dll
 0002:00000360       __imp_GetFileType          0000000140040360     kernel32:KERNEL32.dll
 0002:00000368       __imp_GetStdHandle         0000000140040368     kernel32:KERNEL32.dll
 0002:00000370       __imp_HeapReAlloc          0000000140040370     kernel32:KERNEL32.dll
 0002:00000378       __imp_MultiByteToWideChar  0000000140040378     kernel32:KERNEL32.dll
 0002:00000380       __imp_GetModuleHandleExW   0000000140040380     kernel32:KERNEL32.dll
 0002:00000388       __imp_ExitProcess          0000000140040388     kernel32:KERNEL32.dll
 0002:00000390       __imp_GetCommandLineW      0000000140040390     kernel32:KERNEL32.dll
 0002:00000398       __imp_SetStdHandle         0000000140040398     kernel32:KERNEL32.dll
 0002:000003a0       __imp_SetFilePointerEx     00000001400403a0     kernel32:KERNEL32.dll
 0002:000003a8       __imp_WriteConsoleW        00000001400403a8     kernel32:KERNEL32.dll
 0002:000003b0       __imp_OutputDebugStringW   00000001400403b0     kernel32:KERNEL32.dll
 0002:000003b8       __imp_IsDebuggerPresent    00000001400403b8     kernel32:KERNEL32.dll
 0002:000003c0       __imp_VirtualFree          00000001400403c0     kernel32:KERNEL32.dll
 0002:000003c8       __imp_VirtualAlloc         00000001400403c8     kernel32:KERNEL32.dll
 0002:000003d0       __imp_InterlockedPushEntrySList 00000001400403d0     kernel32:KERNEL32.dll
 0002:000003d8       __imp_InterlockedPopEntrySList 00000001400403d8     kernel32:KERNEL32.dll
 0002:000003e0       __imp_InitializeSListHead  00000001400403e0     kernel32:KERNEL32.dll
 0002:000003e8       __imp_GetProcessHeap       00000001400403e8     kernel32:KERNEL32.dll
 0002:000003f0       __imp_HeapFree             00000001400403f0     kernel32:KERNEL32.dll
 0002:000003f8       __imp_HeapAlloc            00000001400403f8     kernel32:KERNEL32.dll
 0002:00000400       __imp_MulDiv               0000000140040400     kernel32:KERNEL32.dll
 0002:00000408       __imp_lstrcmpA             0000000140040408     kernel32:KERNEL32.dll
 0002:00000410       __imp_lstrlenA             0000000140040410     kernel32:KERNEL32.dll
 0002:00000418       __imp_GetFileTime          0000000140040418     kernel32:KERNEL32.dll
 0002:00000420       __imp_GetFileSizeEx        0000000140040420     kernel32:KERNEL32.dll
 0002:00000428       __imp_GetFileAttributesW   0000000140040428     kernel32:KERNEL32.dll
 0002:00000430       __imp_FileTimeToLocalFileTime 0000000140040430     kernel32:KERNEL32.dll
 0002:00000438       __imp_FileTimeToSystemTime 0000000140040438     kernel32:KERNEL32.dll
 0002:00000440       __imp_GetFileSize          0000000140040440     kernel32:KERNEL32.dll
 0002:00000448       __imp_CreateFileW          0000000140040448     kernel32:KERNEL32.dll
 0002:00000450       __imp_ReadFile             0000000140040450     kernel32:KERNEL32.dll
 0002:00000458       __imp_WriteFile            0000000140040458     kernel32:KERNEL32.dll
 0002:00000460       __imp_SetFilePointer       0000000140040460     kernel32:KERNEL32.dll
 0002:00000468       __imp_DeleteFileW          0000000140040468     kernel32:KERNEL32.dll
 0002:00000470       __imp_VirtualProtect       0000000140040470     kernel32:KERNEL32.dll
 0002:00000478       __imp_GetUserDefaultUILanguage 0000000140040478     kernel32:KERNEL32.dll
 0002:00000480       __imp_FindResourceExW      0000000140040480     kernel32:KERNEL32.dll
 0002:00000488       __imp_GlobalAlloc          0000000140040488     kernel32:KERNEL32.dll
 0002:00000490       __imp_GlobalAddAtomW       0000000140040490     kernel32:KERNEL32.dll
 0002:00000498       __imp_GetPrivateProfileIntW 0000000140040498     kernel32:KERNEL32.dll
 0002:000004a0       __imp_GetPrivateProfileStringW 00000001400404a0     kernel32:KERNEL32.dll
 0002:000004a8       __imp_GlobalDeleteAtom     00000001400404a8     kernel32:KERNEL32.dll
 0002:000004b0       __imp_CloseHandle          00000001400404b0     kernel32:KERNEL32.dll
 0002:000004b8       __imp_WritePrivateProfileStringW 00000001400404b8     kernel32:KERNEL32.dll
 0002:000004c0       __imp_GetCurrentDirectoryW 00000001400404c0     kernel32:KERNEL32.dll
 0002:000004c8       __imp_lstrcatW             00000001400404c8     kernel32:KERNEL32.dll
 0002:000004d0       __imp_lstrcpyW             00000001400404d0     kernel32:KERNEL32.dll
 0002:000004d8       __imp_GlobalLock           00000001400404d8     kernel32:KERNEL32.dll
 0002:000004e0       __imp_GlobalFlags          00000001400404e0     kernel32:KERNEL32.dll
 0002:000004e8       __imp_GlobalUnlock         00000001400404e8     kernel32:KERNEL32.dll
 0002:000004f0       __imp_SetLastError         00000001400404f0     kernel32:KERNEL32.dll
 0002:000004f8       __imp_GetVersionExW        00000001400404f8     kernel32:KERNEL32.dll
 0002:00000500       __imp_GetModuleHandleW     0000000140040500     kernel32:KERNEL32.dll
 0002:00000508       __imp_EncodePointer        0000000140040508     kernel32:KERNEL32.dll
 0002:00000510       __imp_DecodePointer        0000000140040510     kernel32:KERNEL32.dll
 0002:00000518       __imp_GetFullPathNameW     0000000140040518     kernel32:KERNEL32.dll
 0002:00000520       __imp_GetVolumeInformationW 0000000140040520     kernel32:KERNEL32.dll
 0002:00000528       __imp_FindFirstFileW       0000000140040528     kernel32:KERNEL32.dll
 0002:00000530       __imp_FindClose            0000000140040530     kernel32:KERNEL32.dll
 0002:00000538       __imp_LoadLibraryExW       0000000140040538     kernel32:KERNEL32.dll
 0002:00000540       __imp_GetProcAddress       0000000140040540     kernel32:KERNEL32.dll
 0002:00000548       __imp_lstrcpynW            0000000140040548     kernel32:KERNEL32.dll
 0002:00000550       __imp_GetThreadLocale      0000000140040550     kernel32:KERNEL32.dll
 0002:00000558       __imp_GetStringTypeExW     0000000140040558     kernel32:KERNEL32.dll
 0002:00000560       __imp_SetEnvironmentVariableA 0000000140040560     kernel32:KERNEL32.dll
 0002:00000568       __imp_GetModuleFileNameW   0000000140040568     kernel32:KERNEL32.dll
 0002:00000570       __imp_SizeofResource       0000000140040570     kernel32:KERNEL32.dll
 0002:00000578       __imp_WideCharToMultiByte  0000000140040578     kernel32:KERNEL32.dll
 0002:00000580       __imp_GlobalFree           0000000140040580     kernel32:KERNEL32.dll
 0002:00000588       __imp_lstrcmpiW            0000000140040588     kernel32:KERNEL32.dll
 0002:00000590       __imp_FindResourceW        0000000140040590     kernel32:KERNEL32.dll
 0002:00000598       __imp_LoadResource         0000000140040598     kernel32:KERNEL32.dll
 0002:000005a0       __imp_LockResource         00000001400405a0     kernel32:KERNEL32.dll
 0002:000005a8       __imp_FreeResource         00000001400405a8     kernel32:KERNEL32.dll
 0002:000005b0       __imp_lstrcmpW             00000001400405b0     kernel32:KERNEL32.dll
 0002:000005b8       __imp_LeaveCriticalSection 00000001400405b8     kernel32:KERNEL32.dll
 0002:000005c0       __imp_EnterCriticalSection 00000001400405c0     kernel32:KERNEL32.dll
 0002:000005c8       __imp_RaiseException       00000001400405c8     kernel32:KERNEL32.dll
 0002:000005d0       __imp_GetCurrentThreadId   00000001400405d0     kernel32:KERNEL32.dll
 0002:000005d8       __imp_DeleteCriticalSection 00000001400405d8     kernel32:KERNEL32.dll
 0002:000005e0       __imp_InitializeCriticalSectionEx 00000001400405e0     kernel32:KERNEL32.dll
 0002:000005e8       __imp_GetLastError         00000001400405e8     kernel32:KERNEL32.dll
 0002:000005f0       __imp_FlushInstructionCache 00000001400405f0     kernel32:KERNEL32.dll
 0002:000005f8       __imp_GetCurrentProcess    00000001400405f8     kernel32:KERNEL32.dll
 0002:00000600       __imp_TlsSetValue          0000000140040600     kernel32:KERNEL32.dll
 0002:00000608       __imp_lstrlenW             0000000140040608     kernel32:KERNEL32.dll
 0002:00000610       \177KERNEL32_NULL_THUNK_DATA 0000000140040610     kernel32:KERNEL32.dll
 0002:00000618       __imp_DragAcceptFiles      0000000140040618     shell32:SHELL32.dll
 0002:00000620       __imp_SHGetFileInfoW       0000000140040620     shell32:SHELL32.dll
 0002:00000628       __imp_DragQueryFileW       0000000140040628     shell32:SHELL32.dll
 0002:00000630       __imp_DragFinish           0000000140040630     shell32:SHELL32.dll
 0002:00000638       \177SHELL32_NULL_THUNK_DATA 0000000140040638     shell32:SHELL32.dll
 0002:00000640       __imp_PathIsUNCW           0000000140040640     shlwapi:SHLWAPI.dll
 0002:00000648       __imp_PathStripToRootW     0000000140040648     shlwapi:SHLWAPI.dll
 0002:00000650       __imp_PathFindFileNameW    0000000140040650     shlwapi:SHLWAPI.dll
 0002:00000658       __imp_PathRemoveFileSpecW  0000000140040658     shlwapi:SHLWAPI.dll
 0002:00000660       __imp_PathFindExtensionW   0000000140040660     shlwapi:SHLWAPI.dll
 0002:00000668       __imp_PathRemoveExtensionW 0000000140040668     shlwapi:SHLWAPI.dll
 0002:00000670       \177SHLWAPI_NULL_THUNK_DATA 0000000140040670     shlwapi:SHLWAPI.dll
 0002:00000678       __imp_GetScrollPos         0000000140040678     user32:USER32.dll
 0002:00000680       __imp_ScrollWindow         0000000140040680     user32:USER32.dll
 0002:00000688       __imp_IntersectRect        0000000140040688     user32:USER32.dll
 0002:00000690       __imp_DestroyWindow        0000000140040690     user32:USER32.dll
 0002:00000698       __imp_CallWindowProcW      0000000140040698     user32:USER32.dll
 0002:000006a0       __imp_SetMenu              00000001400406a0     user32:USER32.dll
 0002:000006a8       __imp_GetMenu              00000001400406a8     user32:USER32.dll
 0002:000006b0       __imp_ReleaseCapture       00000001400406b0     user32:USER32.dll
 0002:000006b8       __imp_DefMDIChildProcW     00000001400406b8     user32:USER32.dll
 0002:000006c0       __imp_SetWindowRgn         00000001400406c0     user32:USER32.dll
 0002:000006c8       __imp_SetCapture           00000001400406c8     user32:USER32.dll
 0002:000006d0       __imp_DrawIcon             00000001400406d0     user32:USER32.dll
 0002:000006d8       __imp_GetScrollRange       00000001400406d8     user32:USER32.dll
 0002:000006e0       __imp_GetScrollInfo        00000001400406e0     user32:USER32.dll
 0002:000006e8       __imp_SystemParametersInfoW 00000001400406e8     user32:USER32.dll
 0002:000006f0       __imp_RedrawWindow         00000001400406f0     user32:USER32.dll
 0002:000006f8       __imp_GetActiveWindow      00000001400406f8     user32:USER32.dll
 0002:00000700       __imp_DestroyCursor        0000000140040700     user32:USER32.dll
 0002:00000708       __imp_SetScrollInfo        0000000140040708     user32:USER32.dll
 0002:00000710       __imp_ShowScrollBar        0000000140040710     user32:USER32.dll
 0002:00000718       __imp_SetScrollPos         0000000140040718     user32:USER32.dll
 0002:00000720       __imp_GetWindowTextLengthW 0000000140040720     user32:USER32.dll
 0002:00000728       __imp_SetDlgItemTextW      0000000140040728     user32:USER32.dll
 0002:00000730       __imp_SetRect              0000000140040730     user32:USER32.dll
 0002:00000738       __imp_GetPropW             0000000140040738     user32:USER32.dll
 0002:00000740       __imp_RemovePropW          0000000140040740     user32:USER32.dll
 0002:00000748       __imp_GetAsyncKeyState     0000000140040748     user32:USER32.dll
 0002:00000750       __imp_SetPropW             0000000140040750     user32:USER32.dll
 0002:00000758       __imp_MapDialogRect        0000000140040758     user32:USER32.dll
 0002:00000760       __imp_SetCursor            0000000140040760     user32:USER32.dll
 0002:00000768       __imp_GetMenuStringW       0000000140040768     user32:USER32.dll
 0002:00000770       __imp_GetWindowLongPtrW    0000000140040770     user32:USER32.dll
 0002:00000778       __imp_RegisterWindowMessageW 0000000140040778     user32:USER32.dll
 0002:00000780       __imp_CharUpperW           0000000140040780     user32:USER32.dll
 0002:00000788       __imp_GetMessageW          0000000140040788     user32:USER32.dll
 0002:00000790       __imp_TranslateMessage     0000000140040790     user32:USER32.dll
 0002:00000798       __imp_DispatchMessageW     0000000140040798     user32:USER32.dll
 0002:000007a0       __imp_FillRect             00000001400407a0     user32:USER32.dll
 0002:000007a8       __imp_EndPaint             00000001400407a8     user32:USER32.dll
 0002:000007b0       __imp_BeginPaint           00000001400407b0     user32:USER32.dll
 0002:000007b8       __imp_InflateRect          00000001400407b8     user32:USER32.dll
 0002:000007c0       __imp_SetFocus             00000001400407c0     user32:USER32.dll
 0002:000007c8       __imp_GetSysColor          00000001400407c8     user32:USER32.dll
 0002:000007d0       __imp_GetWindowDC          00000001400407d0     user32:USER32.dll
 0002:000007d8       __imp_WindowFromPoint      00000001400407d8     user32:USER32.dll
 0002:000007e0       __imp_IsChild              00000001400407e0     user32:USER32.dll
 0002:000007e8       __imp_GetCapture           00000001400407e8     user32:USER32.dll
 0002:000007f0       __imp_GetSystemMenu        00000001400407f0     user32:USER32.dll
 0002:000007f8       __imp_DeleteMenu           00000001400407f8     user32:USER32.dll
 0002:00000800       __imp_AppendMenuW          0000000140040800     user32:USER32.dll
 0002:00000808       __imp_GetCursorPos         0000000140040808     user32:USER32.dll
 0002:00000810       __imp_SetParent            0000000140040810     user32:USER32.dll
 0002:00000818       __imp_OffsetRect           0000000140040818     user32:USER32.dll
 0002:00000820       __imp_GetDC                0000000140040820     user32:USER32.dll
 0002:00000828       __imp_ReleaseDC            0000000140040828     user32:USER32.dll
 0002:00000830       __imp_IsZoomed             0000000140040830     user32:USER32.dll
 0002:00000838       __imp_KillTimer            0000000140040838     user32:USER32.dll
 0002:00000840       __imp_SetTimer             0000000140040840     user32:USER32.dll
 0002:00000848       __imp_SetRectEmpty         0000000140040848     user32:USER32.dll
 0002:00000850       __imp_TranslateMDISysAccel 0000000140040850     user32:USER32.dll
 0002:00000858       __imp_DefFrameProcW        0000000140040858     user32:USER32.dll
 0002:00000860       __imp_DrawMenuBar          0000000140040860     user32:USER32.dll
 0002:00000868       __imp_LoadMenuW            0000000140040868     user32:USER32.dll
 0002:00000870       __imp_TranslateAcceleratorW 0000000140040870     user32:USER32.dll
 0002:00000878       __imp_InvalidateRect       0000000140040878     user32:USER32.dll
 0002:00000880       __imp_LoadAcceleratorsW    0000000140040880     user32:USER32.dll
 0002:00000888       __imp_GetForegroundWindow  0000000140040888     user32:USER32.dll
 0002:00000890       __imp_IsWindow             0000000140040890     user32:USER32.dll
 0002:00000898       __imp_ShowOwnedPopups      0000000140040898     user32:USER32.dll
 0002:000008a0       __imp_SetWindowLongW       00000001400408a0     user32:USER32.dll
 0002:000008a8       __imp_WinHelpW             00000001400408a8     user32:USER32.dll
 0002:000008b0       __imp_GetSystemMetrics     00000001400408b0     user32:USER32.dll
 0002:000008b8       __imp_IsWindowVisible      00000001400408b8     user32:USER32.dll
 0002:000008c0       __imp_IsIconic             00000001400408c0     user32:USER32.dll
 0002:000008c8       __imp_BringWindowToTop     00000001400408c8     user32:USER32.dll
 0002:000008d0       __imp_MessageBoxW          00000001400408d0     user32:USER32.dll
 0002:000008d8       __imp_GetSubMenu           00000001400408d8     user32:USER32.dll
 0002:000008e0       __imp_GetMenuItemCount     00000001400408e0     user32:USER32.dll
 0002:000008e8       __imp_GetMenuItemID        00000001400408e8     user32:USER32.dll
 0002:000008f0       __imp_wsprintfW            00000001400408f0     user32:USER32.dll
 0002:000008f8       __imp_BeginDeferWindowPos  00000001400408f8     user32:USER32.dll
 0002:00000900       __imp_CopyRect             0000000140040900     user32:USER32.dll
 0002:00000908       __imp_ScreenToClient       0000000140040908     user32:USER32.dll
 0002:00000910       __imp_EqualRect            0000000140040910     user32:USER32.dll
 0002:00000918       __imp_DeferWindowPos       0000000140040918     user32:USER32.dll
 0002:00000920       __imp_EndDeferWindowPos    0000000140040920     user32:USER32.dll
 0002:00000928       __imp_GetKeyState          0000000140040928     user32:USER32.dll
 0002:00000930       __imp_GetLastActivePopup   0000000140040930     user32:USER32.dll
 0002:00000938       __imp_GetDesktopWindow     0000000140040938     user32:USER32.dll
 0002:00000940       __imp_DestroyMenu          0000000140040940     user32:USER32.dll
 0002:00000948       __imp_EnableWindow         0000000140040948     user32:USER32.dll
 0002:00000950       __imp_GetWindowLongW       0000000140040950     user32:USER32.dll
 0002:00000958       __imp_GetClassNameW        0000000140040958     user32:USER32.dll
 0002:00000960       __imp_GetDlgItem           0000000140040960     user32:USER32.dll
 0002:00000968       __imp_IsWindowEnabled      0000000140040968     user32:USER32.dll
 0002:00000970       __imp_IsDialogMessageW     0000000140040970     user32:USER32.dll
 0002:00000978       __imp_CreateDialogIndirectParamW 0000000140040978     user32:USER32.dll
 0002:00000980       __imp_ShowWindow           0000000140040980     user32:USER32.dll
 0002:00000988       __imp_UpdateWindow         0000000140040988     user32:USER32.dll
 0002:00000990       __imp_PeekMessageW         0000000140040990     user32:USER32.dll
 0002:00000998       __imp_SetActiveWindow      0000000140040998     user32:USER32.dll
 0002:000009a0       __imp_MonitorFromWindow    00000001400409a0     user32:USER32.dll
 0002:000009a8       __imp_GetMonitorInfoW      00000001400409a8     user32:USER32.dll
 0002:000009b0       __imp_GetClientRect        00000001400409b0     user32:USER32.dll
 0002:000009b8       __imp_MapWindowPoints      00000001400409b8     user32:USER32.dll
 0002:000009c0       __imp_SetWindowPos         00000001400409c0     user32:USER32.dll
 0002:000009c8       __imp_SendDlgItemMessageA  00000001400409c8     user32:USER32.dll
 0002:000009d0       __imp_GetTopWindow         00000001400409d0     user32:USER32.dll
 0002:000009d8       __imp_EndDialog            00000001400409d8     user32:USER32.dll
 0002:000009e0       __imp_LoadStringW          00000001400409e0     user32:USER32.dll
 0002:000009e8       __imp_ChildWindowFromPointEx 00000001400409e8     user32:USER32.dll
 0002:000009f0       __imp_ClientToScreen       00000001400409f0     user32:USER32.dll
 0002:000009f8       __imp_GetWindow            00000001400409f8     user32:USER32.dll
 0002:00000a00       __imp_GetWindowRect        0000000140040a00     user32:USER32.dll
 0002:00000a08       __imp_PtInRect             0000000140040a08     user32:USER32.dll
 0002:00000a10       __imp_GetDlgCtrlID         0000000140040a10     user32:USER32.dll
 0002:00000a18       __imp_EnableMenuItem       0000000140040a18     user32:USER32.dll
 0002:00000a20       __imp_GetFocus             0000000140040a20     user32:USER32.dll
 0002:00000a28       __imp_GetParent            0000000140040a28     user32:USER32.dll
 0002:00000a30       __imp_CheckMenuItem        0000000140040a30     user32:USER32.dll
 0002:00000a38       __imp_GetMenuState         0000000140040a38     user32:USER32.dll
 0002:00000a40       __imp_ModifyMenuW          0000000140040a40     user32:USER32.dll
 0002:00000a48       __imp_GetWindowTextW       0000000140040a48     user32:USER32.dll
 0002:00000a50       __imp_SetWindowTextW       0000000140040a50     user32:USER32.dll
 0002:00000a58       __imp_PostQuitMessage      0000000140040a58     user32:USER32.dll
 0002:00000a60       __imp_SendMessageW         0000000140040a60     user32:USER32.dll
 0002:00000a68       __imp_GetClassInfoExW      0000000140040a68     user32:USER32.dll
 0002:00000a70       __imp_SetWindowsHookExW    0000000140040a70     user32:USER32.dll
 0002:00000a78       __imp_GetClassLongW        0000000140040a78     user32:USER32.dll
 0002:00000a80       __imp_UnregisterClassW     0000000140040a80     user32:USER32.dll
 0002:00000a88       __imp_SetWindowLongPtrW    0000000140040a88     user32:USER32.dll
 0002:00000a90       __imp_CallNextHookEx       0000000140040a90     user32:USER32.dll
 0002:00000a98       __imp_CreateWindowExW      0000000140040a98     user32:USER32.dll
 0002:00000aa0       __imp_UnhookWindowsHookEx  0000000140040aa0     user32:USER32.dll
 0002:00000aa8       __imp_DefWindowProcW       0000000140040aa8     user32:USER32.dll
 0002:00000ab0       __imp_LoadCursorW          0000000140040ab0     user32:USER32.dll
 0002:00000ab8       __imp_LoadIconW            0000000140040ab8     user32:USER32.dll
 0002:00000ac0       __imp_GetClassInfoW        0000000140040ac0     user32:USER32.dll
 0002:00000ac8       __imp_RegisterClassW       0000000140040ac8     user32:USER32.dll
 0002:00000ad0       __imp_PostMessageW         0000000140040ad0     user32:USER32.dll
 0002:00000ad8       __imp_AdjustWindowRectEx   0000000140040ad8     user32:USER32.dll
 0002:00000ae0       __imp_InsertMenuW          0000000140040ae0     user32:USER32.dll
 0002:00000ae8       \177USER32_NULL_THUNK_DATA 0000000140040ae8     user32:USER32.dll
 0002:00000af0       __imp_OpenPrinterW         0000000140040af0     winspool:WINSPOOL.DRV
 0002:00000af8       __imp_GetJobW              0000000140040af8     winspool:WINSPOOL.DRV
 0002:00000b00       \177WINSPOOL_NULL_THUNK_DATA 0000000140040b00     winspool:WINSPOOL.DRV
 0002:00000b08       __imp_CoCreateInstance     0000000140040b08     ole32:ole32.dll
 0002:00000b10       __imp_CoUninitialize       0000000140040b10     ole32:ole32.dll
 0002:00000b18       __imp_CoTaskMemFree        0000000140040b18     ole32:ole32.dll
 0002:00000b20       __imp_CoInitializeEx       0000000140040b20     ole32:ole32.dll
 0002:00000b28       \177ole32_NULL_THUNK_DATA  0000000140040b28     ole32:ole32.dll
 0002:00000b30       __xc_a                     0000000140040b30     LIBCMT:crt0init.obj
 0002:00000b78       __xc_z                     0000000140040b78     LIBCMT:crt0init.obj
 0002:00000b80       __xi_a                     0000000140040b80     LIBCMT:crt0init.obj
 0002:00000bb0       __xi_z                     0000000140040bb0     LIBCMT:crt0init.obj
 0002:00000bb8       __xp_a                     0000000140040bb8     LIBCMT:crt0init.obj
 0002:00000bd8       __xp_z                     0000000140040bd8     LIBCMT:crt0init.obj
 0002:00000be0       __xt_a                     0000000140040be0     LIBCMT:crt0init.obj
 0002:00000be8       __xt_z                     0000000140040be8     LIBCMT:crt0init.obj
 0002:00000bf0       IID_IPersistFile           0000000140040bf0     uuid:objidl_i.obj
 0002:00000c00       IID_IShellLinkW            0000000140040c00     uuid:shguids2.obj
 0002:00000c10       CLSID_ShellLink            0000000140040c10     uuid:shguids2.obj
 0002:00000c20       CLSID_FileOpenDialog       0000000140040c20     uuid:shguids2.obj
 0002:00000c30       CLSID_FileSaveDialog       0000000140040c30     uuid:shguids2.obj
 0002:00000c40       IID_IClassFactory          0000000140040c40     uuid:unknwn_i.obj
 0002:00000c50       GUID_ATLVer110             0000000140040c50     atls:atlbase.obj
 0002:00000c60       ??_C@_1IC@ONKHOIDK@?$AAE?$AAR?$AAR?$AAO?$AAR?$AA?5?$AA?3?$AA?5?$AAU?$AAn?$AAa?$AAb?$AAl?$AAe?$AA?5?$AAt?$AAo?$AA?5?$AAi?$AAn?$AAi?$AAt?$AAi?$AAa?$AAl?$AAi?$AAz?$AAe?$AA?5?$AAc?$AAr?$AAi@ 0000000140040c60     atls:atlbase.obj
 0002:00000cf0       ??_7type_info@@6B@         0000000140040cf0     LIBCMT:typinfo.obj
 0002:00000d00       ??_7bad_alloc@std@@6B@     0000000140040d00     LIBCMT:new.obj
 0002:00000d10       ??_C@_0P@GHFPNOJB@bad?5allocation?$AA@ 0000000140040d10     LIBCMT:new.obj
 0002:00000d20       ??_C@_1BI@BGOHAHKC@?$AAm?$AAs?$AAc?$AAo?$AAr?$AAe?$AAe?$AA?4?$AAd?$AAl?$AAl?$AA?$AA@ 0000000140040d20     LIBCMT:crt0dat.obj
 0002:00000d38       ??_C@_0P@MIGLKIOC@CorExitProcess?$AA@ 0000000140040d38     LIBCMT:crt0dat.obj
 0002:00000d50       _XcptActTab                0000000140040d50     LIBCMT:winxfltr.obj
 0002:00000e10       _XcptActTabCount           0000000140040e10     LIBCMT:winxfltr.obj
 0002:00000e14       _XcptActTabSize            0000000140040e14     LIBCMT:winxfltr.obj
 0002:00000e18       _First_FPE_Indx            0000000140040e18     LIBCMT:winxfltr.obj
 0002:00000e1c       _Num_FPE                   0000000140040e1c     LIBCMT:winxfltr.obj
 0002:00000f90       ??_C@_1FK@PGACCAFB@?$AAR?$AA6?$AA0?$AA0?$AA2?$AA?$AN?$AA?6?$AA?9?$AA?5?$AAf?$AAl?$AAo?$AAa?$AAt?$AAi?$AAn?$AAg?$AA?5?$AAp?$AAo?$AAi?$AAn?$AAt?$AA?5?$AAs?$AAu?$AAp?$AAp?$AAo?$AAr?$AAt?$AA?5@ 0000000140040f90     LIBCMT:crt0msg.obj
 0002:00000ff0       ??_C@_1FE@LLNEDJMD@?$AAR?$AA6?$AA0?$AA0?$AA8?$AA?$AN?$AA?6?$AA?9?$AA?5?$AAn?$AAo?$AAt?$AA?5?$AAe?$AAn?$AAo?$AAu?$AAg?$AAh?$AA?5?$AAs?$AAp?$AAa?$AAc?$AAe?$AA?5?$AAf?$AAo?$AAr?$AA?5?$AAa?$AAr@ 0000000140040ff0     LIBCMT:crt0msg.obj
 0002:00001050       ??_C@_1FI@HONFMGBI@?$AAR?$AA6?$AA0?$AA0?$AA9?$AA?$AN?$AA?6?$AA?9?$AA?5?$AAn?$AAo?$AAt?$AA?5?$AAe?$AAn?$AAo?$AAu?$AAg?$AAh?$AA?5?$AAs?$AAp?$AAa?$AAc?$AAe?$AA?5?$AAf?$AAo?$AAr?$AA?5?$AAe?$AAn@ 0000000140041050     LIBCMT:crt0msg.obj
 0002:000010b0       ??_C@_1EG@BEHAGFJD@?$AAR?$AA6?$AA0?$AA1?$AA0?$AA?$AN?$AA?6?$AA?9?$AA?5?$AAa?$AAb?$AAo?$AAr?$AAt?$AA?$CI?$AA?$CJ?$AA?5?$AAh?$AAa?$AAs?$AA?5?$AAb?$AAe?$AAe?$AAn?$AA?5?$AAc?$AAa?$AAl?$AAl?$AAe?$AAd@ 00000001400410b0     LIBCMT:crt0msg.obj
 0002:00001100       ??_C@_1FI@LOGNIKDM@?$AAR?$AA6?$AA0?$AA1?$AA6?$AA?$AN?$AA?6?$AA?9?$AA?5?$AAn?$AAo?$AAt?$AA?5?$AAe?$AAn?$AAo?$AAu?$AAg?$AAh?$AA?5?$AAs?$AAp?$AAa?$AAc?$AAe?$AA?5?$AAf?$AAo?$AAr?$AA?5?$AAt?$AAh@ 0000000140041100     LIBCMT:crt0msg.obj
 0002:00001160       ??_C@_1FK@BEOGODMC@?$AAR?$AA6?$AA0?$AA1?$AA7?$AA?$AN?$AA?6?$AA?9?$AA?5?$AAu?$AAn?$AAe?$AAx?$AAp?$AAe?$AAc?$AAt?$AAe?$AAd?$AA?5?$AAm?$AAu?$AAl?$AAt?$AAi?$AAt?$AAh?$AAr?$AAe?$AAa?$AAd?$AA?5@ 0000000140041160     LIBCMT:crt0msg.obj
 0002:000011c0       ??_C@_1EC@JIBHAOPH@?$AAR?$AA6?$AA0?$AA1?$AA8?$AA?$AN?$AA?6?$AA?9?$AA?5?$AAu?$AAn?$AAe?$AAx?$AAp?$AAe?$AAc?$AAt?$AAe?$AAd?$AA?5?$AAh?$AAe?$AAa?$AAp?$AA?5?$AAe?$AAr?$AAr?$AAo?$AAr?$AA?$AN?$AA?6@ 00000001400411c0     LIBCMT:crt0msg.obj
 0002:00001210       ??_C@_1FC@ECHBIFBC@?$AAR?$AA6?$AA0?$AA1?$AA9?$AA?$AN?$AA?6?$AA?9?$AA?5?$AAu?$AAn?$AAa?$AAb?$AAl?$AAe?$AA?5?$AAt?$AAo?$AA?5?$AAo?$AAp?$AAe?$AAn?$AA?5?$AAc?$AAo?$AAn?$AAs?$AAo?$AAl?$AAe?$AA?5@ 0000000140041210     LIBCMT:crt0msg.obj
 0002:00001270       ??_C@_1GK@FHCKBEFA@?$AAR?$AA6?$AA0?$AA2?$AA4?$AA?$AN?$AA?6?$AA?9?$AA?5?$AAn?$AAo?$AAt?$AA?5?$AAe?$AAn?$AAo?$AAu?$AAg?$AAh?$AA?5?$AAs?$AAp?$AAa?$AAc?$AAe?$AA?5?$AAf?$AAo?$AAr?$AA?5?$AA_?$AAo@ 0000000140041270     LIBCMT:crt0msg.obj
 0002:000012e0       ??_C@_1EM@MAADIHMB@?$AAR?$AA6?$AA0?$AA2?$AA5?$AA?$AN?$AA?6?$AA?9?$AA?5?$AAp?$AAu?$AAr?$AAe?$AA?5?$AAv?$AAi?$AAr?$AAt?$AAu?$AAa?$AAl?$AA?5?$AAf?$AAu?$AAn?$AAc?$AAt?$AAi?$AAo?$AAn?$AA?5?$AAc@ 00000001400412e0     LIBCMT:crt0msg.obj
 0002:00001330       ??_C@_1GK@MCAAGJMO@?$AAR?$AA6?$AA0?$AA2?$AA6?$AA?$AN?$AA?6?$AA?9?$AA?5?$AAn?$AAo?$AAt?$AA?5?$AAe?$AAn?$AAo?$AAu?$AAg?$AAh?$AA?5?$AAs?$AAp?$AAa?$AAc?$AAe?$AA?5?$AAf?$AAo?$AAr?$AA?5?$AAs?$AAt@ 0000000140041330     LIBCMT:crt0msg.obj
 0002:000013a0       ??_C@_1GK@MFGOKLAG@?$AAR?$AA6?$AA0?$AA2?$AA7?$AA?$AN?$AA?6?$AA?9?$AA?5?$AAn?$AAo?$AAt?$AA?5?$AAe?$AAn?$AAo?$AAu?$AAg?$AAh?$AA?5?$AAs?$AAp?$AAa?$AAc?$AAe?$AA?5?$AAf?$AAo?$AAr?$AA?5?$AAl?$AAo@ 00000001400413a0     LIBCMT:crt0msg.obj
 0002:00001410       ??_C@_1EK@HHFLMAOL@?$AAR?$AA6?$AA0?$AA2?$AA8?$AA?$AN?$AA?6?$AA?9?$AA?5?$AAu?$AAn?$AAa?$AAb?$AAl?$AAe?$AA?5?$AAt?$AAo?$AA?5?$AAi?$AAn?$AAi?$AAt?$AAi?$AAa?$AAl?$AAi?$AAz?$AAe?$AA?5?$AAh?$AAe@ 0000000140041410     LIBCMT:crt0msg.obj
 0002:00001460       ??_C@_1DO@BMFCDCD@?$AAR?$AA6?$AA0?$AA3?$AA0?$AA?$AN?$AA?6?$AA?9?$AA?5?$AAC?$AAR?$AAT?$AA?5?$AAn?$AAo?$AAt?$AA?5?$AAi?$AAn?$AAi?$AAt?$AAi?$AAa?$AAl?$AAi?$AAz?$AAe?$AAd?$AA?$AN?$AA?6?$AA?$AA@ 0000000140041460     LIBCMT:crt0msg.obj
 0002:000014a0       ??_C@_1MG@ENCOOIDF@?$AAR?$AA6?$AA0?$AA3?$AA1?$AA?$AN?$AA?6?$AA?9?$AA?5?$AAA?$AAt?$AAt?$AAe?$AAm?$AAp?$AAt?$AA?5?$AAt?$AAo?$AA?5?$AAi?$AAn?$AAi?$AAt?$AAi?$AAa?$AAl?$AAi?$AAz?$AAe?$AA?5?$AAt@ 00000001400414a0     LIBCMT:crt0msg.obj
 0002:00001570       ??_C@_1GG@GOPILAJP@?$AAR?$AA6?$AA0?$AA3?$AA2?$AA?$AN?$AA?6?$AA?9?$AA?5?$AAn?$AAo?$AAt?$AA?5?$AAe?$AAn?$AAo?$AAu?$AAg?$AAh?$AA?5?$AAs?$AAp?$AAa?$AAc?$AAe?$AA?5?$AAf?$AAo?$AAr?$AA?5?$AAl?$AAo@ 0000000140041570     LIBCMT:crt0msg.obj
 0002:000015e0       ??_C@_1BOO@KGEDBGAJ@?$AAR?$AA6?$AA0?$AA3?$AA3?$AA?$AN?$AA?6?$AA?9?$AA?5?$AAA?$AAt?$AAt?$AAe?$AAm?$AAp?$AAt?$AA?5?$AAt?$AAo?$AA?5?$AAu?$AAs?$AAe?$AA?5?$AAM?$AAS?$AAI?$AAL?$AA?5?$AAc?$AAo?$AAd@ 00000001400415e0     LIBCMT:crt0msg.obj
 0002:000017d0       ??_C@_1GG@MKFPEKFO@?$AAR?$AA6?$AA0?$AA3?$AA4?$AA?$AN?$AA?6?$AA?9?$AA?5?$AAi?$AAn?$AAc?$AAo?$AAn?$AAs?$AAi?$AAs?$AAt?$AAe?$AAn?$AAt?$AA?5?$AAo?$AAn?$AAe?$AAx?$AAi?$AAt?$AA?5?$AAb?$AAe?$AAg@ 00000001400417d0     LIBCMT:crt0msg.obj
 0002:00001838       ??_C@_1BO@BFCDCGC@?$AAD?$AAO?$AAM?$AAA?$AAI?$AAN?$AA?5?$AAe?$AAr?$AAr?$AAo?$AAr?$AA?$AN?$AA?6?$AA?$AA@ 0000000140041838     LIBCMT:crt0msg.obj
 0002:00001858       ??_C@_1BK@KMOMNAAI@?$AAS?$AAI?$AAN?$AAG?$AA?5?$AAe?$AAr?$AAr?$AAo?$AAr?$AA?$AN?$AA?6?$AA?$AA@ 0000000140041858     LIBCMT:crt0msg.obj
 0002:00001878       ??_C@_1BM@JBBEPPHI@?$AAT?$AAL?$AAO?$AAS?$AAS?$AA?5?$AAe?$AAr?$AAr?$AAo?$AAr?$AA?$AN?$AA?6?$AA?$AA@ 0000000140041878     LIBCMT:crt0msg.obj
 0002:00001894       ??_C@_15JNBOKNOG@?$AA?$AN?$AA?6?$AA?$AA@ 0000000140041894     LIBCMT:crt0msg.obj
 0002:000018a0       ??_C@_1BO@BKOMIGKJ@?$AAr?$AAu?$AAn?$AAt?$AAi?$AAm?$AAe?$AA?5?$AAe?$AAr?$AAr?$AAo?$AAr?$AA?5?$AA?$AA@ 00000001400418a0     LIBCMT:crt0msg.obj
 0002:000018c0       ??_C@_1DE@JNGNBFGO@?$AAR?$AAu?$AAn?$AAt?$AAi?$AAm?$AAe?$AA?5?$AAE?$AAr?$AAr?$AAo?$AAr?$AA?$CB?$AA?6?$AA?6?$AAP?$AAr?$AAo?$AAg?$AAr?$AAa?$AAm?$AA?3?$AA?5?$AA?$AA@ 00000001400418c0     LIBCMT:crt0msg.obj
 0002:000018f8       ??_C@_1CO@EAEJAADC@?$AA?$DM?$AAp?$AAr?$AAo?$AAg?$AAr?$AAa?$AAm?$AA?5?$AAn?$AAa?$AAm?$AAe?$AA?5?$AAu?$AAn?$AAk?$AAn?$AAo?$AAw?$AAn?$AA?$DO?$AA?$AA@ 00000001400418f8     LIBCMT:crt0msg.obj
 0002:00001928       ??_C@_17LGKOMLJ@?$AA?4?$AA?4?$AA?4?$AA?$AA@ 0000000140041928     LIBCMT:crt0msg.obj
 0002:00001930       ??_C@_15IABLJNFO@?$AA?6?$AA?6?$AA?$AA@ 0000000140041930     LIBCMT:crt0msg.obj
 0002:00001940       ??_C@_1EK@MBDPDCGA@?$AAM?$AAi?$AAc?$AAr?$AAo?$AAs?$AAo?$AAf?$AAt?$AA?5?$AAV?$AAi?$AAs?$AAu?$AAa?$AAl?$AA?5?$AAC?$AA?$CL?$AA?$CL?$AA?5?$AAR?$AAu?$AAn?$AAt?$AAi?$AAm?$AAe?$AA?5?$AAL?$AAi?$AAb@ 0000000140041940     LIBCMT:crt0msg.obj
 0002:00001990       ??_C@_1BK@MGMFAEKH@?$AAk?$AAe?$AAr?$AAn?$AAe?$AAl?$AA3?$AA2?$AA?4?$AAd?$AAl?$AAl?$AA?$AA@ 0000000140041990     LIBCMT:winapisupp.obj
 0002:000019b0       ??_C@_08KNHFBNJ@FlsAlloc?$AA@ 00000001400419b0     LIBCMT:winapisupp.obj
 0002:000019c0       ??_C@_07PEJMOBNF@FlsFree?$AA@ 00000001400419c0     LIBCMT:winapisupp.obj
 0002:000019c8       ??_C@_0M@GDNOONDI@FlsGetValue?$AA@ 00000001400419c8     LIBCMT:winapisupp.obj
 0002:000019d8       ??_C@_0M@JCPCPOEF@FlsSetValue?$AA@ 00000001400419d8     LIBCMT:winapisupp.obj
 0002:000019e8       ??_C@_0BM@HCFOFFN@InitializeCriticalSectionEx?$AA@ 00000001400419e8     LIBCMT:winapisupp.obj
 0002:00001a08       ??_C@_0P@DLHPPCNH@CreateEventExW?$AA@ 0000000140041a08     LIBCMT:winapisupp.obj
 0002:00001a18       ??_C@_0BD@KIEEOEEH@CreateSemaphoreExW?$AA@ 0000000140041a18     LIBCMT:winapisupp.obj
 0002:00001a30       ??_C@_0BI@BKLFFAPO@SetThreadStackGuarantee?$AA@ 0000000140041a30     LIBCMT:winapisupp.obj
 0002:00001a48       ??_C@_0BG@OGFAJCKC@CreateThreadpoolTimer?$AA@ 0000000140041a48     LIBCMT:winapisupp.obj
 0002:00001a60       ??_C@_0BD@LPLEMMDI@SetThreadpoolTimer?$AA@ 0000000140041a60     LIBCMT:winapisupp.obj
 0002:00001a78       ??_C@_0CA@FMNJENH@WaitForThreadpoolTimerCallbacks?$AA@ 0000000140041a78     LIBCMT:winapisupp.obj
 0002:00001a98       ??_C@_0BF@DCFCCNOC@CloseThreadpoolTimer?$AA@ 0000000140041a98     LIBCMT:winapisupp.obj
 0002:00001ab0       ??_C@_0BF@FLABGKKM@CreateThreadpoolWait?$AA@ 0000000140041ab0     LIBCMT:winapisupp.obj
 0002:00001ac8       ??_C@_0BC@MGCOHNA@SetThreadpoolWait?$AA@ 0000000140041ac8     LIBCMT:winapisupp.obj
 0002:00001ae0       ??_C@_0BE@OCIOMIMP@CloseThreadpoolWait?$AA@ 0000000140041ae0     LIBCMT:winapisupp.obj
 0002:00001af8       ??_C@_0BJ@LKGHFHBO@FlushProcessWriteBuffers?$AA@ 0000000140041af8     LIBCMT:winapisupp.obj
 0002:00001b18       ??_C@_0BP@KALKKPMO@FreeLibraryWhenCallbackReturns?$AA@ 0000000140041b18     LIBCMT:winapisupp.obj
 0002:00001b38       ??_C@_0BK@DFNBACLA@GetCurrentProcessorNumber?$AA@ 0000000140041b38     LIBCMT:winapisupp.obj
 0002:00001b58       ??_C@_0BP@KHGALBC@GetLogicalProcessorInformation?$AA@ 0000000140041b58     LIBCMT:winapisupp.obj
 0002:00001b78       ??_C@_0BE@FKKLLFLM@CreateSymbolicLinkW?$AA@ 0000000140041b78     LIBCMT:winapisupp.obj
 0002:00001b90       ??_C@_0BJ@OHNKDLIJ@SetDefaultDllDirectories?$AA@ 0000000140041b90     LIBCMT:winapisupp.obj
 0002:00001bb0       ??_C@_0BE@LJANKFHF@EnumSystemLocalesEx?$AA@ 0000000140041bb0     LIBCMT:winapisupp.obj
 0002:00001bc8       ??_C@_0BA@IHGNDAEB@CompareStringEx?$AA@ 0000000140041bc8     LIBCMT:winapisupp.obj
 0002:00001bd8       ??_C@_0BA@EPCJIIPD@GetDateFormatEx?$AA@ 0000000140041bd8     LIBCMT:winapisupp.obj
 0002:00001be8       ??_C@_0BA@ONOKGCMP@GetLocaleInfoEx?$AA@ 0000000140041be8     LIBCMT:winapisupp.obj
 0002:00001bf8       ??_C@_0BA@CIJJKCJJ@GetTimeFormatEx?$AA@ 0000000140041bf8     LIBCMT:winapisupp.obj
 0002:00001c08       ??_C@_0BJ@PBCCBIPI@GetUserDefaultLocaleName?$AA@ 0000000140041c08     LIBCMT:winapisupp.obj
 0002:00001c28       ??_C@_0BC@CELBKLLA@IsValidLocaleName?$AA@ 0000000140041c28     LIBCMT:winapisupp.obj
 0002:00001c40       ??_C@_0O@KKBNKAPF@LCMapStringEx?$AA@ 0000000140041c40     LIBCMT:winapisupp.obj
 0002:00001c50       ??_C@_0BE@JOGNEJCI@GetCurrentPackageId?$AA@ 0000000140041c50     LIBCMT:winapisupp.obj
 0002:00001c68       ??_C@_0P@CDHHOHKP@GetTickCount64?$AA@ 0000000140041c68     LIBCMT:winapisupp.obj
 0002:00001c78       ??_C@_0BO@KPCLFDJJ@GetFileInformationByHandleExW?$AA@ 0000000140041c78     LIBCMT:winapisupp.obj
 0002:00001c98       ??_C@_0BM@MHIDLABK@SetFileInformationByHandleW?$AA@ 0000000140041c98     LIBCMT:winapisupp.obj
 0002:00001cc0       ??_7exception@std@@6B@     0000000140041cc0     LIBCMT:stdexcpt.obj
 0002:00001cd0       ??_C@_0BC@EOODALEL@Unknown?5exception?$AA@ 0000000140041cd0     LIBCMT:stdexcpt.obj
 0002:00001d50       ??_C@_1M@HPNHIDJI@?$AAj?$AAa?$AA?9?$AAJ?$AAP?$AA?$AA@ 0000000140041d50     LIBCMT:mbctype.obj
 0002:00001d60       ??_C@_1M@BIBDDEMK@?$AAz?$AAh?$AA?9?$AAC?$AAN?$AA?$AA@ 0000000140041d60     LIBCMT:mbctype.obj
 0002:00001d70       ??_C@_1M@JLOOOEGK@?$AAk?$AAo?$AA?9?$AAK?$AAR?$AA?$AA@ 0000000140041d70     LIBCMT:mbctype.obj
 0002:00001d80       ??_C@_1M@CLNBBOPM@?$AAz?$AAh?$AA?9?$AAT?$AAW?$AA?$AA@ 0000000140041d80     LIBCMT:mbctype.obj
 0002:00001d90       __dnames                   0000000140041d90     LIBCMT:timeset.obj
 0002:00001da8       __mnames                   0000000140041da8     LIBCMT:timeset.obj
 0002:00001dd0       ??_C@_02CLFPBFFP@TZ?$AA@   0000000140041dd0     LIBCMT:tzset.obj
 0002:00001dd4       ??_C@_03KOEHGMDN@Sun?$AA@  0000000140041dd4     LIBCMT:nlsdata.obj
 0002:00001dd8       ??_C@_03PDAGKDH@Mon?$AA@   0000000140041dd8     LIBCMT:nlsdata.obj
 0002:00001ddc       ??_C@_03NAGEINEP@Tue?$AA@  0000000140041ddc     LIBCMT:nlsdata.obj
 0002:00001de0       ??_C@_03MHOMLAJA@Wed?$AA@  0000000140041de0     LIBCMT:nlsdata.obj
 0002:00001de4       ??_C@_03IOFIKPDN@Thu?$AA@  0000000140041de4     LIBCMT:nlsdata.obj
 0002:00001de8       ??_C@_03IDIOELNC@Fri?$AA@  0000000140041de8     LIBCMT:nlsdata.obj
 0002:00001dec       ??_C@_03FEFJNEK@Sat?$AA@   0000000140041dec     LIBCMT:nlsdata.obj
 0002:00001df0       ??_C@_06OOPIFAJ@Sunday?$AA@ 0000000140041df0     LIBCMT:nlsdata.obj
 0002:00001df8       ??_C@_06JLEDEDGH@Monday?$AA@ 0000000140041df8     LIBCMT:nlsdata.obj
 0002:00001e00       ??_C@_07BAAGCFCM@Tuesday?$AA@ 0000000140041e00     LIBCMT:nlsdata.obj
 0002:00001e08       ??_C@_09DLIGFAKA@Wednesday?$AA@ 0000000140041e08     LIBCMT:nlsdata.obj
 0002:00001e18       ??_C@_08HACCIKIA@Thursday?$AA@ 0000000140041e18     LIBCMT:nlsdata.obj
 0002:00001e24       ??_C@_06JECMNKMI@Friday?$AA@ 0000000140041e24     LIBCMT:nlsdata.obj
 0002:00001e30       ??_C@_08INBOOONO@Saturday?$AA@ 0000000140041e30     LIBCMT:nlsdata.obj
 0002:00001e3c       ??_C@_03JIHJHPIE@Jan?$AA@  0000000140041e3c     LIBCMT:nlsdata.obj
 0002:00001e40       ??_C@_03HJBDCHOM@Feb?$AA@  0000000140041e40     LIBCMT:nlsdata.obj
 0002:00001e44       ??_C@_03ODNJBKGA@Mar?$AA@  0000000140041e44     LIBCMT:nlsdata.obj
 0002:00001e48       ??_C@_03LEOLGMJP@Apr?$AA@  0000000140041e48     LIBCMT:nlsdata.obj
 0002:00001e4c       ??_C@_03CNMDKL@May?$AA@    0000000140041e4c     LIBCMT:nlsdata.obj
 0002:00001e50       ??_C@_03IDFGHECI@Jun?$AA@  0000000140041e50     LIBCMT:nlsdata.obj
 0002:00001e54       ??_C@_03LBGABGKK@Jul?$AA@  0000000140041e54     LIBCMT:nlsdata.obj
 0002:00001e58       ??_C@_03IFJFEIGA@Aug?$AA@  0000000140041e58     LIBCMT:nlsdata.obj
 0002:00001e5c       ??_C@_03GGCAPAJC@Sep?$AA@  0000000140041e5c     LIBCMT:nlsdata.obj
 0002:00001e60       ??_C@_03BMAOKBAD@Oct?$AA@  0000000140041e60     LIBCMT:nlsdata.obj
 0002:00001e64       ??_C@_03JPJOFNIA@Nov?$AA@  0000000140041e64     LIBCMT:nlsdata.obj
 0002:00001e68       ??_C@_03MKABNOCG@Dec?$AA@  0000000140041e68     LIBCMT:nlsdata.obj
 0002:00001e70       ??_C@_07CGJPFGJA@January?$AA@ 0000000140041e70     LIBCMT:nlsdata.obj
 0002:00001e78       ??_C@_08GNJGEPFN@February?$AA@ 0000000140041e78     LIBCMT:nlsdata.obj
 0002:00001e84       ??_C@_05HPCKOFNC@March?$AA@ 0000000140041e84     LIBCMT:nlsdata.obj
 0002:00001e8c       ??_C@_05DMJDNLEJ@April?$AA@ 0000000140041e8c     LIBCMT:nlsdata.obj
 0002:00001e94       ??_C@_04CNLMGBGM@June?$AA@ 0000000140041e94     LIBCMT:nlsdata.obj
 0002:00001e9c       ??_C@_04MIEPOIFP@July?$AA@ 0000000140041e9c     LIBCMT:nlsdata.obj
 0002:00001ea4       ??_C@_06LBBHFDDG@August?$AA@ 0000000140041ea4     LIBCMT:nlsdata.obj
 0002:00001eb0       ??_C@_09BHHEALKD@September?$AA@ 0000000140041eb0     LIBCMT:nlsdata.obj
 0002:00001ec0       ??_C@_07JJNFCEND@October?$AA@ 0000000140041ec0     LIBCMT:nlsdata.obj
 0002:00001ec8       ??_C@_08HCHEGEOA@November?$AA@ 0000000140041ec8     LIBCMT:nlsdata.obj
 0002:00001ed8       ??_C@_08EDHMEBNP@December?$AA@ 0000000140041ed8     LIBCMT:nlsdata.obj
 0002:00001ee4       ??_C@_02DEDBPAFC@AM?$AA@   0000000140041ee4     LIBCMT:nlsdata.obj
 0002:00001ee8       ??_C@_02CJNFDJBF@PM?$AA@   0000000140041ee8     LIBCMT:nlsdata.obj
 0002:00001ef0       ??_C@_08BPBNCDIB@MM?1dd?1yy?$AA@ 0000000140041ef0     LIBCMT:nlsdata.obj
 0002:00001f00       ??_C@_0BE@CKGJFCPC@dddd?0?5MMMM?5dd?0?5yyyy?$AA@ 0000000140041f00     LIBCMT:nlsdata.obj
 0002:00001f18       ??_C@_08JCCMCCIL@HH?3mm?3ss?$AA@ 0000000140041f18     LIBCMT:nlsdata.obj
 0002:00001f28       ??_C@_17MBGCMIPB@?$AAS?$AAu?$AAn?$AA?$AA@ 0000000140041f28     LIBCMT:nlsdata.obj
 0002:00001f30       ??_C@_17KBOMKBF@?$AAM?$AAo?$AAn?$AA?$AA@ 0000000140041f30     LIBCMT:nlsdata.obj
 0002:00001f38       ??_C@_17BMKGEGOJ@?$AAT?$AAu?$AAe?$AA?$AA@ 0000000140041f38     LIBCMT:nlsdata.obj
 0002:00001f40       ??_C@_17CJEDCEPE@?$AAW?$AAe?$AAd?$AA?$AA@ 0000000140041f40     LIBCMT:nlsdata.obj
 0002:00001f48       ??_C@_17PDPHAADD@?$AAT?$AAh?$AAu?$AA?$AA@ 0000000140041f48     LIBCMT:nlsdata.obj
 0002:00001f50       ??_C@_17HFOLPPLP@?$AAF?$AAr?$AAi?$AA?$AA@ 0000000140041f50     LIBCMT:nlsdata.obj
 0002:00001f58       ??_C@_17GGIBDPIH@?$AAS?$AAa?$AAt?$AA?$AA@ 0000000140041f58     LIBCMT:nlsdata.obj
 0002:00001f60       ??_C@_1O@IHNHDHPB@?$AAS?$AAu?$AAn?$AAd?$AAa?$AAy?$AA?$AA@ 0000000140041f60     LIBCMT:nlsdata.obj
 0002:00001f70       ??_C@_1O@MMNBFLIA@?$AAM?$AAo?$AAn?$AAd?$AAa?$AAy?$AA?$AA@ 0000000140041f70     LIBCMT:nlsdata.obj
 0002:00001f80       ??_C@_1BA@ENFBFFEK@?$AAT?$AAu?$AAe?$AAs?$AAd?$AAa?$AAy?$AA?$AA@ 0000000140041f80     LIBCMT:nlsdata.obj
 0002:00001f90       ??_C@_1BE@EBOGMDOH@?$AAW?$AAe?$AAd?$AAn?$AAe?$AAs?$AAd?$AAa?$AAy?$AA?$AA@ 0000000140041f90     LIBCMT:nlsdata.obj
 0002:00001fa8       ??_C@_1BC@HHMNLIHE@?$AAT?$AAh?$AAu?$AAr?$AAs?$AAd?$AAa?$AAy?$AA?$AA@ 0000000140041fa8     LIBCMT:nlsdata.obj
 0002:00001fc0       ??_C@_1O@PDICJHAG@?$AAF?$AAr?$AAi?$AAd?$AAa?$AAy?$AA?$AA@ 0000000140041fc0     LIBCMT:nlsdata.obj
 0002:00001fd0       ??_C@_1BC@ENMNNPAJ@?$AAS?$AAa?$AAt?$AAu?$AAr?$AAd?$AAa?$AAy?$AA?$AA@ 0000000140041fd0     LIBCMT:nlsdata.obj
 0002:00001fe8       ??_C@_17DKNBKCHM@?$AAJ?$AAa?$AAn?$AA?$AA@ 0000000140041fe8     LIBCMT:nlsdata.obj
 0002:00001ff0       ??_C@_17LMDJEKJN@?$AAF?$AAe?$AAb?$AA?$AA@ 0000000140041ff0     LIBCMT:nlsdata.obj
 0002:00001ff8       ??_C@_17CKNLEDEC@?$AAM?$AAa?$AAr?$AA?$AA@ 0000000140041ff8     LIBCMT:nlsdata.obj
 0002:00002000       ??_C@_17LFPOIHDD@?$AAA?$AAp?$AAr?$AA?$AA@ 0000000140042000     LIBCMT:nlsdata.obj
 0002:00002008       ??_C@_17PNNKMEED@?$AAM?$AAa?$AAy?$AA?$AA@ 0000000140042008     LIBCMT:nlsdata.obj
 0002:00002010       ??_C@_17KCJGOCPB@?$AAJ?$AAu?$AAn?$AA?$AA@ 0000000140042010     LIBCMT:nlsdata.obj
 0002:00002018       ??_C@_17IJPCKHK@?$AAJ?$AAu?$AAl?$AA?$AA@ 0000000140042018     LIBCMT:nlsdata.obj
 0002:00002020       ??_C@_17ICPELBCN@?$AAA?$AAu?$AAg?$AA?$AA@ 0000000140042020     LIBCMT:nlsdata.obj
 0002:00002028       ??_C@_17HCHCOKMG@?$AAS?$AAe?$AAp?$AA?$AA@ 0000000140042028     LIBCMT:nlsdata.obj
 0002:00002030       ??_C@_17FNLKOI@?$AAO?$AAc?$AAt?$AA?$AA@ 0000000140042030     LIBCMT:nlsdata.obj
 0002:00002038       ??_C@_17BBDMLCIG@?$AAN?$AAo?$AAv?$AA?$AA@ 0000000140042038     LIBCMT:nlsdata.obj
 0002:00002040       ??_C@_17EGKACKIF@?$AAD?$AAe?$AAc?$AA?$AA@ 0000000140042040     LIBCMT:nlsdata.obj
 0002:00002048       ??_C@_1BA@EFMEIEBA@?$AAJ?$AAa?$AAn?$AAu?$AAa?$AAr?$AAy?$AA?$AA@ 0000000140042048     LIBCMT:nlsdata.obj
 0002:00002058       ??_C@_1BC@JGDDFFAM@?$AAF?$AAe?$AAb?$AAr?$AAu?$AAa?$AAr?$AAy?$AA?$AA@ 0000000140042058     LIBCMT:nlsdata.obj
 0002:00002070       ??_C@_1M@IKEENEDF@?$AAM?$AAa?$AAr?$AAc?$AAh?$AA?$AA@ 0000000140042070     LIBCMT:nlsdata.obj
 0002:00002080       ??_C@_1M@GJNLMHFD@?$AAA?$AAp?$AAr?$AAi?$AAl?$AA?$AA@ 0000000140042080     LIBCMT:nlsdata.obj
 0002:00002090       ??_C@_19EPFLPGAP@?$AAJ?$AAu?$AAn?$AAe?$AA?$AA@ 0000000140042090     LIBCMT:nlsdata.obj
 0002:000020a0       ??_C@_19BIFMLPCD@?$AAJ?$AAu?$AAl?$AAy?$AA?$AA@ 00000001400420a0     LIBCMT:nlsdata.obj
 0002:000020b0       ??_C@_1O@PAHLKOAC@?$AAA?$AAu?$AAg?$AAu?$AAs?$AAt?$AA?$AA@ 00000001400420b0     LIBCMT:nlsdata.obj
 0002:000020c0       ??_C@_1BE@DKAAMBJL@?$AAS?$AAe?$AAp?$AAt?$AAe?$AAm?$AAb?$AAe?$AAr?$AA?$AA@ 00000001400420c0     LIBCMT:nlsdata.obj
 0002:000020d8       ??_C@_1BA@EPANDLNG@?$AAO?$AAc?$AAt?$AAo?$AAb?$AAe?$AAr?$AA?$AA@ 00000001400420d8     LIBCMT:nlsdata.obj
 0002:000020e8       ??_C@_1BC@BGLIFPF@?$AAN?$AAo?$AAv?$AAe?$AAm?$AAb?$AAe?$AAr?$AA?$AA@ 00000001400420e8     LIBCMT:nlsdata.obj
 0002:00002100       ??_C@_1BC@FEMKIFH@?$AAD?$AAe?$AAc?$AAe?$AAm?$AAb?$AAe?$AAr?$AA?$AA@ 0000000140042100     LIBCMT:nlsdata.obj
 0002:00002114       ??_C@_15ODEHAHHF@?$AAA?$AAM?$AA?$AA@ 0000000140042114     LIBCMT:nlsdata.obj
 0002:0000211c       ??_C@_15CLMNNGEL@?$AAP?$AAM?$AA?$AA@ 000000014004211c     LIBCMT:nlsdata.obj
 0002:00002128       ??_C@_1BC@IEBCMHCM@?$AAM?$AAM?$AA?1?$AAd?$AAd?$AA?1?$AAy?$AAy?$AA?$AA@ 0000000140042128     LIBCMT:nlsdata.obj
 0002:00002140       ??_C@_1CI@KNAKOEBC@?$AAd?$AAd?$AAd?$AAd?$AA?0?$AA?5?$AAM?$AAM?$AAM?$AAM?$AA?5?$AAd?$AAd?$AA?0?$AA?5?$AAy?$AAy?$AAy?$AAy?$AA?$AA@ 0000000140042140     LIBCMT:nlsdata.obj
 0002:00002168       ??_C@_1BC@GDGBMEMK@?$AAH?$AAH?$AA?3?$AAm?$AAm?$AA?3?$AAs?$AAs?$AA?$AA@ 0000000140042168     LIBCMT:nlsdata.obj
 0002:00002180       ??_C@_1M@BMHNFIME@?$AAe?$AAn?$AA?9?$AAU?$AAS?$AA?$AA@ 0000000140042180     LIBCMT:nlsdata.obj
 0002:00002190       ??_C@_1BG@GOEBHBDC@?$AAU?$AAS?$AAE?$AAR?$AA3?$AA2?$AA?4?$AAD?$AAL?$AAL?$AA?$AA@ 0000000140042190     LIBCMT:crtmboxw.obj
 0002:000021a8       ??_C@_0M@DLDCCGNP@MessageBoxW?$AA@ 00000001400421a8     LIBCMT:crtmboxw.obj
 0002:000021b8       ??_C@_0BA@HNOPNCHB@GetActiveWindow?$AA@ 00000001400421b8     LIBCMT:crtmboxw.obj
 0002:000021c8       ??_C@_0BD@HHGDFDBJ@GetLastActivePopup?$AA@ 00000001400421c8     LIBCMT:crtmboxw.obj
 0002:000021e0       ??_C@_0BK@DEKFELLI@GetUserObjectInformationW?$AA@ 00000001400421e0     LIBCMT:crtmboxw.obj
 0002:00002200       ??_C@_0BI@DFKBFLJE@GetProcessWindowStation?$AA@ 0000000140042200     LIBCMT:crtmboxw.obj
 0002:00002538       ??_C@_08EHJDFFNH@__based?$CI?$AA@ 0000000140042538     LIBCMT:undname.obj
 0002:00002548       ??_C@_07KOLFKCDI@__cdecl?$AA@ 0000000140042548     LIBCMT:undname.obj
 0002:00002550       ??_C@_08GHMPAG@__pascal?$AA@ 0000000140042550     LIBCMT:undname.obj
 0002:00002560       ??_C@_09IFJBGAPI@__stdcall?$AA@ 0000000140042560     LIBCMT:undname.obj
 0002:00002570       ??_C@_0L@NPHFGOKO@__thiscall?$AA@ 0000000140042570     LIBCMT:undname.obj
 0002:00002580       ??_C@_0L@JMKHOMEK@__fastcall?$AA@ 0000000140042580     LIBCMT:undname.obj
 0002:00002590       ??_C@_0N@BCKKPABJ@__vectorcall?$AA@ 0000000140042590     LIBCMT:undname.obj
 0002:000025a0       ??_C@_09HIJEGCPM@__clrcall?$AA@ 00000001400425a0     LIBCMT:undname.obj
 0002:000025ac       ??_C@_06GHPCKEAG@__eabi?$AA@ 00000001400425ac     LIBCMT:undname.obj
 0002:000025b8       ??_C@_07JOMMBBKO@__ptr64?$AA@ 00000001400425b8     LIBCMT:undname.obj
 0002:000025c0       ??_C@_0L@PILCLIHE@__restrict?$AA@ 00000001400425c0     LIBCMT:undname.obj
 0002:000025d0       ??_C@_0M@GFIIJFMG@__unaligned?$AA@ 00000001400425d0     LIBCMT:undname.obj
 0002:000025e0       ??_C@_09DHDLOLLB@restrict?$CI?$AA@ 00000001400425e0     LIBCMT:undname.obj
 0002:000025ea       ??_C@_00CNPNBAHC@?$AA@     00000001400425ea     LIBCMT:undname.obj
 0002:000025ec       ??_C@_04NIHEBCM@?5new?$AA@ 00000001400425ec     LIBCMT:undname.obj
 0002:000025f8       ??_C@_07FPCDHGMM@?5delete?$AA@ 00000001400425f8     LIBCMT:undname.obj
 0002:00002600       ??_C@_01NEMOKFLO@?$DN?$AA@ 0000000140042600     LIBCMT:undname.obj
 0002:00002604       ??_C@_02GPIOPFAK@?$DO?$DO?$AA@ 0000000140042604     LIBCMT:undname.obj
 0002:00002608       ??_C@_02FODMEDOG@?$DM?$DM?$AA@ 0000000140042608     LIBCMT:undname.obj
 0002:0000260c       ??_C@_01DCLJPIOD@?$CB?$AA@ 000000014004260c     LIBCMT:undname.obj
 0002:00002610       ??_C@_02EGOFBIJA@?$DN?$DN?$AA@ 0000000140042610     LIBCMT:undname.obj
 0002:00002614       ??_C@_02FDNJECIE@?$CB?$DN?$AA@ 0000000140042614     LIBCMT:undname.obj
 0002:00002618       ??_C@_02GPECMEKF@?$FL?$FN?$AA@ 0000000140042618     LIBCMT:undname.obj
 0002:00002620       ??_C@_08LHJFAFGD@operator?$AA@ 0000000140042620     LIBCMT:undname.obj
 0002:0000262c       ??_C@_02HBOOOICD@?9?$DO?$AA@ 000000014004262c     LIBCMT:undname.obj
 0002:00002630       ??_C@_01NBENCBCI@?$CK?$AA@ 0000000140042630     LIBCMT:undname.obj
 0002:00002634       ??_C@_02ECNGHCIF@?$CL?$CL?$AA@ 0000000140042634     LIBCMT:undname.obj
 0002:00002638       ??_C@_02BAABKJLB@?9?9?$AA@ 0000000140042638     LIBCMT:undname.obj
 0002:0000263c       ??_C@_01JOAMLHOP@?9?$AA@   000000014004263c     LIBCMT:undname.obj
 0002:00002640       ??_C@_01MIFGBAGJ@?$CL?$AA@ 0000000140042640     LIBCMT:undname.obj
 0002:00002644       ??_C@_01HNPIGOCE@?$CG?$AA@ 0000000140042644     LIBCMT:undname.obj
 0002:00002648       ??_C@_03MNHNFDLC@?9?$DO?$CK?$AA@ 0000000140042648     LIBCMT:undname.obj
 0002:0000264c       ??_C@_01KMDKNFGN@?1?$AA@   000000014004264c     LIBCMT:undname.obj
 0002:00002650       ??_C@_01FGNFDNOH@?$CF?$AA@ 0000000140042650     LIBCMT:undname.obj
 0002:00002654       ??_C@_01MNNFJEPP@?$DM?$AA@ 0000000140042654     LIBCMT:undname.obj
 0002:00002658       ??_C@_02EHCHHCKH@?$DM?$DN?$AA@ 0000000140042658     LIBCMT:undname.obj
 0002:0000265c       ??_C@_01PPODPGHN@?$DO?$AA@ 000000014004265c     LIBCMT:undname.obj
 0002:00002660       ??_C@_02EEKDKGMJ@?$DO?$DN?$AA@ 0000000140042660     LIBCMT:undname.obj
 0002:00002664       ??_C@_01IHBHIGKO@?0?$AA@   0000000140042664     LIBCMT:undname.obj
 0002:00002668       ??_C@_02HCKGKOFO@?$CI?$CJ?$AA@ 0000000140042668     LIBCMT:undname.obj
 0002:0000266c       ??_C@_01PJKLJHI@?$HO?$AA@  000000014004266c     LIBCMT:undname.obj
 0002:00002670       ??_C@_01JKBOJNNK@?$FO?$AA@ 0000000140042670     LIBCMT:undname.obj
 0002:00002674       ??_C@_01DNKMNLPK@?$HM?$AA@ 0000000140042674     LIBCMT:undname.obj
 0002:00002678       ??_C@_02PPKAJPJL@?$CG?$CG?$AA@ 0000000140042678     LIBCMT:undname.obj
 0002:0000267c       ??_C@_02NONPIBCD@?$HM?$HM?$AA@ 000000014004267c     LIBCMT:undname.obj
 0002:00002680       ??_C@_02FPIMKNGF@?$CK?$DN?$AA@ 0000000140042680     LIBCMT:undname.obj
 0002:00002684       ??_C@_02FOEOMHFC@?$CL?$DN?$AA@ 0000000140042684     LIBCMT:undname.obj
 0002:00002688       ??_C@_02FKMDLLOA@?9?$DN?$AA@ 0000000140042688     LIBCMT:undname.obj
 0002:0000268c       ??_C@_02FJEHGPIO@?1?$DN?$AA@ 000000014004268c     LIBCMT:undname.obj
 0002:00002690       ??_C@_02FENAOKFI@?$CF?$DN?$AA@ 0000000140042690     LIBCMT:undname.obj
 0002:00002694       ??_C@_03IKFCCPFF@?$DO?$DO?$DN?$AA@ 0000000140042694     LIBCMT:undname.obj
 0002:00002698       ??_C@_03CDNPDDLA@?$DM?$DM?$DN?$AA@ 0000000140042698     LIBCMT:undname.obj
 0002:0000269c       ??_C@_02FGJGFEAB@?$CG?$DN?$AA@ 000000014004269c     LIBCMT:undname.obj
 0002:000026a0       ??_C@_02DHLNPPGH@?$HM?$DN?$AA@ 00000001400426a0     LIBCMT:undname.obj
 0002:000026a4       ??_C@_02MHEGNOJ@?$FO?$DN?$AA@ 00000001400426a4     LIBCMT:undname.obj
 0002:000026a8       ??_C@_09IFPLHPGF@?$GAvftable?8?$AA@ 00000001400426a8     LIBCMT:undname.obj
 0002:000026b8       ??_C@_09BLBHBJP@?$GAvbtable?8?$AA@ 00000001400426b8     LIBCMT:undname.obj
 0002:000026c8       ??_C@_07FEEIOKP@?$GAvcall?8?$AA@ 00000001400426c8     LIBCMT:undname.obj
 0002:000026d0       ??_C@_08LLFFHHDJ@?$GAtypeof?8?$AA@ 00000001400426d0     LIBCMT:undname.obj
 0002:000026e0       ??_C@_0BF@KDPPACIK@?$GAlocal?5static?5guard?8?$AA@ 00000001400426e0     LIBCMT:undname.obj
 0002:000026f8       ??_C@_08OBABFOLI@?$GAstring?8?$AA@ 00000001400426f8     LIBCMT:undname.obj
 0002:00002708       ??_C@_0BD@JDLKDPAB@?$GAvbase?5destructor?8?$AA@ 0000000140042708     LIBCMT:undname.obj
 0002:00002720       ??_C@_0BN@DEGPLNFK@?$GAvector?5deleting?5destructor?8?$AA@ 0000000140042720     LIBCMT:undname.obj
 0002:00002740       ??_C@_0BO@OBMKPJIG@?$GAdefault?5constructor?5closure?8?$AA@ 0000000140042740     LIBCMT:undname.obj
 0002:00002760       ??_C@_0BN@IMDCHIKM@?$GAscalar?5deleting?5destructor?8?$AA@ 0000000140042760     LIBCMT:undname.obj
 0002:00002780       ??_C@_0BO@PFGOCPJJ@?$GAvector?5constructor?5iterator?8?$AA@ 0000000140042780     LIBCMT:undname.obj
 0002:000027a0       ??_C@_0BN@LFPFMEDL@?$GAvector?5destructor?5iterator?8?$AA@ 00000001400427a0     LIBCMT:undname.obj
 0002:000027c0       ??_C@_0CE@IKBNEHA@?$GAvector?5vbase?5constructor?5iterat@ 00000001400427c0     LIBCMT:undname.obj
 0002:000027e8       ??_C@_0BL@NILFHHPC@?$GAvirtual?5displacement?5map?8?$AA@ 00000001400427e8     LIBCMT:undname.obj
 0002:00002808       ??_C@_0CB@JONCMFFK@?$GAeh?5vector?5constructor?5iterator?8@ 0000000140042808     LIBCMT:undname.obj
 0002:00002830       ??_C@_0CA@GCEOPDGL@?$GAeh?5vector?5destructor?5iterator?8?$AA@ 0000000140042830     LIBCMT:undname.obj
 0002:00002850       ??_C@_0CH@OOJPLCPH@?$GAeh?5vector?5vbase?5constructor?5ite@ 0000000140042850     LIBCMT:undname.obj
 0002:00002878       ??_C@_0BL@LLKPOHJI@?$GAcopy?5constructor?5closure?8?$AA@ 0000000140042878     LIBCMT:undname.obj
 0002:00002898       ??_C@_0BA@KBCDOMBN@?$GAudt?5returning?8?$AA@ 0000000140042898     LIBCMT:undname.obj
 0002:000028a8       ??_C@_03KLGMFNMG@?$GAEH?$AA@ 00000001400428a8     LIBCMT:undname.obj
 0002:000028ac       ??_C@_05KHLCHHI@?$GARTTI?$AA@ 00000001400428ac     LIBCMT:undname.obj
 0002:000028b8       ??_C@_0BA@KKLDJDLB@?$GAlocal?5vftable?8?$AA@ 00000001400428b8     LIBCMT:undname.obj
 0002:000028c8       ??_C@_0CE@IIHCMGGL@?$GAlocal?5vftable?5constructor?5closu@ 00000001400428c8     LIBCMT:undname.obj
 0002:000028ec       ??_C@_06FHBGPFGH@?5new?$FL?$FN?$AA@ 00000001400428ec     LIBCMT:undname.obj
 0002:000028f8       ??_C@_09LBNFPBCA@?5delete?$FL?$FN?$AA@ 00000001400428f8     LIBCMT:undname.obj
 0002:00002908       ??_C@_0P@HJKNJFNN@?$GAomni?5callsig?8?$AA@ 0000000140042908     LIBCMT:undname.obj
 0002:00002918       ??_C@_0BL@CNOONJFP@?$GAplacement?5delete?5closure?8?$AA@ 0000000140042918     LIBCMT:undname.obj
 0002:00002938       ??_C@_0BN@CKNJLHMB@?$GAplacement?5delete?$FL?$FN?5closure?8?$AA@ 0000000140042938     LIBCMT:undname.obj
 0002:00002958       ??_C@_0CG@CFDHKGGD@?$GAmanaged?5vector?5constructor?5iter@ 0000000140042958     LIBCMT:undname.obj
 0002:00002980       ??_C@_0CF@IMGKMJNO@?$GAmanaged?5vector?5destructor?5itera@ 0000000140042980     LIBCMT:undname.obj
 0002:000029a8       ??_C@_0CG@HLDDJMAG@?$GAeh?5vector?5copy?5constructor?5iter@ 00000001400429a8     LIBCMT:undname.obj
 0002:000029d0       ??_C@_0CM@FCBBDIGB@?$GAeh?5vector?5vbase?5copy?5constructo@ 00000001400429d0     LIBCMT:undname.obj
 0002:00002a00       ??_C@_0BL@CLIPGLGB@?$GAdynamic?5initializer?5for?5?8?$AA@ 0000000140042a00     LIBCMT:undname.obj
 0002:00002a20       ??_C@_0CB@PDBIFEP@?$GAdynamic?5atexit?5destructor?5for?5?8@ 0000000140042a20     LIBCMT:undname.obj
 0002:00002a48       ??_C@_0CD@CGAJBKEJ@?$GAvector?5copy?5constructor?5iterato@ 0000000140042a48     LIBCMT:undname.obj
 0002:00002a70       ??_C@_0CJ@GJELGAMM@?$GAvector?5vbase?5copy?5constructor?5i@ 0000000140042a70     LIBCMT:undname.obj
 0002:00002aa0       ??_C@_0CL@FGIJHLCE@?$GAmanaged?5vector?5copy?5constructor@ 0000000140042aa0     LIBCMT:undname.obj
 0002:00002ad0       ??_C@_0BM@PMGGMLDN@?$GAlocal?5static?5thread?5guard?8?$AA@ 0000000140042ad0     LIBCMT:undname.obj
 0002:00002af0       ??_C@_0BC@DAFEJGAK@?5Type?5Descriptor?8?$AA@ 0000000140042af0     LIBCMT:undname.obj
 0002:00002b08       ??_C@_0BM@LDKODKLH@?5Base?5Class?5Descriptor?5at?5?$CI?$AA@ 0000000140042b08     LIBCMT:undname.obj
 0002:00002b28       ??_C@_0BD@LGICGFMM@?5Base?5Class?5Array?8?$AA@ 0000000140042b28     LIBCMT:undname.obj
 0002:00002b40       ??_C@_0BN@MECKDCOJ@?5Class?5Hierarchy?5Descriptor?8?$AA@ 0000000140042b40     LIBCMT:undname.obj
 0002:00002b60       ??_C@_0BK@CFCOFLF@?5Complete?5Object?5Locator?8?$AA@ 0000000140042b60     LIBCMT:undname.obj
 0002:00002b80       LcidToLocaleNameTable      0000000140042b80     LIBCMT:winapinls.obj
 0002:000039c0       LocaleNameToIndexTable     00000001400439c0     LIBCMT:winapinls.obj
 0002:00004800       ??_C@_15EMKDOKLE@?$AAa?$AAr?$AA?$AA@ 0000000140044800     LIBCMT:winapinls.obj
 0002:00004808       ??_C@_15KNPADPLH@?$AAb?$AAg?$AA?$AA@ 0000000140044808     LIBCMT:winapinls.obj
 0002:00004810       ??_C@_15EDMHLDMO@?$AAc?$AAa?$AA?$AA@ 0000000140044810     LIBCMT:winapinls.obj
 0002:00004818       ??_C@_1O@BPEAJADD@?$AAz?$AAh?$AA?9?$AAC?$AAH?$AAS?$AA?$AA@ 0000000140044818     LIBCMT:winapinls.obj
 0002:00004828       ??_C@_15LJNHCMNK@?$AAc?$AAs?$AA?$AA@ 0000000140044828     LIBCMT:winapinls.obj
 0002:00004830       ??_C@_15FOMCIDHG@?$AAd?$AAa?$AA?$AA@ 0000000140044830     LIBCMT:winapinls.obj
 0002:00004838       ??_C@_15NBKABECB@?$AAd?$AAe?$AA?$AA@ 0000000140044838     LIBCMT:winapinls.obj
 0002:00004840       ??_C@_15GHPEIIAO@?$AAe?$AAl?$AA?$AA@ 0000000140044840     LIBCMT:winapinls.obj
 0002:00004848       ??_C@_15MNPNEAIF@?$AAe?$AAn?$AA?$AA@ 0000000140044848     LIBCMT:winapinls.obj
 0002:00004850       ??_C@_15GPIOMPMH@?$AAe?$AAs?$AA?$AA@ 0000000140044850     LIBCMT:winapinls.obj
 0002:00004858       ??_C@_15NGLOAKJC@?$AAf?$AAi?$AA?$AA@ 0000000140044858     LIBCMT:winapinls.obj
 0002:00004860       ??_C@_15FBKGNKAM@?$AAf?$AAr?$AA?$AA@ 0000000140044860     LIBCMT:winapinls.obj
 0002:00004868       ??_C@_15KGGCNEFK@?$AAh?$AAe?$AA?$AA@ 0000000140044868     LIBCMT:winapinls.obj
 0002:00004870       ??_C@_15PGHLIDMF@?$AAh?$AAu?$AA?$AA@ 0000000140044870     LIBCMT:winapinls.obj
 0002:00004878       ??_C@_15BIEMAPLM@?$AAi?$AAs?$AA?$AA@ 0000000140044878     LIBCMT:winapinls.obj
 0002:00004880       ??_C@_15IFJLDHAF@?$AAi?$AAt?$AA?$AA@ 0000000140044880     LIBCMT:winapinls.obj
 0002:00004888       ??_C@_15GEMIOCAG@?$AAj?$AAa?$AA?$AA@ 0000000140044888     LIBCMT:winapinls.obj
 0002:00004890       ??_C@_15EPELEGJA@?$AAk?$AAo?$AA?$AA@ 0000000140044890     LIBCMT:winapinls.obj
 0002:00004898       ??_C@_15NDDHIMN@?$AAn?$AAl?$AA?$AA@ 0000000140044898     LIBCMT:winapinls.obj
 0002:000048a0       ??_C@_15BPIGNHCD@?$AAn?$AAo?$AA?$AA@ 00000001400448a0     LIBCMT:winapinls.obj
 0002:000048a8       ??_C@_15DEOPBLCG@?$AAp?$AAl?$AA?$AA@ 00000001400448a8     LIBCMT:winapinls.obj
 0002:000048b0       ??_C@_15KBECGEFG@?$AAp?$AAt?$AA?$AA@ 00000001400448b0     LIBCMT:winapinls.obj
 0002:000048b8       ??_C@_15GLJCBFMD@?$AAr?$AAo?$AA?$AA@ 00000001400448b8     LIBCMT:winapinls.obj
 0002:000048c0       ??_C@_15FEDGKCDI@?$AAr?$AAu?$AA?$AA@ 00000001400448c0     LIBCMT:winapinls.obj
 0002:000048c8       ??_C@_15GLKMLLHM@?$AAh?$AAr?$AA?$AA@ 00000001400448c8     LIBCMT:winapinls.obj
 0002:000048d0       ??_C@_15CPKMFBDB@?$AAs?$AAk?$AA?$AA@ 00000001400448d0     LIBCMT:winapinls.obj
 0002:000048d8       ??_C@_15BAAIOGMK@?$AAs?$AAq?$AA?$AA@ 00000001400448d8     LIBCMT:winapinls.obj
 0002:000048e0       ??_C@_15INNPNOHD@?$AAs?$AAv?$AA?$AA@ 00000001400448e0     LIBCMT:winapinls.obj
 0002:000048e8       ??_C@_15CABMMOGH@?$AAt?$AAh?$AA?$AA@ 00000001400448e8     LIBCMT:winapinls.obj
 0002:000048f0       ??_C@_15BPLIHJJM@?$AAt?$AAr?$AA?$AA@ 00000001400448f0     LIBCMT:winapinls.obj
 0002:000048f8       ??_C@_15NEOEKKDJ@?$AAu?$AAr?$AA?$AA@ 00000001400448f8     LIBCMT:winapinls.obj
 0002:00004900       ??_C@_15NFICGAJK@?$AAi?$AAd?$AA?$AA@ 0000000140044900     LIBCMT:winapinls.obj
 0002:00004908       ??_C@_15PJPFLCCM@?$AAu?$AAk?$AA?$AA@ 0000000140044908     LIBCMT:winapinls.obj
 0002:00004910       ??_C@_15HPJPHDM@?$AAb?$AAe?$AA?$AA@ 0000000140044910     LIBCMT:winapinls.obj
 0002:00004918       ??_C@_15LCHLGJII@?$AAs?$AAl?$AA?$AA@ 0000000140044918     LIBCMT:winapinls.obj
 0002:00004920       ??_C@_15PCFJPHHO@?$AAe?$AAt?$AA?$AA@ 0000000140044920     LIBCMT:winapinls.obj
 0002:00004928       ??_C@_15HPFPGODN@?$AAl?$AAv?$AA?$AA@ 0000000140044928     LIBCMT:winapinls.obj
 0002:00004930       ??_C@_15NFFGKGLG@?$AAl?$AAt?$AA?$AA@ 0000000140044930     LIBCMT:winapinls.obj
 0002:00004938       ??_C@_15BDAKCCHN@?$AAf?$AAa?$AA?$AA@ 0000000140044938     LIBCMT:winapinls.obj
 0002:00004940       ??_C@_15NFGIAIAJ@?$AAv?$AAi?$AA?$AA@ 0000000140044940     LIBCMT:winapinls.obj
 0002:00004948       ??_C@_15LMKNDMHN@?$AAh?$AAy?$AA?$AA@ 0000000140044948     LIBCMT:winapinls.obj
 0002:00004950       ??_C@_15IJBHMCFL@?$AAa?$AAz?$AA?$AA@ 0000000140044950     LIBCMT:winapinls.obj
 0002:00004958       ??_C@_15EKOFJABL@?$AAe?$AAu?$AA?$AA@ 0000000140044958     LIBCMT:winapinls.obj
 0002:00004960       ??_C@_15BGHADCNK@?$AAm?$AAk?$AA?$AA@ 0000000140044960     LIBCMT:winapinls.obj
 0002:00004968       ??_C@_15JDNICKHM@?$AAa?$AAf?$AA?$AA@ 0000000140044968     LIBCMT:winapinls.obj
 0002:00004970       ??_C@_15KPJEDBKD@?$AAk?$AAa?$AA?$AA@ 0000000140044970     LIBCMT:winapinls.obj
 0002:00004978       ??_C@_15PDNFFFEO@?$AAf?$AAo?$AA?$AA@ 0000000140044978     LIBCMT:winapinls.obj
 0002:00004980       ??_C@_15OMLEGLOC@?$AAh?$AAi?$AA?$AA@ 0000000140044980     LIBCMT:winapinls.obj
 0002:00004988       ??_C@_15IDNNENKK@?$AAm?$AAs?$AA?$AA@ 0000000140044988     LIBCMT:winapinls.obj
 0002:00004990       ??_C@_15MACJNBMH@?$AAk?$AAk?$AA?$AA@ 0000000140044990     LIBCMT:winapinls.obj
 0002:00004998       ??_C@_15DKDJEOND@?$AAk?$AAy?$AA?$AA@ 0000000140044998     LIBCMT:winapinls.obj
 0002:000049a0       ??_C@_15DFGDLJBG@?$AAs?$AAw?$AA?$AA@ 00000001400449a0     LIBCMT:winapinls.obj
 0002:000049a8       ??_C@_15BBFAICNG@?$AAu?$AAz?$AA?$AA@ 00000001400449a8     LIBCMT:winapinls.obj
 0002:000049b0       ??_C@_15DKNDCGEA@?$AAt?$AAt?$AA?$AA@ 00000001400449b0     LIBCMT:winapinls.obj
 0002:000049b8       ??_C@_15MGIFMDPL@?$AAp?$AAa?$AA?$AA@ 00000001400449b8     LIBCMT:winapinls.obj
 0002:000049c0       ??_C@_15HCNDBBA@?$AAg?$AAu?$AA?$AA@ 00000001400449c0     LIBCMT:winapinls.obj
 0002:000049c8       ??_C@_15FNBEIBON@?$AAt?$AAa?$AA?$AA@ 00000001400449c8     LIBCMT:winapinls.obj
 0002:000049d0       ??_C@_15NCHGBGLK@?$AAt?$AAe?$AA?$AA@ 00000001400449d0     LIBCMT:winapinls.obj
 0002:000049d8       ??_C@_15PHPHCBPF@?$AAk?$AAn?$AA?$AA@ 00000001400449d8     LIBCMT:winapinls.obj
 0002:000049e0       ??_C@_15DLGBCKMP@?$AAm?$AAr?$AA?$AA@ 00000001400449e0     LIBCMT:winapinls.obj
 0002:000049e8       ??_C@_15EABBLBFF@?$AAs?$AAa?$AA?$AA@ 00000001400449e8     LIBCMT:winapinls.obj
 0002:000049f0       ??_C@_15CBKOMCOI@?$AAm?$AAn?$AA?$AA@ 00000001400449f0     LIBCMT:winapinls.obj
 0002:000049f8       ??_C@_15CKDMCJAF@?$AAg?$AAl?$AA?$AA@ 00000001400449f8     LIBCMT:winapinls.obj
 0002:00004a00       ??_C@_17CNJFBPG@?$AAk?$AAo?$AAk?$AA?$AA@ 0000000140044a00     LIBCMT:winapinls.obj
 0002:00004a08       ??_C@_17FFBJICPL@?$AAs?$AAy?$AAr?$AA?$AA@ 0000000140044a08     LIBCMT:winapinls.obj
 0002:00004a10       ??_C@_17KPNDCPAF@?$AAd?$AAi?$AAv?$AA?$AA@ 0000000140044a10     LIBCMT:winapinls.obj
 0002:00004a18       ??_C@_1M@OKAHONE@?$AAa?$AAr?$AA?9?$AAS?$AAA?$AA?$AA@ 0000000140044a18     LIBCMT:winapinls.obj
 0002:00004a28       ??_C@_1M@FFFIGIGK@?$AAb?$AAg?$AA?9?$AAB?$AAG?$AA?$AA@ 0000000140044a28     LIBCMT:winapinls.obj
 0002:00004a38       ??_C@_1M@BJNKEDC@?$AAc?$AAa?$AA?9?$AAE?$AAS?$AA?$AA@ 0000000140044a38     LIBCMT:winapinls.obj
 0002:00004a48       ??_C@_1M@IJJHFJHA@?$AAc?$AAs?$AA?9?$AAC?$AAZ?$AA?$AA@ 0000000140044a48     LIBCMT:winapinls.obj
 0002:00004a58       ??_C@_1M@CLPEOBGI@?$AAd?$AAa?$AA?9?$AAD?$AAK?$AA?$AA@ 0000000140044a58     LIBCMT:winapinls.obj
 0002:00004a68       ??_C@_1M@MCMADGCB@?$AAd?$AAe?$AA?9?$AAD?$AAE?$AA?$AA@ 0000000140044a68     LIBCMT:winapinls.obj
 0002:00004a78       ??_C@_1M@OOCKEMAM@?$AAe?$AAl?$AA?9?$AAG?$AAR?$AA?$AA@ 0000000140044a78     LIBCMT:winapinls.obj
 0002:00004a88       ??_C@_1M@DDNJFGID@?$AAf?$AAi?$AA?9?$AAF?$AAI?$AA?$AA@ 0000000140044a88     LIBCMT:winapinls.obj
 0002:00004a98       ??_C@_1M@GLIPPMAC@?$AAf?$AAr?$AA?9?$AAF?$AAR?$AA?$AA@ 0000000140044a98     LIBCMT:winapinls.obj
 0002:00004aa8       ??_C@_1M@GFMCHPE@?$AAh?$AAe?$AA?9?$AAI?$AAL?$AA?$AA@ 0000000140044aa8     LIBCMT:winapinls.obj
 0002:00004ab8       ??_C@_1M@MHLPGNKM@?$AAh?$AAu?$AA?9?$AAH?$AAU?$AA?$AA@ 0000000140044ab8     LIBCMT:winapinls.obj
 0002:00004ac8       ??_C@_1M@LPDDNNPN@?$AAi?$AAs?$AA?9?$AAI?$AAS?$AA?$AA@ 0000000140044ac8     LIBCMT:winapinls.obj
 0002:00004ad8       ??_C@_1M@MADIPODN@?$AAi?$AAt?$AA?9?$AAI?$AAT?$AA?$AA@ 0000000140044ad8     LIBCMT:winapinls.obj
 0002:00004ae8       ??_C@_1M@IHBJJGG@?$AAn?$AAl?$AA?9?$AAN?$AAL?$AA?$AA@ 0000000140044ae8     LIBCMT:winapinls.obj
 0002:00004af8       ??_C@_1M@EANAGDL@?$AAn?$AAb?$AA?9?$AAN?$AAO?$AA?$AA@ 0000000140044af8     LIBCMT:winapinls.obj
 0002:00004b08       ??_C@_1M@NEIEMEGP@?$AAp?$AAl?$AA?9?$AAP?$AAL?$AA?$AA@ 0000000140044b08     LIBCMT:winapinls.obj
 0002:00004b18       ??_C@_1M@BOCFIGEP@?$AAp?$AAt?$AA?9?$AAB?$AAR?$AA?$AA@ 0000000140044b18     LIBCMT:winapinls.obj
 0002:00004b28       ??_C@_1M@IMPFOPBG@?$AAr?$AAo?$AA?9?$AAR?$AAO?$AA?$AA@ 0000000140044b28     LIBCMT:winapinls.obj
 0002:00004b38       ??_C@_1M@IDNNEJMM@?$AAr?$AAu?$AA?9?$AAR?$AAU?$AA?$AA@ 0000000140044b38     LIBCMT:winapinls.obj
 0002:00004b48       ??_C@_1M@LILEEOGM@?$AAh?$AAr?$AA?9?$AAH?$AAR?$AA?$AA@ 0000000140044b48     LIBCMT:winapinls.obj
 0002:00004b58       ??_C@_1M@FKIFEHPB@?$AAs?$AAk?$AA?9?$AAS?$AAK?$AA?$AA@ 0000000140044b58     LIBCMT:winapinls.obj
 0002:00004b68       ??_C@_1M@LJMAMNPJ@?$AAs?$AAq?$AA?9?$AAA?$AAL?$AA?$AA@ 0000000140044b68     LIBCMT:winapinls.obj
 0002:00004b78       ??_C@_1M@GIAKDKJK@?$AAs?$AAv?$AA?9?$AAS?$AAE?$AA?$AA@ 0000000140044b78     LIBCMT:winapinls.obj
 0002:00004b88       ??_C@_1M@MKJKIKCL@?$AAt?$AAh?$AA?9?$AAT?$AAH?$AA?$AA@ 0000000140044b88     LIBCMT:winapinls.obj
 0002:00004b98       ??_C@_1M@MFLCCMPB@?$AAt?$AAr?$AA?9?$AAT?$AAR?$AA?$AA@ 0000000140044b98     LIBCMT:winapinls.obj
 0002:00004ba8       ??_C@_1M@OIJHDKJN@?$AAu?$AAr?$AA?9?$AAP?$AAK?$AA?$AA@ 0000000140044ba8     LIBCMT:winapinls.obj
 0002:00004bb8       ??_C@_1M@LHIPCIEK@?$AAi?$AAd?$AA?9?$AAI?$AAD?$AA?$AA@ 0000000140044bb8     LIBCMT:winapinls.obj
 0002:00004bc8       ??_C@_1M@MFMOBGI@?$AAu?$AAk?$AA?9?$AAU?$AAA?$AA?$AA@ 0000000140044bc8     LIBCMT:winapinls.obj
 0002:00004bd8       ??_C@_1M@OBGLJIPL@?$AAb?$AAe?$AA?9?$AAB?$AAY?$AA?$AA@ 0000000140044bd8     LIBCMT:winapinls.obj
 0002:00004be8       ??_C@_1M@BCFAJEAD@?$AAs?$AAl?$AA?9?$AAS?$AAI?$AA?$AA@ 0000000140044be8     LIBCMT:winapinls.obj
 0002:00004bf8       ??_C@_1M@FKFFEDDN@?$AAe?$AAt?$AA?9?$AAE?$AAE?$AA?$AA@ 0000000140044bf8     LIBCMT:winapinls.obj
 0002:00004c08       ??_C@_1M@KGKKAACI@?$AAl?$AAv?$AA?9?$AAL?$AAV?$AA?$AA@ 0000000140044c08     LIBCMT:winapinls.obj
 0002:00004c18       ??_C@_1M@IFGBIJO@?$AAl?$AAt?$AA?9?$AAL?$AAT?$AA?$AA@ 0000000140044c18     LIBCMT:winapinls.obj
 0002:00004c28       ??_C@_1M@FGEAHEDM@?$AAf?$AAa?$AA?9?$AAI?$AAR?$AA?$AA@ 0000000140044c28     LIBCMT:winapinls.obj
 0002:00004c38       ??_C@_1M@KBMAIBFN@?$AAv?$AAi?$AA?9?$AAV?$AAN?$AA?$AA@ 0000000140044c38     LIBCMT:winapinls.obj
 0002:00004c48       ??_C@_1M@GPCBKDJK@?$AAh?$AAy?$AA?9?$AAA?$AAM?$AA?$AA@ 0000000140044c48     LIBCMT:winapinls.obj
 0002:00004c58       ??_C@_1BG@BECMDDJB@?$AAa?$AAz?$AA?9?$AAA?$AAZ?$AA?9?$AAL?$AAa?$AAt?$AAn?$AA?$AA@ 0000000140044c58     LIBCMT:winapinls.obj
 0002:00004c70       ??_C@_1M@MAOFCAEA@?$AAe?$AAu?$AA?9?$AAE?$AAS?$AA?$AA@ 0000000140044c70     LIBCMT:winapinls.obj
 0002:00004c80       ??_C@_1M@IGHABKPI@?$AAm?$AAk?$AA?9?$AAM?$AAK?$AA?$AA@ 0000000140044c80     LIBCMT:winapinls.obj
 0002:00004c90       ??_C@_1M@IAIGNEJG@?$AAt?$AAn?$AA?9?$AAZ?$AAA?$AA?$AA@ 0000000140044c90     LIBCMT:winapinls.obj
 0002:00004ca0       ??_C@_1M@IIJCOJFA@?$AAx?$AAh?$AA?9?$AAZ?$AAA?$AA?$AA@ 0000000140044ca0     LIBCMT:winapinls.obj
 0002:00004cb0       ??_C@_1M@LGPJHNJH@?$AAz?$AAu?$AA?9?$AAZ?$AAA?$AA?$AA@ 0000000140044cb0     LIBCMT:winapinls.obj
 0002:00004cc0       ??_C@_1M@HOKAOIO@?$AAa?$AAf?$AA?9?$AAZ?$AAA?$AA?$AA@ 0000000140044cc0     LIBCMT:winapinls.obj
 0002:00004cd0       ??_C@_1M@DPCLHLIE@?$AAk?$AAa?$AA?9?$AAG?$AAE?$AA?$AA@ 0000000140044cd0     LIBCMT:winapinls.obj
 0002:00004ce0       ??_C@_1M@BLKMHJBI@?$AAf?$AAo?$AA?9?$AAF?$AAO?$AA?$AA@ 0000000140044ce0     LIBCMT:winapinls.obj
 0002:00004cf0       ??_C@_1M@LGGJAPPB@?$AAh?$AAi?$AA?9?$AAI?$AAN?$AA?$AA@ 0000000140044cf0     LIBCMT:winapinls.obj
 0002:00004d00       ??_C@_1M@FIKPIHFE@?$AAm?$AAt?$AA?9?$AAM?$AAT?$AA?$AA@ 0000000140044d00     LIBCMT:winapinls.obj
 0002:00004d10       ??_C@_1M@HEGGPBFA@?$AAs?$AAe?$AA?9?$AAN?$AAO?$AA?$AA@ 0000000140044d10     LIBCMT:winapinls.obj
 0002:00004d20       ??_C@_1M@EIBJEEPA@?$AAm?$AAs?$AA?9?$AAM?$AAY?$AA?$AA@ 0000000140044d20     LIBCMT:winapinls.obj
 0002:00004d30       ??_C@_1M@FHLBGMPP@?$AAk?$AAk?$AA?9?$AAK?$AAZ?$AA?$AA@ 0000000140044d30     LIBCMT:winapinls.obj
 0002:00004d40       ??_C@_1M@NGJJLCGI@?$AAk?$AAy?$AA?9?$AAK?$AAG?$AA?$AA@ 0000000140044d40     LIBCMT:winapinls.obj
 0002:00004d50       ??_C@_1M@GIENNBFC@?$AAs?$AAw?$AA?9?$AAK?$AAE?$AA?$AA@ 0000000140044d50     LIBCMT:winapinls.obj
 0002:00004d60       ??_C@_1BG@NDGMJIMJ@?$AAu?$AAz?$AA?9?$AAU?$AAZ?$AA?9?$AAL?$AAa?$AAt?$AAn?$AA?$AA@ 0000000140044d60     LIBCMT:winapinls.obj
 0002:00004d78       ??_C@_1M@IDCCIHBC@?$AAt?$AAt?$AA?9?$AAR?$AAU?$AA?$AA@ 0000000140044d78     LIBCMT:winapinls.obj
 0002:00004d88       ??_C@_1M@LOICPMOJ@?$AAb?$AAn?$AA?9?$AAI?$AAN?$AA?$AA@ 0000000140044d88     LIBCMT:winapinls.obj
 0002:00004d98       ??_C@_1M@KPKKNEAH@?$AAp?$AAa?$AA?9?$AAI?$AAN?$AA?$AA@ 0000000140044d98     LIBCMT:winapinls.obj
 0002:00004da8       ??_C@_1M@PJGPPBOG@?$AAg?$AAu?$AA?9?$AAI?$AAN?$AA?$AA@ 0000000140044da8     LIBCMT:winapinls.obj
 0002:00004db8       ??_C@_1M@KMKMOPHI@?$AAt?$AAa?$AA?9?$AAI?$AAN?$AA?$AA@ 0000000140044db8     LIBCMT:winapinls.obj
 0002:00004dc8       ??_C@_1M@KFEHEPAC@?$AAt?$AAe?$AA?9?$AAI?$AAN?$AA?$AA@ 0000000140044dc8     LIBCMT:winapinls.obj
 0002:00004dd8       ??_C@_1M@CDCLMGHI@?$AAk?$AAn?$AA?9?$AAI?$AAN?$AA?$AA@ 0000000140044dd8     LIBCMT:winapinls.obj
 0002:00004de8       ??_C@_1M@MIODLDKF@?$AAm?$AAl?$AA?9?$AAI?$AAN?$AA?$AA@ 0000000140044de8     LIBCMT:winapinls.obj
 0002:00004df8       ??_C@_1M@PBIEACPO@?$AAm?$AAr?$AA?9?$AAI?$AAN?$AA?$AA@ 0000000140044df8     LIBCMT:winapinls.obj
 0002:00004e08       ??_C@_1M@NIDEAGPH@?$AAs?$AAa?$AA?9?$AAI?$AAN?$AA?$AA@ 0000000140044e08     LIBCMT:winapinls.obj
 0002:00004e18       ??_C@_1M@FHIHCBIO@?$AAm?$AAn?$AA?9?$AAM?$AAN?$AA?$AA@ 0000000140044e18     LIBCMT:winapinls.obj
 0002:00004e28       ??_C@_1M@JAIJPENP@?$AAc?$AAy?$AA?9?$AAG?$AAB?$AA?$AA@ 0000000140044e28     LIBCMT:winapinls.obj
 0002:00004e38       ??_C@_1M@PHGFBEPN@?$AAg?$AAl?$AA?9?$AAE?$AAS?$AA?$AA@ 0000000140044e38     LIBCMT:winapinls.obj
 0002:00004e48       ??_C@_1O@KPIPDNCP@?$AAk?$AAo?$AAk?$AA?9?$AAI?$AAN?$AA?$AA@ 0000000140044e48     LIBCMT:winapinls.obj
 0002:00004e58       ??_C@_1O@KNHJLDJA@?$AAs?$AAy?$AAr?$AA?9?$AAS?$AAY?$AA?$AA@ 0000000140044e58     LIBCMT:winapinls.obj
 0002:00004e68       ??_C@_1O@MKEKBLAH@?$AAd?$AAi?$AAv?$AA?9?$AAM?$AAV?$AA?$AA@ 0000000140044e68     LIBCMT:winapinls.obj
 0002:00004e78       ??_C@_1O@OHDCKDDF@?$AAq?$AAu?$AAz?$AA?9?$AAB?$AAO?$AA?$AA@ 0000000140044e78     LIBCMT:winapinls.obj
 0002:00004e88       ??_C@_1M@LEPJNLFD@?$AAn?$AAs?$AA?9?$AAZ?$AAA?$AA?$AA@ 0000000140044e88     LIBCMT:winapinls.obj
 0002:00004e98       ??_C@_1M@OMLEIIJB@?$AAm?$AAi?$AA?9?$AAN?$AAZ?$AA?$AA@ 0000000140044e98     LIBCMT:winapinls.obj
 0002:00004ea8       ??_C@_1M@PMPEAILG@?$AAa?$AAr?$AA?9?$AAI?$AAQ?$AA?$AA@ 0000000140044ea8     LIBCMT:winapinls.obj
 0002:00004eb8       ??_C@_1M@CNKPNOEE@?$AAd?$AAe?$AA?9?$AAC?$AAH?$AA?$AA@ 0000000140044eb8     LIBCMT:winapinls.obj
 0002:00004ec8       ??_C@_1M@LKMGMLKO@?$AAe?$AAn?$AA?9?$AAG?$AAB?$AA?$AA@ 0000000140044ec8     LIBCMT:winapinls.obj
 0002:00004ed8       ??_C@_1M@PGKJFFGL@?$AAe?$AAs?$AA?9?$AAM?$AAX?$AA?$AA@ 0000000140044ed8     LIBCMT:winapinls.obj
 0002:00004ee8       ??_C@_1M@DNNANBDC@?$AAf?$AAr?$AA?9?$AAB?$AAE?$AA?$AA@ 0000000140044ee8     LIBCMT:winapinls.obj
 0002:00004ef8       ??_C@_1M@HLGMDFHM@?$AAi?$AAt?$AA?9?$AAC?$AAH?$AA?$AA@ 0000000140044ef8     LIBCMT:winapinls.obj
 0002:00004f08       ??_C@_1M@CLLBGJH@?$AAn?$AAl?$AA?9?$AAB?$AAE?$AA?$AA@ 0000000140044f08     LIBCMT:winapinls.obj
 0002:00004f18       ??_C@_1M@BODBOGLF@?$AAn?$AAn?$AA?9?$AAN?$AAO?$AA?$AA@ 0000000140044f18     LIBCMT:winapinls.obj
 0002:00004f28       ??_C@_1M@HFFAHKAD@?$AAp?$AAt?$AA?9?$AAP?$AAT?$AA?$AA@ 0000000140044f28     LIBCMT:winapinls.obj
 0002:00004f38       ??_C@_1BG@LNOAKHIE@?$AAs?$AAr?$AA?9?$AAS?$AAP?$AA?9?$AAL?$AAa?$AAt?$AAn?$AA?$AA@ 0000000140044f38     LIBCMT:winapinls.obj
 0002:00004f50       ??_C@_1M@HBMHBGAK@?$AAs?$AAv?$AA?9?$AAF?$AAI?$AA?$AA@ 0000000140044f50     LIBCMT:winapinls.obj
 0002:00004f60       ??_C@_1BG@DGCJGJBE@?$AAa?$AAz?$AA?9?$AAA?$AAZ?$AA?9?$AAC?$AAy?$AAr?$AAl?$AA?$AA@ 0000000140044f60     LIBCMT:winapinls.obj
 0002:00004f78       ??_C@_1M@KEJDAAHB@?$AAs?$AAe?$AA?9?$AAS?$AAE?$AA?$AA@ 0000000140044f78     LIBCMT:winapinls.obj
 0002:00004f88       ??_C@_1M@HEIBJJAD@?$AAm?$AAs?$AA?9?$AAB?$AAN?$AA?$AA@ 0000000140044f88     LIBCMT:winapinls.obj
 0002:00004f98       ??_C@_1BG@PBGJMCEM@?$AAu?$AAz?$AA?9?$AAU?$AAZ?$AA?9?$AAC?$AAy?$AAr?$AAl?$AA?$AA@ 0000000140044f98     LIBCMT:winapinls.obj
 0002:00004fb0       ??_C@_1O@LAOBCMDF@?$AAq?$AAu?$AAz?$AA?9?$AAE?$AAC?$AA?$AA@ 0000000140044fb0     LIBCMT:winapinls.obj
 0002:00004fc0       ??_C@_1M@POEEMAIO@?$AAa?$AAr?$AA?9?$AAE?$AAG?$AA?$AA@ 0000000140044fc0     LIBCMT:winapinls.obj
 0002:00004fd0       ??_C@_1M@EFAKDEDL@?$AAz?$AAh?$AA?9?$AAH?$AAK?$AA?$AA@ 0000000140044fd0     LIBCMT:winapinls.obj
 0002:00004fe0       ??_C@_1M@HKKIJHGI@?$AAd?$AAe?$AA?9?$AAA?$AAT?$AA?$AA@ 0000000140044fe0     LIBCMT:winapinls.obj
 0002:00004ff0       ??_C@_1M@KBFBEHJF@?$AAe?$AAn?$AA?9?$AAA?$AAU?$AA?$AA@ 0000000140044ff0     LIBCMT:winapinls.obj
 0002:00005000       ??_C@_1M@MNPLFAAH@?$AAe?$AAs?$AA?9?$AAE?$AAS?$AA?$AA@ 0000000140045000     LIBCMT:winapinls.obj
 0002:00005010       ??_C@_1M@HJOOJFMA@?$AAf?$AAr?$AA?9?$AAC?$AAA?$AA?$AA@ 0000000140045010     LIBCMT:winapinls.obj
 0002:00005020       ??_C@_1BG@JPOFPNAB@?$AAs?$AAr?$AA?9?$AAS?$AAP?$AA?9?$AAC?$AAy?$AAr?$AAl?$AA?$AA@ 0000000140045020     LIBCMT:winapinls.obj
 0002:00005038       ??_C@_1M@LNFOCMOB@?$AAs?$AAe?$AA?9?$AAF?$AAI?$AA?$AA@ 0000000140045038     LIBCMT:winapinls.obj
 0002:00005048       ??_C@_1O@MGJBOAMB@?$AAq?$AAu?$AAz?$AA?9?$AAP?$AAE?$AA?$AA@ 0000000140045048     LIBCMT:winapinls.obj
 0002:00005058       ??_C@_1M@GJINLBOK@?$AAa?$AAr?$AA?9?$AAL?$AAY?$AA?$AA@ 0000000140045058     LIBCMT:winapinls.obj
 0002:00005068       ??_C@_1M@GGMNHJNL@?$AAz?$AAh?$AA?9?$AAS?$AAG?$AA?$AA@ 0000000140045068     LIBCMT:winapinls.obj
 0002:00005078       ??_C@_1M@HOIKODND@?$AAd?$AAe?$AA?9?$AAL?$AAU?$AA?$AA@ 0000000140045078     LIBCMT:winapinls.obj
 0002:00005088       ??_C@_1M@DDOCCGFG@?$AAe?$AAn?$AA?9?$AAC?$AAA?$AA?$AA@ 0000000140045088     LIBCMT:winapinls.obj
 0002:00005098       ??_C@_1M@BNOEMJLF@?$AAe?$AAs?$AA?9?$AAG?$AAT?$AA?$AA@ 0000000140045098     LIBCMT:winapinls.obj
 0002:000050a8       ??_C@_1M@EOGNKEK@?$AAf?$AAr?$AA?9?$AAC?$AAH?$AA?$AA@ 00000001400450a8     LIBCMT:winapinls.obj
 0002:000050b8       ??_C@_1M@FLIDJFHL@?$AAh?$AAr?$AA?9?$AAB?$AAA?$AA?$AA@ 00000001400450b8     LIBCMT:winapinls.obj
 0002:000050c8       ??_C@_1O@FMCELNAJ@?$AAs?$AAm?$AAj?$AA?9?$AAN?$AAO?$AA?$AA@ 00000001400450c8     LIBCMT:winapinls.obj
 0002:000050d8       ??_C@_1M@JHGLJMGJ@?$AAa?$AAr?$AA?9?$AAD?$AAZ?$AA?$AA@ 00000001400450d8     LIBCMT:winapinls.obj
 0002:000050e8       ??_C@_1M@JKKFDCNP@?$AAz?$AAh?$AA?9?$AAM?$AAO?$AA?$AA@ 00000001400450e8     LIBCMT:winapinls.obj
 0002:000050f8       ??_C@_1M@GEEFALPE@?$AAd?$AAe?$AA?9?$AAL?$AAI?$AA?$AA@ 00000001400450f8     LIBCMT:winapinls.obj
 0002:00005108       ??_C@_1M@IGEOFBG@?$AAe?$AAn?$AA?9?$AAN?$AAZ?$AA?$AA@ 0000000140045108     LIBCMT:winapinls.obj
 0002:00005118       ??_C@_1M@KDBONEHP@?$AAe?$AAs?$AA?9?$AAC?$AAR?$AA?$AA@ 0000000140045118     LIBCMT:winapinls.obj
 0002:00005128       ??_C@_1M@FHMDOHNN@?$AAf?$AAr?$AA?9?$AAL?$AAU?$AA?$AA@ 0000000140045128     LIBCMT:winapinls.obj
 0002:00005138       ??_C@_1BG@NFKKMAFG@?$AAb?$AAs?$AA?9?$AAB?$AAA?$AA?9?$AAL?$AAa?$AAt?$AAn?$AA?$AA@ 0000000140045138     LIBCMT:winapinls.obj
 0002:00005150       ??_C@_1O@IMNBEMCI@?$AAs?$AAm?$AAj?$AA?9?$AAS?$AAE?$AA?$AA@ 0000000140045150     LIBCMT:winapinls.obj
 0002:00005160       ??_C@_1M@DHHMBNDP@?$AAa?$AAr?$AA?9?$AAM?$AAA?$AA?$AA@ 0000000140045160     LIBCMT:winapinls.obj
 0002:00005170       ??_C@_1M@BNBLJCGH@?$AAe?$AAn?$AA?9?$AAI?$AAE?$AA?$AA@ 0000000140045170     LIBCMT:winapinls.obj
 0002:00005180       ??_C@_1M@GEPAFMDL@?$AAe?$AAs?$AA?9?$AAP?$AAA?$AA?$AA@ 0000000140045180     LIBCMT:winapinls.obj
 0002:00005190       ??_C@_1M@OJONDMDL@?$AAf?$AAr?$AA?9?$AAM?$AAC?$AA?$AA@ 0000000140045190     LIBCMT:winapinls.obj
 0002:000051a0       ??_C@_1BG@OBCNFJB@?$AAs?$AAr?$AA?9?$AAB?$AAA?$AA?9?$AAL?$AAa?$AAt?$AAn?$AA?$AA@ 00000001400451a0     LIBCMT:winapinls.obj
 0002:000051b8       ??_C@_1O@KEMEEGPO@?$AAs?$AAm?$AAa?$AA?9?$AAN?$AAO?$AA?$AA@ 00000001400451b8     LIBCMT:winapinls.obj
 0002:000051c8       ??_C@_1M@ELMGFODK@?$AAa?$AAr?$AA?9?$AAT?$AAN?$AA?$AA@ 00000001400451c8     LIBCMT:winapinls.obj
 0002:000051d8       ??_C@_1M@BHDLHFAF@?$AAe?$AAn?$AA?9?$AAZ?$AAA?$AA?$AA@ 00000001400451d8     LIBCMT:winapinls.obj
 0002:000051e8       ??_C@_1M@BMGIGLIF@?$AAe?$AAs?$AA?9?$AAD?$AAO?$AA?$AA@ 00000001400451e8     LIBCMT:winapinls.obj
 0002:000051f8       ??_C@_1BG@CMBHIPBE@?$AAs?$AAr?$AA?9?$AAB?$AAA?$AA?9?$AAC?$AAy?$AAr?$AAl?$AA?$AA@ 00000001400451f8     LIBCMT:winapinls.obj
 0002:00005210       ??_C@_1O@HEDBLHNP@?$AAs?$AAm?$AAa?$AA?9?$AAS?$AAE?$AA?$AA@ 0000000140045210     LIBCMT:winapinls.obj
 0002:00005220       ??_C@_1M@DAGCADIM@?$AAa?$AAr?$AA?9?$AAO?$AAM?$AA?$AA@ 0000000140045220     LIBCMT:winapinls.obj
 0002:00005230       ??_C@_1M@FODLMICG@?$AAe?$AAn?$AA?9?$AAJ?$AAM?$AA?$AA@ 0000000140045230     LIBCMT:winapinls.obj
 0002:00005240       ??_C@_1M@DNMLCIHB@?$AAe?$AAs?$AA?9?$AAV?$AAE?$AA?$AA@ 0000000140045240     LIBCMT:winapinls.obj
 0002:00005250       ??_C@_1O@EOKHMKJK@?$AAs?$AAm?$AAs?$AA?9?$AAF?$AAI?$AA?$AA@ 0000000140045250     LIBCMT:winapinls.obj
 0002:00005260       ??_C@_1M@CAFJMKOF@?$AAa?$AAr?$AA?9?$AAY?$AAE?$AA?$AA@ 0000000140045260     LIBCMT:winapinls.obj
 0002:00005270       ??_C@_1M@CBFHIJLI@?$AAe?$AAn?$AA?9?$AAC?$AAB?$AA?$AA@ 0000000140045270     LIBCMT:winapinls.obj
 0002:00005280       ??_C@_1M@BGNFLDN@?$AAe?$AAs?$AA?9?$AAC?$AAO?$AA?$AA@ 0000000140045280     LIBCMT:winapinls.obj
 0002:00005290       ??_C@_1O@JMPHMAMC@?$AAs?$AAm?$AAn?$AA?9?$AAF?$AAI?$AA?$AA@ 0000000140045290     LIBCMT:winapinls.obj
 0002:000052a0       ??_C@_1M@JLANABKE@?$AAa?$AAr?$AA?9?$AAS?$AAY?$AA?$AA@ 00000001400452a0     LIBCMT:winapinls.obj
 0002:000052b0       ??_C@_1M@HPKGCFGN@?$AAe?$AAn?$AA?9?$AAB?$AAZ?$AA?$AA@ 00000001400452b0     LIBCMT:winapinls.obj
 0002:000052c0       ??_C@_1M@OLJCMLGM@?$AAe?$AAs?$AA?9?$AAP?$AAE?$AA?$AA@ 00000001400452c0     LIBCMT:winapinls.obj
 0002:000052d0       ??_C@_1M@MKKGFKLE@?$AAa?$AAr?$AA?9?$AAJ?$AAO?$AA?$AA@ 00000001400452d0     LIBCMT:winapinls.obj
 0002:000052e0       ??_C@_1M@EKPGLDNI@?$AAe?$AAn?$AA?9?$AAT?$AAT?$AA?$AA@ 00000001400452e0     LIBCMT:winapinls.obj
 0002:000052f0       ??_C@_1M@OONGHFHE@?$AAe?$AAs?$AA?9?$AAA?$AAR?$AA?$AA@ 00000001400452f0     LIBCMT:winapinls.obj
 0002:00005300       ??_C@_1M@OOJFGBHE@?$AAa?$AAr?$AA?9?$AAL?$AAB?$AA?$AA@ 0000000140045300     LIBCMT:winapinls.obj
 0002:00005310       ??_C@_1M@GCEJHNEG@?$AAe?$AAn?$AA?9?$AAZ?$AAW?$AA?$AA@ 0000000140045310     LIBCMT:winapinls.obj
 0002:00005320       ??_C@_1M@JNOCAHJI@?$AAe?$AAs?$AA?9?$AAE?$AAC?$AA?$AA@ 0000000140045320     LIBCMT:winapinls.obj
 0002:00005330       ??_C@_1M@JEFHPGGB@?$AAa?$AAr?$AA?9?$AAK?$AAW?$AA?$AA@ 0000000140045330     LIBCMT:winapinls.obj
 0002:00005340       ??_C@_1M@MLKIBJOJ@?$AAe?$AAn?$AA?9?$AAP?$AAH?$AA?$AA@ 0000000140045340     LIBCMT:winapinls.obj
 0002:00005350       ??_C@_1M@BDNIPEND@?$AAe?$AAs?$AA?9?$AAC?$AAL?$AA?$AA@ 0000000140045350     LIBCMT:winapinls.obj
 0002:00005360       ??_C@_1M@MPNMEKBD@?$AAa?$AAr?$AA?9?$AAA?$AAE?$AA?$AA@ 0000000140045360     LIBCMT:winapinls.obj
 0002:00005370       ??_C@_1M@KBJALCPI@?$AAe?$AAs?$AA?9?$AAU?$AAY?$AA?$AA@ 0000000140045370     LIBCMT:winapinls.obj
 0002:00005380       ??_C@_1M@LLCCOAGA@?$AAa?$AAr?$AA?9?$AAB?$AAH?$AA?$AA@ 0000000140045380     LIBCMT:winapinls.obj
 0002:00005390       ??_C@_1M@PBFNCDEL@?$AAe?$AAs?$AA?9?$AAP?$AAY?$AA?$AA@ 0000000140045390     LIBCMT:winapinls.obj
 0002:000053a0       ??_C@_1M@EDGINPNP@?$AAa?$AAr?$AA?9?$AAQ?$AAA?$AA?$AA@ 00000001400453a0     LIBCMT:winapinls.obj
 0002:000053b0       ??_C@_1M@MKDBIIJI@?$AAe?$AAs?$AA?9?$AAB?$AAO?$AA?$AA@ 00000001400453b0     LIBCMT:winapinls.obj
 0002:000053c0       ??_C@_1M@CPKKEBLD@?$AAe?$AAs?$AA?9?$AAS?$AAV?$AA?$AA@ 00000001400453c0     LIBCMT:winapinls.obj
 0002:000053d0       ??_C@_1M@NDBGMMJL@?$AAe?$AAs?$AA?9?$AAH?$AAN?$AA?$AA@ 00000001400453d0     LIBCMT:winapinls.obj
 0002:000053e0       ??_C@_1M@JIJIBHDP@?$AAe?$AAs?$AA?9?$AAN?$AAI?$AA?$AA@ 00000001400453e0     LIBCMT:winapinls.obj
 0002:000053f0       ??_C@_1M@CGFMKEEK@?$AAe?$AAs?$AA?9?$AAP?$AAR?$AA?$AA@ 00000001400453f0     LIBCMT:winapinls.obj
 0002:00005400       ??_C@_1O@ICJHKIIK@?$AAz?$AAh?$AA?9?$AAC?$AAH?$AAT?$AA?$AA@ 0000000140045400     LIBCMT:winapinls.obj
 0002:00005410       ??_C@_15CLNEJCE@?$AAs?$AAr?$AA?$AA@ 0000000140045410     LIBCMT:winapinls.obj
 0002:00005418       ??_C@_1M@KAHEKEIG@?$AAa?$AAf?$AA?9?$AAz?$AAa?$AA?$AA@ 0000000140045418     LIBCMT:winapinls.obj
 0002:00005428       ??_C@_1M@GIECOABL@?$AAa?$AAr?$AA?9?$AAa?$AAe?$AA?$AA@ 0000000140045428     LIBCMT:winapinls.obj
 0002:00005438       ??_C@_1M@BMLMEKGI@?$AAa?$AAr?$AA?9?$AAb?$AAh?$AA?$AA@ 0000000140045438     LIBCMT:winapinls.obj
 0002:00005448       ??_C@_1M@DAPFDGGB@?$AAa?$AAr?$AA?9?$AAd?$AAz?$AA?$AA@ 0000000140045448     LIBCMT:winapinls.obj
 0002:00005458       ??_C@_1M@FJNKGKIG@?$AAa?$AAr?$AA?9?$AAe?$AAg?$AA?$AA@ 0000000140045458     LIBCMT:winapinls.obj
 0002:00005468       ??_C@_1M@FLGKKCLO@?$AAa?$AAr?$AA?9?$AAi?$AAq?$AA?$AA@ 0000000140045468     LIBCMT:winapinls.obj
 0002:00005478       ??_C@_1M@GNDIPALM@?$AAa?$AAr?$AA?9?$AAj?$AAo?$AA?$AA@ 0000000140045478     LIBCMT:winapinls.obj
 0002:00005488       ??_C@_1M@DDMJFMGJ@?$AAa?$AAr?$AA?9?$AAk?$AAw?$AA?$AA@ 0000000140045488     LIBCMT:winapinls.obj
 0002:00005498       ??_C@_1M@EJALMLHM@?$AAa?$AAr?$AA?9?$AAl?$AAb?$AA?$AA@ 0000000140045498     LIBCMT:winapinls.obj
 0002:000054a8       ??_C@_1M@MOBDBLOC@?$AAa?$AAr?$AA?9?$AAl?$AAy?$AA?$AA@ 00000001400454a8     LIBCMT:winapinls.obj
 0002:000054b8       ??_C@_1M@JAOCLHDH@?$AAa?$AAr?$AA?9?$AAm?$AAa?$AA?$AA@ 00000001400454b8     LIBCMT:winapinls.obj
 0002:000054c8       ??_C@_1M@JHPMKJIE@?$AAa?$AAr?$AA?9?$AAo?$AAm?$AA?$AA@ 00000001400454c8     LIBCMT:winapinls.obj
 0002:000054d8       ??_C@_1M@OEPGHFNH@?$AAa?$AAr?$AA?9?$AAq?$AAa?$AA?$AA@ 00000001400454d8     LIBCMT:winapinls.obj
 0002:000054e8       ??_C@_1M@KJDONENM@?$AAa?$AAr?$AA?9?$AAs?$AAa?$AA?$AA@ 00000001400454e8     LIBCMT:winapinls.obj
 0002:000054f8       ??_C@_1M@DMJDKLKM@?$AAa?$AAr?$AA?9?$AAs?$AAy?$AA?$AA@ 00000001400454f8     LIBCMT:winapinls.obj
 0002:00005508       ??_C@_1M@OMFIPEDC@?$AAa?$AAr?$AA?9?$AAt?$AAn?$AA?$AA@ 0000000140045508     LIBCMT:winapinls.obj
 0002:00005518       ??_C@_1M@IHMHGAON@?$AAa?$AAr?$AA?9?$AAy?$AAe?$AA?$AA@ 0000000140045518     LIBCMT:winapinls.obj
 0002:00005528       ??_C@_1BG@KDCPGJGB@?$AAa?$AAz?$AA?9?$AAa?$AAz?$AA?9?$AAc?$AAy?$AAr?$AAl?$AA?$AA@ 0000000140045528     LIBCMT:winapinls.obj
 0002:00005540       ??_C@_1BG@IBCKDDOE@?$AAa?$AAz?$AA?9?$AAa?$AAz?$AA?9?$AAl?$AAa?$AAt?$AAn?$AA?$AA@ 0000000140045540     LIBCMT:winapinls.obj
 0002:00005558       ??_C@_1M@EGPFDCPD@?$AAb?$AAe?$AA?9?$AAb?$AAy?$AA?$AA@ 0000000140045558     LIBCMT:winapinls.obj
 0002:00005568       ??_C@_1M@PCMGMCGC@?$AAb?$AAg?$AA?9?$AAb?$AAg?$AA?$AA@ 0000000140045568     LIBCMT:winapinls.obj
 0002:00005578       ??_C@_1M@BJBMFGOB@?$AAb?$AAn?$AA?9?$AAi?$AAn?$AA?$AA@ 0000000140045578     LIBCMT:winapinls.obj
 0002:00005588       ??_C@_1BG@EAKMMACD@?$AAb?$AAs?$AA?9?$AAb?$AAa?$AA?9?$AAl?$AAa?$AAt?$AAn?$AA?$AA@ 0000000140045588     LIBCMT:winapinls.obj
 0002:000055a0       ??_C@_1M@KGADAODK@?$AAc?$AAa?$AA?9?$AAe?$AAs?$AA?$AA@ 00000001400455a0     LIBCMT:winapinls.obj
 0002:000055b0       ??_C@_1M@COAJPDHI@?$AAc?$AAs?$AA?9?$AAc?$AAz?$AA?$AA@ 00000001400455b0     LIBCMT:winapinls.obj
 0002:000055c0       ??_C@_1M@DHBHFONH@?$AAc?$AAy?$AA?9?$AAg?$AAb?$AA?$AA@ 00000001400455c0     LIBCMT:winapinls.obj
 0002:000055d0       ??_C@_1M@IMGKELGA@?$AAd?$AAa?$AA?9?$AAd?$AAk?$AA?$AA@ 00000001400455d0     LIBCMT:winapinls.obj
 0002:000055e0       ??_C@_1M@NNDGDNGA@?$AAd?$AAe?$AA?9?$AAa?$AAt?$AA?$AA@ 00000001400455e0     LIBCMT:winapinls.obj
 0002:000055f0       ??_C@_1M@IKDBHEEM@?$AAd?$AAe?$AA?9?$AAc?$AAh?$AA?$AA@ 00000001400455f0     LIBCMT:winapinls.obj
 0002:00005600       ??_C@_1M@GFFOJMCJ@?$AAd?$AAe?$AA?9?$AAd?$AAe?$AA?$AA@ 0000000140045600     LIBCMT:winapinls.obj
 0002:00005610       ??_C@_1M@MDNLKBPM@?$AAd?$AAe?$AA?9?$AAl?$AAi?$AA?$AA@ 0000000140045610     LIBCMT:winapinls.obj
 0002:00005620       ??_C@_1M@NJBEEJNL@?$AAd?$AAe?$AA?9?$AAl?$AAu?$AA?$AA@ 0000000140045620     LIBCMT:winapinls.obj
 0002:00005630       ??_C@_1O@GNNELBAP@?$AAd?$AAi?$AAv?$AA?9?$AAm?$AAv?$AA?$AA@ 0000000140045630     LIBCMT:winapinls.obj
 0002:00005640       ??_C@_1M@EJLEOGAE@?$AAe?$AAl?$AA?9?$AAg?$AAr?$AA?$AA@ 0000000140045640     LIBCMT:winapinls.obj
 0002:00005650       ??_C@_1M@GMPONJN@?$AAe?$AAn?$AA?9?$AAa?$AAu?$AA?$AA@ 0000000140045650     LIBCMT:winapinls.obj
 0002:00005660       ??_C@_1M@NIDIIPGF@?$AAe?$AAn?$AA?9?$AAb?$AAz?$AA?$AA@ 0000000140045660     LIBCMT:winapinls.obj
 0002:00005670       ??_C@_1M@JEHMIMFO@?$AAe?$AAn?$AA?9?$AAc?$AAa?$AA?$AA@ 0000000140045670     LIBCMT:winapinls.obj
 0002:00005680       ??_C@_1M@IGMJCDLA@?$AAe?$AAn?$AA?9?$AAc?$AAb?$AA?$AA@ 0000000140045680     LIBCMT:winapinls.obj
 0002:00005690       ??_C@_1M@BNFIGBKG@?$AAe?$AAn?$AA?9?$AAg?$AAb?$AA?$AA@ 0000000140045690     LIBCMT:winapinls.obj
 0002:000056a0       ??_C@_1M@LKIFDIGP@?$AAe?$AAn?$AA?9?$AAi?$AAe?$AA?$AA@ 00000001400456a0     LIBCMT:winapinls.obj
 0002:000056b0       ??_C@_1M@PJKFGCCO@?$AAe?$AAn?$AA?9?$AAj?$AAm?$AA?$AA@ 00000001400456b0     LIBCMT:winapinls.obj
 0002:000056c0       ??_C@_1M@KPPKEPBO@?$AAe?$AAn?$AA?9?$AAn?$AAz?$AA?$AA@ 00000001400456c0     LIBCMT:winapinls.obj
 0002:000056d0       ??_C@_1M@GMDGLDOB@?$AAe?$AAn?$AA?9?$AAp?$AAh?$AA?$AA@ 00000001400456d0     LIBCMT:winapinls.obj
 0002:000056e0       ??_C@_1M@ONGIBJNA@?$AAe?$AAn?$AA?9?$AAt?$AAt?$AA?$AA@ 00000001400456e0     LIBCMT:winapinls.obj
 0002:000056f0       ??_C@_1M@LLODPCMM@?$AAe?$AAn?$AA?9?$AAu?$AAs?$AA?$AA@ 00000001400456f0     LIBCMT:winapinls.obj
 0002:00005700       ??_C@_1M@LAKFNPAN@?$AAe?$AAn?$AA?9?$AAz?$AAa?$AA?$AA@ 0000000140045700     LIBCMT:winapinls.obj
 0002:00005710       ??_C@_1M@MFNHNHEO@?$AAe?$AAn?$AA?9?$AAz?$AAw?$AA?$AA@ 0000000140045710     LIBCMT:winapinls.obj
 0002:00005720       ??_C@_1M@EJEINPHM@?$AAe?$AAs?$AA?9?$AAa?$AAr?$AA?$AA@ 0000000140045720     LIBCMT:winapinls.obj
 0002:00005730       ??_C@_1M@GNKPCCJA@?$AAe?$AAs?$AA?9?$AAb?$AAo?$AA?$AA@ 0000000140045730     LIBCMT:winapinls.obj
 0002:00005740       ??_C@_1M@LEEGFONL@?$AAe?$AAs?$AA?9?$AAc?$AAl?$AA?$AA@ 0000000140045740     LIBCMT:winapinls.obj
 0002:00005750       ??_C@_1M@KGPDPBDF@?$AAe?$AAs?$AA?9?$AAc?$AAo?$AA?$AA@ 0000000140045750     LIBCMT:winapinls.obj
 0002:00005760       ??_C@_1M@EIAHOHH@?$AAe?$AAs?$AA?9?$AAc?$AAr?$AA?$AA@ 0000000140045760     LIBCMT:winapinls.obj
 0002:00005770       ??_C@_1M@LLPGMBIN@?$AAe?$AAs?$AA?9?$AAd?$AAo?$AA?$AA@ 0000000140045770     LIBCMT:winapinls.obj
 0002:00005780       ??_C@_1M@DKHMKNJA@?$AAe?$AAs?$AA?9?$AAe?$AAc?$AA?$AA@ 0000000140045780     LIBCMT:winapinls.obj
 0002:00005790       ??_C@_1M@GKGFPKAP@?$AAe?$AAs?$AA?9?$AAe?$AAs?$AA?$AA@ 0000000140045790     LIBCMT:winapinls.obj
 0002:000057a0       ??_C@_1M@LKHKGDLN@?$AAe?$AAs?$AA?9?$AAg?$AAt?$AA?$AA@ 00000001400457a0     LIBCMT:winapinls.obj
 0002:000057b0       ??_C@_1M@HEIIGGJD@?$AAe?$AAs?$AA?9?$AAh?$AAn?$AA?$AA@ 00000001400457b0     LIBCMT:winapinls.obj
 0002:000057c0       ??_C@_1M@FBDHPPGD@?$AAe?$AAs?$AA?9?$AAm?$AAx?$AA?$AA@ 00000001400457c0     LIBCMT:winapinls.obj
 0002:000057d0       ??_C@_1M@DPAGLNDH@?$AAe?$AAs?$AA?9?$AAn?$AAi?$AA?$AA@ 00000001400457d0     LIBCMT:winapinls.obj
 0002:000057e0       ??_C@_1M@MDGOPGDD@?$AAe?$AAs?$AA?9?$AAp?$AAa?$AA?$AA@ 00000001400457e0     LIBCMT:winapinls.obj
 0002:000057f0       ??_C@_1M@EMAMGBGE@?$AAe?$AAs?$AA?9?$AAp?$AAe?$AA?$AA@ 00000001400457f0     LIBCMT:winapinls.obj
 0002:00005800       ??_C@_1M@IBMCAOEC@?$AAe?$AAs?$AA?9?$AAp?$AAr?$AA?$AA@ 0000000140045800     LIBCMT:winapinls.obj
 0002:00005810       ??_C@_1M@FGMDIJED@?$AAe?$AAs?$AA?9?$AAp?$AAy?$AA?$AA@ 0000000140045810     LIBCMT:winapinls.obj
 0002:00005820       ??_C@_1M@IIDEOLLL@?$AAe?$AAs?$AA?9?$AAs?$AAv?$AA?$AA@ 0000000140045820     LIBCMT:winapinls.obj
 0002:00005830       ??_C@_1M@GAOBIPA@?$AAe?$AAs?$AA?9?$AAu?$AAy?$AA?$AA@ 0000000140045830     LIBCMT:winapinls.obj
 0002:00005840       ??_C@_1M@JKFFICHJ@?$AAe?$AAs?$AA?9?$AAv?$AAe?$AA?$AA@ 0000000140045840     LIBCMT:winapinls.obj
 0002:00005850       ??_C@_1M@PNMLOJDF@?$AAe?$AAt?$AA?9?$AAe?$AAe?$AA?$AA@ 0000000140045850     LIBCMT:winapinls.obj
 0002:00005860       ??_C@_1M@GHHLIKEI@?$AAe?$AAu?$AA?9?$AAe?$AAs?$AA?$AA@ 0000000140045860     LIBCMT:winapinls.obj
 0002:00005870       ??_C@_1M@PBNONODE@?$AAf?$AAa?$AA?9?$AAi?$AAr?$AA?$AA@ 0000000140045870     LIBCMT:winapinls.obj
 0002:00005880       ??_C@_1M@JEEHPMIL@?$AAf?$AAi?$AA?9?$AAf?$AAi?$AA?$AA@ 0000000140045880     LIBCMT:winapinls.obj
 0002:00005890       ??_C@_1M@LMDCNDBA@?$AAf?$AAo?$AA?9?$AAf?$AAo?$AA?$AA@ 0000000140045890     LIBCMT:winapinls.obj
 0002:000058a0       ??_C@_1M@JKEOHLDK@?$AAf?$AAr?$AA?9?$AAb?$AAe?$AA?$AA@ 00000001400458a0     LIBCMT:winapinls.obj
 0002:000058b0       ??_C@_1M@NOHADPMI@?$AAf?$AAr?$AA?9?$AAc?$AAa?$AA?$AA@ 00000001400458b0     LIBCMT:winapinls.obj
 0002:000058c0       ??_C@_1M@KDHIHAEC@?$AAf?$AAr?$AA?9?$AAc?$AAh?$AA?$AA@ 00000001400458c0     LIBCMT:winapinls.obj
 0002:000058d0       ??_C@_1M@MMBBFGAK@?$AAf?$AAr?$AA?9?$AAf?$AAr?$AA?$AA@ 00000001400458d0     LIBCMT:winapinls.obj
 0002:000058e0       ??_C@_1M@PAFNENNF@?$AAf?$AAr?$AA?9?$AAl?$AAu?$AA?$AA@ 00000001400458e0     LIBCMT:winapinls.obj
 0002:000058f0       ??_C@_1M@EOHDJGDD@?$AAf?$AAr?$AA?9?$AAm?$AAc?$AA?$AA@ 00000001400458f0     LIBCMT:winapinls.obj
 0002:00005900       ??_C@_1M@FAPLLOPF@?$AAg?$AAl?$AA?9?$AAe?$AAs?$AA?$AA@ 0000000140045900     LIBCMT:winapinls.obj
 0002:00005910       ??_C@_1M@FOPBFLOO@?$AAg?$AAu?$AA?9?$AAi?$AAn?$AA?$AA@ 0000000140045910     LIBCMT:winapinls.obj
 0002:00005920       ??_C@_1M@KBMCINPM@?$AAh?$AAe?$AA?9?$AAi?$AAl?$AA?$AA@ 0000000140045920     LIBCMT:winapinls.obj
 0002:00005930       ??_C@_1M@BBPHKFPJ@?$AAh?$AAi?$AA?9?$AAi?$AAn?$AA?$AA@ 0000000140045930     LIBCMT:winapinls.obj
 0002:00005940       ??_C@_1M@PMBNDPHD@?$AAh?$AAr?$AA?9?$AAb?$AAa?$AA?$AA@ 0000000140045940     LIBCMT:winapinls.obj
 0002:00005950       ??_C@_1M@BPCKOEGE@?$AAh?$AAr?$AA?9?$AAh?$AAr?$AA?$AA@ 0000000140045950     LIBCMT:winapinls.obj
 0002:00005960       ??_C@_1M@GACBMHKE@?$AAh?$AAu?$AA?9?$AAh?$AAu?$AA?$AA@ 0000000140045960     LIBCMT:winapinls.obj
 0002:00005970       ??_C@_1M@MILPAJJC@?$AAh?$AAy?$AA?9?$AAa?$AAm?$AA?$AA@ 0000000140045970     LIBCMT:winapinls.obj
 0002:00005980       ??_C@_1M@BABBICEC@?$AAi?$AAd?$AA?9?$AAi?$AAd?$AA?$AA@ 0000000140045980     LIBCMT:winapinls.obj
 0002:00005990       ??_C@_1M@BIKNHHPF@?$AAi?$AAs?$AA?9?$AAi?$AAs?$AA?$AA@ 0000000140045990     LIBCMT:winapinls.obj
 0002:000059a0       ??_C@_1M@NMPCJPHE@?$AAi?$AAt?$AA?9?$AAc?$AAh?$AA?$AA@ 00000001400459a0     LIBCMT:winapinls.obj
 0002:000059b0       ??_C@_1M@GHKGFEDF@?$AAi?$AAt?$AA?9?$AAi?$AAt?$AA?$AA@ 00000001400459b0     LIBCMT:winapinls.obj
 0002:000059c0       ??_C@_1M@NIEJCJJA@?$AAj?$AAa?$AA?9?$AAj?$AAp?$AA?$AA@ 00000001400459c0     LIBCMT:winapinls.obj
 0002:000059d0       ??_C@_1M@JILFNBIM@?$AAk?$AAa?$AA?9?$AAg?$AAe?$AA?$AA@ 00000001400459d0     LIBCMT:winapinls.obj
 0002:000059e0       ??_C@_1M@PACPMGPH@?$AAk?$AAk?$AA?9?$AAk?$AAz?$AA?$AA@ 00000001400459e0     LIBCMT:winapinls.obj
 0002:000059f0       ??_C@_1M@IELFGMHA@?$AAk?$AAn?$AA?9?$AAi?$AAn?$AA?$AA@ 00000001400459f0     LIBCMT:winapinls.obj
 0002:00005a00       ??_C@_1O@IBBJHCH@?$AAk?$AAo?$AAk?$AA?9?$AAi?$AAn?$AA?$AA@ 0000000140045a00     LIBCMT:winapinls.obj
 0002:00005a10       ??_C@_1M@DMHAEOGC@?$AAk?$AAo?$AA?9?$AAk?$AAr?$AA?$AA@ 0000000140045a10     LIBCMT:winapinls.obj
 0002:00005a20       ??_C@_1M@HBAHBIGA@?$AAk?$AAy?$AA?9?$AAk?$AAg?$AA?$AA@ 0000000140045a20     LIBCMT:winapinls.obj
 0002:00005a30       ??_C@_1M@KPMILCJG@?$AAl?$AAt?$AA?9?$AAl?$AAt?$AA?$AA@ 0000000140045a30     LIBCMT:winapinls.obj
 0002:00005a40       ??_C@_1M@BDEKKCA@?$AAl?$AAv?$AA?9?$AAl?$AAv?$AA?$AA@ 0000000140045a40     LIBCMT:winapinls.obj
 0002:00005a50       ??_C@_1M@ELCKCCJJ@?$AAm?$AAi?$AA?9?$AAn?$AAz?$AA?$AA@ 0000000140045a50     LIBCMT:winapinls.obj
 0002:00005a60       ??_C@_1M@CBOOLAPA@?$AAm?$AAk?$AA?9?$AAm?$AAk?$AA?$AA@ 0000000140045a60     LIBCMT:winapinls.obj
 0002:00005a70       ??_C@_1M@GPHNBJKN@?$AAm?$AAl?$AA?9?$AAi?$AAn?$AA?$AA@ 0000000140045a70     LIBCMT:winapinls.obj
 0002:00005a80       ??_C@_1M@PABJILIG@?$AAm?$AAn?$AA?9?$AAm?$AAn?$AA?$AA@ 0000000140045a80     LIBCMT:winapinls.obj
 0002:00005a90       ??_C@_1M@FGBKKIPG@?$AAm?$AAr?$AA?9?$AAi?$AAn?$AA?$AA@ 0000000140045a90     LIBCMT:winapinls.obj
 0002:00005aa0       ??_C@_1M@NDBPDDAL@?$AAm?$AAs?$AA?9?$AAb?$AAn?$AA?$AA@ 0000000140045aa0     LIBCMT:winapinls.obj
 0002:00005ab0       ??_C@_1M@OPIHOOPI@?$AAm?$AAs?$AA?9?$AAm?$AAy?$AA?$AA@ 0000000140045ab0     LIBCMT:winapinls.obj
 0002:00005ac0       ??_C@_1M@PPDBCNFM@?$AAm?$AAt?$AA?9?$AAm?$AAt?$AA?$AA@ 0000000140045ac0     LIBCMT:winapinls.obj
 0002:00005ad0       ??_C@_1M@KDJDKMDD@?$AAn?$AAb?$AA?9?$AAn?$AAo?$AA?$AA@ 0000000140045ad0     LIBCMT:winapinls.obj
 0002:00005ae0       ??_C@_1M@KFCFLMJP@?$AAn?$AAl?$AA?9?$AAb?$AAe?$AA?$AA@ 0000000140045ae0     LIBCMT:winapinls.obj
 0002:00005af0       ??_C@_1M@KPOPDDGO@?$AAn?$AAl?$AA?9?$AAn?$AAl?$AA?$AA@ 0000000140045af0     LIBCMT:winapinls.obj
 0002:00005b00       ??_C@_1M@LJKPEMLN@?$AAn?$AAn?$AA?9?$AAn?$AAo?$AA?$AA@ 0000000140045b00     LIBCMT:winapinls.obj
 0002:00005b10       ??_C@_1M@BDGHHBFL@?$AAn?$AAs?$AA?9?$AAz?$AAa?$AA?$AA@ 0000000140045b10     LIBCMT:winapinls.obj
 0002:00005b20       ??_C@_1M@IDEHOAP@?$AAp?$AAa?$AA?9?$AAi?$AAn?$AA?$AA@ 0000000140045b20     LIBCMT:winapinls.obj
 0002:00005b30       ??_C@_1M@HDBKGOGH@?$AAp?$AAl?$AA?9?$AAp?$AAl?$AA?$AA@ 0000000140045b30     LIBCMT:winapinls.obj
 0002:00005b40       ??_C@_1M@LJLLCMEH@?$AAp?$AAt?$AA?9?$AAb?$AAr?$AA?$AA@ 0000000140045b40     LIBCMT:winapinls.obj
 0002:00005b50       ??_C@_1M@NCMONAAL@?$AAp?$AAt?$AA?9?$AAp?$AAt?$AA?$AA@ 0000000140045b50     LIBCMT:winapinls.obj
 0002:00005b60       ??_C@_1O@EAKMAJDN@?$AAq?$AAu?$AAz?$AA?9?$AAb?$AAo?$AA?$AA@ 0000000140045b60     LIBCMT:winapinls.obj
 0002:00005b70       ??_C@_1O@BHHPIGDN@?$AAq?$AAu?$AAz?$AA?9?$AAe?$AAc?$AA?$AA@ 0000000140045b70     LIBCMT:winapinls.obj
 0002:00005b80       ??_C@_1O@GBAPEKMJ@?$AAq?$AAu?$AAz?$AA?9?$AAp?$AAe?$AA?$AA@ 0000000140045b80     LIBCMT:winapinls.obj
 0002:00005b90       ??_C@_1M@CLGLEFBO@?$AAr?$AAo?$AA?9?$AAr?$AAo?$AA?$AA@ 0000000140045b90     LIBCMT:winapinls.obj
 0002:00005ba0       ??_C@_1M@CEEDODME@?$AAr?$AAu?$AA?9?$AAr?$AAu?$AA?$AA@ 0000000140045ba0     LIBCMT:winapinls.obj
 0002:00005bb0       ??_C@_1M@HPKKKMPP@?$AAs?$AAa?$AA?9?$AAi?$AAn?$AA?$AA@ 0000000140045bb0     LIBCMT:winapinls.obj
 0002:00005bc0       ??_C@_1M@BKMAIGOJ@?$AAs?$AAe?$AA?9?$AAf?$AAi?$AA?$AA@ 0000000140045bc0     LIBCMT:winapinls.obj
 0002:00005bd0       ??_C@_1M@NDPIFLFI@?$AAs?$AAe?$AA?9?$AAn?$AAo?$AA?$AA@ 0000000140045bd0     LIBCMT:winapinls.obj
 0002:00005be0       ??_C@_1M@DANKKHJ@?$AAs?$AAe?$AA?9?$AAs?$AAe?$AA?$AA@ 0000000140045be0     LIBCMT:winapinls.obj
 0002:00005bf0       ??_C@_1M@PNBLONPJ@?$AAs?$AAk?$AA?9?$AAs?$AAk?$AA?$AA@ 0000000140045bf0     LIBCMT:winapinls.obj
 0002:00005c00       ??_C@_1M@LFMODOAL@?$AAs?$AAl?$AA?9?$AAs?$AAi?$AA?$AA@ 0000000140045c00     LIBCMT:winapinls.obj
 0002:00005c10       ??_C@_1O@DFKOMPG@?$AAs?$AAm?$AAa?$AA?9?$AAn?$AAo?$AA?$AA@ 0000000140045c10     LIBCMT:winapinls.obj
 0002:00005c20       ??_C@_1O@NDKPBNNH@?$AAs?$AAm?$AAa?$AA?9?$AAs?$AAe?$AA?$AA@ 0000000140045c20     LIBCMT:winapinls.obj
 0002:00005c30       ??_C@_1O@PLLKBHAB@?$AAs?$AAm?$AAj?$AA?9?$AAn?$AAo?$AA?$AA@ 0000000140045c30     LIBCMT:winapinls.obj
 0002:00005c40       ??_C@_1O@CLEPOGCA@?$AAs?$AAm?$AAj?$AA?9?$AAs?$AAe?$AA?$AA@ 0000000140045c40     LIBCMT:winapinls.obj
 0002:00005c50       ??_C@_1O@DLGJGKMK@?$AAs?$AAm?$AAn?$AA?9?$AAf?$AAi?$AA?$AA@ 0000000140045c50     LIBCMT:winapinls.obj
 0002:00005c60       ??_C@_1O@OJDJGAJC@?$AAs?$AAm?$AAs?$AA?9?$AAf?$AAi?$AA?$AA@ 0000000140045c60     LIBCMT:winapinls.obj
 0002:00005c70       ??_C@_1M@BOFOGHPB@?$AAs?$AAq?$AA?9?$AAa?$AAl?$AA?$AA@ 0000000140045c70     LIBCMT:winapinls.obj
 0002:00005c80       ??_C@_1BG@LJBBIPGB@?$AAs?$AAr?$AA?9?$AAb?$AAa?$AA?9?$AAc?$AAy?$AAr?$AAl?$AA?$AA@ 0000000140045c80     LIBCMT:winapinls.obj
 0002:00005c98       ??_C@_1BG@JLBENFOE@?$AAs?$AAr?$AA?9?$AAb?$AAa?$AA?9?$AAl?$AAa?$AAt?$AAn?$AA?$AA@ 0000000140045c98     LIBCMT:winapinls.obj
 0002:00005cb0       ??_C@_1BG@KODPNHE@?$AAs?$AAr?$AA?9?$AAs?$AAp?$AA?9?$AAc?$AAy?$AAr?$AAl?$AA?$AA@ 0000000140045cb0     LIBCMT:winapinls.obj
 0002:00005cc8       ??_C@_1BG@CIOGKHPB@?$AAs?$AAr?$AA?9?$AAs?$AAp?$AA?9?$AAl?$AAa?$AAt?$AAn?$AA?$AA@ 0000000140045cc8     LIBCMT:winapinls.obj
 0002:00005ce0       ??_C@_1M@NGFJLMAC@?$AAs?$AAv?$AA?9?$AAf?$AAi?$AA?$AA@ 0000000140045ce0     LIBCMT:winapinls.obj
 0002:00005cf0       ??_C@_1M@MPJEJAJC@?$AAs?$AAv?$AA?9?$AAs?$AAe?$AA?$AA@ 0000000140045cf0     LIBCMT:winapinls.obj
 0002:00005d00       ??_C@_1M@MPNDHLFK@?$AAs?$AAw?$AA?9?$AAk?$AAe?$AA?$AA@ 0000000140045d00     LIBCMT:winapinls.obj
 0002:00005d10       ??_C@_1O@KOHBJJI@?$AAs?$AAy?$AAr?$AA?9?$AAs?$AAy?$AA?$AA@ 0000000140045d10     LIBCMT:winapinls.obj
 0002:00005d20       ??_C@_1M@LDCEFHA@?$AAt?$AAa?$AA?9?$AAi?$AAn?$AA?$AA@ 0000000140045d20     LIBCMT:winapinls.obj
 0002:00005d30       ??_C@_1M@CNJOFAK@?$AAt?$AAe?$AA?9?$AAi?$AAn?$AA?$AA@ 0000000140045d30     LIBCMT:winapinls.obj
 0002:00005d40       ??_C@_1M@GNAECACD@?$AAt?$AAh?$AA?9?$AAt?$AAh?$AA?$AA@ 0000000140045d40     LIBCMT:winapinls.obj
 0002:00005d50       ??_C@_1M@CHBIHOJO@?$AAt?$AAn?$AA?9?$AAz?$AAa?$AA?$AA@ 0000000140045d50     LIBCMT:winapinls.obj
 0002:00005d60       ??_C@_1M@GCCMIGPJ@?$AAt?$AAr?$AA?9?$AAt?$AAr?$AA?$AA@ 0000000140045d60     LIBCMT:winapinls.obj
 0002:00005d70       ??_C@_1M@CELMCNBK@?$AAt?$AAt?$AA?9?$AAr?$AAu?$AA?$AA@ 0000000140045d70     LIBCMT:winapinls.obj
 0002:00005d80       ??_C@_1M@KLMCELGA@?$AAu?$AAk?$AA?9?$AAu?$AAa?$AA?$AA@ 0000000140045d80     LIBCMT:winapinls.obj
 0002:00005d90       ??_C@_1M@EPAJJAJF@?$AAu?$AAr?$AA?9?$AAp?$AAk?$AA?$AA@ 0000000140045d90     LIBCMT:winapinls.obj
 0002:00005da0       ??_C@_1BG@GEGPMCDJ@?$AAu?$AAz?$AA?9?$AAu?$AAz?$AA?9?$AAc?$AAy?$AAr?$AAl?$AA?$AA@ 0000000140045da0     LIBCMT:winapinls.obj
 0002:00005db8       ??_C@_1BG@EGGKJILM@?$AAu?$AAz?$AA?9?$AAu?$AAz?$AA?9?$AAl?$AAa?$AAt?$AAn?$AA?$AA@ 0000000140045db8     LIBCMT:winapinls.obj
 0002:00005dd0       ??_C@_1M@GFOCLFF@?$AAv?$AAi?$AA?9?$AAv?$AAn?$AA?$AA@ 0000000140045dd0     LIBCMT:winapinls.obj
 0002:00005de0       ??_C@_1M@CPAMEDFI@?$AAx?$AAh?$AA?9?$AAz?$AAa?$AA?$AA@ 0000000140045de0     LIBCMT:winapinls.obj
 0002:00005df0       ??_C@_1O@EBKIFIGN@?$AAz?$AAh?$AA?9?$AAc?$AAh?$AAs?$AA?$AA@ 0000000140045df0     LIBCMT:winapinls.obj
 0002:00005e00       ??_C@_1O@NMHPGANE@?$AAz?$AAh?$AA?9?$AAc?$AAh?$AAt?$AA?$AA@ 0000000140045e00     LIBCMT:winapinls.obj
 0002:00005e10       ??_C@_1M@LPINJOMC@?$AAz?$AAh?$AA?9?$AAc?$AAn?$AA?$AA@ 0000000140045e10     LIBCMT:winapinls.obj
 0002:00005e20       ??_C@_1M@OCJEJODD@?$AAz?$AAh?$AA?9?$AAh?$AAk?$AA?$AA@ 0000000140045e20     LIBCMT:winapinls.obj
 0002:00005e30       ??_C@_1M@DNDLJINH@?$AAz?$AAh?$AA?9?$AAm?$AAo?$AA?$AA@ 0000000140045e30     LIBCMT:winapinls.obj
 0002:00005e40       ??_C@_1M@MBFDNDND@?$AAz?$AAh?$AA?9?$AAs?$AAg?$AA?$AA@ 0000000140045e40     LIBCMT:winapinls.obj
 0002:00005e50       ??_C@_1M@IMEPLEPE@?$AAz?$AAh?$AA?9?$AAt?$AAw?$AA?$AA@ 0000000140045e50     LIBCMT:winapinls.obj
 0002:00005e60       ??_C@_1M@BBGHNHJP@?$AAz?$AAu?$AA?9?$AAz?$AAa?$AA?$AA@ 0000000140045e60     LIBCMT:winapinls.obj
 0002:00005e80       __newctype                 0000000140045e80     LIBCMT:ctype.obj
 0002:00006180       _wctype                    0000000140046180     LIBCMT:ctype.obj
 0002:00006390       __newclmap                 0000000140046390     LIBCMT:ctype.obj
 0002:00006510       __newcumap                 0000000140046510     LIBCMT:ctype.obj
 0002:00006710       _FPinit                    0000000140046710     LIBCMT:fpinit.obj
 0002:00006718       __rg_language_count        0000000140046718     LIBCMT:getqloc.obj
 0002:0000671c       __rg_country_count         000000014004671c     LIBCMT:getqloc.obj
 0002:00006720       ??_C@_1BA@BALFACEM@?$AAC?$AAO?$AAN?$AAO?$AAU?$AAT?$AA$?$AA?$AA@ 0000000140046720     LIBCMT:initcon.obj
 0002:00006730       ??_C@_05KLBDPFGC@e?$CL000?$AA@ 0000000140046730     LIBCMT:cvt.obj
 0002:00006738       __real@0000000000000000    0000000140046738     LIBCMT:cvt.obj
 0002:00006740       ??_C@_06PGGFOGJG@1?$CDSNAN?$AA@ 0000000140046740     LIBCMT:x10fout.obj
 0002:00006748       ??_C@_05PHHOCPM@1?$CDIND?$AA@ 0000000140046748     LIBCMT:x10fout.obj
 0002:00006750       ??_C@_05DNEBIAHO@1?$CDINF?$AA@ 0000000140046750     LIBCMT:x10fout.obj
 0002:00006758       ??_C@_06IMKFLFPG@1?$CDQNAN?$AA@ 0000000140046758     LIBCMT:x10fout.obj
 0002:00006768       ??_7CColorPage@@6B@        0000000140046768     Colorpge.obj
 0002:000068d0       ??_C@_19PLOBJMHF@?$AAE?$AAd?$AAi?$AAt?$AA?$AA@ 00000001400468d0     Colorpge.obj
 0002:000068e8       ??_7CDialog@@6B@           00000001400468e8     Colorpge.obj
 0002:00006a08       ??_7CPropertyPageMTL@@6B@  0000000140046a08     Colorpge.obj
 0002:00006b70       ??_C@_11LOCGONAA@?$AA?$AA@ 0000000140046b70     Colorpge.obj
 0002:00006b80       ??_7CCmdUI@@6B@            0000000140046b80     Colorpge.obj
 0002:00006ba8       ??_7CTestCmdUI@@6B@        0000000140046ba8     Colorpge.obj
 0002:00006bd0       ??_7CDCMTL@@6B@            0000000140046bd0     Colorpge.obj
 0002:00006c08       ??_7CCmdTarget@@6B@        0000000140046c08     Colorpge.obj
 0002:00006c30       ??_C@_1CG@CIFFLLLF@?$AAA?$AAf?$AAx?$AAO?$AAl?$AAe?$AAC?$AAo?$AAn?$AAt?$AAr?$AAo?$AAl?$AAM?$AAt?$AAl?$AAs?$AAu?$AA?$AA@ 0000000140046c30     Colorpge.obj
 0002:00006c58       ??_C@_1CG@NNGBBFDA@?$AAA?$AAf?$AAx?$AAC?$AAo?$AAn?$AAt?$AAr?$AAo?$AAl?$AAB?$AAa?$AAr?$AAM?$AAt?$AAl?$AAs?$AAu?$AA?$AA@ 0000000140046c58     Colorpge.obj
 0002:00006c80       ??_C@_1CC@MNOFIAGJ@?$AAA?$AAf?$AAx?$AAM?$AAD?$AAI?$AAF?$AAr?$AAa?$AAm?$AAe?$AAM?$AAt?$AAl?$AAs?$AAu?$AA?$AA@ 0000000140046c80     Colorpge.obj
 0002:00006ca8       ??_C@_1CI@EHIBCPFK@?$AAA?$AAf?$AAx?$AAF?$AAr?$AAa?$AAm?$AAe?$AAO?$AAr?$AAV?$AAi?$AAe?$AAw?$AAM?$AAt?$AAl?$AAs?$AAu?$AA?$AA@ 0000000140046ca8     Colorpge.obj
 0002:00006cd0       ??_C@_1BI@GHDBJIII@?$AAA?$AAf?$AAx?$AAW?$AAn?$AAd?$AAM?$AAt?$AAl?$AAs?$AAu?$AA?$AA@ 0000000140046cd0     Colorpge.obj
 0002:00006cf0       ??_7CWnd@@6B@              0000000140046cf0     Colorpge.obj
 0002:00006de0       ??_7CMenuMTL@@6B@          0000000140046de0     Colorpge.obj
 0002:00006df0       ??_7CWMHnd@@6B@            0000000140046df0     Colorpge.obj
 0002:00006e88       ??_C@_0L@GOKPKJAL@CMainFrame?$AA@ 0000000140046e88     Mainfrm.obj
 0002:00006ea0       ??_7CToolCmdUI@@6B@        0000000140046ea0     Mainfrm.obj
 0002:00006ec0       ??_C@_1BA@MKONEDAA@?$AAM?$AAa?$AAr?$AAl?$AAe?$AAt?$AAt?$AA?$AA@ 0000000140046ec0     Mainfrm.obj
 0002:00006ed0       ??_C@_1CA@BPIDFFJM@?$AAT?$AAo?$AAo?$AAl?$AAb?$AAa?$AAr?$AAW?$AAi?$AAn?$AAd?$AAo?$AAw?$AA3?$AA2?$AA?$AA@ 0000000140046ed0     Mainfrm.obj
 0002:00006ef8       ??_7CToolBar@@6B@          0000000140046ef8     Mainfrm.obj
 0002:00007030       ??_7CWindowDCMTL@@6B@      0000000140047030     Mainfrm.obj
 0002:00007068       ??_7CControlBar@@6B@       0000000140047068     Mainfrm.obj
 0002:00007188       ??_C@_1CC@KPOKNCMJ@?$AAt?$AAo?$AAo?$AAl?$AAt?$AAi?$AAp?$AAs?$AA_?$AAc?$AAl?$AAa?$AAs?$AAs?$AA3?$AA2?$AA?$AA@ 0000000140047188     Mainfrm.obj
 0002:000071b8       ??_7CToolTipCtrlMTL@@6B@   00000001400471b8     Mainfrm.obj
 0002:000072a8       ??_7CStatusCmdUI@@6B@      00000001400472a8     Mainfrm.obj
 0002:000072d0       ??_7CClientDCMTL@@6B@      00000001400472d0     Mainfrm.obj
 0002:00007300       ??_C@_1CG@JPMAJDKP@?$AAm?$AAs?$AAc?$AAt?$AAl?$AAs?$AA_?$AAs?$AAt?$AAa?$AAt?$AAu?$AAs?$AAb?$AAa?$AAr?$AA3?$AA2?$AA?$AA@ 0000000140047300     Mainfrm.obj
 0002:00007330       ??_7CStatusBar@@6B@        0000000140047330     Mainfrm.obj
 0002:00007468       ??_7CMainFrame@@6B@        0000000140047468     Mainfrm.obj
 0002:000075c8       ??_C@_1BE@NPJIFNDC@?$AAm?$AAd?$AAi?$AAc?$AAl?$AAi?$AAe?$AAn?$AAt?$AA?$AA@ 00000001400475c8     Mainfrm.obj
 0002:000075e8       ??_7CMDIFrameWnd@@6B@      00000001400475e8     Mainfrm.obj
 0002:00007748       ??_C@_1BE@HKKEDLN@?$AAA?$AAf?$AAx?$AA?3?$AA?$CF?$AAp?$AA?3?$AA?$CF?$AAx?$AA?$AA@ 0000000140047748     Mainfrm.obj
 0002:00007760       ??_C@_1CG@OIBFCNKA@?$AAA?$AAf?$AAx?$AA?3?$AA?$CF?$AAp?$AA?3?$AA?$CF?$AAx?$AA?3?$AA?$CF?$AAp?$AA?3?$AA?$CF?$AAp?$AA?3?$AA?$CF?$AAp?$AA?$AA@ 0000000140047760     Mainfrm.obj
 0002:00007790       ??_7CFrameWnd@@6B@         0000000140047790     Mainfrm.obj
 0002:000078d8       ??_C@_17HIKLPLBG@?$AA?5?$AA?9?$AA?5?$AA?$AA@ 00000001400478d8     Mainfrm.obj
 0002:000078e0       ??_C@_17GNPFJLPC@?$AA?3?$AA?$CF?$AAd?$AA?$AA@ 00000001400478e0     Mainfrm.obj
 0002:000078e8       ?classCMainFrame@CMainFrame@@2UCRuntimeClass@@B 00000001400478e8     Mainfrm.obj
 0002:00007920       ??_7CShapePropSheetFrame@@6B@ 0000000140047920     Minifrm.obj
 0002:00007a80       ??_7CMiniFrameWnd@@6B@     0000000140047a80     Minifrm.obj
 0002:00007be0       ??_7CBrushMTL@@6B@         0000000140047be0     Preview.obj
 0002:00007bf0       ??_7CPaintDCMTL@@6B@       0000000140047bf0     Preview.obj
 0002:00007c28       ??_7CShapePreviewWnd@@6B@  0000000140047c28     Preview.obj
 0002:00007d18       ??_7CAboutDlg@@6B@         0000000140047d18     Propdlg.obj
 0002:00007e30       ??_C@_1BE@FLHKCJKF@?$AAS?$AAo?$AAf?$AAt?$AAw?$AAa?$AAr?$AAe?$AA?2?$AA?$AA@ 0000000140047e30     Propdlg.obj
 0002:00007e44       ??_C@_13FPGAJAPJ@?$AA?2?$AA?$AA@ 0000000140047e44     Propdlg.obj
 0002:00007e48       ??_C@_1BE@PCAHDEC@?$AAR?$AAe?$AAg?$AAs?$AAe?$AAr?$AAv?$AAe?$AAr?$AA?$AA@ 0000000140047e48     Propdlg.obj
 0002:00007e60       ??_C@_1BI@IBDPMBJA@?$AAU?$AAn?$AAr?$AAe?$AAg?$AAs?$AAe?$AAr?$AAv?$AAe?$AAr?$AA?$AA@ 0000000140047e60     Propdlg.obj
 0002:00007e80       ??_7CCommandLineInfo@@6B@  0000000140047e80     Propdlg.obj
 0002:00007e88       ??_C@_1O@KFLILLAF@?$AAs?$AAy?$AAs?$AAt?$AAe?$AAm?$AA?$AA@ 0000000140047e88     Propdlg.obj
 0002:00007ea0       ??_7CDocManager@@6B@       0000000140047ea0     Propdlg.obj
 0002:00007ed0       ??_7CMultiDocTemplate@@6B@ 0000000140047ed0     Propdlg.obj
 0002:00007f68       ??_C@_1O@JCDBNCBG@?$AAF?$AAi?$AAl?$AAe?$AA?$CF?$AAd?$AA?$AA@ 0000000140047f68     Propdlg.obj
 0002:00007f78       ??_C@_1CC@PIPLMNK@?$AAR?$AAe?$AAc?$AAe?$AAn?$AAt?$AA?5?$AAF?$AAi?$AAl?$AAe?$AA?5?$AAL?$AAi?$AAs?$AAt?$AA?$AA@ 0000000140047f78     Propdlg.obj
 0002:00007fa8       ??_7CPropDlgApp@@6B@       0000000140047fa8     Propdlg.obj
 0002:00008020       ??_7CRecentFileList@@6B@   0000000140048020     Propdlg.obj
 0002:00008060       ??_7CWinThread@@6B@        0000000140048060     Propdlg.obj
 0002:00008088       ??_C@_15KNBIKKIN@?$AA?$CF?$AAd?$AA?$AA@ 0000000140048088     Propdlg.obj
 0002:00008090       ??_C@_1BK@CIMJNOJA@?$AAP?$AAr?$AAe?$AAv?$AAi?$AAe?$AAw?$AAP?$AAa?$AAg?$AAe?$AAs?$AA?$AA@ 0000000140048090     Propdlg.obj
 0002:000080b0       ??_C@_1BC@PFDDLKEP@?$AAS?$AAe?$AAt?$AAt?$AAi?$AAn?$AAg?$AAs?$AA?$AA@ 00000001400480b0     Propdlg.obj
 0002:000080d0       ??_7CWinApp@@6B@           00000001400480d0     Propdlg.obj
 0002:00008140       ??_C@_19COOKDNGA@?$AA?2?$AA?4?$AA?4?$AA?4?$AA?$AA@ 0000000140048140     Propdlg.obj
 0002:00008150       ??_C@_17BIBMKONG@?$AA?$CF?$AAd?$AA?5?$AA?$AA@ 0000000140048150     Propdlg.obj
 0002:00008158       ??_C@_19BFLNMN@?$AA1?$AA?$CG?$AA0?$AA?5?$AA?$AA@ 0000000140048158     Propdlg.obj
 0002:00008168       ??_C@_19NMPHGKFO@?$AA?$CG?$AA?$CF?$AAd?$AA?5?$AA?$AA@ 0000000140048168     Propdlg.obj
 0002:00008180       ??_7CCommonWnd@@6B@        0000000140048180     Propdlg.obj
 0002:000081b8       ??_7CPrintDialogMTL@@6BCCommonWnd@@@ 00000001400481b8     Propdlg.obj
 0002:000081f0       ??_7CPrintDialog@WTL@@6B@  00000001400481f0     Propdlg.obj
 0002:00008218       ??_7CPrintDialogMTL@@6BCPrintDialog@WTL@@@ 0000000140048218     Propdlg.obj
 0002:00008238       ??_C@_1DG@FEMKIBFE@?$AAc?$AAo?$AAm?$AAm?$AAd?$AAl?$AAg?$AA_?$AAL?$AAB?$AAS?$AAe?$AAl?$AAC?$AAh?$AAa?$AAn?$AAg?$AAe?$AAd?$AAN?$AAo?$AAt?$AAi?$AAf?$AAy?$AA?$AA@ 0000000140048238     Propdlg.obj
 0002:00008270       ??_C@_1CO@DLGJGAHF@?$AAc?$AAo?$AAm?$AAm?$AAd?$AAl?$AAg?$AA_?$AAS?$AAh?$AAa?$AAr?$AAe?$AAV?$AAi?$AAo?$AAl?$AAa?$AAt?$AAi?$AAo?$AAn?$AA?$AA@ 0000000140048270     Propdlg.obj
 0002:000082a0       ??_C@_1CG@ONEINPB@?$AAc?$AAo?$AAm?$AAm?$AAd?$AAl?$AAg?$AA_?$AAF?$AAi?$AAl?$AAe?$AAN?$AAa?$AAm?$AAe?$AAO?$AAK?$AA?$AA@ 00000001400482a0     Propdlg.obj
 0002:000082c8       ??_C@_1BK@GANHMGLO@?$AAc?$AAo?$AAm?$AAm?$AAd?$AAl?$AAg?$AA_?$AAh?$AAe?$AAl?$AAp?$AA?$AA@ 00000001400482c8     Propdlg.obj
 0002:000082e8       ??_C@_1CI@KDHMACFL@?$AAc?$AAo?$AAm?$AAm?$AAd?$AAl?$AAg?$AA_?$AAS?$AAe?$AAt?$AAR?$AAG?$AAB?$AAC?$AAo?$AAl?$AAo?$AAr?$AA?$AA@ 00000001400482e8     Propdlg.obj
 0002:00008310       _GUID_42f85136_db7e_439c_85f1_e4075d135fc8 0000000140048310     Propdlg.obj
 0002:00008320       _GUID_e6fdd21a_163f_4975_9c8c_a69f1ba37034 0000000140048320     Propdlg.obj
 0002:00008338       ??_7CFileDialogMTL@@6B@    0000000140048338     Propdlg.obj
 0002:00008490       ??_C@_13PJJBFPED@?$AA?$DL?$AA?$AA@ 0000000140048490     Propdlg.obj
 0002:00008498       ??_C@_17ECHFBE@?$AA?$CK?$AA?4?$AA?$CK?$AA?$AA@ 0000000140048498     Propdlg.obj
 0002:000084a0       ??_C@_1BI@BNFKGMFK@?$AAs?$AAh?$AAe?$AAl?$AAl?$AA3?$AA2?$AA?4?$AAd?$AAl?$AAl?$AA?$AA@ 00000001400484a0     Propdlg.obj
 0002:000084b8       ??_C@_0BM@LOMPMPGE@SHCreateItemFromParsingName?$AA@ 00000001400484b8     Propdlg.obj
 0002:000084d8       _GUID_43826d1e_e718_42ee_bc55_a1e261c37bfe 00000001400484d8     Propdlg.obj
 0002:000084e8       _GUID_84bccd23_5fde_4cdb_aea4_af64b83d78ab 00000001400484e8     Propdlg.obj
 0002:000084f8       _GUID_d57c7288_d4ad_4768_be02_9d969532d960 00000001400484f8     Propdlg.obj
 0002:00008510       ??_C@_1GG@FCALANDO@?$AA?$HL?$AA?$CF?$AA0?$AA8?$AAX?$AA?9?$AA?$CF?$AA0?$AA4?$AAX?$AA?9?$AA?$CF?$AA0?$AA4?$AAX?$AA?9?$AA?$CF?$AA0?$AA2?$AAX?$AA?$CF?$AA0?$AA2?$AAX?$AA?9?$AA?$CF?$AA0?$AA2?$AAX?$AA?$CF?$AA0?$AA2@ 0000000140048510     Propdlg.obj
 0002:00008578       ??_C@_1M@KANJNLFF@?$AAC?$AAL?$AAS?$AAI?$AAD?$AA?$AA@ 0000000140048578     Propdlg.obj
 0002:00008588       ??_C@_1BO@ECHKLJPO@?$AAI?$AAn?$AAP?$AAr?$AAo?$AAc?$AAS?$AAe?$AAr?$AAv?$AAe?$AAr?$AA3?$AA2?$AA?$AA@ 0000000140048588     Propdlg.obj
 0002:000085a8       ??_C@_0BC@JDLGBILA@DllGetClassObject?$AA@ 00000001400485a8     Propdlg.obj
 0002:000085c8       ??_7CNewTypeDlg@@6B@       00000001400485c8     Propdlg.obj
 0002:000086e0       ?classCModalShapePropSheet@CModalShapePropSheet@@2UCRuntimeClass@@B 00000001400486e0     Propsht.obj
 0002:00008710       ??_C@_0BF@ECDMNOIA@CModalShapePropSheet?$AA@ 0000000140048710     Propsht.obj
 0002:00008730       ??_7CModalShapePropSheet@@6B@ 0000000140048730     Propsht.obj
 0002:00008830       ??_C@_1CA@HFFPBPDB@?$AAA?$AAf?$AAx?$AAC?$AAl?$AAo?$AAs?$AAe?$AAP?$AAe?$AAn?$AAd?$AAi?$AAn?$AAg?$AA?$AA@ 0000000140048830     Propsht.obj
 0002:00008850       ??_C@_1BK@JKBHGHPP@?$AAc?$AAo?$AAm?$AAc?$AAt?$AAl?$AA3?$AA2?$AA?4?$AAd?$AAl?$AAl?$AA?$AA@ 0000000140048850     Propsht.obj
 0002:00008870       ??_C@_1BK@KKCMHLHP@?$AAM?$AAS?$AA?5?$AAU?$AAI?$AA?5?$AAG?$AAo?$AAt?$AAh?$AAi?$AAc?$AA?$AA@ 0000000140048870     Propsht.obj
 0002:00008898       ??_7CPropertySheetMTL@@6B@ 0000000140048898     Propsht.obj
 0002:000089a0       ?_afxPropSheetButtons@?1??OnInitDialog@CPropertySheetMTL@@UEAAHXZ@4PAHA 00000001400489a0     Propsht.obj
 0002:000089b0       ?_afxPropSheetIDs@?4??OnSetDefID@CPropertySheetMTL@@QEAA_J_K_J@Z@4QBHB 00000001400489b0     Propsht.obj
 0002:000089c0       ?classCModelessShapePropSheet@CModelessShapePropSheet@@2UCRuntimeClass@@B 00000001400489c0     Propsht2.obj
 0002:000089f0       ??_C@_0BI@EAIAHPMM@CModelessShapePropSheet?$AA@ 00000001400489f0     Propsht2.obj
 0002:00008a10       ??_7CModelessShapePropSheet@@6B@ 0000000140048a10     Propsht2.obj
 0002:00008b10       ?classCShapesDoc@CShapesDoc@@2UCRuntimeClass@@B 0000000140048b10     Shapedoc.obj
 0002:00008b40       ??_C@_0L@GBAFCAOB@CShapesDoc?$AA@ 0000000140048b40     Shapedoc.obj
 0002:00008b58       ??_7CShapesDoc@@6B@        0000000140048b58     Shapedoc.obj
 0002:00008c00       ??_C@_17PJPBGINK@?$AA?3?$AA?1?$AA?2?$AA?$AA@ 0000000140048c00     Shapedoc.obj
 0002:00008c10       ??_7CFile@@6B@             0000000140048c10     Shapedoc.obj
 0002:00008c50       ??_C@_06PLMJGOGE@CShape?$AA@ 0000000140048c50     Shapeobj.obj
 0002:00008c60       ??_7CGdiObject@@6B@        0000000140048c60     Shapeobj.obj
 0002:00008c70       ??_7CPenMTL@@6B@           0000000140048c70     Shapeobj.obj
 0002:00008c80       ??_7CShape@@6B@            0000000140048c80     Shapeobj.obj
 0002:00008c90       ?classCShape@CShape@@2UCRuntimeClass@@B 0000000140048c90     Shapeobj.obj
 0002:00008cc0       ?classCShapesView@CShapesView@@2UCRuntimeClass@@B 0000000140048cc0     Shapesvw.obj
 0002:00008cf0       ??_C@_0M@IMNENPHD@CShapesView?$AA@ 0000000140048cf0     Shapesvw.obj
 0002:00008d08       ??_7CShapesView@@6B@       0000000140048d08     Shapesvw.obj
 0002:00008e60       ??_7CDialogBar@@6B@        0000000140048e60     Shapesvw.obj
 0002:00008f98       ??_7CView@@6B@             0000000140048f98     Shapesvw.obj
 0002:000090e8       ??_C@_13PNBDBPLL@?$AAA?$AA?$AA@ 00000001400490e8     Shapesvw.obj
 0002:000090f8       ??_7CPreviewDC@@6B@        00000001400490f8     Shapesvw.obj
 0002:00009130       ??_7CPrintingDialog@@6B@   0000000140049130     Shapesvw.obj
 0002:00009248       ?classCDialog@CDialog@@2UCRuntimeClass@@B 0000000140049248     Stdafx.obj
 0002:00009280       ??_7CMDIChildWnd@@6B@      0000000140049280     Stdafx.obj
 0002:000093d8       ?classCToolBar@CToolBar@@2UCRuntimeClass@@B 00000001400493d8     Stdafx.obj
 0002:00009408       ??_C@_07BEAIOPAP@CObject?$AA@ 0000000140049408     Stdafx.obj
 0002:00009410       ??_C@_0L@GDEMJNJL@CCmdTarget?$AA@ 0000000140049410     Stdafx.obj
 0002:0000941c       ??_C@_04DDIMFFOJ@CWnd?$AA@ 000000014004941c     Stdafx.obj
 0002:00009428       ??_C@_07BOOFINFL@CDialog?$AA@ 0000000140049428     Stdafx.obj
 0002:00009430       ??_C@_09PHHOBLDA@CFrameWnd?$AA@ 0000000140049430     Stdafx.obj
 0002:0000943c       ??_C@_05BIOOECIG@CView?$AA@ 000000014004943c     Stdafx.obj
 0002:00009448       ??_C@_0N@IAAEHEJA@CSplitterWnd?$AA@ 0000000140049448     Stdafx.obj
 0002:00009458       ??_C@_09GGLMOPCJ@CDocument?$AA@ 0000000140049458     Stdafx.obj
 0002:00009468       ??_C@_0N@PIIJNOBP@CDocTemplate?$AA@ 0000000140049468     Stdafx.obj
 0002:00009478       ??_C@_0BC@FHADKPLB@CMultiDocTemplate?$AA@ 0000000140049478     Stdafx.obj
 0002:00009490       ??_C@_0M@KLLMHFML@CControlBar?$AA@ 0000000140049490     Stdafx.obj
 0002:000094a0       ??_C@_08CLEDDFPF@CDockBar?$AA@ 00000001400494a0     Stdafx.obj
 0002:000094b0       ??_C@_08JCBKBILF@CToolBar?$AA@ 00000001400494b0     Stdafx.obj
 0002:000094c0       ??_C@_0O@ONBAFBMA@CMiniFrameWnd?$AA@ 00000001400494c0     Stdafx.obj
 0002:000094d0       ??_C@_0N@MELIIEBL@CMDIFrameWnd?$AA@ 00000001400494d0     Stdafx.obj
 0002:000094e0       ??_C@_0N@KGIHFIMF@CMDIChildWnd?$AA@ 00000001400494e0     Stdafx.obj
 0002:000094f0       ??_C@_0M@CDPKIMCK@CScrollView?$AA@ 00000001400494f0     Stdafx.obj
 0002:00009500       ??_C@_0N@BJMABPO@CPreviewView?$AA@ 0000000140049500     Stdafx.obj
 0002:00009510       ??_C@_0BB@OJCMABLL@CPropertyPageMTL?$AA@ 0000000140049510     Stdafx.obj
 0002:00009528       ??_C@_0BC@CCNOEAOB@CPropertySheetMTL?$AA@ 0000000140049528     Stdafx.obj
 0002:00009540       ??_C@_0P@HEBNJMNI@CFileDialogMTL?$AA@ 0000000140049540     Stdafx.obj
 0002:00009550       ??_C@_0BA@CAKJCBDC@CToolTipCtrlMTL?$AA@ 0000000140049550     Stdafx.obj
 0002:00009560       ?classCDockBar@CDockBar@@2UCRuntimeClass@@B 0000000140049560     Stdafx.obj
 0002:00009590       ?classCControlBar@CControlBar@@2UCRuntimeClass@@B 0000000140049590     Stdafx.obj
 0002:000095c0       ?classCMDIFrameWnd@CMDIFrameWnd@@2UCRuntimeClass@@B 00000001400495c0     Stdafx.obj
 0002:000095f0       ?classCMDIChildWnd@CMDIChildWnd@@2UCRuntimeClass@@B 00000001400495f0     Stdafx.obj
 0002:00009620       ?classCView@CView@@2UCRuntimeClass@@B 0000000140049620     Stdafx.obj
 0002:00009650       ?classCFileDialogMTL@CFileDialogMTL@@2UCRuntimeClass@@B 0000000140049650     Stdafx.obj
 0002:00009680       ?classCPropertySheetMTL@CPropertySheetMTL@@2UCRuntimeClass@@B 0000000140049680     Stdafx.obj
 0002:000096b0       ?classCDocument@CDocument@@2UCRuntimeClass@@B 00000001400496b0     Stdafx.obj
 0002:000096e0       ?classCObject@CObject@@2UCRuntimeClass@@B 00000001400496e0     Stdafx.obj
 0002:00009710       ?sizeDefault@CScrollView@@2UtagSIZE@@B 0000000140049710     Stdafx.obj
 0002:00009718       ?classCFrameWnd@CFrameWnd@@2UCRuntimeClass@@B 0000000140049718     Stdafx.obj
 0002:00009748       ?classCPreviewView@CPreviewView@@2UCRuntimeClass@@B 0000000140049748     Stdafx.obj
 0002:00009778       ??_C@_19GAIGGJAF@?$AA?4?$AAC?$AAH?$AAM?$AA?$AA@ 0000000140049778     Stdafx.obj
 0002:00009788       ??_C@_19EAOLIAH@?$AA?4?$AAH?$AAL?$AAP?$AA?$AA@ 0000000140049788     Stdafx.obj
 0002:00009798       ??_C@_19KIHNABIH@?$AA?4?$AAI?$AAN?$AAI?$AA?$AA@ 0000000140049798     Stdafx.obj
 0002:000097a8       ?classCWnd@CWnd@@2UCRuntimeClass@@B 00000001400497a8     Stdafx.obj
 0002:000097d8       ?classCMultiDocTemplate@CMultiDocTemplate@@2UCRuntimeClass@@B 00000001400497d8     Stdafx.obj
 0002:00009808       ?classCMiniFrameWnd@CMiniFrameWnd@@2UCRuntimeClass@@B 0000000140049808     Stdafx.obj
 0002:00009840       ??_7_AFX_MOUSEANCHORWND@@6B@ 0000000140049840     Stdafx.obj
 0002:00009928       ?classCSplitterWnd@CSplitterWnd@@2UCRuntimeClass@@B 0000000140049928     Stdafx.obj
 0002:00009960       ??_7CImage@@6B@            0000000140049960     Stdafx.obj
 0002:00009968       ?classCCmdTarget@CCmdTarget@@2UCRuntimeClass@@B 0000000140049968     Stdafx.obj
 0002:00009998       ?classCScrollView@CScrollView@@2UCRuntimeClass@@B 0000000140049998     Stdafx.obj
 0002:000099c8       ?classCPropertyPageMTL@CPropertyPageMTL@@2UCRuntimeClass@@B 00000001400499c8     Stdafx.obj
 0002:00009a00       ??_7CScrollView@@6B@       0000000140049a00     Stdafx.obj
 0002:00009b68       ??_7CPreviewView@@6B@      0000000140049b68     Stdafx.obj
 0002:00009ce8       ??_7CRgnMTL@@6B@           0000000140049ce8     Stdafx.obj
 0002:00009cf0       ?classCToolTipCtrlMTL@CToolTipCtrlMTL@@2UCRuntimeClass@@B 0000000140049cf0     Stdafx.obj
 0002:00009d20       ?classCDocTemplate@CDocTemplate@@2UCRuntimeClass@@B 0000000140049d20     Stdafx.obj
 0002:00009d58       ??_7CBitmapMTL@@6B@        0000000140049d58     Stdafx.obj
 0002:00009d68       ??_7CStylePage@@6B@        0000000140049d68     Stylepge.obj
 0002:0000a0b0       __xmm@00000020000000000000000000000000 000000014004a0b0     Propsht.obj
 0002:0000a0c0       __xmm@00000078000000780000001400000014 000000014004a0c0     Shapedoc.obj
 0002:0000a0d0       __xmm@00007fff00007fff0000000000000000 000000014004a0d0     Mainfrm.obj
 0002:0000b528       _pDestructExceptionObject  000000014004b528     LIBCMT:frame.obj
 0002:0000b538       ??_7bad_exception@std@@6B@ 000000014004b538     LIBCMT:frame.obj
 0002:0000b548       ??_C@_0O@DPKOEFFH@bad?5exception?$AA@ 000000014004b548     LIBCMT:frame.obj
 0002:0000b560       _load_config_used          000000014004b560     LIBCMT:loadcfg.obj
 0002:0000b5d0       ??_R4type_info@@6B@        000000014004b5d0     LIBCMT:typinfo.obj
 0002:0000b5f8       ??_R3type_info@@8          000000014004b5f8     LIBCMT:typinfo.obj
 0002:0000b610       ??_R2type_info@@8          000000014004b610     LIBCMT:typinfo.obj
 0002:0000b620       ??_R1A@?0A@EA@type_info@@8 000000014004b620     LIBCMT:typinfo.obj
 0002:0000b648       ??_R1A@?0A@EA@exception@std@@8 000000014004b648     LIBCMT:new.obj
 0002:0000b670       ??_R3exception@std@@8      000000014004b670     LIBCMT:new.obj
 0002:0000b688       ??_R2exception@std@@8      000000014004b688     LIBCMT:new.obj
 0002:0000b698       ??_R4bad_alloc@std@@6B@    000000014004b698     LIBCMT:new.obj
 0002:0000b6c0       ??_R3bad_alloc@std@@8      000000014004b6c0     LIBCMT:new.obj
 0002:0000b6d8       ??_R2bad_alloc@std@@8      000000014004b6d8     LIBCMT:new.obj
 0002:0000b6f0       ??_R1A@?0A@EA@bad_alloc@std@@8 000000014004b6f0     LIBCMT:new.obj
 0002:0000b718       ??_R4exception@std@@6B@    000000014004b718     LIBCMT:stdexcpt.obj
 0002:0000b740       ??_R2CColorPage@@8         000000014004b740     Colorpge.obj
 0002:0000b788       ??_R1A@?0A@EA@CColorPage@@8 000000014004b788     Colorpge.obj
 0002:0000b7b0       ??_R3CColorPage@@8         000000014004b7b0     Colorpge.obj
 0002:0000b7c8       ??_R4CColorPage@@6B@       000000014004b7c8     Colorpge.obj
 0002:0000b7f0       ??_R1A@?0A@EA@CPropertyPageMTL@@8 000000014004b7f0     Colorpge.obj
 0002:0000b818       ??_R2CPropertyPageMTL@@8   000000014004b818     Colorpge.obj
 0002:0000b858       ??_R3CPropertyPageMTL@@8   000000014004b858     Colorpge.obj
 0002:0000b870       ??_R4CPropertyPageMTL@@6B@ 000000014004b870     Colorpge.obj
 0002:0000b898       ??_R1A@?0A@EA@CDialog@@8   000000014004b898     Colorpge.obj
 0002:0000b8c0       ??_R2CDialog@@8            000000014004b8c0     Colorpge.obj
 0002:0000b8f8       ??_R3CDialog@@8            000000014004b8f8     Colorpge.obj
 0002:0000b910       ??_R4CDialog@@6B@          000000014004b910     Colorpge.obj
 0002:0000b938       ??_R1A@?0A@EA@CWnd@@8      000000014004b938     Colorpge.obj
 0002:0000b960       ??_R2CWnd@@8               000000014004b960     Colorpge.obj
 0002:0000b990       ??_R3CWnd@@8               000000014004b990     Colorpge.obj
 0002:0000b9a8       ??_R4CWnd@@6B@             000000014004b9a8     Colorpge.obj
 0002:0000b9d0       ??_R4CCmdUI@@6B@           000000014004b9d0     Colorpge.obj
 0002:0000b9f8       ??_R1A@?0A@EA@CTestCmdUI@@8 000000014004b9f8     Colorpge.obj
 0002:0000ba20       ??_R2CCmdUI@@8             000000014004ba20     Colorpge.obj
 0002:0000ba30       ??_R3CCmdUI@@8             000000014004ba30     Colorpge.obj
 0002:0000ba48       ??_R1A@?0A@EA@CCmdUI@@8    000000014004ba48     Colorpge.obj
 0002:0000ba70       ??_R2CTestCmdUI@@8         000000014004ba70     Colorpge.obj
 0002:0000ba88       ??_R3CTestCmdUI@@8         000000014004ba88     Colorpge.obj
 0002:0000baa0       ??_R4CTestCmdUI@@6B@       000000014004baa0     Colorpge.obj
 0002:0000bac8       ??_R1A@?0A@EA@CDCMTL@@8    000000014004bac8     Colorpge.obj
 0002:0000baf0       ??_R2?$CHandleWrapper@VCDCMTL@@PEAUHDC__@@V?$CDCT@$00@WTL@@@@8 000000014004baf0     Colorpge.obj
 0002:0000bb08       ??_R3?$CHandleWrapper@VCDCMTL@@PEAUHDC__@@V?$CDCT@$00@WTL@@@@8 000000014004bb08     Colorpge.obj
 0002:0000bb20       ??_R1A@?0A@EA@?$CHandleWrapper@VCDCMTL@@PEAUHDC__@@V?$CDCT@$00@WTL@@@@8 000000014004bb20     Colorpge.obj
 0002:0000bb48       ??_R1A@?0A@EA@?$CDCT@$00@WTL@@8 000000014004bb48     Colorpge.obj
 0002:0000bb70       ??_R2?$CDCT@$00@WTL@@8     000000014004bb70     Colorpge.obj
 0002:0000bb80       ??_R3?$CDCT@$00@WTL@@8     000000014004bb80     Colorpge.obj
 0002:0000bb98       ??_R17?0A@EA@?$CDCT@$00@WTL@@8 000000014004bb98     Colorpge.obj
 0002:0000bbc0       ??_R2CDCMTL@@8             000000014004bbc0     Colorpge.obj
 0002:0000bbe0       ??_R3CDCMTL@@8             000000014004bbe0     Colorpge.obj
 0002:0000bbf8       ??_R4CDCMTL@@6B@           000000014004bbf8     Colorpge.obj
 0002:0000bc20       ??_R4CCmdTarget@@6B@       000000014004bc20     Colorpge.obj
 0002:0000bc48       ??_R1A@?0A@EA@CWMHnd@@8    000000014004bc48     Colorpge.obj
 0002:0000bc70       ??_R2CCmdTarget@@8         000000014004bc70     Colorpge.obj
 0002:0000bc88       ??_R3CCmdTarget@@8         000000014004bc88     Colorpge.obj
 0002:0000bca0       ??_R1A@?0A@EA@CCmdTarget@@8 000000014004bca0     Colorpge.obj
 0002:0000bcc8       ??_R2CObject@@8            000000014004bcc8     Colorpge.obj
 0002:0000bcd8       ??_R3CObject@@8            000000014004bcd8     Colorpge.obj
 0002:0000bcf0       ??_R1A@?0A@EA@CObject@@8   000000014004bcf0     Colorpge.obj
 0002:0000bd18       ??_R1A@?0A@EA@CWindow@ATL@@8 000000014004bd18     Colorpge.obj
 0002:0000bd40       ??_R2CWindow@ATL@@8        000000014004bd40     Colorpge.obj
 0002:0000bd50       ??_R3CWindow@ATL@@8        000000014004bd50     Colorpge.obj
 0002:0000bd68       ??_R17?0A@EA@CWindow@ATL@@8 000000014004bd68     Colorpge.obj
 0002:0000bd90       ??_R2CWMHnd@@8             000000014004bd90     Colorpge.obj
 0002:0000bdb8       ??_R3CWMHnd@@8             000000014004bdb8     Colorpge.obj
 0002:0000bdd0       ??_R4CWMHnd@@6B@           000000014004bdd0     Colorpge.obj
 0002:0000bdf8       ??_R1A@?0A@EA@CMenuMTL@@8  000000014004bdf8     Colorpge.obj
 0002:0000be20       ??_R2?$CHandleWrapper@VCMenuMTL@@PEAUHMENU__@@V?$CMenuT@$00@WTL@@@@8 000000014004be20     Colorpge.obj
 0002:0000be38       ??_R3?$CHandleWrapper@VCMenuMTL@@PEAUHMENU__@@V?$CMenuT@$00@WTL@@@@8 000000014004be38     Colorpge.obj
 0002:0000be50       ??_R1A@?0A@EA@?$CHandleWrapper@VCMenuMTL@@PEAUHMENU__@@V?$CMenuT@$00@WTL@@@@8 000000014004be50     Colorpge.obj
 0002:0000be78       ??_R1A@?0A@EA@?$CMenuT@$00@WTL@@8 000000014004be78     Colorpge.obj
 0002:0000bea0       ??_R2?$CMenuT@$00@WTL@@8   000000014004bea0     Colorpge.obj
 0002:0000beb0       ??_R3?$CMenuT@$00@WTL@@8   000000014004beb0     Colorpge.obj
 0002:0000bec8       ??_R17?0A@EA@?$CMenuT@$00@WTL@@8 000000014004bec8     Colorpge.obj
 0002:0000bef0       ??_R2CMenuMTL@@8           000000014004bef0     Colorpge.obj
 0002:0000bf10       ??_R3CMenuMTL@@8           000000014004bf10     Colorpge.obj
 0002:0000bf28       ??_R4CMenuMTL@@6B@         000000014004bf28     Colorpge.obj
 0002:0000bf50       ??_R2CMainFrame@@8         000000014004bf50     Mainfrm.obj
 0002:0000bf98       ??_R1A@?0A@EA@CMainFrame@@8 000000014004bf98     Mainfrm.obj
 0002:0000bfc0       ??_R3CMainFrame@@8         000000014004bfc0     Mainfrm.obj
 0002:0000bfd8       ??_R4CMainFrame@@6B@       000000014004bfd8     Mainfrm.obj
 0002:0000c000       ??_R1A@?0A@EA@CToolBar@@8  000000014004c000     Mainfrm.obj
 0002:0000c028       ??_R2CToolBar@@8           000000014004c028     Mainfrm.obj
 0002:0000c068       ??_R3CToolBar@@8           000000014004c068     Mainfrm.obj
 0002:0000c080       ??_R4CToolBar@@6B@         000000014004c080     Mainfrm.obj
 0002:0000c0a8       ??_R1A@?0A@EA@CToolCmdUI@@8 000000014004c0a8     Mainfrm.obj
 0002:0000c0d0       ??_R2CToolCmdUI@@8         000000014004c0d0     Mainfrm.obj
 0002:0000c0e8       ??_R3CToolCmdUI@@8         000000014004c0e8     Mainfrm.obj
 0002:0000c100       ??_R4CToolCmdUI@@6B@       000000014004c100     Mainfrm.obj
 0002:0000c128       ??_R1A@?0A@EA@CStatusBar@@8 000000014004c128     Mainfrm.obj
 0002:0000c150       ??_R2CStatusBar@@8         000000014004c150     Mainfrm.obj
 0002:0000c190       ??_R3CStatusBar@@8         000000014004c190     Mainfrm.obj
 0002:0000c1a8       ??_R4CStatusBar@@6B@       000000014004c1a8     Mainfrm.obj
 0002:0000c1d0       ??_R1A@?0A@EA@CWindowDCMTL@@8 000000014004c1d0     Mainfrm.obj
 0002:0000c1f8       ??_R2CWindowDCMTL@@8       000000014004c1f8     Mainfrm.obj
 0002:0000c220       ??_R3CWindowDCMTL@@8       000000014004c220     Mainfrm.obj
 0002:0000c238       ??_R4CWindowDCMTL@@6B@     000000014004c238     Mainfrm.obj
 0002:0000c260       ??_R1A@?0A@EA@CControlBar@@8 000000014004c260     Mainfrm.obj
 0002:0000c288       ??_R2CControlBar@@8        000000014004c288     Mainfrm.obj
 0002:0000c2c0       ??_R3CControlBar@@8        000000014004c2c0     Mainfrm.obj
 0002:0000c2d8       ??_R4CControlBar@@6B@      000000014004c2d8     Mainfrm.obj
 0002:0000c300       ??_R1A@?0A@EA@CToolTipCtrlMTL@@8 000000014004c300     Mainfrm.obj
 0002:0000c328       ??_R2?$CToolTipCtrlT@VCWnd@@@WTL@@8 000000014004c328     Mainfrm.obj
 0002:0000c360       ??_R3?$CToolTipCtrlT@VCWnd@@@WTL@@8 000000014004c360     Mainfrm.obj
 0002:0000c378       ??_R1A@?0A@EA@?$CToolTipCtrlT@VCWnd@@@WTL@@8 000000014004c378     Mainfrm.obj
 0002:0000c3a0       ??_R2CToolTipCtrlMTL@@8    000000014004c3a0     Mainfrm.obj
 0002:0000c3e0       ??_R3CToolTipCtrlMTL@@8    000000014004c3e0     Mainfrm.obj
 0002:0000c3f8       ??_R4CToolTipCtrlMTL@@6B@  000000014004c3f8     Mainfrm.obj
 0002:0000c420       ??_R1A@?0A@EA@CStatusCmdUI@@8 000000014004c420     Mainfrm.obj
 0002:0000c448       ??_R2CStatusCmdUI@@8       000000014004c448     Mainfrm.obj
 0002:0000c460       ??_R3CStatusCmdUI@@8       000000014004c460     Mainfrm.obj
 0002:0000c478       ??_R4CStatusCmdUI@@6B@     000000014004c478     Mainfrm.obj
 0002:0000c4a0       ??_R1A@?0A@EA@CClientDCMTL@@8 000000014004c4a0     Mainfrm.obj
 0002:0000c4c8       ??_R2CClientDCMTL@@8       000000014004c4c8     Mainfrm.obj
 0002:0000c4f0       ??_R3CClientDCMTL@@8       000000014004c4f0     Mainfrm.obj
 0002:0000c508       ??_R4CClientDCMTL@@6B@     000000014004c508     Mainfrm.obj
 0002:0000c530       ??_R1A@?0A@EA@CMDIFrameWnd@@8 000000014004c530     Mainfrm.obj
 0002:0000c558       ??_R2CMDIFrameWnd@@8       000000014004c558     Mainfrm.obj
 0002:0000c598       ??_R3CMDIFrameWnd@@8       000000014004c598     Mainfrm.obj
 0002:0000c5b0       ??_R4CMDIFrameWnd@@6B@     000000014004c5b0     Mainfrm.obj
 0002:0000c5d8       ??_R1A@?0A@EA@CFrameWnd@@8 000000014004c5d8     Mainfrm.obj
 0002:0000c600       ??_R2CFrameWnd@@8          000000014004c600     Mainfrm.obj
 0002:0000c638       ??_R3CFrameWnd@@8          000000014004c638     Mainfrm.obj
 0002:0000c650       ??_R4CFrameWnd@@6B@        000000014004c650     Mainfrm.obj
 0002:0000c680       ??_R2CShapePropSheetFrame@@8 000000014004c680     Minifrm.obj
 0002:0000c6c8       ??_R1A@?0A@EA@CShapePropSheetFrame@@8 000000014004c6c8     Minifrm.obj
 0002:0000c6f0       ??_R3CShapePropSheetFrame@@8 000000014004c6f0     Minifrm.obj
 0002:0000c708       ??_R4CShapePropSheetFrame@@6B@ 000000014004c708     Minifrm.obj
 0002:0000c730       ??_R1A@?0A@EA@CMiniFrameWnd@@8 000000014004c730     Minifrm.obj
 0002:0000c758       ??_R2CMiniFrameWnd@@8      000000014004c758     Minifrm.obj
 0002:0000c798       ??_R3CMiniFrameWnd@@8      000000014004c798     Minifrm.obj
 0002:0000c7b0       ??_R4CMiniFrameWnd@@6B@    000000014004c7b0     Minifrm.obj
 0002:0000c7d8       ??_R2CShapePreviewWnd@@8   000000014004c7d8     Preview.obj
 0002:0000c810       ??_R1A@?0A@EA@CShapePreviewWnd@@8 000000014004c810     Preview.obj
 0002:0000c838       ??_R3CShapePreviewWnd@@8   000000014004c838     Preview.obj
 0002:0000c850       ??_R4CShapePreviewWnd@@6B@ 000000014004c850     Preview.obj
 0002:0000c878       ??_R1A@?0A@EA@CBrushMTL@@8 000000014004c878     Preview.obj
 0002:0000c8a0       ??_R2?$CHandleWrapper@VCBrushMTL@@PEAUHBRUSH__@@V?$CBrushT@$00@WTL@@@@8 000000014004c8a0     Preview.obj
 0002:0000c8b8       ??_R3?$CHandleWrapper@VCBrushMTL@@PEAUHBRUSH__@@V?$CBrushT@$00@WTL@@@@8 000000014004c8b8     Preview.obj
 0002:0000c8d0       ??_R1A@?0A@EA@?$CHandleWrapper@VCBrushMTL@@PEAUHBRUSH__@@V?$CBrushT@$00@WTL@@@@8 000000014004c8d0     Preview.obj
 0002:0000c8f8       ??_R1A@?0A@EA@?$CBrushT@$00@WTL@@8 000000014004c8f8     Preview.obj
 0002:0000c920       ??_R2?$CBrushT@$00@WTL@@8  000000014004c920     Preview.obj
 0002:0000c930       ??_R3?$CBrushT@$00@WTL@@8  000000014004c930     Preview.obj
 0002:0000c948       ??_R17?0A@EA@?$CBrushT@$00@WTL@@8 000000014004c948     Preview.obj
 0002:0000c970       ??_R2CBrushMTL@@8          000000014004c970     Preview.obj
 0002:0000c990       ??_R3CBrushMTL@@8          000000014004c990     Preview.obj
 0002:0000c9a8       ??_R4CBrushMTL@@6B@        000000014004c9a8     Preview.obj
 0002:0000c9d0       ??_R1A@?0A@EA@CPaintDCMTL@@8 000000014004c9d0     Preview.obj
 0002:0000c9f8       ??_R2CPaintDCMTL@@8        000000014004c9f8     Preview.obj
 0002:0000ca20       ??_R3CPaintDCMTL@@8        000000014004ca20     Preview.obj
 0002:0000ca38       ??_R4CPaintDCMTL@@6B@      000000014004ca38     Preview.obj
 0002:0000ca60       ??_R2CAboutDlg@@8          000000014004ca60     Propdlg.obj
 0002:0000caa0       ??_R2CPropDlgApp@@8        000000014004caa0     Propdlg.obj
 0002:0000cae8       ??_R1A@?0A@EA@CAboutDlg@@8 000000014004cae8     Propdlg.obj
 0002:0000cb10       ??_R1A@?0A@EA@CPropDlgApp@@8 000000014004cb10     Propdlg.obj
 0002:0000cb38       ??_R3CAboutDlg@@8          000000014004cb38     Propdlg.obj
 0002:0000cb50       ??_R3CPropDlgApp@@8        000000014004cb50     Propdlg.obj
 0002:0000cb68       ??_R4CAboutDlg@@6B@        000000014004cb68     Propdlg.obj
 0002:0000cb90       ??_R4CPropDlgApp@@6B@      000000014004cb90     Propdlg.obj
 0002:0000cbb8       ??_R1A@?0A@EA@CCommandLineInfo@@8 000000014004cbb8     Propdlg.obj
 0002:0000cbe0       ??_R2CCommandLineInfo@@8   000000014004cbe0     Propdlg.obj
 0002:0000cbf0       ??_R3CCommandLineInfo@@8   000000014004cbf0     Propdlg.obj
 0002:0000cc08       ??_R4CCommandLineInfo@@6B@ 000000014004cc08     Propdlg.obj
 0002:0000cc30       ??_R1A@?0A@EA@CDocManager@@8 000000014004cc30     Propdlg.obj
 0002:0000cc58       ??_R2CDocManager@@8        000000014004cc58     Propdlg.obj
 0002:0000cc68       ??_R3CDocManager@@8        000000014004cc68     Propdlg.obj
 0002:0000cc80       ??_R4CDocManager@@6B@      000000014004cc80     Propdlg.obj
 0002:0000cca8       ??_R1A@?0A@EA@CMultiDocTemplate@@8 000000014004cca8     Propdlg.obj
 0002:0000ccd0       ??_R2CDocTemplate@@8       000000014004ccd0     Propdlg.obj
 0002:0000ccf0       ??_R3CDocTemplate@@8       000000014004ccf0     Propdlg.obj
 0002:0000cd08       ??_R1A@?0A@EA@CDocTemplate@@8 000000014004cd08     Propdlg.obj
 0002:0000cd30       ??_R2CMultiDocTemplate@@8  000000014004cd30     Propdlg.obj
 0002:0000cd58       ??_R3CMultiDocTemplate@@8  000000014004cd58     Propdlg.obj
 0002:0000cd70       ??_R4CMultiDocTemplate@@6B@ 000000014004cd70     Propdlg.obj
 0002:0000cd98       ??_R1A@?0A@EA@CRecentFileList@@8 000000014004cd98     Propdlg.obj
 0002:0000cdc0       ??_R2CRecentFileList@@8    000000014004cdc0     Propdlg.obj
 0002:0000cdd0       ??_R3CRecentFileList@@8    000000014004cdd0     Propdlg.obj
 0002:0000cde8       ??_R4CRecentFileList@@6B@  000000014004cde8     Propdlg.obj
 0002:0000ce10       ??_R4CWinThread@@6B@       000000014004ce10     Propdlg.obj
 0002:0000ce38       ??_R1A@?0A@EA@CWinApp@@8   000000014004ce38     Propdlg.obj
 0002:0000ce60       ??_R2CWinThread@@8         000000014004ce60     Propdlg.obj
 0002:0000ce80       ??_R3CWinThread@@8         000000014004ce80     Propdlg.obj
 0002:0000ce98       ??_R1A@?0A@EA@CWinThread@@8 000000014004ce98     Propdlg.obj
 0002:0000cec0       ??_R1A@?0A@EA@CModuleThreadState@@8 000000014004cec0     Propdlg.obj
 0002:0000cee8       ??_R2CModuleThreadState@@8 000000014004cee8     Propdlg.obj
 0002:0000cf00       ??_R3CModuleThreadState@@8 000000014004cf00     Propdlg.obj
 0002:0000cf18       ??_R1DA@?0A@EA@CModuleThreadState@@8 000000014004cf18     Propdlg.obj
 0002:0000cf40       ??_R1A@?0A@EA@CThreadState@@8 000000014004cf40     Propdlg.obj
 0002:0000cf68       ??_R2CThreadState@@8       000000014004cf68     Propdlg.obj
 0002:0000cf78       ??_R3CThreadState@@8       000000014004cf78     Propdlg.obj
 0002:0000cf90       ??_R1DA@?0A@EA@CThreadState@@8 000000014004cf90     Propdlg.obj
 0002:0000cfb8       ??_R1A@?0A@EA@CWinMsg@@8   000000014004cfb8     Propdlg.obj
 0002:0000cfe0       ??_R2CWinMsg@@8            000000014004cfe0     Propdlg.obj
 0002:0000cff0       ??_R3CWinMsg@@8            000000014004cff0     Propdlg.obj
 0002:0000d008       ??_R1BKI@?0A@EA@CWinMsg@@8 000000014004d008     Propdlg.obj
 0002:0000d030       ??_R2CWinApp@@8            000000014004d030     Propdlg.obj
 0002:0000d070       ??_R3CWinApp@@8            000000014004d070     Propdlg.obj
 0002:0000d088       ??_R4CWinApp@@6B@          000000014004d088     Propdlg.obj
 0002:0000d0b0       ??_R4CCommonWnd@@6B@       000000014004d0b0     Propdlg.obj
 0002:0000d0d8       ??_R4CPrintDialogMTL@@6BCCommonWnd@@@ 000000014004d0d8     Propdlg.obj
 0002:0000d100       ??_R1A@?0A@EA@CPrintDialogMTL@@8 000000014004d100     Propdlg.obj
 0002:0000d128       ??_R2CCommonWnd@@8         000000014004d128     Propdlg.obj
 0002:0000d148       ??_R3CCommonWnd@@8         000000014004d148     Propdlg.obj
 0002:0000d160       ??_R1A@?0A@EA@CCommonWnd@@8 000000014004d160     Propdlg.obj
 0002:0000d188       ??_R17?0A@EA@CPrintDialog@WTL@@8 000000014004d188     Propdlg.obj
 0002:0000d1b0       ??_R17?0A@EA@?$CPrintDialogImpl@VCPrintDialog@WTL@@@WTL@@8 000000014004d1b0     Propdlg.obj
 0002:0000d1d8       ??_R17?0A@EA@CCommonDialogImplBase@WTL@@8 000000014004d1d8     Propdlg.obj
 0002:0000d200       ??_R17?0A@EA@?$CWindowImplBaseT@VCWindow@ATL@@V?$CWinTraits@$0FGAAAAAA@$0A@@2@@ATL@@8 000000014004d200     Propdlg.obj
 0002:0000d228       ??_R17?0A@EA@?$CWindowImplRoot@VCWindow@ATL@@@ATL@@8 000000014004d228     Propdlg.obj
 0002:0000d250       ??_R1BA@?0A@EA@CWindow@ATL@@8 000000014004d250     Propdlg.obj
 0002:0000d278       ??_R17?0A@EA@CMessageMap@ATL@@8 000000014004d278     Propdlg.obj
 0002:0000d2a0       ??_R2CPrintDialogMTL@@8    000000014004d2a0     Propdlg.obj
 0002:0000d300       ??_R3CPrintDialogMTL@@8    000000014004d300     Propdlg.obj
 0002:0000d318       ??_R4CPrintDialogMTL@@6BCPrintDialog@WTL@@@ 000000014004d318     Propdlg.obj
 0002:0000d340       ??_R1A@?0A@EA@CPrintDialog@WTL@@8 000000014004d340     Propdlg.obj
 0002:0000d368       ??_R2?$CPrintDialogImpl@VCPrintDialog@WTL@@@WTL@@8 000000014004d368     Propdlg.obj
 0002:0000d3a0       ??_R3?$CPrintDialogImpl@VCPrintDialog@WTL@@@WTL@@8 000000014004d3a0     Propdlg.obj
 0002:0000d3b8       ??_R1A@?0A@EA@?$CPrintDialogImpl@VCPrintDialog@WTL@@@WTL@@8 000000014004d3b8     Propdlg.obj
 0002:0000d3e0       ??_R2CCommonDialogImplBase@WTL@@8 000000014004d3e0     Propdlg.obj
 0002:0000d410       ??_R3CCommonDialogImplBase@WTL@@8 000000014004d410     Propdlg.obj
 0002:0000d428       ??_R1A@?0A@EA@CCommonDialogImplBase@WTL@@8 000000014004d428     Propdlg.obj
 0002:0000d450       ??_R2?$CWindowImplBaseT@VCWindow@ATL@@V?$CWinTraits@$0FGAAAAAA@$0A@@2@@ATL@@8 000000014004d450     Propdlg.obj
 0002:0000d478       ??_R3?$CWindowImplBaseT@VCWindow@ATL@@V?$CWinTraits@$0FGAAAAAA@$0A@@2@@ATL@@8 000000014004d478     Propdlg.obj
 0002:0000d490       ??_R1A@?0A@EA@?$CWindowImplBaseT@VCWindow@ATL@@V?$CWinTraits@$0FGAAAAAA@$0A@@2@@ATL@@8 000000014004d490     Propdlg.obj
 0002:0000d4b8       ??_R2?$CWindowImplRoot@VCWindow@ATL@@@ATL@@8 000000014004d4b8     Propdlg.obj
 0002:0000d4d8       ??_R3?$CWindowImplRoot@VCWindow@ATL@@@ATL@@8 000000014004d4d8     Propdlg.obj
 0002:0000d4f0       ??_R1A@?0A@EA@?$CWindowImplRoot@VCWindow@ATL@@@ATL@@8 000000014004d4f0     Propdlg.obj
 0002:0000d518       ??_R2CMessageMap@ATL@@8    000000014004d518     Propdlg.obj
 0002:0000d528       ??_R3CMessageMap@ATL@@8    000000014004d528     Propdlg.obj
 0002:0000d540       ??_R1A@?0A@EA@CMessageMap@ATL@@8 000000014004d540     Propdlg.obj
 0002:0000d568       ??_R2CPrintDialog@WTL@@8   000000014004d568     Propdlg.obj
 0002:0000d5a8       ??_R3CPrintDialog@WTL@@8   000000014004d5a8     Propdlg.obj
 0002:0000d5c0       ??_R4CPrintDialog@WTL@@6B@ 000000014004d5c0     Propdlg.obj
 0002:0000d5e8       ??_R1A@?0A@EA@CFileDialogMTL@@8 000000014004d5e8     Propdlg.obj
 0002:0000d610       ??_R2CCommonDialog@@8      000000014004d610     Propdlg.obj
 0002:0000d650       ??_R3CCommonDialog@@8      000000014004d650     Propdlg.obj
 0002:0000d668       ??_R1A@?0A@EA@CCommonDialog@@8 000000014004d668     Propdlg.obj
 0002:0000d690       ??_R2CFileDialogMTL@@8     000000014004d690     Propdlg.obj
 0002:0000d6d8       ??_R3CFileDialogMTL@@8     000000014004d6d8     Propdlg.obj
 0002:0000d6f0       ??_R4CFileDialogMTL@@6B@   000000014004d6f0     Propdlg.obj
 0002:0000d718       ??_R1A@?0A@EA@CNewTypeDlg@@8 000000014004d718     Propdlg.obj
 0002:0000d740       ??_R2CNewTypeDlg@@8        000000014004d740     Propdlg.obj
 0002:0000d780       ??_R3CNewTypeDlg@@8        000000014004d780     Propdlg.obj
 0002:0000d798       ??_R4CNewTypeDlg@@6B@      000000014004d798     Propdlg.obj
 0002:0000d7c0       ??_R2CModalShapePropSheet@@8 000000014004d7c0     Propsht.obj
 0002:0000d800       ??_R1A@?0A@EA@CModalShapePropSheet@@8 000000014004d800     Propsht.obj
 0002:0000d828       ??_R3CModalShapePropSheet@@8 000000014004d828     Propsht.obj
 0002:0000d840       ??_R4CModalShapePropSheet@@6B@ 000000014004d840     Propsht.obj
 0002:0000d868       ??_R1A@?0A@EA@CPropertySheetMTL@@8 000000014004d868     Propsht.obj
 0002:0000d890       ??_R2CPropertySheetMTL@@8  000000014004d890     Propsht.obj
 0002:0000d8c8       ??_R3CPropertySheetMTL@@8  000000014004d8c8     Propsht.obj
 0002:0000d8e0       ??_R4CPropertySheetMTL@@6B@ 000000014004d8e0     Propsht.obj
 0002:0000d908       ??_R2CModelessShapePropSheet@@8 000000014004d908     Propsht2.obj
 0002:0000d948       ??_R1A@?0A@EA@CModelessShapePropSheet@@8 000000014004d948     Propsht2.obj
 0002:0000d970       ??_R3CModelessShapePropSheet@@8 000000014004d970     Propsht2.obj
 0002:0000d988       ??_R4CModelessShapePropSheet@@6B@ 000000014004d988     Propsht2.obj
 0002:0000d9b0       ??_R2CShapesDoc@@8         000000014004d9b0     Shapedoc.obj
 0002:0000d9d8       ??_R2CDocument@@8          000000014004d9d8     Shapedoc.obj
 0002:0000d9f8       ??_R3CDocument@@8          000000014004d9f8     Shapedoc.obj
 0002:0000da10       ??_R1A@?0A@EA@CDocument@@8 000000014004da10     Shapedoc.obj
 0002:0000da38       ??_R1A@?0A@EA@CShapesDoc@@8 000000014004da38     Shapedoc.obj
 0002:0000da60       ??_R3CShapesDoc@@8         000000014004da60     Shapedoc.obj
 0002:0000da78       ??_R4CShapesDoc@@6B@       000000014004da78     Shapedoc.obj
 0002:0000daa0       ??_R1A@?0A@EA@CFile@@8     000000014004daa0     Shapedoc.obj
 0002:0000dac8       ??_R2CFile@@8              000000014004dac8     Shapedoc.obj
 0002:0000dad8       ??_R3CFile@@8              000000014004dad8     Shapedoc.obj
 0002:0000daf0       ??_R4CFile@@6B@            000000014004daf0     Shapedoc.obj
 0002:0000db18       ??_R2CShape@@8             000000014004db18     Shapeobj.obj
 0002:0000db30       ??_R1A@?0A@EA@CShape@@8    000000014004db30     Shapeobj.obj
 0002:0000db58       ??_R3CShape@@8             000000014004db58     Shapeobj.obj
 0002:0000db70       ??_R4CShape@@6B@           000000014004db70     Shapeobj.obj
 0002:0000db98       ??_R1A@?0A@EA@CGdiObject@@8 000000014004db98     Shapeobj.obj
 0002:0000dbc0       ??_R2?$CHandleWrapper@VCGdiObject@@PEAXVCGdiobj@@@@8 000000014004dbc0     Shapeobj.obj
 0002:0000dbd8       ??_R3?$CHandleWrapper@VCGdiObject@@PEAXVCGdiobj@@@@8 000000014004dbd8     Shapeobj.obj
 0002:0000dbf0       ??_R1A@?0A@EA@?$CHandleWrapper@VCGdiObject@@PEAXVCGdiobj@@@@8 000000014004dbf0     Shapeobj.obj
 0002:0000dc18       ??_R1A@?0A@EA@CGdiobj@@8   000000014004dc18     Shapeobj.obj
 0002:0000dc40       ??_R2CGdiobj@@8            000000014004dc40     Shapeobj.obj
 0002:0000dc50       ??_R3CGdiobj@@8            000000014004dc50     Shapeobj.obj
 0002:0000dc68       ??_R17?0A@EA@CGdiobj@@8    000000014004dc68     Shapeobj.obj
 0002:0000dc90       ??_R2CGdiObject@@8         000000014004dc90     Shapeobj.obj
 0002:0000dcb0       ??_R3CGdiObject@@8         000000014004dcb0     Shapeobj.obj
 0002:0000dcc8       ??_R4CGdiObject@@6B@       000000014004dcc8     Shapeobj.obj
 0002:0000dcf0       ??_R1A@?0A@EA@CPenMTL@@8   000000014004dcf0     Shapeobj.obj
 0002:0000dd18       ??_R2?$CHandleWrapper@VCPenMTL@@PEAUHPEN__@@V?$CPenT@$00@WTL@@@@8 000000014004dd18     Shapeobj.obj
 0002:0000dd30       ??_R3?$CHandleWrapper@VCPenMTL@@PEAUHPEN__@@V?$CPenT@$00@WTL@@@@8 000000014004dd30     Shapeobj.obj
 0002:0000dd48       ??_R1A@?0A@EA@?$CHandleWrapper@VCPenMTL@@PEAUHPEN__@@V?$CPenT@$00@WTL@@@@8 000000014004dd48     Shapeobj.obj
 0002:0000dd70       ??_R1A@?0A@EA@?$CPenT@$00@WTL@@8 000000014004dd70     Shapeobj.obj
 0002:0000dd98       ??_R2?$CPenT@$00@WTL@@8    000000014004dd98     Shapeobj.obj
 0002:0000dda8       ??_R3?$CPenT@$00@WTL@@8    000000014004dda8     Shapeobj.obj
 0002:0000ddc0       ??_R17?0A@EA@?$CPenT@$00@WTL@@8 000000014004ddc0     Shapeobj.obj
 0002:0000dde8       ??_R2CPenMTL@@8            000000014004dde8     Shapeobj.obj
 0002:0000de08       ??_R3CPenMTL@@8            000000014004de08     Shapeobj.obj
 0002:0000de20       ??_R4CPenMTL@@6B@          000000014004de20     Shapeobj.obj
 0002:0000de48       ??_R2CShapesView@@8        000000014004de48     Shapesvw.obj
 0002:0000de88       ??_R1A@?0A@EA@CShapesView@@8 000000014004de88     Shapesvw.obj
 0002:0000deb0       ??_R3CShapesView@@8        000000014004deb0     Shapesvw.obj
 0002:0000dec8       ??_R4CShapesView@@6B@      000000014004dec8     Shapesvw.obj
 0002:0000def0       ??_R1A@?0A@EA@CDialogBar@@8 000000014004def0     Shapesvw.obj
 0002:0000df18       ??_R2CDialogBar@@8         000000014004df18     Shapesvw.obj
 0002:0000df58       ??_R3CDialogBar@@8         000000014004df58     Shapesvw.obj
 0002:0000df70       ??_R4CDialogBar@@6B@       000000014004df70     Shapesvw.obj
 0002:0000df98       ??_R1A@?0A@EA@CView@@8     000000014004df98     Shapesvw.obj
 0002:0000dfc0       ??_R2CView@@8              000000014004dfc0     Shapesvw.obj
 0002:0000dff8       ??_R3CView@@8              000000014004dff8     Shapesvw.obj
 0002:0000e010       ??_R4CView@@6B@            000000014004e010     Shapesvw.obj
 0002:0000e038       ??_R1A@?0A@EA@CPreviewDC@@8 000000014004e038     Shapesvw.obj
 0002:0000e060       ??_R2CPreviewDC@@8         000000014004e060     Shapesvw.obj
 0002:0000e088       ??_R3CPreviewDC@@8         000000014004e088     Shapesvw.obj
 0002:0000e0a0       ??_R4CPreviewDC@@6B@       000000014004e0a0     Shapesvw.obj
 0002:0000e0c8       ??_R1A@?0A@EA@CPrintingDialog@@8 000000014004e0c8     Shapesvw.obj
 0002:0000e0f0       ??_R2CPrintingDialog@@8    000000014004e0f0     Shapesvw.obj
 0002:0000e130       ??_R3CPrintingDialog@@8    000000014004e130     Shapesvw.obj
 0002:0000e148       ??_R4CPrintingDialog@@6B@  000000014004e148     Shapesvw.obj
 0002:0000e170       ??_R2CMDIChildWnd@@8       000000014004e170     Stdafx.obj
 0002:0000e1b0       ??_R1A@?0A@EA@CPreviewView@@8 000000014004e1b0     Stdafx.obj
 0002:0000e1d8       ??_R3?$CHandleWrapper@VCBitmapMTL@@PEAUHBITMAP__@@V?$CBitmapT@$00@WTL@@@@8 000000014004e1d8     Stdafx.obj
 0002:0000e1f0       ??_R2?$CHandleWrapper@VCRgnMTL@@PEAUHRGN__@@V?$CRgnT@$00@WTL@@@@8 000000014004e1f0     Stdafx.obj
 0002:0000e208       ??_R2CRgnMTL@@8            000000014004e208     Stdafx.obj
 0002:0000e228       ??_R17?0A@EA@?$CRgnT@$00@WTL@@8 000000014004e228     Stdafx.obj
 0002:0000e250       ??_R1A@?0A@EA@?$CBitmapT@$00@WTL@@8 000000014004e250     Stdafx.obj
 0002:0000e278       ??_R3CBitmapMTL@@8         000000014004e278     Stdafx.obj
 0002:0000e290       ??_R3?$CBitmapT@$00@WTL@@8 000000014004e290     Stdafx.obj
 0002:0000e2a8       ??_R1A@?0A@EA@?$CRgnT@$00@WTL@@8 000000014004e2a8     Stdafx.obj
 0002:0000e2d0       ??_R1A@?0A@EA@CRgnMTL@@8   000000014004e2d0     Stdafx.obj
 0002:0000e2f8       ??_R3CMDIChildWnd@@8       000000014004e2f8     Stdafx.obj
 0002:0000e310       ??_R4CImage@@6B@           000000014004e310     Stdafx.obj
 0002:0000e338       ??_R1A@?0A@EA@CImage@@8    000000014004e338     Stdafx.obj
 0002:0000e360       ??_R3?$CRgnT@$00@WTL@@8    000000014004e360     Stdafx.obj
 0002:0000e378       ??_R3CImage@@8             000000014004e378     Stdafx.obj
 0002:0000e390       ??_R2?$CBitmapT@$00@WTL@@8 000000014004e390     Stdafx.obj
 0002:0000e3a0       ??_R4CRgnMTL@@6B@          000000014004e3a0     Stdafx.obj
 0002:0000e3c8       ??_R4CScrollView@@6B@      000000014004e3c8     Stdafx.obj
 0002:0000e3f0       ??_R2CBitmapMTL@@8         000000014004e3f0     Stdafx.obj
 0002:0000e410       ??_R4CPreviewView@@6B@     000000014004e410     Stdafx.obj
 0002:0000e438       ??_R17?0A@EA@?$CBitmapT@$00@WTL@@8 000000014004e438     Stdafx.obj
 0002:0000e460       ??_R2CScrollView@@8        000000014004e460     Stdafx.obj
 0002:0000e4a0       ??_R1A@?0A@EA@CScrollView@@8 000000014004e4a0     Stdafx.obj
 0002:0000e4c8       ??_R3CRgnMTL@@8            000000014004e4c8     Stdafx.obj
 0002:0000e4e0       ??_R4_AFX_MOUSEANCHORWND@@6B@ 000000014004e4e0     Stdafx.obj
 0002:0000e508       ??_R1A@?0A@EA@_AFX_MOUSEANCHORWND@@8 000000014004e508     Stdafx.obj
 0002:0000e530       ??_R4CMDIChildWnd@@6B@     000000014004e530     Stdafx.obj
 0002:0000e558       ??_R3CScrollView@@8        000000014004e558     Stdafx.obj
 0002:0000e570       ??_R4CBitmapMTL@@6B@       000000014004e570     Stdafx.obj
 0002:0000e598       ??_R3?$CHandleWrapper@VCRgnMTL@@PEAUHRGN__@@V?$CRgnT@$00@WTL@@@@8 000000014004e598     Stdafx.obj
 0002:0000e5b0       ??_R1A@?0A@EA@CMDIChildWnd@@8 000000014004e5b0     Stdafx.obj
 0002:0000e5d8       ??_R2_AFX_MOUSEANCHORWND@@8 000000014004e5d8     Stdafx.obj
 0002:0000e610       ??_R2?$CRgnT@$00@WTL@@8    000000014004e610     Stdafx.obj
 0002:0000e620       ??_R1A@?0A@EA@CBitmapMTL@@8 000000014004e620     Stdafx.obj
 0002:0000e648       ??_R2CImage@@8             000000014004e648     Stdafx.obj
 0002:0000e670       ??_R1A@?0A@EA@?$CHandleWrapper@VCRgnMTL@@PEAUHRGN__@@V?$CRgnT@$00@WTL@@@@8 000000014004e670     Stdafx.obj
 0002:0000e6a0       ??_R2CPreviewView@@8       000000014004e6a0     Stdafx.obj
 0002:0000e6e8       ??_R3CPreviewView@@8       000000014004e6e8     Stdafx.obj
 0002:0000e700       ??_R1A@?0A@EA@?$CHandleWrapper@VCBitmapMTL@@PEAUHBITMAP__@@V?$CBitmapT@$00@WTL@@@@8 000000014004e700     Stdafx.obj
 0002:0000e728       ??_R2?$CHandleWrapper@VCBitmapMTL@@PEAUHBITMAP__@@V?$CBitmapT@$00@WTL@@@@8 000000014004e728     Stdafx.obj
 0002:0000e740       ??_R3_AFX_MOUSEANCHORWND@@8 000000014004e740     Stdafx.obj
 0002:0000e760       ??_R2CStylePage@@8         000000014004e760     Stylepge.obj
 0002:0000e7a8       ??_R1A@?0A@EA@CStylePage@@8 000000014004e7a8     Stylepge.obj
 0002:0000e7d0       ??_R3CStylePage@@8         000000014004e7d0     Stylepge.obj
 0002:0000e7e8       ??_R4CStylePage@@6B@       000000014004e7e8     Stylepge.obj
 0002:0000e810       ??_R4bad_exception@std@@6B@ 000000014004e810     LIBCMT:frame.obj
 0002:0000e838       ??_R3bad_exception@std@@8  000000014004e838     LIBCMT:frame.obj
 0002:0000e850       ??_R2bad_exception@std@@8  000000014004e850     LIBCMT:frame.obj
 0002:0000e868       ??_R1A@?0A@EA@bad_exception@std@@8 000000014004e868     LIBCMT:frame.obj
 0002:0000e890       __rtc_iaa                  000000014004e890     LIBCMT:initsect.obj
 0002:0000e898       __rtc_izz                  000000014004e898     LIBCMT:initsect.obj
 0002:0000e8a0       __rtc_taa                  000000014004e8a0     LIBCMT:initsect.obj
 0002:0000e8a8       __rtc_tzz                  000000014004e8a8     LIBCMT:initsect.obj
 0002:00015258       _TI2?AVbad_alloc@std@@     0000000140055258     LIBCMT:new.obj
 0002:00015278       _CTA2?AVbad_alloc@std@@    0000000140055278     LIBCMT:new.obj
 0002:00015290       _CT??_R0?AVbad_alloc@std@@@8??0bad_alloc@std@@QEAA@AEBV01@@Z24 0000000140055290     LIBCMT:new.obj
 0002:000152b8       _CT??_R0?AVexception@std@@@8??0exception@std@@QEAA@AEBV01@@Z24 00000001400552b8     LIBCMT:new.obj
 0002:000152e0       _CT??_R0PEAVCException@@@88 00000001400552e0     Colorpge.obj
 0002:00015308       _CT??_R0PEAX@88            0000000140055308     Colorpge.obj
 0002:00015330       _CTA2PEAVCException@@      0000000140055330     Colorpge.obj
 0002:00015348       _TI2PEAVCException@@       0000000140055348     Colorpge.obj
 0002:00015368       _CT??_R0?AVCAtlException@ATL@@@84 0000000140055368     Colorpge.obj
 0002:00015390       _CTA1?AVCAtlException@ATL@@ 0000000140055390     Colorpge.obj
 0002:000153a0       _TI1?AVCAtlException@ATL@@ 00000001400553a0     Colorpge.obj
 0002:000153c0       _CT??_R0PEAVCArchiveException@@@88 00000001400553c0     Shapedoc.obj
 0002:000153e8       _CTA4PEAVCArchiveException@@ 00000001400553e8     Shapedoc.obj
 0002:00015410       _TI4PEAVCArchiveException@@ 0000000140055410     Shapedoc.obj
 0002:00015430       _CT??_R0PEAVCFileException@@@88 0000000140055430     Shapedoc.obj
 0002:00015458       _CT??_R0PEAVCSimpleException@@@88 0000000140055458     Shapedoc.obj
 0002:00015480       _CTA4PEAVCFileException@@  0000000140055480     Shapedoc.obj
 0002:000154a8       _TI4PEAVCFileException@@   00000001400554a8     Shapedoc.obj
 0002:000154c8       _TI2?AVbad_exception@std@@ 00000001400554c8     LIBCMT:frame.obj
 0002:000154e8       _CTA2?AVbad_exception@std@@ 00000001400554e8     LIBCMT:frame.obj
 0002:00015500       _CT??_R0?AVbad_exception@std@@@8??0bad_exception@std@@QEAA@AEBV01@@Z24 0000000140055500     LIBCMT:frame.obj
 0002:00015528       __IMPORT_DESCRIPTOR_KERNEL32 0000000140055528     kernel32:KERNEL32.dll
 0002:0001553c       __IMPORT_DESCRIPTOR_USER32 000000014005553c     user32:USER32.dll
 0002:00015550       __IMPORT_DESCRIPTOR_ADVAPI32 0000000140055550     advapi32:ADVAPI32.dll
 0002:00015564       __IMPORT_DESCRIPTOR_ole32  0000000140055564     ole32:ole32.dll
 0002:00015578       __IMPORT_DESCRIPTOR_SHELL32 0000000140055578     shell32:SHELL32.dll
 0002:0001558c       __IMPORT_DESCRIPTOR_SHLWAPI 000000014005558c     shlwapi:SHLWAPI.dll
 0002:000155a0       __IMPORT_DESCRIPTOR_GDI32  00000001400555a0     gdi32:GDI32.dll
 0002:000155b4       __IMPORT_DESCRIPTOR_COMCTL32 00000001400555b4     comctl32:COMCTL32.dll
 0002:000155c8       __IMPORT_DESCRIPTOR_COMDLG32 00000001400555c8     comdlg32:COMDLG32.dll
 0002:000155dc       __IMPORT_DESCRIPTOR_WINSPOOL 00000001400555dc     winspool:WINSPOOL.DRV
 0002:000155f0       __NULL_IMPORT_DESCRIPTOR   00000001400555f0     kernel32:KERNEL32.dll
 0003:00000000       __flsindex                 0000000140058000     LIBCMT:tidtable.obj
 0003:00000010       __badioinfo                0000000140058010     LIBCMT:ioinit.obj
 0003:000001e0       __isa_available            00000001400581e0     LIBCMT:cpu_disp.obj
 0003:000001e4       __isa_enabled              00000001400581e4     LIBCMT:cpu_disp.obj
 0003:000001e8       __abort_behavior           00000001400581e8     LIBCMT:abort.obj
 0003:00000430       _cfltcvt_tab               0000000140058430     LIBCMT:cmiscdat.obj
 0003:00000480       _mbctype                   0000000140058480     LIBCMT:mbctype.obj
 0003:00000590       _mbcasemap                 0000000140058590     LIBCMT:mbctype.obj
 0003:00000690       __initialmbcinfo           0000000140058690     LIBCMT:mbctype.obj
 0003:000009b0       __ptmbcinfo                00000001400589b0     LIBCMT:mbctype.obj
 0003:000009c0       _timezone                  00000001400589c0     LIBCMT:timeset.obj
 0003:000009c4       _daylight                  00000001400589c4     LIBCMT:timeset.obj
 0003:000009c8       _dstbias                   00000001400589c8     LIBCMT:timeset.obj
 0003:00000a50       _tzname                    0000000140058a50     LIBCMT:timeset.obj
 0003:00000a80       _days                      0000000140058a80     LIBCMT:days.obj
 0003:00000ab8       _lpdays                    0000000140058ab8     LIBCMT:days.obj
 0003:00000af0       __security_cookie          0000000140058af0     LIBCMT:gs_cookie.obj
 0003:00000af8       __security_cookie_complement 0000000140058af8     LIBCMT:gs_cookie.obj
 0003:00000b00       __mb_cur_max               0000000140058b00     LIBCMT:nlsdata.obj
 0003:00000b04       __wclocalestr              0000000140058b04     LIBCMT:nlsdata.obj
 0003:00000b10       __lc_time_c                0000000140058b10     LIBCMT:nlsdata.obj
 0003:00000dd0       __ptlocinfo                0000000140058dd0     LIBCMT:nlsdata.obj
 0003:00000de0       __initiallocinfo           0000000140058de0     LIBCMT:nlsdata.obj
 0003:00000f38       __initiallocalestructinfo  0000000140058f38     LIBCMT:nlsdata.obj
 0003:00000f50       _iob                       0000000140058f50     LIBCMT:_file.obj
 0003:00001310       __globallocalestatus       0000000140059310     LIBCMT:glstatus.obj
 0003:00001320       __lconv_c                  0000000140059320     LIBCMT:lconv.obj
 0003:000013b8       __lconv_static_decimal     00000001400593b8     LIBCMT:lconv.obj
 0003:000013bc       __lconv_static_W_decimal   00000001400593bc     LIBCMT:lconv.obj
 0003:000013c0       __lconv                    00000001400593c0     LIBCMT:lconv.obj
 0003:000013c8       _pctype                    00000001400593c8     LIBCMT:ctype.obj
 0003:000013d0       _pwctype                   00000001400593d0     LIBCMT:ctype.obj
 0003:000013e8       _fltused                   00000001400593e8     LIBCMT:fpinit.obj
 0003:000013ec       _ldused                    00000001400593ec     LIBCMT:fpinit.obj
 0003:000013f0       _confh                     00000001400593f0     LIBCMT:initcon.obj
 0003:00001400       _HUGE                      0000000140059400     LIBCMT:huge.obj
 0003:00001440       _pow10pos                  0000000140059440     LIBCMT:constpow.obj
 0003:000015a0       _pow10neg                  00000001400595a0     LIBCMT:constpow.obj
 0003:00001700       ?_atltmpPchNil@WTL@@3PEB_WEB 0000000140059700     Colorpge.obj
 0003:00001708       ?rgInitData@WTL@@3PAHA     0000000140059708     Colorpge.obj
 0003:00001718       ?_afxDropDownWidth@?1??_AfxGetDropDownWidth@CToolBar@@SAHXZ@4HA 0000000140059718     Mainfrm.obj
 0003:00001720       ?dmDockBarMap@?1??GetDockBarMap@CFrameWnd@@SAAEAU_DocBarMap@2@XZ@4U32@A 0000000140059720     Mainfrm.obj
 0003:00001778       ?rectDefault@CFrameWnd@@2VCRect@WTL@@B 0000000140059778     Stdafx.obj
 0003:00001790       ?wndNoTopMost@CWMHnd@@2V1@B 0000000140059790     Stdafx.obj
 0003:000017e0       ?wndTopMost@CWMHnd@@2V1@B  00000001400597e0     Stdafx.obj
 0003:00001830       ?wndBottom@CWMHnd@@2V1@B   0000000140059830     Stdafx.obj
 0003:00001880       ?wndTop@CWMHnd@@2V1@B      0000000140059880     Stdafx.obj
 0003:000018d0       ??_R0?AVtype_info@@@8      00000001400598d0     LIBCMT:typinfo.obj
 0003:000018f0       ??_R0?AVbad_alloc@std@@@8  00000001400598f0     LIBCMT:new.obj
 0003:00001918       ??_R0?AVexception@std@@@8  0000000140059918     LIBCMT:new.obj
 0003:00001940       ??_R0?AVCColorPage@@@8     0000000140059940     Colorpge.obj
 0003:00001968       ??_R0?AVCPropertyPageMTL@@@8 0000000140059968     Colorpge.obj
 0003:00001990       ??_R0?AVCDialog@@@8        0000000140059990     Colorpge.obj
 0003:000019b0       ??_R0PEAVCException@@@8    00000001400599b0     Colorpge.obj
 0003:000019d8       ??_R0PEAX@8                00000001400599d8     Colorpge.obj
 0003:000019f0       ??_R0?AVCWnd@@@8           00000001400599f0     Colorpge.obj
 0003:00001a10       ??_R0?AVCTestCmdUI@@@8     0000000140059a10     Colorpge.obj
 0003:00001a38       ??_R0?AVCCmdUI@@@8         0000000140059a38     Colorpge.obj
 0003:00001a58       ??_R0?AVCDCMTL@@@8         0000000140059a58     Colorpge.obj
 0003:00001a80       ??_R0?AV?$CHandleWrapper@VCDCMTL@@PEAUHDC__@@V?$CDCT@$00@WTL@@@@@8 0000000140059a80     Colorpge.obj
 0003:00001ad0       ??_R0?AV?$CDCT@$00@WTL@@@8 0000000140059ad0     Colorpge.obj
 0003:00001af8       ??_R0?AVCAtlException@ATL@@@8 0000000140059af8     Colorpge.obj
 0003:00001b20       ??_R0?AVCWMHnd@@@8         0000000140059b20     Colorpge.obj
 0003:00001b40       ??_R0?AVCCmdTarget@@@8     0000000140059b40     Colorpge.obj
 0003:00001b68       ??_R0?AVCObject@@@8        0000000140059b68     Colorpge.obj
 0003:00001b88       ??_R0?AVCWindow@ATL@@@8    0000000140059b88     Colorpge.obj
 0003:00001bb0       ??_R0?AVCMenuMTL@@@8       0000000140059bb0     Colorpge.obj
 0003:00001bd0       ??_R0?AV?$CHandleWrapper@VCMenuMTL@@PEAUHMENU__@@V?$CMenuT@$00@WTL@@@@@8 0000000140059bd0     Colorpge.obj
 0003:00001c28       ??_R0?AV?$CMenuT@$00@WTL@@@8 0000000140059c28     Colorpge.obj
 0003:00001c50       ??_R0?AVCMainFrame@@@8     0000000140059c50     Mainfrm.obj
 0003:00001c78       ??_R0?AVCToolBar@@@8       0000000140059c78     Mainfrm.obj
 0003:00001c98       ??_R0?AVCToolCmdUI@@@8     0000000140059c98     Mainfrm.obj
 0003:00001cc0       ??_R0?AVCStatusBar@@@8     0000000140059cc0     Mainfrm.obj
 0003:00001ce8       ??_R0?AVCWindowDCMTL@@@8   0000000140059ce8     Mainfrm.obj
 0003:00001d10       ??_R0?AVCControlBar@@@8    0000000140059d10     Mainfrm.obj
 0003:00001d38       ??_R0?AVCToolTipCtrlMTL@@@8 0000000140059d38     Mainfrm.obj
 0003:00001d60       ??_R0?AV?$CToolTipCtrlT@VCWnd@@@WTL@@@8 0000000140059d60     Mainfrm.obj
 0003:00001d98       ??_R0?AVCStatusCmdUI@@@8   0000000140059d98     Mainfrm.obj
 0003:00001dc0       ??_R0?AVCClientDCMTL@@@8   0000000140059dc0     Mainfrm.obj
 0003:00001de8       ??_R0?AVCMDIFrameWnd@@@8   0000000140059de8     Mainfrm.obj
 0003:00001e10       ??_R0?AVCFrameWnd@@@8      0000000140059e10     Mainfrm.obj
 0003:00001e30       ??_R0?AVCShapePropSheetFrame@@@8 0000000140059e30     Minifrm.obj
 0003:00001e60       ??_R0?AVCMiniFrameWnd@@@8  0000000140059e60     Minifrm.obj
 0003:00001e88       ??_R0?AVCShapePreviewWnd@@@8 0000000140059e88     Preview.obj
 0003:00001eb0       ??_R0?AVCBrushMTL@@@8      0000000140059eb0     Preview.obj
 0003:00001ed0       ??_R0?AV?$CHandleWrapper@VCBrushMTL@@PEAUHBRUSH__@@V?$CBrushT@$00@WTL@@@@@8 0000000140059ed0     Preview.obj
 0003:00001f28       ??_R0?AV?$CBrushT@$00@WTL@@@8 0000000140059f28     Preview.obj
 0003:00001f50       ??_R0?AVCPaintDCMTL@@@8    0000000140059f50     Preview.obj
 0003:00001f78       ??_R0?AVCAboutDlg@@@8      0000000140059f78     Propdlg.obj
 0003:00001f98       ??_R0?AVCPropDlgApp@@@8    0000000140059f98     Propdlg.obj
 0003:00001fc0       ??_R0?AVCCommandLineInfo@@@8 0000000140059fc0     Propdlg.obj
 0003:00001fe8       ??_R0?AVCDocManager@@@8    0000000140059fe8     Propdlg.obj
 0003:00002010       ??_R0?AVCMultiDocTemplate@@@8 000000014005a010     Propdlg.obj
 0003:00002038       ??_R0?AVCDocTemplate@@@8   000000014005a038     Propdlg.obj
 0003:00002060       ??_R0?AVCRecentFileList@@@8 000000014005a060     Propdlg.obj
 0003:00002088       ??_R0?AVCWinApp@@@8        000000014005a088     Propdlg.obj
 0003:000020a8       ??_R0?AVCWinThread@@@8     000000014005a0a8     Propdlg.obj
 0003:000020d0       ??_R0?AVCModuleThreadState@@@8 000000014005a0d0     Propdlg.obj
 0003:00002100       ??_R0?AVCThreadState@@@8   000000014005a100     Propdlg.obj
 0003:00002128       ??_R0?AVCWinMsg@@@8        000000014005a128     Propdlg.obj
 0003:00002148       ??_R0?AVCPrintDialogMTL@@@8 000000014005a148     Propdlg.obj
 0003:00002170       ??_R0?AVCCommonWnd@@@8     000000014005a170     Propdlg.obj
 0003:00002198       ??_R0?AVCPrintDialog@WTL@@@8 000000014005a198     Propdlg.obj
 0003:000021c0       ??_R0?AV?$CPrintDialogImpl@VCPrintDialog@WTL@@@WTL@@@8 000000014005a1c0     Propdlg.obj
 0003:00002208       ??_R0?AVCCommonDialogImplBase@WTL@@@8 000000014005a208     Propdlg.obj
 0003:00002240       ??_R0?AV?$CWindowImplBaseT@VCWindow@ATL@@V?$CWinTraits@$0FGAAAAAA@$0A@@2@@ATL@@@8 000000014005a240     Propdlg.obj
 0003:000022a0       ??_R0?AV?$CWindowImplRoot@VCWindow@ATL@@@ATL@@@8 000000014005a2a0     Propdlg.obj
 0003:000022e0       ??_R0?AVCMessageMap@ATL@@@8 000000014005a2e0     Propdlg.obj
 0003:00002308       ??_R0?AVCFileDialogMTL@@@8 000000014005a308     Propdlg.obj
 0003:00002330       ??_R0?AVCCommonDialog@@@8  000000014005a330     Propdlg.obj
 0003:00002358       ??_R0?AVCNewTypeDlg@@@8    000000014005a358     Propdlg.obj
 0003:00002380       ??_R0?AVCModalShapePropSheet@@@8 000000014005a380     Propsht.obj
 0003:000023b0       ??_R0?AVCPropertySheetMTL@@@8 000000014005a3b0     Propsht.obj
 0003:000023d8       ??_R0?AVCModelessShapePropSheet@@@8 000000014005a3d8     Propsht2.obj
 0003:00002408       ??_R0?AVCDocument@@@8      000000014005a408     Shapedoc.obj
 0003:00002428       ??_R0?AVCShapesDoc@@@8     000000014005a428     Shapedoc.obj
 0003:00002450       ??_R0PEAVCArchiveException@@@8 000000014005a450     Shapedoc.obj
 0003:00002480       ??_R0?AVCFile@@@8          000000014005a480     Shapedoc.obj
 0003:000024a0       ??_R0PEAVCFileException@@@8 000000014005a4a0     Shapedoc.obj
 0003:000024c8       ??_R0PEAVCSimpleException@@@8 000000014005a4c8     Shapedoc.obj
 0003:000024f0       ??_R0?AVCShape@@@8         000000014005a4f0     Shapeobj.obj
 0003:00002510       ??_R0?AVCGdiObject@@@8     000000014005a510     Shapeobj.obj
 0003:00002540       ??_R0?AV?$CHandleWrapper@VCGdiObject@@PEAXVCGdiobj@@@@@8 000000014005a540     Shapeobj.obj
 0003:00002588       ??_R0?AVCGdiobj@@@8        000000014005a588     Shapeobj.obj
 0003:000025a8       ??_R0?AVCPenMTL@@@8        000000014005a5a8     Shapeobj.obj
 0003:000025d0       ??_R0?AV?$CHandleWrapper@VCPenMTL@@PEAUHPEN__@@V?$CPenT@$00@WTL@@@@@8 000000014005a5d0     Shapeobj.obj
 0003:00002620       ??_R0?AV?$CPenT@$00@WTL@@@8 000000014005a620     Shapeobj.obj
 0003:00002648       ??_R0?AVCShapesView@@@8    000000014005a648     Shapesvw.obj
 0003:00002670       ??_R0?AVCDialogBar@@@8     000000014005a670     Shapesvw.obj
 0003:00002698       ??_R0?AVCView@@@8          000000014005a698     Shapesvw.obj
 0003:000026b8       ??_R0?AVCPreviewDC@@@8     000000014005a6b8     Shapesvw.obj
 0003:000026e0       ??_R0?AVCPrintingDialog@@@8 000000014005a6e0     Shapesvw.obj
 0003:00002708       ??_R0?AVCMDIChildWnd@@@8   000000014005a708     Stdafx.obj
 0003:00002730       ??_R0?AV?$CRgnT@$00@WTL@@@8 000000014005a730     Stdafx.obj
 0003:00002760       ??_R0?AV?$CHandleWrapper@VCBitmapMTL@@PEAUHBITMAP__@@V?$CBitmapT@$00@WTL@@@@@8 000000014005a760     Stdafx.obj
 0003:000027c0       ??_R0?AVCBitmapMTL@@@8     000000014005a7c0     Stdafx.obj
 0003:000027f0       ??_R0?AV?$CHandleWrapper@VCRgnMTL@@PEAUHRGN__@@V?$CRgnT@$00@WTL@@@@@8 000000014005a7f0     Stdafx.obj
 0003:00002840       ??_R0?AVCRgnMTL@@@8        000000014005a840     Stdafx.obj
 0003:00002860       ??_R0?AVCScrollView@@@8    000000014005a860     Stdafx.obj
 0003:00002888       ??_R0?AV?$CBitmapT@$00@WTL@@@8 000000014005a888     Stdafx.obj
 0003:000028b8       ??_R0?AVCPreviewView@@@8   000000014005a8b8     Stdafx.obj
 0003:000028e0       ??_R0?AVCImage@@@8         000000014005a8e0     Stdafx.obj
 0003:00002900       ??_R0?AV_AFX_MOUSEANCHORWND@@@8 000000014005a900     Stdafx.obj
 0003:00002930       ??_R0?AVCStylePage@@@8     000000014005a930     Stylepge.obj
 0003:00002958       ??_R0?AVbad_exception@std@@@8 000000014005a958     LIBCMT:frame.obj
 0003:00002980       ?__AtlThunkPool@@3PEAT_SLIST_HEADER@@EA 000000014005a980     atls:atlthunk.obj
 0003:00002990       ?_AtlBaseModule@ATL@@3VCAtlBaseModule@1@A 000000014005a990     atls:atlbase.obj
 0003:000029f0       __@@_PchSym_@00@UwwUexgllohUexHoryhUhsrkUzgonuxUhixUzgoUzgohUlyqBiUznwGEUhgwzucOlyq@84C1280690CF6209 000000014005a9f0     atls:stdafx.obj
 0003:000029f8       _aenvptr                   000000014005a9f8     LIBCMT:wwincrt0.obj
 0003:00002a00       _wenvptr                   000000014005aa00     LIBCMT:wwincrt0.obj
 0003:00002a08       _C_Exit_Done               000000014005aa08     LIBCMT:crt0dat.obj
 0003:00002a0c       __argc                     000000014005aa0c     LIBCMT:crt0dat.obj
 0003:00002a10       __argv                     000000014005aa10     LIBCMT:crt0dat.obj
 0003:00002a18       __wargv                    000000014005aa18     LIBCMT:crt0dat.obj
 0003:00002a20       _environ                   000000014005aa20     LIBCMT:crt0dat.obj
 0003:00002a28       _wenviron                  000000014005aa28     LIBCMT:crt0dat.obj
 0003:00002a30       _pgmptr                    000000014005aa30     LIBCMT:crt0dat.obj
 0003:00002a38       _wpgmptr                   000000014005aa38     LIBCMT:crt0dat.obj
 0003:00002a40       _umaskval                  000000014005aa40     LIBCMT:crt0dat.obj
 0003:00002a44       _exitflag                  000000014005aa44     LIBCMT:crt0dat.obj
 0003:00002a48       _C_Termination_Done        000000014005aa48     LIBCMT:crt0dat.obj
 0003:00002a50       __winitenv                 000000014005aa50     LIBCMT:crt0dat.obj
 0003:00002a58       __initenv                  000000014005aa58     LIBCMT:crt0dat.obj
 0003:00002a60       _crtheap                   000000014005aa60     LIBCMT:heapinit.obj
 0003:00002a70       __pioinfo                  000000014005aa70     LIBCMT:ioinit.obj
 0003:00002e80       __app_type                 000000014005ae80     LIBCMT:crt0msg.obj
 0003:000034b8       __error_mode               000000014005b4b8     LIBCMT:errmode.obj
 0003:000034d0       ?_pnhHeap@@3P6AH_K@ZEA     000000014005b4d0     LIBCMT:handler.obj
 0003:000034d8       __pInvalidArgHandler       000000014005b4d8     LIBCMT:invarg.obj
 0003:000034e0       _maxwait                   000000014005b4e0     LIBCMT:crtheap.obj
 0003:000034e4       _newmode                   000000014005b4e4     LIBCMT:_newmode.obj
 0003:000034e8       __favor                    000000014005b4e8     LIBCMT:cpu_disp.obj
 0003:000034f0       __pPurecall                000000014005b4f0     LIBCMT:inithelp.obj
 0003:000034f8       ?__pInconsistency@@3P6AXXZEA 000000014005b4f8     LIBCMT:hooks.obj
 0003:00003760       __mbcodepage               000000014005b760     LIBCMT:mbctype.obj
 0003:00003764       __ismbcodepage             000000014005b764     LIBCMT:mbctype.obj
 0003:00003768       __mbulinfo                 000000014005b768     LIBCMT:mbctype.obj
 0003:00003778       __mblocalename             000000014005b778     LIBCMT:mbctype.obj
 0003:00003788       _stdbuf                    000000014005b788     LIBCMT:_sftbuf.obj
 0003:0000385c       _cflush                    000000014005b85c     LIBCMT:_file.obj
 0003:00003888       ?m_pGetParameter@UnDecorator@@0P6APEADJ@ZEA 000000014005b888     LIBCMT:undname.obj
 0003:00003890       ?pArgList@UnDecorator@@0PEAVReplicator@@EA 000000014005b890     LIBCMT:undname.obj
 0003:00003898       ?pZNameList@UnDecorator@@0PEAVReplicator@@EA 000000014005b898     LIBCMT:undname.obj
 0003:000038a0       ?pTemplateArgList@UnDecorator@@0PEAVReplicator@@EA 000000014005b8a0     LIBCMT:undname.obj
 0003:000038a8       ?gName@UnDecorator@@0PEBDEB 000000014005b8a8     LIBCMT:undname.obj
 0003:000038b0       ?name@UnDecorator@@0PEBDEB 000000014005b8b0     LIBCMT:undname.obj
 0003:000038b8       ?outputString@UnDecorator@@0PEADEA 000000014005b8b8     LIBCMT:undname.obj
 0003:000038c0       ?maxStringLength@UnDecorator@@0HA 000000014005b8c0     LIBCMT:undname.obj
 0003:000038c4       ?disableFlags@UnDecorator@@0KA 000000014005b8c4     LIBCMT:undname.obj
 0003:000038c8       ?fExplicitTemplateParams@UnDecorator@@0_NA 000000014005b8c8     LIBCMT:undname.obj
 0003:000038c9       ?fGetTemplateArgumentList@UnDecorator@@0_NA 000000014005b8c9     LIBCMT:undname.obj
 0003:00003e74       __lconv_static_null        000000014005be74     LIBCMT:lconv.obj
 0003:00003e78       __lconv_static_W_null      000000014005be78     LIBCMT:lconv.obj
 0003:00003e7c       __locale_changed           000000014005be7c     LIBCMT:wsetloca.obj
 0003:00003e80       __fastflag                 000000014005be80     LIBCMT:fpinit.obj
 0003:00003e84       _outputformat              000000014005be84     LIBCMT:outputformat.obj
 0003:00003e88       ?_simpleResourceException@?1??GetCException@CAfx@@SAAEAVCException@@H@Z@4VCResourceException@@A 000000014005be88     Colorpge.obj
 0003:00003e90       ?_simpleInvalidArgException@?1??GetCException@CAfx@@SAAEAVCException@@H@Z@4VCInvalidArgException@@A 000000014005be90     Colorpge.obj
 0003:00003e98       ?_simpleNotSupportedException@?1??GetCException@CAfx@@SAAEAVCException@@H@Z@4VCNotSupportedException@@A 000000014005be98     Colorpge.obj
 0003:00003ea0       ??_B?1??GetCException@CAfx@@SAAEAVCException@@H@Z@51 000000014005bea0     Colorpge.obj
 0003:00003ea8       ?_simpleMemoryException@?1??GetCException@CAfx@@SAAEAVCException@@H@Z@4VCMemoryException@@A 000000014005bea8     Colorpge.obj
 0003:00003eb0       ?m_bInitFailed@CAtlBaseModule@ATL@@2_NA 000000014005beb0     Colorpge.obj
 0003:00003eb8       ?cwp@?1??GetHookOldCbtFilter@CWnd@@SAAEAU_CreateWindowParam@2@XZ@4U32@A 000000014005beb8     Colorpge.obj
 0003:00003ed0       ??_B?1??GetCModuleState@CWinApp@@SAPEAVCModuleState@@XZ@51 000000014005bed0     Colorpge.obj
 0003:00003ee0       ?cModuleState@?1??GetCModuleState@CWinApp@@SAPEAVCModuleState@@XZ@4V3@A 000000014005bee0     Colorpge.obj
 0003:00003f20       ?m_lastSentMsg@?1??GetLastSentMsg@CCmdTarget@@SAAEAPEAU_ATL_MSG@ATL@@XZ@4PEAU34@EA 000000014005bf20     Colorpge.obj
 0003:00003f28       ??_B?1??AfxLoadSysColorBitmap@@YAPEAUHBITMAP__@@PEAUHINSTANCE__@@PEAUHRSRC__@@H@Z@51 000000014005bf28     Mainfrm.obj
 0003:00003f30       ?_afxSysColorMap@?1??AfxLoadSysColorBitmap@@YAPEAUHBITMAP__@@PEAUHINSTANCE__@@PEAUHRSRC__@@H@Z@4QBUAFX_COLORMAP@@B 000000014005bf30     Mainfrm.obj
 0003:00003f50       ?_afxdata@?1??GetAfxData@CAfx@@SAAEBU_AUX_DATA@@XZ@4U3@A 000000014005bf50     Mainfrm.obj
 0003:00003f90       ??_B?1??GetAfxData@CAfx@@SAAEBU_AUX_DATA@@XZ@51 000000014005bf90     Mainfrm.obj
 0003:00003f98       ?hHalftoneBrush@?1??HalftoneBrush@CAfx@@SAPEAUHBRUSH__@@H@Z@4PEAU3@EA 000000014005bf98     Propdlg.obj
 0003:00003fa0       ?_afxMsgHELP@?1??_AfxCommDlgProc@CCommonDialog@@SA_KPEAUHWND__@@I_K_J@Z@4IA 000000014005bfa0     Propdlg.obj
 0003:00003fa4       ?_afxMsgSHAREVI@?1??_AfxCommDlgProc@CCommonDialog@@SA_KPEAUHWND__@@I_K_J@Z@4IA 000000014005bfa4     Propdlg.obj
 0003:00003fa8       ?_afxMsgLBSELCHANGE@?1??_AfxCommDlgProc@CCommonDialog@@SA_KPEAUHWND__@@I_K_J@Z@4IA 000000014005bfa8     Propdlg.obj
 0003:00003fac       ?_afxMsgSETRGB@?1??_AfxCommDlgProc@CCommonDialog@@SA_KPEAUHWND__@@I_K_J@Z@4IA 000000014005bfac     Propdlg.obj
 0003:00003fb0       ?_afxMsgFILEOK@?1??_AfxCommDlgProc@CCommonDialog@@SA_KPEAUHWND__@@I_K_J@Z@4IA 000000014005bfb0     Propdlg.obj
 0003:00003fb8       ?pfSHCreateItemFromParsingName_cache@?1??_AfxSHCreateItemFromParsingName@CFileDialogMTL@@SAJPEB_WPEAUIBindCtx@@AEBU_GUID@@PEAPEAX@Z@4R6AJ0123@ZEA 000000014005bfb8     Propdlg.obj
 0003:00003fc0       ??_B?1??_GetAfxPropPageFontInfo@CPropertyPageMTL@@SAAEAU_AFX_PROPPAGEFONTINFO@@XZ@51 000000014005bfc0     Propsht.obj
 0003:00003fc8       ?_afxPropPageFontInfo@?1??_GetAfxPropPageFontInfo@CPropertyPageMTL@@SAAEAU_AFX_PROPPAGEFONTINFO@@XZ@4U3@A 000000014005bfc8     Propsht.obj
 0003:00003fd8       ?_afxWinState@?1??GetAfxWinState@CPrintingDialog@@SAPEAV_AFX_WIN_STATE@@XZ@4V3@A 000000014005bfd8     Shapesvw.obj
 0003:00003fdc       __@@_PchSym_@00@UwirevUuUexUngonuxUhznkovhUkilkwotUfmrxlwvLivovzhvGEUhgwzucOlyq@5142A4CC462AB23B 000000014005bfdc     Stdafx.obj
 0003:00003fe0       ?m_pCWinApp@CWinApp@@2PEAV1@EA 000000014005bfe0     Stdafx.obj
 0003:00003fe8       ?_init_CShape@@3UAFX_CLASSINIT@@A 000000014005bfe8     Shapeobj.obj
 0003:00003ff0       ?theApp@@3VCPropDlgApp@@A  000000014005bff0     Propdlg.obj
 0003:0000426c       ?_afxGotScrollLines@?1??_AfxGetMouseScrollLines@CScrollView@@QEAAIXZ@4HA 000000014005c26c     Stdafx.obj
 0003:00004270       ?_AtlWinModule@ATL@@3VCAtlWinModule@1@A 000000014005c270     Colorpge.obj
 0003:000042b8       ?uCachedScrollLines@?1??_AfxGetMouseScrollLines@CScrollView@@QEAAIXZ@4IA 000000014005c2b8     Stdafx.obj
 0003:000042c0       ?g_OutOfMemoryExceptionCallback@@3P6APEAXXZEA 000000014005c2c0     LIBCMT:frame.obj
 0003:000042c8       _debugger_hook_dummy       000000014005c2c8     <common>
 0003:000042d0       __piob                     000000014005c2d0     <common>
 0003:000042d8       _nstream                   000000014005c2d8     <common>
 0003:000042e0       _bufin                     000000014005c2e0     <common>
 0003:000052e0       encodedKERNEL32Functions   000000014005d2e0     <common>
 0003:000053e8       _nhandle                   000000014005d3e8     <common>
 0003:000053f0       __dyn_tls_init_callback    000000014005d3f0     <common>
 0003:000053f8       __onexitend                000000014005d3f8     <common>
 0003:00005400       __onexitbegin              000000014005d400     <common>
 0003:00005408       __mbctype_initialized      000000014005d408     <common>
 0003:0000540c       __env_initialized          000000014005d40c     <common>
 0003:00005410       _wcmdln                    000000014005d410     <common>

 entry point at        0001:0002ddac

 Static symbols

 0002:fffc0000       .idata$6                   0000000140000000     oleaut32:OLEAUT32.dll
 0001:00000000       ??__E_AtlWinModule@ATL@@YAXXZ 0000000140001000 f   Colorpge.obj
 0001:00000020       ??__EtheApp@@YAXXZ         0000000140001020 f   Propdlg.obj
 0001:00000050       ??__E_init_CShape@@YAXXZ   0000000140001050 f   Shapeobj.obj
 0001:00000060       ??__E?wndTop@CWMHnd@@2V1@B@@YAXXZ 0000000140001060 f   Stdafx.obj
 0001:00000080       ??__E?wndBottom@CWMHnd@@2V1@B@@YAXXZ 0000000140001080 f   Stdafx.obj
 0001:000000a0       ??__E?wndTopMost@CWMHnd@@2V1@B@@YAXXZ 00000001400010a0 f   Stdafx.obj
 0001:000000c0       ??__E?wndNoTopMost@CWMHnd@@2V1@B@@YAXXZ 00000001400010c0 f   Stdafx.obj
 0001:000000dc       ??__E_AtlBaseModule@ATL@@YAXXZ 00000001400010dc f   atls:atlbase.obj
 0001:00000a0c       $LN21                      0000000140001a0c     Colorpge.obj
 0001:00019e68       $LN18                      000000014001ae68     Propdlg.obj
 0001:00021cbc       $LN87                      0000000140022cbc     Shapedoc.obj
 0001:00021cf8       $LN86                      0000000140022cf8     Shapedoc.obj
 0001:00023890       ?_AtlCreateDC@WTL@@YAPEAUHDC__@@PEAX0@Z 0000000140024890 f   Shapesvw.obj
 0001:00028ccc       $LN39                      0000000140029ccc     Stdafx.obj
 0001:00028cec       $LN38                      0000000140029cec     Stdafx.obj
 0001:0002acac       $LN25                      000000014002bcac     Stdafx.obj
 0001:0002da9c       ?__InitializeThunkPool@@YAHXZ 000000014002ea9c f   atls:atlthunk.obj
 0001:0002dbf4       __tmainCRTStartup          000000014002ebf4 f   LIBCMT:wwincrt0.obj
 0001:0002dd80       fast_error_exit            000000014002ed80 f   LIBCMT:wwincrt0.obj
 0001:0002e2d0       $$000000                   000000014002f2d0     LIBCMT:memcpy.obj
 0001:0002e3c0       MoveSmall                  000000014002f3c0     LIBCMT:memcpy.obj
 0001:0002ec94       _initterm                  000000014002fc94 f   LIBCMT:crt0dat.obj
 0001:0002ed48       doexit                     000000014002fd48 f   LIBCMT:crt0dat.obj
 0001:0002efc0       _make__time64_t            000000014002ffc0 f   LIBCMT:mktime64.obj
 0001:0002f3c0       $$000000                   00000001400303c0     LIBCMT:memset.obj
 0001:0002f565       MsetTab                    0000000140030565     LIBCMT:memset.obj
 0001:0002ff9c       wparse_cmdline             0000000140030f9c f   LIBCMT:wstdargv.obj
 0001:00030fc0       $$000000                   0000000140031fc0     LIBCMT:strcmp.obj
 0001:00032198       ?getSystemCP@@YAHH@Z       0000000140033198 f   LIBCMT:mbctype.obj
 0001:00032218       ?setSBCS@@YAXPEAUthreadmbcinfostruct@@@Z 0000000140033218 f   LIBCMT:mbctype.obj
 0001:000322a8       ?setSBUpLow@@YAXPEAUthreadmbcinfostruct@@@Z 00000001400332a8 f   LIBCMT:mbctype.obj
 0001:00033134       _isindst_nolock            0000000140034134 f   LIBCMT:tzset.obj
 0001:000333e4       _tzset_nolock              00000001400343e4 f   LIBCMT:tzset.obj
 0001:00033848       cvtdate                    0000000140034848 f   LIBCMT:tzset.obj
 0001:00033ba0       $$000000                   0000000140034ba0     LIBCMT:amdsecgs.obj
 0001:00034000       $$000000                   0000000140035000     LIBCMT:jmpuwind.obj
 0001:00034250       $$000000                   0000000140035250     LIBCMT:strlen.obj
 0001:00034a3c       ?__crtLCMapStringA_stat@@YAHPEAUlocaleinfo_struct@@PEB_WKPEBDHPEADHHH@Z 0000000140035a3c f   LIBCMT:a_map.obj
 0001:00034dc0       ?__crtGetStringTypeA_stat@@YAHPEAUlocaleinfo_struct@@KPEBDHPEAGHH@Z 0000000140035dc0 f   LIBCMT:a_str.obj
 0001:00035110       flsall                     0000000140036110 f   LIBCMT:fflush.obj
 0001:00035a20       $$000000                   0000000140036a20     LIBCMT:chkstk.obj
 0001:00036430       ?strtoxl@@YAKPEAUlocaleinfo_struct@@PEBDPEAPEBDHH@Z 0000000140037430 f   LIBCMT:strtol.obj
 0001:00037640       ?__crtCompareStringA_stat@@YAHPEAUlocaleinfo_struct@@PEB_WKPEBDH2HH@Z 0000000140038640 f   LIBCMT:a_cmp.obj
 0001:00037a40       $$000000                   0000000140038a40     LIBCMT:memcmp.obj
 0001:00039558       _cftoe2_l                  000000014003a558 f   LIBCMT:cvt.obj
 0001:0003984c       _cftof2_l                  000000014003a84c f   LIBCMT:cvt.obj
 0001:0003ba04       ?CatchIt@@YAXPEAUEHExceptionRecord@@PEA_KPEAU_CONTEXT@@PEAU_xDISPATCHER_CONTEXT@@PEBU_s_FuncInfo@@PEBU_s_HandlerType@@PEBU_s_CatchableType@@PEBU_s_TryBlockMapEntry@@H1EE@Z 000000014003ca04 f   LIBCMT:frame.obj
 0001:0003bac8       ?FindHandler@@YAXPEAUEHExceptionRecord@@PEA_KPEAU_CONTEXT@@PEAU_xDISPATCHER_CONTEXT@@PEBU_s_FuncInfo@@EH1@Z 000000014003cac8 f   LIBCMT:frame.obj
 0001:0003bf7c       ?FindHandlerForForeignException@@YAXPEAUEHExceptionRecord@@PEA_KPEAU_CONTEXT@@PEAU_xDISPATCHER_CONTEXT@@PEBU_s_FuncInfo@@HH1@Z 000000014003cf7c f   LIBCMT:frame.obj
 0001:0003c1e4       ?IsInExceptionSpec@@YAEPEAUEHExceptionRecord@@PEBU_s_ESTypeList@@@Z 000000014003d1e4 f   LIBCMT:frame.obj
 0001:0003ce70       $$000000                   000000014003de70     LIBCMT:handlers.obj
 0001:0003ced0       ?dtor$0@?0???1CPropertyPageMTL@@UEAA@XZ@4HA 000000014003ded0 f   Colorpge.obj
 0001:0003cedc       ?dtor$1@?0???1CPropertyPageMTL@@UEAA@XZ@4HA 000000014003dedc f   Colorpge.obj
 0001:0003ceef       ?dtor$2@?0???1CPropertyPageMTL@@UEAA@XZ@4HA 000000014003deef f   Colorpge.obj
 0001:0003cf10       ?dtor$0@?0??_ProcessWindowMessage@CScrollView@@UEAAHPEAUHWND__@@I_K_JAEA_J@Z@4HA 000000014003df10 f   Stdafx.obj
 0001:0003cf10       ?dtor$0@?0??_ProcessWindowMessage@CPropertyPageMTL@@UEAAHPEAUHWND__@@I_K_JAEA_J@Z@4HA 000000014003df10 f   Colorpge.obj
 0001:0003cf10       ?dtor$0@?0??_ProcessWindowMessage@CShapePreviewWnd@@UEAAHPEAUHWND__@@I_K_JAEA_J@Z@4HA 000000014003df10 f   Preview.obj
 0001:0003cf10       ?dtor$0@?0??_ProcessWindowMessage@CPropertySheetMTL@@UEAAHPEAUHWND__@@I_K_JAEA_J@Z@4HA 000000014003df10 f   Propsht.obj
 0001:0003cf1c       ?dtor$2@?0??_ProcessWindowMessage@CScrollView@@UEAAHPEAUHWND__@@I_K_JAEA_J@Z@4HA 000000014003df1c f   Stdafx.obj
 0001:0003cf1c       ?dtor$2@?0??_ProcessWindowMessage@CShapePreviewWnd@@UEAAHPEAUHWND__@@I_K_JAEA_J@Z@4HA 000000014003df1c f   Preview.obj
 0001:0003cf1c       ?dtor$2@?0??_ProcessWindowMessage@CPropertyPageMTL@@UEAAHPEAUHWND__@@I_K_JAEA_J@Z@4HA 000000014003df1c f   Colorpge.obj
 0001:0003cf1c       ?dtor$2@?0??_ProcessWindowMessage@CPropertySheetMTL@@UEAAHPEAUHWND__@@I_K_JAEA_J@Z@4HA 000000014003df1c f   Propsht.obj
 0001:0003cf30       ?dtor$1@?0???1CDCMTL@@UEAA@XZ@4HA 000000014003df30 f   Colorpge.obj
 0001:0003cf30       ?dtor$2@?0???1CPreviewDC@@UEAA@XZ@4HA 000000014003df30 f   Shapesvw.obj
 0001:0003cf30       ?dtor$2@?0???1CPaintDCMTL@@UEAA@XZ@4HA 000000014003df30 f   Preview.obj
 0001:0003cf30       ?dtor$2@?0???1CClientDCMTL@@UEAA@XZ@4HA 000000014003df30 f   Mainfrm.obj
 0001:0003cf30       ?dtor$2@?0???1CWindowDCMTL@@UEAA@XZ@4HA 000000014003df30 f   Mainfrm.obj
 0001:0003cf30       ?dtor$1@?0???_GCDCMTL@@UEAAPEAXI@Z@4HA 000000014003df30 f   Colorpge.obj
 0001:0003cf40       ?dtor$0@?0??_ProcessWindowMessage@CWnd@@UEAAHPEAUHWND__@@I_K_JAEA_J@Z@4HA 000000014003df40 f   Colorpge.obj
 0001:0003cf40       ?dtor$0@?0??_ProcessWindowMessage@CPreviewView@@UEAAHPEAUHWND__@@I_K_JAEA_J@Z@4HA 000000014003df40 f   Stdafx.obj
 0001:0003cf4c       ?dtor$2@?0??_ProcessWindowMessage@CWnd@@UEAAHPEAUHWND__@@I_K_JAEA_J@Z@4HA 000000014003df4c f   Colorpge.obj
 0001:0003cf4c       ?dtor$2@?0??_ProcessWindowMessage@CPreviewView@@UEAAHPEAUHWND__@@I_K_JAEA_J@Z@4HA 000000014003df4c f   Stdafx.obj
 0001:0003cf60       ?dtor$0@?0???_GCWMHnd@@UEAAPEAXI@Z@4HA 000000014003df60 f   Colorpge.obj
 0001:0003cf60       ?dtor$1@?0???1CWnd@@UEAA@XZ@4HA 000000014003df60 f   Colorpge.obj
 0001:0003cf70       ?dtor$0@?0???1CModuleState@@QEAA@XZ@4HA 000000014003df70 f   Colorpge.obj
 0001:0003cf80       ?catch$0@?0??AllocBuffer@CString@WTL@@IEAAHH@Z@4HA 000000014003df80 f   Colorpge.obj
 0001:0003cf8d       __catch$?AllocBuffer@CString@WTL@@IEAAHH@Z$0 000000014003df8d f   Colorpge.obj
 0001:0003cfa0       ?dtor$1@?0???1CMenuMTL@@UEAA@XZ@4HA 000000014003dfa0 f   Colorpge.obj
 0001:0003cfa0       ?dtor$1@?0???_GCMenuMTL@@UEAAPEAXI@Z@4HA 000000014003dfa0 f   Colorpge.obj
 0001:0003cfb0       ?dtor$0@?0???0CPropertyPageMTL@@QEAA@IIK@Z@4HA 000000014003dfb0 f   Colorpge.obj
 0001:0003cfbc       ?dtor$1@?0???0CPropertyPageMTL@@QEAA@IIK@Z@4HA 000000014003dfbc f   Colorpge.obj
 0001:0003cfcf       ?dtor$2@?0???0CPropertyPageMTL@@QEAA@IIK@Z@4HA 000000014003dfcf f   Colorpge.obj
 0001:0003cfe2       ?dtor$3@?0???0CPropertyPageMTL@@QEAA@IIK@Z@4HA 000000014003dfe2 f   Colorpge.obj
 0001:0003d000       ?dtor$0@?0???_GCMainFrame@@UEAAPEAXI@Z@4HA 000000014003e000 f   Mainfrm.obj
 0001:0003d00c       ?dtor$1@?0???_GCMainFrame@@UEAAPEAXI@Z@4HA 000000014003e00c f   Mainfrm.obj
 0001:0003d020       ?dtor$0@?0??OnMiniFramePropertySheet@CMainFrame@@QEAAXXZ@4HA 000000014003e020 f   Mainfrm.obj
 0001:0003d02c       ?dtor$1@?0??OnMiniFramePropertySheet@CMainFrame@@QEAAXXZ@4HA 000000014003e02c f   Mainfrm.obj
 0001:0003d040       ?dtor$0@?0??SetIndicators@CStatusBar@@QEAAHPEBIH@Z@4HA 000000014003e040 f   Mainfrm.obj
 0001:0003d04c       ?dtor$3@?0??SetIndicators@CStatusBar@@QEAAHPEBIH@Z@4HA 000000014003e04c f   Mainfrm.obj
 0001:0003d060       ?dtor$0@?0??EraseNonClient@CControlBar@@QEAAXXZ@4HA 000000014003e060 f   Mainfrm.obj
 0001:0003d06c       ?dtor$3@?0??EraseNonClient@CControlBar@@QEAAXXZ@4HA 000000014003e06c f   Mainfrm.obj
 0001:0003d080       ?dtor$0@?0??Create@CMiniDockFrameWnd@@QEAAHPEAVCWnd@@K@Z@4HA 000000014003e080 f   Mainfrm.obj
 0001:0003d090       ?dtor$0@?0???_GCView@@UEAAPEAXI@Z@4HA 000000014003e090 f   Shapesvw.obj
 0001:0003d090       ?dtor$0@?0???1CView@@UEAA@XZ@4HA 000000014003e090 f   Shapesvw.obj
 0001:0003d090       ?dtor$0@?0???1CControlBar@@UEAA@XZ@4HA 000000014003e090 f   Mainfrm.obj
 0001:0003d090       ?dtor$1@?0???_GCShapesView@@UEAAPEAXI@Z@4HA 000000014003e090 f   Shapesvw.obj
 0001:0003d0a0       ?dtor$0@?0??UpdateAllPanes@CStatusBar@@QEAAXHH@Z@4HA 000000014003e0a0 f   Mainfrm.obj
 0001:0003d0b0       ?dtor$0@?0??UpdateDialogControls@CWnd@@QEAAXPEAVCCmdTarget@@H@Z@4HA 000000014003e0b0 f   Mainfrm.obj
 0001:0003d0bc       ?dtor$3@?0??UpdateDialogControls@CWnd@@QEAAXPEAVCCmdTarget@@H@Z@4HA 000000014003e0bc f   Mainfrm.obj
 0001:0003d0d0       ?dtor$3@?0??CalcFixedLayout@CStatusBar@@UEAA?AVCSize@WTL@@HH@Z@4HA 000000014003e0d0 f   Mainfrm.obj
 0001:0003d0e0       ?dtor$0@?0???0CFrameWnd@@QEAA@XZ@4HA 000000014003e0e0 f   Mainfrm.obj
 0001:0003d0ec       ?dtor$1@?0???0CFrameWnd@@QEAA@XZ@4HA 000000014003e0ec f   Mainfrm.obj
 0001:0003d0fc       ?dtor$2@?0???0CFrameWnd@@QEAA@XZ@4HA 000000014003e0fc f   Mainfrm.obj
 0001:0003d110       ?dtor$0@?0???1CFrameWnd@@UEAA@XZ@4HA 000000014003e110 f   Mainfrm.obj
 0001:0003d11c       ?dtor$1@?0???1CFrameWnd@@UEAA@XZ@4HA 000000014003e11c f   Mainfrm.obj
 0001:0003d130       ?dtor$0@?0??LoadFrame@CFrameWnd@@UEAAHIKPEAVCWnd@@PEAUCCreateContext@@@Z@4HA 000000014003e130 f   Mainfrm.obj
 0001:0003d13c       ?dtor$1@?0??LoadFrame@CFrameWnd@@UEAAHIKPEAVCWnd@@PEAUCCreateContext@@@Z@4HA 000000014003e13c f   Mainfrm.obj
 0001:0003d150       ?dtor$0@?0??OnWindowNew@CMDIFrameWnd@@QEAAXXZ@4HA 000000014003e150 f   Mainfrm.obj
 0001:0003d160       ?dtor$0@?0???1CDocument@@QEAA@XZ@4HA 000000014003e160 f   Mainfrm.obj
 0001:0003d170       ?dtor$1@?0???1CDocument@@QEAA@XZ@4HA 000000014003e170 f   Mainfrm.obj
 0001:0003d180       ?dtor$2@?0???1CDocument@@QEAA@XZ@4HA 000000014003e180 f   Mainfrm.obj
 0001:0003d190       ?dtor$0@?0??DestroyDockBars@CFrameWnd@@QEAAXXZ@4HA 000000014003e190 f   Mainfrm.obj
 0001:0003d19c       ?dtor$1@?0??DestroyDockBars@CFrameWnd@@QEAAXXZ@4HA 000000014003e19c f   Mainfrm.obj
 0001:0003d1b0       ?dtor$0@?0??AfxMessageBox@@YAHIII@Z@4HA 000000014003e1b0 f   Mainfrm.obj
 0001:0003d1b0       ?dtor$0@?0??OnFileOpen@CDocManager@@UEAAXXZ@4HA 000000014003e1b0 f   Propdlg.obj
 0001:0003d1c0       ?dtor$0@?0??OnSetMessageString@CFrameWnd@@QEAA_J_K_J@Z@4HA 000000014003e1c0 f   Mainfrm.obj
 0001:0003d1d0       ?dtor$0@?0??UpdateFrameTitleForDocument@CFrameWnd@@QEAAXPEB_W@Z@4HA 000000014003e1d0 f   Mainfrm.obj
 0001:0003d1e0       ?dtor$0@?0??OnUpdateNumPageChange@CPreviewView@@QEAAXPEAVCCmdUI@@@Z@4HA 000000014003e1e0 f   Stdafx.obj
 0001:0003d1e0       ?dtor$0@?0??OnUpdateFrameTitle@CFrameWnd@@UEAAXH@Z@4HA 000000014003e1e0 f   Mainfrm.obj
 0001:0003d1e0       ?dtor$0@?0??AfxResolveShortcut@@YAHPEAVCWMHnd@@PEB_WPEA_WH@Z@4HA 000000014003e1e0 f   Propdlg.obj
 0001:0003d1e0       ?dtor$0@?0??_AfxFullPath2@CAfx@@SAHPEA_WPEB_WPEAVCFileException@@@Z@4HA 000000014003e1e0 f   Propdlg.obj
 0001:0003d1f0       ?dtor$0@?0??OnToolTipText@CFrameWnd@@QEAAHIPEAUtagNMHDR@@PEA_J@Z@4HA 000000014003e1f0 f   Mainfrm.obj
 0001:0003d200       ?dtor$0@?0??_ProcessWindowMessage@CFrameWnd@@UEAAHPEAUHWND__@@I_K_JAEA_J@Z@4HA 000000014003e200 f   Mainfrm.obj
 0001:0003d20c       ?dtor$5@?0??_ProcessWindowMessage@CFrameWnd@@UEAAHPEAUHWND__@@I_K_JAEA_J@Z@4HA 000000014003e20c f   Mainfrm.obj
 0001:0003d21c       ?dtor$1@?0??_ProcessWindowMessage@CFrameWnd@@UEAAHPEAUHWND__@@I_K_JAEA_J@Z@4HA 000000014003e21c f   Mainfrm.obj
 0001:0003d228       ?dtor$7@?0??_ProcessWindowMessage@CFrameWnd@@UEAAHPEAUHWND__@@I_K_JAEA_J@Z@4HA 000000014003e228 f   Mainfrm.obj
 0001:0003d238       ?dtor$2@?0??_ProcessWindowMessage@CFrameWnd@@UEAAHPEAUHWND__@@I_K_JAEA_J@Z@4HA 000000014003e238 f   Mainfrm.obj
 0001:0003d244       ?dtor$9@?0??_ProcessWindowMessage@CFrameWnd@@UEAAHPEAUHWND__@@I_K_JAEA_J@Z@4HA 000000014003e244 f   Mainfrm.obj
 0001:0003d254       ?dtor$3@?0??_ProcessWindowMessage@CFrameWnd@@UEAAHPEAUHWND__@@I_K_JAEA_J@Z@4HA 000000014003e254 f   Mainfrm.obj
 0001:0003d260       ?dtor$0@?0??OnCreate@CShapePropSheetFrame@@IEAAHPEAUtagCREATESTRUCTW@@@Z@4HA 000000014003e260 f   Minifrm.obj
 0001:0003d270       ?dtor$0@?0???1CMiniFrameWnd@@UEAA@XZ@4HA 000000014003e270 f   Minifrm.obj
 0001:0003d280       ?dtor$0@?0??OnPaint@CShapePreviewWnd@@AEAAXXZ@4HA 000000014003e280 f   Preview.obj
 0001:0003d28c       ?dtor$3@?0??OnPaint@CShapePreviewWnd@@AEAAXXZ@4HA 000000014003e28c f   Preview.obj
 0001:0003d2a0       ?dtor$1@?0???_GCPenMTL@@UEAAPEAXI@Z@4HA 000000014003e2a0 f   Shapeobj.obj
 0001:0003d2a0       ?dtor$1@?0???1CPenMTL@@UEAA@XZ@4HA 000000014003e2a0 f   Shapeobj.obj
 0001:0003d2a0       ?dtor$1@?0???_GCBrushMTL@@UEAAPEAXI@Z@4HA 000000014003e2a0 f   Preview.obj
 0001:0003d2a0       ?dtor$1@?0???_GCBitmapMTL@@UEAAPEAXI@Z@4HA 000000014003e2a0 f   Stdafx.obj
 0001:0003d2a0       ?dtor$2@?0???1CImage@@UEAA@XZ@4HA 000000014003e2a0 f   Stdafx.obj
 0001:0003d2a0       ?dtor$1@?0???1CRgnMTL@@UEAA@XZ@4HA 000000014003e2a0 f   Stdafx.obj
 0001:0003d2a0       ?dtor$1@?0???1CBrushMTL@@UEAA@XZ@4HA 000000014003e2a0 f   Preview.obj
 0001:0003d2a0       ?dtor$1@?0???_GCRgnMTL@@UEAAPEAXI@Z@4HA 000000014003e2a0 f   Stdafx.obj
 0001:0003d2b0       ?dtor$3@?0??InitInstance@CPropDlgApp@@UEAAHXZ@4HA 000000014003e2b0 f   Propdlg.obj
 0001:0003d2bc       ?dtor$0@?0??InitInstance@CPropDlgApp@@UEAAHXZ@4HA 000000014003e2bc f   Propdlg.obj
 0001:0003d2c8       ?dtor$4@?0??InitInstance@CPropDlgApp@@UEAAHXZ@4HA 000000014003e2c8 f   Propdlg.obj
 0001:0003d2d4       ?dtor$5@?0??InitInstance@CPropDlgApp@@UEAAHXZ@4HA 000000014003e2d4 f   Propdlg.obj
 0001:0003d2e4       ?dtor$1@?0??InitInstance@CPropDlgApp@@UEAAHXZ@4HA 000000014003e2e4 f   Propdlg.obj
 0001:0003d2f0       ?dtor$2@?0??InitInstance@CPropDlgApp@@UEAAHXZ@4HA 000000014003e2f0 f   Propdlg.obj
 0001:0003d300       ?dtor$0@?0??OnAppAbout@CPropDlgApp@@QEAAXXZ@4HA 000000014003e300 f   Propdlg.obj
 0001:0003d310       ?dtor$0@?0???HWTL@@YA?AVCString@0@AEBV10@0@Z@4HA 000000014003e310 f   Propdlg.obj
 0001:0003d310       ?dtor$0@?0???HWTL@@YA?AVCString@0@AEBV10@PEB_W@Z@4HA 000000014003e310 f   Propdlg.obj
 0001:0003d340       ?dtor$0@?0??AfxDelRegTreeHelper@CAfx@@SAJPEAUHKEY__@@AEBVCString@WTL@@PEAVCAtlTransactionManager@ATL@@@Z@4HA 000000014003e340 f   Propdlg.obj
 0001:0003d34c       ?dtor$1@?0??AfxDelRegTreeHelper@CAfx@@SAJPEAUHKEY__@@AEBVCString@WTL@@PEAVCAtlTransactionManager@ATL@@@Z@4HA 000000014003e34c f   Propdlg.obj
 0001:0003d360       ?dtor$0@?0??Unregister@CWinApp@@QEAAHXZ@4HA 000000014003e360 f   Propdlg.obj
 0001:0003d36c       ?dtor$1@?0??Unregister@CWinApp@@QEAAHXZ@4HA 000000014003e36c f   Propdlg.obj
 0001:0003d378       ?dtor$2@?0??Unregister@CWinApp@@QEAAHXZ@4HA 000000014003e378 f   Propdlg.obj
 0001:0003d390       ?dtor$0@?0??EnableShellOpen@CWinApp@@QEAAXXZ@4HA 000000014003e390 f   Propdlg.obj
 0001:0003d39c       ?dtor$1@?0??EnableShellOpen@CWinApp@@QEAAXXZ@4HA 000000014003e39c f   Propdlg.obj
 0001:0003d3b0       ?dtor$0@?0???0CDocTemplate@@QEAA@IPEAUCRuntimeClass@@00@Z@4HA 000000014003e3b0 f   Propdlg.obj
 0001:0003d3c0       ?dtor$0@?0??OpenDocumentFile@CMultiDocTemplate@@UEAAPEAVCDocument@@PEB_WHH@Z@4HA 000000014003e3c0 f   Propdlg.obj
 0001:0003d3d0       ?dtor$0@?0??SetDefaultTitle@CMultiDocTemplate@@UEAAXPEAVCDocument@@@Z@4HA 000000014003e3d0 f   Propdlg.obj
 0001:0003d3e0       ?dtor$0@?0???0CRecentFileList@@QEAA@IPEB_W0HH@Z@4HA 000000014003e3e0 f   Propdlg.obj
 0001:0003d3f0       ?dtor$1@?0???0CRecentFileList@@QEAA@IPEB_W0HH@Z@4HA 000000014003e3f0 f   Propdlg.obj
 0001:0003d400       ?dtor$2@?0???0CRecentFileList@@QEAA@IPEB_W0HH@Z@4HA 000000014003e400 f   Propdlg.obj
 0001:0003d410       ?dtor$3@?0???0CRecentFileList@@QEAA@IPEB_W0HH@Z@4HA 000000014003e410 f   Propdlg.obj
 0001:0003d420       ?dtor$0@?0??ReadList@CRecentFileList@@UEAAXXZ@4HA 000000014003e420 f   Propdlg.obj
 0001:0003d430       ?dtor$0@?0???1CRecentFileList@@UEAA@XZ@4HA 000000014003e430 f   Propdlg.obj
 0001:0003d440       ?dtor$1@?0???1CRecentFileList@@UEAA@XZ@4HA 000000014003e440 f   Propdlg.obj
 0001:0003d450       ?dtor$2@?0???1CRecentFileList@@UEAA@XZ@4HA 000000014003e450 f   Propdlg.obj
 0001:0003d460       ?dtor$0@?0???1CCommandLineInfo@@QEAA@XZ@4HA 000000014003e460 f   Propdlg.obj
 0001:0003d470       ?dtor$1@?0???1CCommandLineInfo@@QEAA@XZ@4HA 000000014003e470 f   Propdlg.obj
 0001:0003d480       ?dtor$2@?0???1CCommandLineInfo@@QEAA@XZ@4HA 000000014003e480 f   Propdlg.obj
 0001:0003d490       ?dtor$0@?0???1CWinApp@@QEAA@XZ@4HA 000000014003e490 f   Propdlg.obj
 0001:0003d49c       ?dtor$1@?0???1CWinApp@@QEAA@XZ@4HA 000000014003e49c f   Propdlg.obj
 0001:0003d4ac       ?dtor$2@?0???1CWinApp@@QEAA@XZ@4HA 000000014003e4ac f   Propdlg.obj
 0001:0003d4c0       ?dtor$0@?0???1CModuleThreadState@@QEAA@XZ@4HA 000000014003e4c0 f   Propdlg.obj
 0001:0003d4c0       ?dtor$0@?0???0CModuleThreadState@@QEAA@XZ@4HA 000000014003e4c0 f   Propdlg.obj
 0001:0003d4e0       ?dtor$0@?0???0CWinApp@@QEAA@XZ@4HA 000000014003e4e0 f   Propdlg.obj
 0001:0003d4f0       ?dtor$0@?0??UpdateMenu@CRecentFileList@@UEAAXPEAVCCmdUI@@@Z@4HA 000000014003e4f0 f   Propdlg.obj
 0001:0003d4fc       ?dtor$1@?0??UpdateMenu@CRecentFileList@@UEAAXPEAVCCmdUI@@@Z@4HA 000000014003e4fc f   Propdlg.obj
 0001:0003d508       ?dtor$2@?0??UpdateMenu@CRecentFileList@@UEAAXPEAVCCmdUI@@@Z@4HA 000000014003e508 f   Propdlg.obj
 0001:0003d520       ?dtor$0@?0??UpdatePrinterSelection@CWinApp@@QEAAXH@Z@4HA 000000014003e520 f   Propdlg.obj
 0001:0003d52c       ?dtor$1@?0??UpdatePrinterSelection@CWinApp@@QEAAXH@Z@4HA 000000014003e52c f   Propdlg.obj
 0001:0003d558       ?dtor$2@?0??UpdatePrinterSelection@CWinApp@@QEAAXH@Z@4HA 000000014003e558 f   Propdlg.obj
 0001:0003d590       ?dtor$0@?0??OnFilePrintSetup@CWinApp@@QEAAXXZ@4HA 000000014003e590 f   Propdlg.obj
 0001:0003d5a0       ?dtor$0@?0???0CFileDialogMTL@@QEAA@HPEB_W0K0PEAVCWnd@@KH@Z@4HA 000000014003e5a0 f   Propdlg.obj
 0001:0003d5ac       ?dtor$1@?0???0CFileDialogMTL@@QEAA@HPEB_W0K0PEAVCWnd@@KH@Z@4HA 000000014003e5ac f   Propdlg.obj
 0001:0003d5c0       ?dtor$0@?0???1CFileDialogMTL@@UEAA@XZ@4HA 000000014003e5c0 f   Propdlg.obj
 0001:0003d5cc       ?dtor$1@?0???1CFileDialogMTL@@UEAA@XZ@4HA 000000014003e5cc f   Propdlg.obj
 0001:0003d5e0       ?dtor$0@?0??Mid@CString@WTL@@QEBA?AV12@HH@Z@4HA 000000014003e5e0 f   Propdlg.obj
 0001:0003d610       ?dtor$0@?0??_AfxAppendFilterSuffix@@YAXAEAVCString@WTL@@AEAUtagOFNW@@PEAVCDocTemplate@@PEAV12@@Z@4HA 000000014003e610 f   Propdlg.obj
 0001:0003d61c       ?dtor$1@?0??_AfxAppendFilterSuffix@@YAXAEAVCString@WTL@@AEAUtagOFNW@@PEAVCDocTemplate@@PEAV12@@Z@4HA 000000014003e61c f   Propdlg.obj
 0001:0003d628       ?dtor$2@?0??_AfxAppendFilterSuffix@@YAXAEAVCString@WTL@@AEAUtagOFNW@@PEAVCDocTemplate@@PEAV12@@Z@4HA 000000014003e628 f   Propdlg.obj
 0001:0003d634       ?dtor$3@?0??_AfxAppendFilterSuffix@@YAXAEAVCString@WTL@@AEAUtagOFNW@@PEAVCDocTemplate@@PEAV12@@Z@4HA 000000014003e634 f   Propdlg.obj
 0001:0003d640       ?dtor$0@?0??ApplyOFNToShellDialog@CFileDialogMTL@@QEAAXXZ@4HA 000000014003e640 f   Propdlg.obj
 0001:0003d64c       ?dtor$1@?0??ApplyOFNToShellDialog@CFileDialogMTL@@QEAAXXZ@4HA 000000014003e64c f   Propdlg.obj
 0001:0003d658       ?dtor$2@?0??ApplyOFNToShellDialog@CFileDialogMTL@@QEAAXXZ@4HA 000000014003e658 f   Propdlg.obj
 0001:0003d664       ?dtor$3@?0??ApplyOFNToShellDialog@CFileDialogMTL@@QEAAXXZ@4HA 000000014003e664 f   Propdlg.obj
 0001:0003d670       ?dtor$4@?0??ApplyOFNToShellDialog@CFileDialogMTL@@QEAAXXZ@4HA 000000014003e670 f   Propdlg.obj
 0001:0003d67c       ?dtor$5@?0??ApplyOFNToShellDialog@CFileDialogMTL@@QEAAXXZ@4HA 000000014003e67c f   Propdlg.obj
 0001:0003d688       ?dtor$6@?0??ApplyOFNToShellDialog@CFileDialogMTL@@QEAAXXZ@4HA 000000014003e688 f   Propdlg.obj
 0001:0003d6a0       ?dtor$0@?0??GetPathName@CFileDialogMTL@@QEAA?AVCString@WTL@@XZ@4HA 000000014003e6a0 f   Propdlg.obj
 0001:0003d6ac       ?dtor$2@?0??GetPathName@CFileDialogMTL@@QEAA?AVCString@WTL@@XZ@4HA 000000014003e6ac f   Propdlg.obj
 0001:0003d6c0       ?dtor$0@?0??UpdateOFNFromShellDialog@CFileDialogMTL@@UEAAXXZ@4HA 000000014003e6c0 f   Propdlg.obj
 0001:0003d6cc       ?dtor$1@?0??UpdateOFNFromShellDialog@CFileDialogMTL@@UEAAXXZ@4HA 000000014003e6cc f   Propdlg.obj
 0001:0003d6d8       ?dtor$2@?0??UpdateOFNFromShellDialog@CFileDialogMTL@@UEAAXXZ@4HA 000000014003e6d8 f   Propdlg.obj
 0001:0003d6e4       ?dtor$3@?0??UpdateOFNFromShellDialog@CFileDialogMTL@@UEAAXXZ@4HA 000000014003e6e4 f   Propdlg.obj
 0001:0003d6f0       ?dtor$4@?0??UpdateOFNFromShellDialog@CFileDialogMTL@@UEAAXXZ@4HA 000000014003e6f0 f   Propdlg.obj
 0001:0003d6fc       ?dtor$5@?0??UpdateOFNFromShellDialog@CFileDialogMTL@@UEAAXXZ@4HA 000000014003e6fc f   Propdlg.obj
 0001:0003d710       ?dtor$0@?0??DoPromptFileName@CDocManager@@QEAAHAEAVCString@WTL@@IKHPEAVCDocTemplate@@@Z@4HA 000000014003e710 f   Propdlg.obj
 0001:0003d71c       ?dtor$1@?0??DoPromptFileName@CDocManager@@QEAAHAEAVCString@WTL@@IKHPEAVCDocTemplate@@@Z@4HA 000000014003e71c f   Propdlg.obj
 0001:0003d728       ?dtor$2@?0??DoPromptFileName@CDocManager@@QEAAHAEAVCString@WTL@@IKHPEAVCDocTemplate@@@Z@4HA 000000014003e728 f   Propdlg.obj
 0001:0003d734       ?dtor$3@?0??DoPromptFileName@CDocManager@@QEAAHAEAVCString@WTL@@IKHPEAVCDocTemplate@@@Z@4HA 000000014003e734 f   Propdlg.obj
 0001:0003d740       ?dtor$4@?0??DoPromptFileName@CDocManager@@QEAAHAEAVCString@WTL@@IKHPEAVCDocTemplate@@@Z@4HA 000000014003e740 f   Propdlg.obj
 0001:0003d74c       ?dtor$5@?0??DoPromptFileName@CDocManager@@QEAAHAEAVCString@WTL@@IKHPEAVCDocTemplate@@@Z@4HA 000000014003e74c f   Propdlg.obj
 0001:0003d758       ?dtor$6@?0??DoPromptFileName@CDocManager@@QEAAHAEAVCString@WTL@@IKHPEAVCDocTemplate@@@Z@4HA 000000014003e758 f   Propdlg.obj
 0001:0003d770       ?dtor$0@?0??GetClassObject@AFX_COM@@QEAAJAEBU_GUID@@0PEAPEAX@Z@4HA 000000014003e770 f   Propdlg.obj
 0001:0003d77c       ?dtor$1@?0??GetClassObject@AFX_COM@@QEAAJAEBU_GUID@@0PEAPEAX@Z@4HA 000000014003e77c f   Propdlg.obj
 0001:0003d790       ?dtor$0@?0??MatchDocType@CDocTemplate@@UEAA?AW4Confidence@1@PEB_WAEAPEAVCDocument@@@Z@4HA 000000014003e790 f   Propdlg.obj
 0001:0003d790       ?dtor$0@?0??OnInitDialog@CNewTypeDlg@@UEAAHXZ@4HA 000000014003e790 f   Propdlg.obj
 0001:0003d7a0       ?dtor$0@?0??OnFileNew@CDocManager@@UEAAXXZ@4HA 000000014003e7a0 f   Propdlg.obj
 0001:0003d7b0       ?dtor$0@?0???0CModalShapePropSheet@@QEAA@PEAVCWnd@@@Z@4HA 000000014003e7b0 f   Propsht.obj
 0001:0003d7bc       ?dtor$1@?0???0CModalShapePropSheet@@QEAA@PEAVCWnd@@@Z@4HA 000000014003e7bc f   Propsht.obj
 0001:0003d7cf       ?dtor$2@?0???0CModalShapePropSheet@@QEAA@PEAVCWnd@@@Z@4HA 000000014003e7cf f   Propsht.obj
 0001:0003d7e2       ?dtor$3@?0???0CModalShapePropSheet@@QEAA@PEAVCWnd@@@Z@4HA 000000014003e7e2 f   Propsht.obj
 0001:0003d800       ?dtor$0@?0???_GCModalShapePropSheet@@UEAAPEAXI@Z@4HA 000000014003e800 f   Propsht.obj
 0001:0003d800       ?dtor$0@?0???0CModelessShapePropSheet@@QEAA@PEAVCWnd@@@Z@4HA 000000014003e800 f   Propsht2.obj
 0001:0003d80c       ?dtor$1@?0???0CModelessShapePropSheet@@QEAA@PEAVCWnd@@@Z@4HA 000000014003e80c f   Propsht2.obj
 0001:0003d80c       ?dtor$1@?0???_GCModalShapePropSheet@@UEAAPEAXI@Z@4HA 000000014003e80c f   Propsht.obj
 0001:0003d81f       ?dtor$2@?0???_GCModalShapePropSheet@@UEAAPEAXI@Z@4HA 000000014003e81f f   Propsht.obj
 0001:0003d81f       ?dtor$2@?0???0CModelessShapePropSheet@@QEAA@PEAVCWnd@@@Z@4HA 000000014003e81f f   Propsht2.obj
 0001:0003d840       ?dtor$0@?0???1CPropertySheetMTL@@UEAA@XZ@4HA 000000014003e840 f   Propsht.obj
 0001:0003d84c       ?dtor$1@?0???1CPropertySheetMTL@@UEAA@XZ@4HA 000000014003e84c f   Propsht.obj
 0001:0003d860       ?dtor$0@?0??_AfxChangePropPageFont@CPropertyPageMTL@@SAPEAUDLGTEMPLATE@@PEBU2@H@Z@4HA 000000014003e860 f   Propsht.obj
 0001:0003d86c       ?dtor$1@?0??_AfxChangePropPageFont@CPropertyPageMTL@@SAPEAUDLGTEMPLATE@@PEBU2@H@Z@4HA 000000014003e86c f   Propsht.obj
 0001:0003d880       ?dtor$0@?0???0CPropertySheetMTL@@QEAA@IPEAVCWnd@@I@Z@4HA 000000014003e880 f   Propsht.obj
 0001:0003d88c       ?dtor$1@?0???0CPropertySheetMTL@@QEAA@IPEAVCWnd@@I@Z@4HA 000000014003e88c f   Propsht.obj
 0001:0003d89f       ?dtor$2@?0???0CPropertySheetMTL@@QEAA@IPEAVCWnd@@I@Z@4HA 000000014003e89f f   Propsht.obj
 0001:0003d8c0       ?dtor$0@?0???_GCModelessShapePropSheet@@UEAAPEAXI@Z@4HA 000000014003e8c0 f   Propsht2.obj
 0001:0003d8cc       ?dtor$1@?0???_GCModelessShapePropSheet@@UEAAPEAXI@Z@4HA 000000014003e8cc f   Propsht2.obj
 0001:0003d8e0       ?dtor$0@?0??OnOpenDocument@CDocument@@UEAAHPEB_W@Z@4HA 000000014003e8e0 f   Shapedoc.obj
 0001:0003d8ec       ?dtor$3@?0??OnOpenDocument@CDocument@@UEAAHPEB_W@Z@4HA 000000014003e8ec f   Shapedoc.obj
 0001:0003d8fc       ?dtor$1@?0??OnOpenDocument@CDocument@@UEAAHPEB_W@Z@4HA 000000014003e8fc f   Shapedoc.obj
 0001:0003d908       ?dtor$2@?0??OnOpenDocument@CDocument@@UEAAHPEB_W@Z@4HA 000000014003e908 f   Shapedoc.obj
 0001:0003d914       ?catch$0@?0??OnOpenDocument@CDocument@@UEAAHPEB_W@Z@4HA 000000014003e914 f   Shapedoc.obj
 0001:0003d922       __catch$?OnOpenDocument@CDocument@@UEAAHPEB_W@Z$0 000000014003e922 f   Shapedoc.obj
 0001:0003d970       ?catch$0@?0??ReadObject@CArchive@@QEAAPEAVCObject@@PEBUCRuntimeClass@@@Z@4HA 000000014003e970 f   Shapedoc.obj
 0001:0003d97d       __catch$?ReadObject@CArchive@@QEAAPEAVCObject@@PEBUCRuntimeClass@@@Z$0 000000014003e97d f   Shapedoc.obj
 0001:0003d9a0       ?catch$0@?0??EnsureSchemaMapExists@CArchive@@QEAAXPEAPEAV?$CArray@W4LoadArrayObjType@CArchive@@AEBW412@@@@Z@4HA 000000014003e9a0 f   Shapedoc.obj
 0001:0003d9ae       __catch$?EnsureSchemaMapExists@CArchive@@QEAAXPEAPEAV?$CArray@W4LoadArrayObjType@CArchive@@AEBW412@@@@Z$0 000000014003e9ae f   Shapedoc.obj
 0001:0003da00       ?dtor$0@?0??AfxThrowArchiveException@CArchive@@SAXHPEB_W@Z@4HA 000000014003ea00 f   Shapedoc.obj
 0001:0003da0c       ?dtor$1@?0??AfxThrowArchiveException@CArchive@@SAXHPEB_W@Z@4HA 000000014003ea0c f   Shapedoc.obj
 0001:0003da20       ?dtor$0@?0??SaveModified@CDocument@@UEAAHXZ@4HA 000000014003ea20 f   Shapedoc.obj
 0001:0003da2c       ?dtor$1@?0??SaveModified@CDocument@@UEAAHXZ@4HA 000000014003ea2c f   Shapedoc.obj
 0001:0003da38       ?dtor$2@?0??SaveModified@CDocument@@UEAAHXZ@4HA 000000014003ea38 f   Shapedoc.obj
 0001:0003da50       ?dtor$0@?0???0CArchive@@QEAA@PEAVCFile@@IHPEAX@Z@4HA 000000014003ea50 f   Shapedoc.obj
 0001:0003da60       ?dtor$1@?0???0CArchive@@QEAA@PEAVCFile@@IHPEAX@Z@4HA 000000014003ea60 f   Shapedoc.obj
 0001:0003da70       ?dtor$0@?0??Write@CFile@@UEAAXPEBXI@Z@4HA 000000014003ea70 f   Shapedoc.obj
 0001:0003da7c       ?dtor$1@?0??Write@CFile@@UEAAXPEBXI@Z@4HA 000000014003ea7c f   Shapedoc.obj
 0001:0003da90       ?dtor$0@?0???0CFileException@@QEAA@HJPEB_W@Z@4HA 000000014003ea90 f   Shapedoc.obj
 0001:0003daa0       ?dtor$0@?0??Close@CFile@@UEAAXXZ@4HA 000000014003eaa0 f   Shapedoc.obj
 0001:0003daa0       ?dtor$0@?0??ThrowOsError@CFileException@@SAXJPEB_W@Z@4HA 000000014003eaa0 f   Shapedoc.obj
 0001:0003dab0       ?dtor$0@?0???_GCFile@@QEAAPEAXI@Z@4HA 000000014003eab0 f   Shapedoc.obj
 0001:0003dac0       ?dtor$0@?0??OnSaveDocument@CDocument@@UEAAHPEB_W@Z@4HA 000000014003eac0 f   Shapedoc.obj
 0001:0003dacc       ?dtor$3@?0??OnSaveDocument@CDocument@@UEAAHPEB_W@Z@4HA 000000014003eacc f   Shapedoc.obj
 0001:0003dadc       ?dtor$1@?0??OnSaveDocument@CDocument@@UEAAHPEB_W@Z@4HA 000000014003eadc f   Shapedoc.obj
 0001:0003dae8       ?dtor$2@?0??OnSaveDocument@CDocument@@UEAAHPEB_W@Z@4HA 000000014003eae8 f   Shapedoc.obj
 0001:0003db00       ?dtor$0@?0??DoSave@CDocument@@UEAAHPEB_WH@Z@4HA 000000014003eb00 f   Shapedoc.obj
 0001:0003db0c       ?dtor$1@?0??DoSave@CDocument@@UEAAHPEB_WH@Z@4HA 000000014003eb0c f   Shapedoc.obj
 0001:0003db18       ?dtor$2@?0??DoSave@CDocument@@UEAAHPEB_WH@Z@4HA 000000014003eb18 f   Shapedoc.obj
 0001:0003db24       ?dtor$3@?0??DoSave@CDocument@@UEAAHPEB_WH@Z@4HA 000000014003eb24 f   Shapedoc.obj
 0001:0003db30       ?dtor$0@?0??Draw@CShape@@QEAAXPEAVCDCMTL@@H@Z@4HA 000000014003eb30 f   Shapeobj.obj
 0001:0003db3c       ?dtor$1@?0??Draw@CShape@@QEAAXPEAVCDCMTL@@H@Z@4HA 000000014003eb3c f   Shapeobj.obj
 0001:0003db48       ?dtor$3@?0??Draw@CShape@@QEAAXPEAVCDCMTL@@H@Z@4HA 000000014003eb48 f   Shapeobj.obj
 0001:0003db58       ?dtor$5@?0??Draw@CShape@@QEAAXPEAVCDCMTL@@H@Z@4HA 000000014003eb58 f   Shapeobj.obj
 0001:0003db70       ?dtor$1@?0???_GCGdiObject@@UEAAPEAXI@Z@4HA 000000014003eb70 f   Shapeobj.obj
 0001:0003db80       ?dtor$0@?0??OnLButtonDown@CShapesView@@IEAAXIVCPoint@WTL@@@Z@4HA 000000014003eb80 f   Shapesvw.obj
 0001:0003db8c       ?dtor$4@?0??OnLButtonDown@CShapesView@@IEAAXIVCPoint@WTL@@@Z@4HA 000000014003eb8c f   Shapesvw.obj
 0001:0003dba0       ?dtor$0@?0??OnSimplePropertySheet@CShapesView@@IEAAXXZ@4HA 000000014003eba0 f   Shapesvw.obj
 0001:0003dbac       ?dtor$1@?0??OnSimplePropertySheet@CShapesView@@IEAAXXZ@4HA 000000014003ebac f   Shapesvw.obj
 0001:0003dbb8       ?dtor$2@?0??OnSimplePropertySheet@CShapesView@@IEAAXXZ@4HA 000000014003ebb8 f   Shapesvw.obj
 0001:0003dbc4       ?dtor$7@?0??OnSimplePropertySheet@CShapesView@@IEAAXXZ@4HA 000000014003ebc4 f   Shapesvw.obj
 0001:0003dbd0       ?dtor$8@?0??OnSimplePropertySheet@CShapesView@@IEAAXXZ@4HA 000000014003ebd0 f   Shapesvw.obj
 0001:0003dbf0       ?dtor$0@?0??CreateObject@CMDIFrameWnd@@SAPEAVCObject@@XZ@4HA 000000014003ebf0 f   Stdafx.obj
 0001:0003dbf0       ?dtor$0@?0??CreateObject@CMiniFrameWnd@@SAPEAVCObject@@XZ@4HA 000000014003ebf0 f   Stdafx.obj
 0001:0003dbf0       ?dtor$0@?0??OnPropertySheetWithPreview@CShapesView@@IEAAXXZ@4HA 000000014003ebf0 f   Shapesvw.obj
 0001:0003dbf0       ?dtor$0@?0??CreateObject@CFrameWnd@@SAPEAVCObject@@XZ@4HA 000000014003ebf0 f   Stdafx.obj
 0001:0003dbf0       ?dtor$0@?0??CreateObject@CMDIChildWnd@@SAPEAVCObject@@XZ@4HA 000000014003ebf0 f   Stdafx.obj
 0001:0003dc00       ?dtor$0@?0???_GCDialogBar@@UEAAPEAXI@Z@4HA 000000014003ec00 f   Shapesvw.obj
 0001:0003dc10       ?dtor$0@?0??OnPaint@CView@@QEAAXXZ@4HA 000000014003ec10 f   Shapesvw.obj
 0001:0003dc1c       ?dtor$3@?0??OnPaint@CView@@QEAAXXZ@4HA 000000014003ec1c f   Shapesvw.obj
 0001:0003dc30       ?dtor$0@?0??_ProcessWindowMessage@CView@@UEAAHPEAUHWND__@@I_K_JAEA_J@Z@4HA 000000014003ec30 f   Shapesvw.obj
 0001:0003dc40       ?dtor$0@?0??ExtTextOutW@CPreviewDC@@QEAAHHHIPEBUtagRECT@@PEB_WIPEAH@Z@4HA 000000014003ec40 f   Shapesvw.obj
 0001:0003dc4c       ?dtor$1@?0??ExtTextOutW@CPreviewDC@@QEAAHHHIPEBUtagRECT@@PEB_WIPEAH@Z@4HA 000000014003ec4c f   Shapesvw.obj
 0001:0003dc60       ?dtor$3@?0??SetScrollSizes@CScrollView@@QEAAXHUtagSIZE@@AEBU2@1@Z@4HA 000000014003ec60 f   Shapesvw.obj
 0001:0003dc70       ?dtor$0@?0??SetPrintView@CPreviewView@@QEAAHPEAVCView@@@Z@4HA 000000014003ec70 f   Shapesvw.obj
 0001:0003dc80       ?catch$0@?0??OnFilePrintPreview@CView@@QEAAXXZ@4HA 000000014003ec80 f   Shapesvw.obj
 0001:0003dc8d       __catch$?OnFilePrintPreview@CView@@QEAAXXZ$0 000000014003ec8d f   Shapesvw.obj
 0001:0003dca0       ?dtor$0@?0???1CPrintInfo@@QEAA@XZ@4HA 000000014003eca0 f   Shapesvw.obj
 0001:0003dca0       ?dtor$0@?0???0CPrintInfo@@QEAA@XZ@4HA 000000014003eca0 f   Shapesvw.obj
 0001:0003dcb0       ?dtor$0@?0??OnFilePrint@CView@@QEAAXXZ@4HA 000000014003ecb0 f   Shapesvw.obj
 0001:0003dcbc       ?dtor$16@?0??OnFilePrint@CView@@QEAAXXZ@4HA 000000014003ecbc f   Shapesvw.obj
 0001:0003dcc8       ?dtor$1@?0??OnFilePrint@CView@@QEAAXXZ@4HA 000000014003ecc8 f   Shapesvw.obj
 0001:0003dcd4       ?dtor$2@?0??OnFilePrint@CView@@QEAAXXZ@4HA 000000014003ecd4 f   Shapesvw.obj
 0001:0003dce0       ?dtor$3@?0??OnFilePrint@CView@@QEAAXXZ@4HA 000000014003ece0 f   Shapesvw.obj
 0001:0003dcec       ?dtor$4@?0??OnFilePrint@CView@@QEAAXXZ@4HA 000000014003ecec f   Shapesvw.obj
 0001:0003dcf8       ?dtor$5@?0??OnFilePrint@CView@@QEAAXXZ@4HA 000000014003ecf8 f   Shapesvw.obj
 0001:0003dd04       ?dtor$6@?0??OnFilePrint@CView@@QEAAXXZ@4HA 000000014003ed04 f   Shapesvw.obj
 0001:0003dd10       ?dtor$7@?0??OnFilePrint@CView@@QEAAXXZ@4HA 000000014003ed10 f   Shapesvw.obj
 0001:0003dd1c       ?dtor$8@?0??OnFilePrint@CView@@QEAAXXZ@4HA 000000014003ed1c f   Shapesvw.obj
 0001:0003dd28       ?dtor$9@?0??OnFilePrint@CView@@QEAAXXZ@4HA 000000014003ed28 f   Shapesvw.obj
 0001:0003dd34       ?dtor$10@?0??OnFilePrint@CView@@QEAAXXZ@4HA 000000014003ed34 f   Shapesvw.obj
 0001:0003dd40       ?dtor$11@?0??OnFilePrint@CView@@QEAAXXZ@4HA 000000014003ed40 f   Shapesvw.obj
 0001:0003dd4c       ?dtor$17@?0??OnFilePrint@CView@@QEAAXXZ@4HA 000000014003ed4c f   Shapesvw.obj
 0001:0003dd58       ?dtor$12@?0??OnFilePrint@CView@@QEAAXXZ@4HA 000000014003ed58 f   Shapesvw.obj
 0001:0003dd64       ?dtor$13@?0??OnFilePrint@CView@@QEAAXXZ@4HA 000000014003ed64 f   Shapesvw.obj
 0001:0003dd70       ?dtor$21@?0??OnFilePrint@CView@@QEAAXXZ@4HA 000000014003ed70 f   Shapesvw.obj
 0001:0003dd80       ?dtor$25@?0??OnFilePrint@CView@@QEAAXXZ@4HA 000000014003ed80 f   Shapesvw.obj
 0001:0003dd90       ?dtor$26@?0??OnFilePrint@CView@@QEAAXXZ@4HA 000000014003ed90 f   Shapesvw.obj
 0001:0003dda0       ?dtor$3@?0??OnPaint@_AFX_MOUSEANCHORWND@@QEAAXXZ@4HA 000000014003eda0 f   Stdafx.obj
 0001:0003ddb0       ?dtor$0@?0???1CScrollView@@UEAA@XZ@4HA 000000014003edb0 f   Stdafx.obj
 0001:0003ddbc       ?dtor$1@?0???1CScrollView@@UEAA@XZ@4HA 000000014003edbc f   Stdafx.obj
 0001:0003ddd0       ?dtor$0@?0??OnPrintClient@CScrollView@@QEAA_JPEAVCDCMTL@@I@Z@4HA 000000014003edd0 f   Stdafx.obj
 0001:0003dddc       ?dtor$1@?0??OnPrintClient@CScrollView@@QEAA_JPEAVCDCMTL@@I@Z@4HA 000000014003eddc f   Stdafx.obj
 0001:0003dde8       ?dtor$4@?0??OnPrintClient@CScrollView@@QEAA_JPEAVCDCMTL@@I@Z@4HA 000000014003ede8 f   Stdafx.obj
 0001:0003ddf8       ?dtor$6@?0??OnPrintClient@CScrollView@@QEAA_JPEAVCDCMTL@@I@Z@4HA 000000014003edf8 f   Stdafx.obj
 0001:0003de10       ?dtor$0@?0??Create@_AFX_MOUSEANCHORWND@@QEAAHPEAVCScrollView@@@Z@4HA 000000014003ee10 f   Stdafx.obj
 0001:0003de1c       ?dtor$2@?0??Create@_AFX_MOUSEANCHORWND@@QEAAHPEAVCScrollView@@@Z@4HA 000000014003ee1c f   Stdafx.obj
 0001:0003de30       ?dtor$0@?0???1CPreviewView@@UEAA@XZ@4HA 000000014003ee30 f   Stdafx.obj
 0001:0003de3c       ?dtor$1@?0???1CPreviewView@@UEAA@XZ@4HA 000000014003ee3c f   Stdafx.obj
 0001:0003de4f       ?dtor$3@?0???1CPreviewView@@UEAA@XZ@4HA 000000014003ee4f f   Stdafx.obj
 0001:0003de60       ?dtor$0@?0??OnDraw@CPreviewView@@UEAAXPEAVCDCMTL@@@Z@4HA 000000014003ee60 f   Stdafx.obj
 0001:0003de6c       ?dtor$1@?0??OnDraw@CPreviewView@@UEAAXPEAVCDCMTL@@@Z@4HA 000000014003ee6c f   Stdafx.obj
 0001:0003de78       ?dtor$3@?0??OnDraw@CPreviewView@@UEAAXPEAVCDCMTL@@@Z@4HA 000000014003ee78 f   Stdafx.obj
 0001:0003de88       ?dtor$5@?0??OnDraw@CPreviewView@@UEAAXPEAVCDCMTL@@@Z@4HA 000000014003ee88 f   Stdafx.obj
 0001:0003dea0       ?dtor$0@?0??OnEraseBkgnd@CPreviewView@@QEAAHPEAVCDCMTL@@@Z@4HA 000000014003eea0 f   Stdafx.obj
 0001:0003deac       ?dtor$2@?0??OnEraseBkgnd@CPreviewView@@QEAAHPEAVCDCMTL@@@Z@4HA 000000014003eeac f   Stdafx.obj
 0001:0003dec0       ?dtor$0@?0??LoadFrame@CMDIChildWnd@@UEAAHIKPEAVCWnd@@PEAUCCreateContext@@@Z@4HA 000000014003eec0 f   Stdafx.obj
 0001:0003decc       ?dtor$1@?0??LoadFrame@CMDIChildWnd@@UEAAHIKPEAVCWnd@@PEAUCCreateContext@@@Z@4HA 000000014003eecc f   Stdafx.obj
 0001:0003dee0       ?dtor$0@?0??OnDisplayPageNumber@CPreviewView@@UEAAXII@Z@4HA 000000014003eee0 f   Stdafx.obj
 0001:0003def0       ?dtor$0@?0???__F?wndTop@CWMHnd@@2V1@B@@YAXXZ@4HA 000000014003eef0 f   Stdafx.obj
 0001:0003df00       ?dtor$0@?0???__F?wndBottom@CWMHnd@@2V1@B@@YAXXZ@4HA 000000014003ef00 f   Stdafx.obj
 0001:0003df10       ?dtor$0@?0???__F?wndTopMost@CWMHnd@@2V1@B@@YAXXZ@4HA 000000014003ef10 f   Stdafx.obj
 0001:0003df20       ?dtor$0@?0???__F?wndNoTopMost@CWMHnd@@2V1@B@@YAXXZ@4HA 000000014003ef20 f   Stdafx.obj
 0001:0003df30       __tmainCRTStartup$filt$0   000000014003ef30 f   LIBCMT:wwincrt0.obj
 0001:0003df4e       _onexit$fin$0              000000014003ef4e f   LIBCMT:onexit.obj
 0001:0003df62       ?fin$0@?0???_M@YAXPEAX_KHP6AX0@Z@Z@4HA 000000014003ef62 f   LIBCMT:ehvecdtr.obj
 0001:0003df8e       ?filt$0@?0??__ArrayUnwind@@YAXPEAX_KHP6AX0@Z@Z@4HA 000000014003ef8e f   LIBCMT:ehvecdtr.obj
 0001:0003dfcf       ?fin$0@?0???_L@YAXPEAX_KHP6AX0@Z2@Z@4HA 000000014003efcf f   LIBCMT:ehvecctr.obj
 0001:0003dffb       doexit$fin$0               000000014003effb f   LIBCMT:crt0dat.obj
 0001:0003e01f       _freefls$fin$1             000000014003f01f f   LIBCMT:tidtable.obj
 0001:0003e01f       _initptd$fin$1             000000014003f01f f   LIBCMT:tidtable.obj
 0001:0003e038       _initptd$fin$0             000000014003f038 f   LIBCMT:tidtable.obj
 0001:0003e038       _freefls$fin$0             000000014003f038 f   LIBCMT:tidtable.obj
 0001:0003e051       _ioinit$fin$0              000000014003f051 f   LIBCMT:ioinit.obj
 0001:0003e06c       ?fin$0@?0??_Type_info_dtor@type_info@@CAXPEAV1@@Z@4HA 000000014003f06c f   LIBCMT:typname.obj
 0001:0003e085       _mtinitlocknum$fin$0       000000014003f085 f   LIBCMT:mlock.obj
 0001:0003e0b0       _IsNonwritableInCurrentImage$filt$0 000000014003f0b0 f   LIBCMT:pesect.obj
 0001:0003e0d0       raise$fin$0                000000014003f0d0 f   LIBCMT:winsig.obj
 0001:0003e0ee       __updatetmbcinfo$fin$0     000000014003f0ee f   LIBCMT:mbctype.obj
 0001:0003e0ee       _setmbcp$fin$0             000000014003f0ee f   LIBCMT:mbctype.obj
 0001:0003e107       _isindst$fin$0             000000014003f107 f   LIBCMT:tzset.obj
 0001:0003e107       __tzset$fin$0              000000014003f107 f   LIBCMT:tzset.obj
 0001:0003e120       _tzset_nolock$fin$0        000000014003f120 f   LIBCMT:tzset.obj
 0001:0003e13b       flsall$fin$0               000000014003f13b f   LIBCMT:fflush.obj
 0001:0003e163       flsall$fin$1               000000014003f163 f   LIBCMT:fflush.obj
 0001:0003e17c       _fcloseall$fin$0           000000014003f17c f   LIBCMT:closeall.obj
 0001:0003e195       _write$fin$0               000000014003f195 f   LIBCMT:write.obj
 0001:0003e1ac       _locterm$fin$0             000000014003f1ac f   LIBCMT:wsetloca.obj
 0001:0003e1ac       __updatetlocinfo$fin$0     000000014003f1ac f   LIBCMT:wsetloca.obj
 0001:0003e1c5       fclose$fin$0               000000014003f1c5 f   LIBCMT:fclose.obj
 0001:0003e1dd       __lock_fhandle$fin$0       000000014003f1dd f   LIBCMT:osfinfo.obj
 0001:0003e1f6       _close$fin$0               000000014003f1f6 f   LIBCMT:close.obj
 0001:0003e1f6       _commit$fin$0              000000014003f1f6 f   LIBCMT:close.obj
 0001:0003e20d       _CallSETranslator$filt$0   000000014003f20d f   LIBCMT:trnsctrl.obj
 0001:0003e253       __CxxCallCatchBlock$filt$0 000000014003f253 f   LIBCMT:frame.obj
 0001:0003e347       __CxxCallCatchBlock$fin$1  000000014003f347 f   LIBCMT:frame.obj
 0001:0003e3c5       __DestructExceptionObject$filt$0 000000014003f3c5 f   LIBCMT:frame.obj
 0001:0003e3dd       __FrameUnwindToState$filt$0 000000014003f3dd f   LIBCMT:frame.obj
 0001:0003e3f3       __FrameUnwindToState$fin$1 000000014003f3f3 f   LIBCMT:frame.obj
 0001:0003e420       ??__F_AtlWinModule@ATL@@YAXXZ 000000014003f420 f   Colorpge.obj
 0001:0003e480       ??__FtheApp@@YAXXZ         000000014003f480 f   Propdlg.obj
 0001:0003e4a0       ??__F?wndTop@CWMHnd@@2V1@B@@YAXXZ 000000014003f4a0 f   Stdafx.obj
 0001:0003e510       ??__F?wndBottom@CWMHnd@@2V1@B@@YAXXZ 000000014003f510 f   Stdafx.obj
 0001:0003e580       ??__F?wndTopMost@CWMHnd@@2V1@B@@YAXXZ 000000014003f580 f   Stdafx.obj
 0001:0003e5f0       ??__F?wndNoTopMost@CWMHnd@@2V1@B@@YAXXZ 000000014003f5f0 f   Stdafx.obj
 0001:0003e658       ??__F_AtlBaseModule@ATL@@YAXXZ 000000014003f658 f   atls:atlbase.obj
 0002:00000b38       _AtlBaseModule$initializer$ 0000000140040b38     atls:atlbase.obj
 0002:00000b40       _AtlWinModule$initializer$ 0000000140040b40     Colorpge.obj
 0002:00000b48       theApp$initializer$        0000000140040b48     Propdlg.obj
 0002:00000b50       _init_CShape$initializer$  0000000140040b50     Shapeobj.obj
 0002:00000b58       ?wndTop$initializer$@CWMHnd@@2P6AXXZEA 0000000140040b58     Stdafx.obj
 0002:00000b60       ?wndBottom$initializer$@CWMHnd@@2P6AXXZEA 0000000140040b60     Stdafx.obj
 0002:00000b68       ?wndTopMost$initializer$@CWMHnd@@2P6AXXZEA 0000000140040b68     Stdafx.obj
 0002:00000b70       ?wndNoTopMost$initializer$@CWMHnd@@2P6AXXZEA 0000000140040b70     Stdafx.obj
 0002:00000b88       pinit                      0000000140040b88     LIBCMT:onexit.obj
 0002:00000b90       pinit                      0000000140040b90     LIBCMT:cpu_disp.obj
 0002:00000b98       pinit                      0000000140040b98     LIBCMT:mbctype.obj
 0002:00000ba0       pinit                      0000000140040ba0     LIBCMT:_file.obj
 0002:00000ba8       pinit                      0000000140040ba8     LIBCMT:wwincrt0.obj
 0002:00000bc0       pterm                      0000000140040bc0     LIBCMT:wsetloca.obj
 0002:00000bc8       pterm                      0000000140040bc8     LIBCMT:initcon.obj
 0002:00000bd0       pterm                      0000000140040bd0     LIBCMT:_file.obj
 0002:00000e20       rterrs                     0000000140040e20     LIBCMT:crt0msg.obj
 0002:00001cf0       ?ExceptionTemplate@?1??_CxxThrowException@@9@4UEHExceptionRecord@@B 0000000140041cf0     LIBCMT:throw.obj
 0002:00001d30       _mb_locale_names           0000000140041d30     LIBCMT:mbctype.obj
 0002:00002220       tokenTable                 0000000140042220     LIBCMT:undname.obj
 0002:00002290       nameTable                  0000000140042290     LIBCMT:undname.obj
 0002:00002510       rttiTable                  0000000140042510     LIBCMT:undname.obj
 0002:00005e70       GS_ExceptionPointers       0000000140045e70     LIBCMT:gs_report.obj
 0002:00006690       _first_127char             0000000140046690     LIBCMT:wsetloca.obj
 0002:00009ed0       $cppxdata$??0CPropertyPageMTL@@QEAA@IIK@Z 0000000140049ed0     Colorpge.obj
 0002:00009ef8       $cppxdata$??1CWnd@@UEAA@XZ 0000000140049ef8     Colorpge.obj
 0002:00009f20       $cppxdata$??1CMenuMTL@@UEAA@XZ 0000000140049f20     Colorpge.obj
 0002:00009f48       $cppxdata$??_GCMenuMTL@@UEAAPEAXI@Z 0000000140049f48     Colorpge.obj
 0002:00009f70       $cppxdata$?AllocBuffer@CString@WTL@@IEAAHH@Z 0000000140049f70     Colorpge.obj
 0002:00009f98       $cppxdata$??1CModuleState@@QEAA@XZ 0000000140049f98     Colorpge.obj
 0002:00009fc0       $cppxdata$??_GCWMHnd@@UEAAPEAXI@Z 0000000140049fc0     Colorpge.obj
 0002:00009fe8       $cppxdata$?_ProcessWindowMessage@CWnd@@UEAAHPEAUHWND__@@I_K_JAEA_J@Z 0000000140049fe8     Colorpge.obj
 0002:0000a010       $cppxdata$??1CDCMTL@@UEAA@XZ 000000014004a010     Colorpge.obj
 0002:0000a038       $cppxdata$??_GCDCMTL@@UEAAPEAXI@Z 000000014004a038     Colorpge.obj
 0002:0000a060       $cppxdata$?_ProcessWindowMessage@CPropertyPageMTL@@UEAAHPEAUHWND__@@I_K_JAEA_J@Z 000000014004a060     Colorpge.obj
 0002:0000a088       $cppxdata$??1CPropertyPageMTL@@UEAA@XZ 000000014004a088     Colorpge.obj
 0002:0000a0e0       $cppxdata$?_ProcessWindowMessage@CFrameWnd@@UEAAHPEAUHWND__@@I_K_JAEA_J@Z 000000014004a0e0     Mainfrm.obj
 0002:0000a108       $cppxdata$?OnToolTipText@CFrameWnd@@QEAAHIPEAUtagNMHDR@@PEA_J@Z 000000014004a108     Mainfrm.obj
 0002:0000a130       $cppxdata$?OnUpdateFrameTitle@CFrameWnd@@UEAAXH@Z 000000014004a130     Mainfrm.obj
 0002:0000a158       $cppxdata$?UpdateFrameTitleForDocument@CFrameWnd@@QEAAXPEB_W@Z 000000014004a158     Mainfrm.obj
 0002:0000a180       $cppxdata$?OnSetMessageString@CFrameWnd@@QEAA_J_K_J@Z 000000014004a180     Mainfrm.obj
 0002:0000a1a8       $cppxdata$?AfxMessageBox@@YAHIII@Z 000000014004a1a8     Mainfrm.obj
 0002:0000a1d0       $cppxdata$?DestroyDockBars@CFrameWnd@@QEAAXXZ 000000014004a1d0     Mainfrm.obj
 0002:0000a1f8       $cppxdata$??1CDocument@@QEAA@XZ 000000014004a1f8     Mainfrm.obj
 0002:0000a220       $cppxdata$?OnWindowNew@CMDIFrameWnd@@QEAAXXZ 000000014004a220     Mainfrm.obj
 0002:0000a248       $cppxdata$?LoadFrame@CFrameWnd@@UEAAHIKPEAVCWnd@@PEAUCCreateContext@@@Z 000000014004a248     Mainfrm.obj
 0002:0000a270       $cppxdata$??1CFrameWnd@@UEAA@XZ 000000014004a270     Mainfrm.obj
 0002:0000a298       $cppxdata$??0CFrameWnd@@QEAA@XZ 000000014004a298     Mainfrm.obj
 0002:0000a2c0       $cppxdata$?CalcFixedLayout@CStatusBar@@UEAA?AVCSize@WTL@@HH@Z 000000014004a2c0     Mainfrm.obj
 0002:0000a2e8       $cppxdata$??1CClientDCMTL@@UEAA@XZ 000000014004a2e8     Mainfrm.obj
 0002:0000a310       $cppxdata$?UpdateDialogControls@CWnd@@QEAAXPEAVCCmdTarget@@H@Z 000000014004a310     Mainfrm.obj
 0002:0000a338       $cppxdata$?UpdateAllPanes@CStatusBar@@QEAAXHH@Z 000000014004a338     Mainfrm.obj
 0002:0000a360       $cppxdata$??1CControlBar@@UEAA@XZ 000000014004a360     Mainfrm.obj
 0002:0000a388       $cppxdata$?Create@CMiniDockFrameWnd@@QEAAHPEAVCWnd@@K@Z 000000014004a388     Mainfrm.obj
 0002:0000a3b0       $cppxdata$?EraseNonClient@CControlBar@@QEAAXXZ 000000014004a3b0     Mainfrm.obj
 0002:0000a3d8       $cppxdata$??1CWindowDCMTL@@UEAA@XZ 000000014004a3d8     Mainfrm.obj
 0002:0000a400       $cppxdata$?SetIndicators@CStatusBar@@QEAAHPEBIH@Z 000000014004a400     Mainfrm.obj
 0002:0000a428       $cppxdata$?OnMiniFramePropertySheet@CMainFrame@@QEAAXXZ 000000014004a428     Mainfrm.obj
 0002:0000a450       $cppxdata$??_GCMainFrame@@UEAAPEAXI@Z 000000014004a450     Mainfrm.obj
 0002:0000a478       $cppxdata$??1CMiniFrameWnd@@UEAA@XZ 000000014004a478     Minifrm.obj
 0002:0000a4a0       $cppxdata$?OnCreate@CShapePropSheetFrame@@IEAAHPEAUtagCREATESTRUCTW@@@Z 000000014004a4a0     Minifrm.obj
 0002:0000a4c8       $cppxdata$??1CPaintDCMTL@@UEAA@XZ 000000014004a4c8     Preview.obj
 0002:0000a4f0       $cppxdata$??1CPenMTL@@UEAA@XZ 000000014004a4f0     Shapeobj.obj
 0002:0000a4f0       $cppxdata$??1CRgnMTL@@UEAA@XZ 000000014004a4f0     Stdafx.obj
 0002:0000a4f0       $cppxdata$??1CBrushMTL@@UEAA@XZ 000000014004a4f0     Preview.obj
 0002:0000a518       $cppxdata$??_GCRgnMTL@@UEAAPEAXI@Z 000000014004a518     Stdafx.obj
 0002:0000a518       $cppxdata$??_GCBrushMTL@@UEAAPEAXI@Z 000000014004a518     Preview.obj
 0002:0000a518       $cppxdata$??_GCBitmapMTL@@UEAAPEAXI@Z 000000014004a518     Stdafx.obj
 0002:0000a518       $cppxdata$??_GCPenMTL@@UEAAPEAXI@Z 000000014004a518     Shapeobj.obj
 0002:0000a540       $cppxdata$?OnPaint@CShapePreviewWnd@@AEAAXXZ 000000014004a540     Preview.obj
 0002:0000a568       $cppxdata$?_ProcessWindowMessage@CShapePreviewWnd@@UEAAHPEAUHWND__@@I_K_JAEA_J@Z 000000014004a568     Preview.obj
 0002:0000a590       $cppxdata$?OnFileNew@CDocManager@@UEAAXXZ 000000014004a590     Propdlg.obj
 0002:0000a5b8       $cppxdata$?OnInitDialog@CNewTypeDlg@@UEAAHXZ 000000014004a5b8     Propdlg.obj
 0002:0000a5e0       $cppxdata$?OnFileOpen@CDocManager@@UEAAXXZ 000000014004a5e0     Propdlg.obj
 0002:0000a608       $cppxdata$?MatchDocType@CDocTemplate@@UEAA?AW4Confidence@1@PEB_WAEAPEAVCDocument@@@Z 000000014004a608     Propdlg.obj
 0002:0000a630       $cppxdata$?AfxResolveShortcut@@YAHPEAVCWMHnd@@PEB_WPEA_WH@Z 000000014004a630     Propdlg.obj
 0002:0000a658       $cppxdata$?GetClassObject@AFX_COM@@QEAAJAEBU_GUID@@0PEAPEAX@Z 000000014004a658     Propdlg.obj
 0002:0000a680       $cppxdata$?_AfxFullPath2@CAfx@@SAHPEA_WPEB_WPEAVCFileException@@@Z 000000014004a680     Propdlg.obj
 0002:0000a6a8       $cppxdata$?DoPromptFileName@CDocManager@@QEAAHAEAVCString@WTL@@IKHPEAVCDocTemplate@@@Z 000000014004a6a8     Propdlg.obj
 0002:0000a6d0       $cppxdata$?UpdateOFNFromShellDialog@CFileDialogMTL@@UEAAXXZ 000000014004a6d0     Propdlg.obj
 0002:0000a6f8       $cppxdata$?GetPathName@CFileDialogMTL@@QEAA?AVCString@WTL@@XZ 000000014004a6f8     Propdlg.obj
 0002:0000a720       $cppxdata$?ApplyOFNToShellDialog@CFileDialogMTL@@QEAAXXZ 000000014004a720     Propdlg.obj
 0002:0000a748       $cppxdata$?_AfxAppendFilterSuffix@@YAXAEAVCString@WTL@@AEAUtagOFNW@@PEAVCDocTemplate@@PEAV12@@Z 000000014004a748     Propdlg.obj
 0002:0000a770       $cppxdata$?Mid@CString@WTL@@QEBA?AV12@HH@Z 000000014004a770     Propdlg.obj
 0002:0000a798       $cppxdata$??1CFileDialogMTL@@UEAA@XZ 000000014004a798     Propdlg.obj
 0002:0000a7c0       $cppxdata$??0CFileDialogMTL@@QEAA@HPEB_W0K0PEAVCWnd@@KH@Z 000000014004a7c0     Propdlg.obj
 0002:0000a7e8       $cppxdata$?OnFilePrintSetup@CWinApp@@QEAAXXZ 000000014004a7e8     Propdlg.obj
 0002:0000a810       $cppxdata$?UpdatePrinterSelection@CWinApp@@QEAAXH@Z 000000014004a810     Propdlg.obj
 0002:0000a838       $cppxdata$?UpdateMenu@CRecentFileList@@UEAAXPEAVCCmdUI@@@Z 000000014004a838     Propdlg.obj
 0002:0000a860       $cppxdata$??HWTL@@YA?AVCString@0@AEBV10@0@Z 000000014004a860     Propdlg.obj
 0002:0000a888       $cppxdata$??0CWinApp@@QEAA@XZ 000000014004a888     Propdlg.obj
 0002:0000a8b0       $cppxdata$??1CModuleThreadState@@QEAA@XZ 000000014004a8b0     Propdlg.obj
 0002:0000a8d8       $cppxdata$??0CModuleThreadState@@QEAA@XZ 000000014004a8d8     Propdlg.obj
 0002:0000a900       $cppxdata$??1CWinApp@@QEAA@XZ 000000014004a900     Propdlg.obj
 0002:0000a928       $cppxdata$??1CCommandLineInfo@@QEAA@XZ 000000014004a928     Propdlg.obj
 0002:0000a950       $cppxdata$??1CRecentFileList@@UEAA@XZ 000000014004a950     Propdlg.obj
 0002:0000a978       $cppxdata$?ReadList@CRecentFileList@@UEAAXXZ 000000014004a978     Propdlg.obj
 0002:0000a9a0       $cppxdata$??0CRecentFileList@@QEAA@IPEB_W0HH@Z 000000014004a9a0     Propdlg.obj
 0002:0000a9c8       $cppxdata$?SetDefaultTitle@CMultiDocTemplate@@UEAAXPEAVCDocument@@@Z 000000014004a9c8     Propdlg.obj
 0002:0000a9f0       $cppxdata$?OpenDocumentFile@CMultiDocTemplate@@UEAAPEAVCDocument@@PEB_WHH@Z 000000014004a9f0     Propdlg.obj
 0002:0000aa18       $cppxdata$??0CDocTemplate@@QEAA@IPEAUCRuntimeClass@@00@Z 000000014004aa18     Propdlg.obj
 0002:0000aa40       $cppxdata$?EnableShellOpen@CWinApp@@QEAAXXZ 000000014004aa40     Propdlg.obj
 0002:0000aa68       $cppxdata$?Unregister@CWinApp@@QEAAHXZ 000000014004aa68     Propdlg.obj
 0002:0000aa90       $cppxdata$?AfxDelRegTreeHelper@CAfx@@SAJPEAUHKEY__@@AEBVCString@WTL@@PEAVCAtlTransactionManager@ATL@@@Z 000000014004aa90     Propdlg.obj
 0002:0000aab8       $cppxdata$??HWTL@@YA?AVCString@0@AEBV10@PEB_W@Z 000000014004aab8     Propdlg.obj
 0002:0000aae0       $cppxdata$?OnAppAbout@CPropDlgApp@@QEAAXXZ 000000014004aae0     Propdlg.obj
 0002:0000ab08       $cppxdata$?InitInstance@CPropDlgApp@@UEAAHXZ 000000014004ab08     Propdlg.obj
 0002:0000ab30       $cppxdata$?_ProcessWindowMessage@CPropertySheetMTL@@UEAAHPEAUHWND__@@I_K_JAEA_J@Z 000000014004ab30     Propsht.obj
 0002:0000ab58       $cppxdata$??0CPropertySheetMTL@@QEAA@IPEAVCWnd@@I@Z 000000014004ab58     Propsht.obj
 0002:0000ab80       $cppxdata$?_AfxChangePropPageFont@CPropertyPageMTL@@SAPEAUDLGTEMPLATE@@PEBU2@H@Z 000000014004ab80     Propsht.obj
 0002:0000aba8       $cppxdata$??1CPropertySheetMTL@@UEAA@XZ 000000014004aba8     Propsht.obj
 0002:0000abd0       $cppxdata$??_GCModalShapePropSheet@@UEAAPEAXI@Z 000000014004abd0     Propsht.obj
 0002:0000abf8       $cppxdata$??0CModalShapePropSheet@@QEAA@PEAVCWnd@@@Z 000000014004abf8     Propsht.obj
 0002:0000ac20       $cppxdata$??_GCModelessShapePropSheet@@UEAAPEAXI@Z 000000014004ac20     Propsht2.obj
 0002:0000ac48       $cppxdata$??0CModelessShapePropSheet@@QEAA@PEAVCWnd@@@Z 000000014004ac48     Propsht2.obj
 0002:0000ac70       $cppxdata$?DoSave@CDocument@@UEAAHPEB_WH@Z 000000014004ac70     Shapedoc.obj
 0002:0000ac98       $cppxdata$?OnSaveDocument@CDocument@@UEAAHPEB_W@Z 000000014004ac98     Shapedoc.obj
 0002:0000acc0       $cppxdata$??_GCFile@@QEAAPEAXI@Z 000000014004acc0     Shapedoc.obj
 0002:0000ace8       $cppxdata$?Close@CFile@@UEAAXXZ 000000014004ace8     Shapedoc.obj
 0002:0000ad10       $cppxdata$?ThrowOsError@CFileException@@SAXJPEB_W@Z 000000014004ad10     Shapedoc.obj
 0002:0000ad38       $cppxdata$??0CFileException@@QEAA@HJPEB_W@Z 000000014004ad38     Shapedoc.obj
 0002:0000ad60       $cppxdata$?Write@CFile@@UEAAXPEBXI@Z 000000014004ad60     Shapedoc.obj
 0002:0000ad88       $cppxdata$??0CArchive@@QEAA@PEAVCFile@@IHPEAX@Z 000000014004ad88     Shapedoc.obj
 0002:0000adb0       $cppxdata$?SaveModified@CDocument@@UEAAHXZ 000000014004adb0     Shapedoc.obj
 0002:0000add8       $cppxdata$?AfxThrowArchiveException@CArchive@@SAXHPEB_W@Z 000000014004add8     Shapedoc.obj
 0002:0000ae00       $cppxdata$?EnsureSchemaMapExists@CArchive@@QEAAXPEAPEAV?$CArray@W4LoadArrayObjType@CArchive@@AEBW412@@@@Z 000000014004ae00     Shapedoc.obj
 0002:0000ae28       $cppxdata$?ReadObject@CArchive@@QEAAPEAVCObject@@PEBUCRuntimeClass@@@Z 000000014004ae28     Shapedoc.obj
 0002:0000ae50       $cppxdata$?OnOpenDocument@CDocument@@UEAAHPEB_W@Z 000000014004ae50     Shapedoc.obj
 0002:0000ae78       $cppxdata$??_GCGdiObject@@UEAAPEAXI@Z 000000014004ae78     Shapeobj.obj
 0002:0000aea0       $cppxdata$?Draw@CShape@@QEAAXPEAVCDCMTL@@H@Z 000000014004aea0     Shapeobj.obj
 0002:0000aec8       $cppxdata$?OnFilePrint@CView@@QEAAXXZ 000000014004aec8     Shapesvw.obj
 0002:0000aef0       $cppxdata$??1CPrintInfo@@QEAA@XZ 000000014004aef0     Shapesvw.obj
 0002:0000af18       $cppxdata$??0CPrintInfo@@QEAA@XZ 000000014004af18     Shapesvw.obj
 0002:0000af40       $cppxdata$?OnFilePrintPreview@CView@@QEAAXXZ 000000014004af40     Shapesvw.obj
 0002:0000af68       $cppxdata$?SetPrintView@CPreviewView@@QEAAHPEAVCView@@@Z 000000014004af68     Shapesvw.obj
 0002:0000af90       $cppxdata$?SetScrollSizes@CScrollView@@QEAAXHUtagSIZE@@AEBU2@1@Z 000000014004af90     Shapesvw.obj
 0002:0000afb8       $cppxdata$?ExtTextOutW@CPreviewDC@@QEAAHHHIPEBUtagRECT@@PEB_WIPEAH@Z 000000014004afb8     Shapesvw.obj
 0002:0000afe0       $cppxdata$??1CPreviewDC@@UEAA@XZ 000000014004afe0     Shapesvw.obj
 0002:0000b008       $cppxdata$??1CView@@UEAA@XZ 000000014004b008     Shapesvw.obj
 0002:0000b030       $cppxdata$?_ProcessWindowMessage@CView@@UEAAHPEAUHWND__@@I_K_JAEA_J@Z 000000014004b030     Shapesvw.obj
 0002:0000b058       $cppxdata$?OnPaint@CView@@QEAAXXZ 000000014004b058     Shapesvw.obj
 0002:0000b080       $cppxdata$??_GCDialogBar@@UEAAPEAXI@Z 000000014004b080     Shapesvw.obj
 0002:0000b0a8       $cppxdata$?OnPropertySheetWithPreview@CShapesView@@IEAAXXZ 000000014004b0a8     Shapesvw.obj
 0002:0000b0d0       $cppxdata$?OnSimplePropertySheet@CShapesView@@IEAAXXZ 000000014004b0d0     Shapesvw.obj
 0002:0000b0f8       $cppxdata$?OnLButtonDown@CShapesView@@IEAAXIVCPoint@WTL@@@Z 000000014004b0f8     Shapesvw.obj
 0002:0000b120       $cppxdata$??_GCShapesView@@UEAAPEAXI@Z 000000014004b120     Shapesvw.obj
 0002:0000b120       $cppxdata$??_GCView@@UEAAPEAXI@Z 000000014004b120     Shapesvw.obj
 0002:0000b148       $cppxdata$?CreateObject@CMDIChildWnd@@SAPEAVCObject@@XZ 000000014004b148     Stdafx.obj
 0002:0000b170       $cppxdata$?CreateObject@CMDIFrameWnd@@SAPEAVCObject@@XZ 000000014004b170     Stdafx.obj
 0002:0000b198       $cppxdata$?CreateObject@CMiniFrameWnd@@SAPEAVCObject@@XZ 000000014004b198     Stdafx.obj
 0002:0000b1c0       $cppxdata$?CreateObject@CFrameWnd@@SAPEAVCObject@@XZ 000000014004b1c0     Stdafx.obj
 0002:0000b1e8       $cppxdata$??__F?wndNoTopMost@CWMHnd@@2V1@B@@YAXXZ 000000014004b1e8     Stdafx.obj
 0002:0000b210       $cppxdata$??__F?wndTopMost@CWMHnd@@2V1@B@@YAXXZ 000000014004b210     Stdafx.obj
 0002:0000b238       $cppxdata$??__F?wndBottom@CWMHnd@@2V1@B@@YAXXZ 000000014004b238     Stdafx.obj
 0002:0000b260       $cppxdata$??__F?wndTop@CWMHnd@@2V1@B@@YAXXZ 000000014004b260     Stdafx.obj
 0002:0000b288       $cppxdata$?OnDisplayPageNumber@CPreviewView@@UEAAXII@Z 000000014004b288     Stdafx.obj
 0002:0000b2b0       $cppxdata$?LoadFrame@CMDIChildWnd@@UEAAHIKPEAVCWnd@@PEAUCCreateContext@@@Z 000000014004b2b0     Stdafx.obj
 0002:0000b2d8       $cppxdata$?_ProcessWindowMessage@CPreviewView@@UEAAHPEAUHWND__@@I_K_JAEA_J@Z 000000014004b2d8     Stdafx.obj
 0002:0000b300       $cppxdata$?OnUpdateNumPageChange@CPreviewView@@QEAAXPEAVCCmdUI@@@Z 000000014004b300     Stdafx.obj
 0002:0000b328       $cppxdata$?OnEraseBkgnd@CPreviewView@@QEAAHPEAVCDCMTL@@@Z 000000014004b328     Stdafx.obj
 0002:0000b350       $cppxdata$?OnDraw@CPreviewView@@UEAAXPEAVCDCMTL@@@Z 000000014004b350     Stdafx.obj
 0002:0000b378       $cppxdata$??1CPreviewView@@UEAA@XZ 000000014004b378     Stdafx.obj
 0002:0000b3a0       $cppxdata$?Create@_AFX_MOUSEANCHORWND@@QEAAHPEAVCScrollView@@@Z 000000014004b3a0     Stdafx.obj
 0002:0000b3c8       $cppxdata$?_ProcessWindowMessage@CScrollView@@UEAAHPEAUHWND__@@I_K_JAEA_J@Z 000000014004b3c8     Stdafx.obj
 0002:0000b3f0       $cppxdata$?OnPrintClient@CScrollView@@QEAA_JPEAVCDCMTL@@I@Z 000000014004b3f0     Stdafx.obj
 0002:0000b418       $cppxdata$??1CScrollView@@UEAA@XZ 000000014004b418     Stdafx.obj
 0002:0000b440       $cppxdata$?OnPaint@_AFX_MOUSEANCHORWND@@QEAAXXZ 000000014004b440     Stdafx.obj
 0002:0000b468       $cppxdata$??1CImage@@UEAA@XZ 000000014004b468     Stdafx.obj
 0002:0000b490       ?ExceptionTemplate@?1??_UnwindNestedFrames@@9@4U_EXCEPTION_RECORD@@B 000000014004b490     LIBCMT:trnsctrl.obj
 0002:0000e8b0       $unwind$??_GCColorPage@@UEAAPEAXI@Z 000000014004e8b0     Colorpge.obj
 0002:0000e8b0       $unwind$??_GCScrollView@@UEAAPEAXI@Z 000000014004e8b0     Stdafx.obj
 0002:0000e8b0       $unwind$??_GCToolBar@@UEAAPEAXI@Z 000000014004e8b0     Mainfrm.obj
 0002:0000e8b0       $unwind$?AfxIsDescendant@CFrameWnd@@SAHPEAUHWND__@@0@Z 000000014004e8b0     Mainfrm.obj
 0002:0000e8b0       $unwind$?RestoreDC@CDCMTL@@UEAAHH@Z 000000014004e8b0     Colorpge.obj
 0002:0000e8b0       $unwind$?CopyBeforeWrite@CString@WTL@@IEAAXXZ 000000014004e8b0     Colorpge.obj
 0002:0000e8b0       $unwind$?SaveDC@CDCMTL@@UEAAHXZ 000000014004e8b0     Colorpge.obj
 0002:0000e8b0       $unwind$??_G_AFX_MOUSEANCHORWND@@UEAAPEAXI@Z 000000014004e8b0     Stdafx.obj
 0002:0000e8b0       $unwind$??0CAtlBaseModule@ATL@@QEAA@XZ 000000014004e8b0     atls:atlbase.obj
 0002:0000e8b0       $unwind$??_GCWnd@@UEAAPEAXI@Z 000000014004e8b0     Colorpge.obj
 0002:0000e8b0       $unwind$_fptostr           000000014004e8b0     LIBCMT:_fptostr.obj
 0002:0000e8b0       $unwind$?SetShapePropsFromSheet@CModelessShapePropSheet@@QEAAXPEAVCShape@@@Z 000000014004e8b0     Propsht2.obj
 0002:0000e8b0       $unwind$??0CControlBar@@QEAA@XZ 000000014004e8b0     Mainfrm.obj
 0002:0000e8b0       $unwind$?PreTranslateMessage@CWnd@@UEAAHPEAUtagMSG@@@Z 000000014004e8b0     Colorpge.obj
 0002:0000e8b0       $unwind$?OnSize@CFrameWnd@@QEAAXIHH@Z 000000014004e8b0     Mainfrm.obj
 0002:0000e8b0       $unwind$??_GCPreviewDC@@UEAAPEAXI@Z 000000014004e8b0     Shapesvw.obj
 0002:0000e8b0       $unwind$??4exception@std@@QEAAAEAV01@AEBV01@@Z 000000014004e8b0     LIBCMT:stdexcpt.obj
 0002:0000e8b0       $unwind$?AfxClassInit@@YAXPEAUCRuntimeClass@@@Z 000000014004e8b0     Shapeobj.obj
 0002:0000e8b0       $unwind$?PumpMessage@CWinApp@@UEAAHXZ 000000014004e8b0     Propdlg.obj
 0002:0000e8b0       $unwind$_close_nolock      000000014004e8b0     LIBCMT:close.obj
 0002:0000e8b0       $unwind$?CommonConstruct@CPropertyPageMTL@@QEAAXPEB_WI@Z 000000014004e8b0     Colorpge.obj
 0002:0000e8b0       $unwind$?SetShapePropsFromSheet@CModalShapePropSheet@@QEAAXPEAVCShape@@@Z 000000014004e8b0     Propsht.obj
 0002:0000e8b0       $unwind$?PreTranslateMessage@CFrameWnd@@UEAAHPEAUtagMSG@@@Z 000000014004e8b0     Mainfrm.obj
 0002:0000e8b0       $unwind$?OnApplyNow@CModalShapePropSheet@@IEAAXXZ 000000014004e8b0     Propsht.obj
 0002:0000e8b0       $unwind$??_GCPreviewView@@UEAAPEAXI@Z 000000014004e8b0     Stdafx.obj
 0002:0000e8b0       $unwind$?SaveDC@CPreviewDC@@UEAAHXZ 000000014004e8b0     Shapesvw.obj
 0002:0000e8b0       $unwind$?SetStatusText@CControlBar@@UEAAH_J@Z 000000014004e8b0     Mainfrm.obj
 0002:0000e8b0       $unwind$??_GCPropertySheetMTL@@UEAAPEAXI@Z 000000014004e8b0     Propsht.obj
 0002:0000e8b0       $unwind$?AtlWinModuleExtractCreateWndData@ATL@@YAPEAXPEAU_ATL_WIN_MODULE70@1@@Z 000000014004e8b0     Colorpge.obj
 0002:0000e8b0       $unwind$?_ProcessWindowMessage@CDocument@@UEAAHPEAUHWND__@@I_K_JAEA_J@Z 000000014004e8b0     Shapedoc.obj
 0002:0000e8b0       $unwind$?OnOK@CNewTypeDlg@@UEAAXXZ 000000014004e8b0     Propdlg.obj
 0002:0000e8b0       $unwind$_lock              000000014004e8b0     LIBCMT:mlock.obj
 0002:0000e8b0       $unwind$??_GCFrameWnd@@UEAAPEAXI@Z 000000014004e8b0     Mainfrm.obj
 0002:0000e8b0       $unwind$??_GCPropertyPageMTL@@UEAAPEAXI@Z 000000014004e8b0     Colorpge.obj
 0002:0000e8b0       $unwind$_calloc_impl       000000014004e8b0     LIBCMT:calloc_impl.obj
 0002:0000e8b0       $unwind$?GetFont@CDialogTemplate@@SAHPEBUDLGTEMPLATE@@AEAVCString@WTL@@AEAG@Z 000000014004e8b0     Propsht.obj
 0002:0000e8b0       $unwind$??_GCNewTypeDlg@@UEAAPEAXI@Z 000000014004e8b0     Propdlg.obj
 0002:0000e8b0       $unwind$??_Gtype_info@@UEAAPEAXI@Z 000000014004e8b0     LIBCMT:typinfo.obj
 0002:0000e8b0       $unwind$?RemoveView@CDocument@@QEAAXPEAVCView@@@Z 000000014004e8b0     Shapesvw.obj
 0002:0000e8b0       $unwind$??_GCImage@@UEAAPEAXI@Z 000000014004e8b0     Stdafx.obj
 0002:0000e8b0       $unwind$?OnSetMinHeight@CStatusBar@@QEAA_J_K_J@Z 000000014004e8b0     Mainfrm.obj
 0002:0000e8b0       $unwind$?UnsubclassWindow@CWMHnd@@QEAAPEAUHWND__@@XZ 000000014004e8b0     Colorpge.obj
 0002:0000e8b0       $unwind$_getptd_noexit     000000014004e8b0     LIBCMT:tidtable.obj
 0002:0000e8b0       $unwind$??_GCStylePage@@UEAAPEAXI@Z 000000014004e8b0     Stylepge.obj
 0002:0000e8b0       $unwind$?RestoreDC@CPreviewDC@@UEAAHH@Z 000000014004e8b0     Shapesvw.obj
 0002:0000e8b0       $unwind$?CancelToolTips@CWnd@@QEAAXH@Z 000000014004e8b0     Mainfrm.obj
 0002:0000e8b0       $unwind$??4CString@WTL@@QEAAAEAV01@AEBV01@@Z 000000014004e8b0     Propdlg.obj
 0002:0000e8b0       $unwind$?PreCreateWindow@CWnd@@UEAAHAEAUtagCREATESTRUCTW@@@Z 000000014004e8b0     Colorpge.obj
 0002:0000e8b0       $unwind$?SetRadio@CCmdUI@@UEAAXH@Z 000000014004e8b0     Colorpge.obj
 0002:0000e8b0       $unwind$?PreTranslateMessage@CPropertyPageMTL@@UEAAHPEAUtagMSG@@@Z 000000014004e8b0     Colorpge.obj
 0002:0000e8b0       $unwind$??_GCMiniFrameWnd@@UEAAPEAXI@Z 000000014004e8b0     Minifrm.obj
 0002:0000e8b0       $unwind$__initstdio        000000014004e8b0     LIBCMT:_file.obj
 0002:0000e8b0       $unwind$?SetCheck@CCmdUI@@UEAAXH@Z 000000014004e8b0     Colorpge.obj
 0002:0000e8b0       $unwind$?Create@CDialog@@UEAAHPEB_WPEAVCWnd@@@Z 000000014004e8b0     Colorpge.obj
 0002:0000e8b0       $unwind$_initterm_e        000000014004e8b0     LIBCMT:crt0dat.obj
 0002:0000e8b0       $unwind$??0CScrollView@@QEAA@XZ 000000014004e8b0     Stdafx.obj
 0002:0000e8b0       $unwind$??_Gbad_exception@std@@UEAAPEAXI@Z 000000014004e8b0     LIBCMT:frame.obj
 0002:0000e8b0       $unwind$??0CPreviewDC@@QEAA@XZ 000000014004e8b0     Shapesvw.obj
 0002:0000e8b0       $unwind$?OnKickIdle@CPropertySheetMTL@@QEAA_J_K_J@Z 000000014004e8b0     Propsht.obj
 0002:0000e8b0       $unwind$_updatetlocinfoEx_nolock 000000014004e8b0     LIBCMT:localref.obj
 0002:0000e8b0       $unwind$??_GCStatusBar@@UEAAPEAXI@Z 000000014004e8b0     Mainfrm.obj
 0002:0000e8b0       $unwind$??_GCShapePropSheetFrame@@UEAAPEAXI@Z 000000014004e8b0     Minifrm.obj
 0002:0000e8b0       $unwind$??_GCWindowDCMTL@@UEAAPEAXI@Z 000000014004e8b0     Mainfrm.obj
 0002:0000e8b0       $unwind$??_Gbad_alloc@std@@UEAAPEAXI@Z 000000014004e8b0     LIBCMT:new.obj
 0002:0000e8b0       $unwind$??_GCFileDialogMTL@@UEAAPEAXI@Z 000000014004e8b0     Propdlg.obj
 0002:0000e8b0       $unwind$?HookWindowCreate@CWnd@@SAHPEAV1@G@Z 000000014004e8b0     Colorpge.obj
 0002:0000e8b0       $unwind$??_GCShapePreviewWnd@@UEAAPEAXI@Z 000000014004e8b0     Preview.obj
 0002:0000e8b0       $unwind$?PreCreateWindow@CControlBar@@UEAAHAEAUtagCREATESTRUCTW@@@Z 000000014004e8b0     Mainfrm.obj
 0002:0000e8b0       $unwind$??_GCAboutDlg@@UEAAPEAXI@Z 000000014004e8b0     Propdlg.obj
 0002:0000e8b0       $unwind$?GetDockingFrame@CControlBar@@QEAAPEAVCFrameWnd@@XZ 000000014004e8b0     Mainfrm.obj
 0002:0000e8b0       $unwind$_dosmaperr         000000014004e8b0     LIBCMT:dosmap.obj
 0002:0000e8b0       $unwind$_initp_misc_cfltcvt_tab 000000014004e8b0     LIBCMT:cmiscdat.obj
 0002:0000e8b0       $unwind$??_GCMDIChildWnd@@UEAAPEAXI@Z 000000014004e8b0     Stdafx.obj
 0002:0000e8b0       $unwind$_RTC_Terminate     000000014004e8b0     LIBCMT:initsect.obj
 0002:0000e8b0       $unwind$?__AllocStdCallThunk@ATL@@YAPEAXXZ 000000014004e8b0     atls:atlthunk.obj
 0002:0000e8b0       $unwind$??_GCPrintDialogMTL@@UEAAPEAXI@Z 000000014004e8b0     Propdlg.obj
 0002:0000e8b0       $unwind$?__InitializeThunkPool@@YAHXZ 000000014004e8b0     atls:atlthunk.obj
 0002:0000e8b0       $unwind$??_GCControlBar@@UEAAPEAXI@Z 000000014004e8b0     Mainfrm.obj
 0002:0000e8b0       $unwind$?PreTranslateMessage@CMDIFrameWnd@@UEAAHPEAUtagMSG@@@Z 000000014004e8b0     Mainfrm.obj
 0002:0000e8b0       $unwind$??_GCDialog@@UEAAPEAXI@Z 000000014004e8b0     Colorpge.obj
 0002:0000e8b0       $unwind$?__SetUnwindTryBlock@@YAXPEA_KPEAU_xDISPATCHER_CONTEXT@@PEBU_s_FuncInfo@@H@Z 000000014004e8b0     LIBCMT:ehstate.obj
 0002:0000e8b0       $unwind$?OnUpdateMDIWindowCmd@CMDIFrameWnd@@QEAAXPEAVCCmdUI@@@Z 000000014004e8b0     Mainfrm.obj
 0002:0000e8b0       $unwind$??_GCPrintDialog@WTL@@UEAAPEAXI@Z 000000014004e8b0     Propdlg.obj
 0002:0000e8b0       $unwind$?OnInitDialog@CPrintingDialog@@UEAAHXZ 000000014004e8b0     Shapesvw.obj
 0002:0000e8b0       $unwind$??_GCPrintingDialog@@UEAAPEAXI@Z 000000014004e8b0     Shapesvw.obj
 0002:0000e8b0       $unwind$??_GCPaintDCMTL@@UEAAPEAXI@Z 000000014004e8b0     Preview.obj
 0002:0000e8b0       $unwind$?OnPreviewPrint@CPreviewView@@QEAAXXZ 000000014004e8b0     Stdafx.obj
 0002:0000e8b0       $unwind$??_GCMultiDocTemplate@@UEAAPEAXI@Z 000000014004e8b0     Propdlg.obj
 0002:0000e8b0       $unwind$?RemoveFrameWnd@CFrameWnd@@QEAAXXZ 000000014004e8b0     Mainfrm.obj
 0002:0000e8b0       $unwind$??6CArchive@@QEAAAEAV0@K@Z 000000014004e8b0     Shapedoc.obj
 0002:0000e8b0       $unwind$??_Gexception@std@@UEAAPEAXI@Z 000000014004e8b0     LIBCMT:stdexcpt.obj
 0002:0000e8b0       $unwind$??6CArchive@@QEAAAEAV0@G@Z 000000014004e8b0     Shapedoc.obj
 0002:0000e8b0       $unwind$??_GCRecentFileList@@UEAAPEAXI@Z 000000014004e8b0     Propdlg.obj
 0002:0000e8b0       $unwind$?OnOpenRecentFile@CWinApp@@QEAAHI@Z 000000014004e8b0     Propdlg.obj
 0002:0000e8b0       $unwind$??_GCToolTipCtrlMTL@@UEAAPEAXI@Z 000000014004e8b0     Mainfrm.obj
 0002:0000e8b0       $unwind$??_GCClientDCMTL@@UEAAPEAXI@Z 000000014004e8b0     Mainfrm.obj
 0002:0000e8b0       $unwind$_fclose_nolock     000000014004e8b0     LIBCMT:fclose.obj
 0002:0000e8b0       $unwind$?OnUpdatePropertySheetWithPreview@CShapesView@@IEAAXPEAVCCmdUI@@@Z 000000014004e8b0     Shapesvw.obj
 0002:0000e8b0       $unwind$??_GCMDIFrameWnd@@UEAAPEAXI@Z 000000014004e8b0     Mainfrm.obj
 0002:0000e8b0       $unwind$_FindAndUnlinkFrame 000000014004e8b0     LIBCMT:trnsctrl.obj
 0002:0000e8b0       $unwind$_RTC_Initialize    000000014004e8b0     LIBCMT:initsect.obj
 0002:0000e8bc       $unwind$?OnColorClicked@CColorPage@@IEAAXI@Z 000000014004e8bc     Colorpge.obj
 0002:0000e8bc       $unwind$?OnStyleClicked@CStylePage@@IEAAXI@Z 000000014004e8bc     Stylepge.obj
 0002:0000e8c8       $chain$1$?OnColorClicked@CColorPage@@IEAAXI@Z 000000014004e8c8     Colorpge.obj
 0002:0000e8c8       $chain$1$?OnStyleClicked@CStylePage@@IEAAXI@Z 000000014004e8c8     Stylepge.obj
 0002:0000e8e0       $chain$2$?OnStyleClicked@CStylePage@@IEAAXI@Z 000000014004e8e0     Stylepge.obj
 0002:0000e8e0       $chain$2$?OnColorClicked@CColorPage@@IEAAXI@Z 000000014004e8e0     Colorpge.obj
 0002:0000e8f4       $chain$3$?OnStyleClicked@CStylePage@@IEAAXI@Z 000000014004e8f4     Stylepge.obj
 0002:0000e8f4       $chain$3$?OnColorClicked@CColorPage@@IEAAXI@Z 000000014004e8f4     Colorpge.obj
 0002:0000e904       $chain$4$?OnColorClicked@CColorPage@@IEAAXI@Z 000000014004e904     Colorpge.obj
 0002:0000e904       $chain$4$?OnStyleClicked@CStylePage@@IEAAXI@Z 000000014004e904     Stylepge.obj
 0002:0000e914       $unwind$?GetDeviceName@CPrintDialogMTL@@QEBA?AVCString@WTL@@XZ 000000014004e914     Propdlg.obj
 0002:0000e914       $unwind$?GetPortName@CPrintDialogMTL@@QEBA?AVCString@WTL@@XZ 000000014004e914     Propdlg.obj
 0002:0000e914       $unwind$?GetDriverName@CPrintDialogMTL@@QEBA?AVCString@WTL@@XZ 000000014004e914     Propdlg.obj
 0002:0000e914       $unwind$?AfxStringFromCLSID@@YA?AVCString@WTL@@AEBU_GUID@@@Z 000000014004e914     Propdlg.obj
 0002:0000e914       $unwind$?Read@CFile@@UEAAIPEAXI@Z 000000014004e914     Shapedoc.obj
 0002:0000e914       $unwind$?_ProcessWindowMessage@CModalShapePropSheet@@UEAAHPEAUHWND__@@I_K_JAEA_J@Z 000000014004e914     Propsht.obj
 0002:0000e914       $unwind$?GetMenu@CWMHnd@@UEBAPEAVCMenuMTL@@XZ 000000014004e914     Colorpge.obj
 0002:0000e914       $unwind$?SetScaleToFitSize@CScrollView@@QEAAXUtagSIZE@@@Z 000000014004e914     Stdafx.obj
 0002:0000e914       $unwind$?Mid@CString@WTL@@QEBA?AV12@H@Z 000000014004e914     Propdlg.obj
 0002:0000e914       $unwind$?GetOwner@CWnd@@QEAAPEAV1@XZ 000000014004e914     Mainfrm.obj
 0002:0000e914       $unwind$?GetTopLevelParent@CWnd@@QEAAPEAV1@XZ 000000014004e914     Mainfrm.obj
 0002:0000e914       $unwind$?LoadFrame@CMDIFrameWnd@@UEAAHIKPEAVCWnd@@PEAUCCreateContext@@@Z 000000014004e914     Mainfrm.obj
 0002:0000e914       $unwind$_fassign_l         000000014004e914     LIBCMT:cvt.obj
 0002:0000e914       $unwind$?OnWndMsg@CWnd@@UEAAHI_K_JPEA_J@Z 000000014004e914     Colorpge.obj
 0002:0000e914       $unwind$?_ProcessWindowMessage@CPropDlgApp@@UEAAHPEAUHWND__@@I_K_JAEA_J@Z 000000014004e914     Propdlg.obj
 0002:0000e914       $unwind$?Tokenize@@YA?AVCString@WTL@@AEAV12@PEA_WAEAH@Z 000000014004e914     Propdlg.obj
 0002:0000e914       $unwind$?MirrorMappingMode@CPreviewDC@@QEAAXH@Z 000000014004e914     Stdafx.obj
 0002:0000e914       $unwind$?_ProcessWindowMessage@CStylePage@@UEAAHPEAUHWND__@@I_K_JAEA_J@Z 000000014004e914     Stylepge.obj
 0002:0000e914       $unwind$?GetParentOwner@CWnd@@QEAAPEAV1@XZ 000000014004e914     Mainfrm.obj
 0002:0000e914       $unwind$?_ProcessWindowMessage@CColorPage@@UEAAHPEAUHWND__@@I_K_JAEA_J@Z 000000014004e914     Colorpge.obj
 0002:0000e91c       $unwind$?CreateIndirect@CDialog@@UEAAHPEAXPEAVCWnd@@PEAUHINSTANCE__@@@Z 000000014004e91c     Colorpge.obj
 0002:0000e91c       $unwind$?CbtFilterHook@CWnd@@SA_JH_K_J@Z 000000014004e91c     Colorpge.obj
 0002:0000e91c       $unwind$?setSBCS@@YAXPEAUthreadmbcinfostruct@@@Z 000000014004e91c     LIBCMT:mbctype.obj
 0002:0000e91c       $unwind$_XcptFilter        000000014004e91c     LIBCMT:winxfltr.obj
 0002:0000e91c       $unwind$?GetFile@CDocument@@QEAAPEAVCFile@@PEB_WIPEAVCFileException@@@Z 000000014004e91c     Shapedoc.obj
 0002:0000e91c       $unwind$__freetlocinfo     000000014004e91c     LIBCMT:localref.obj
 0002:0000e91c       $unwind$?__StateFromIp@@YAHPEBU_s_FuncInfo@@PEAU_xDISPATCHER_CONTEXT@@_J@Z 000000014004e91c     LIBCMT:ehstate.obj
 0002:0000e91c       $unwind$?ExecuteDlgInit@CWnd@@QEAAHPEB_W@Z 000000014004e91c     Colorpge.obj
 0002:0000e91c       $unwind$?AddDocTemplate@CWinApp@@QEAAXPEAVCDocTemplate@@@Z 000000014004e91c     Propdlg.obj
 0002:0000e91c       $unwind$?SetActiveView@CFrameWnd@@QEAAXPEAVCView@@H@Z 000000014004e91c     Propdlg.obj
 0002:0000e91c       $unwind$?PreProcessPageTemplate@CPropertyPageMTL@@QEAAXAEAU_PROPSHEETPAGEW@@H@Z 000000014004e91c     Propsht.obj
 0002:0000e91c       $unwind$_initterm          000000014004e91c     LIBCMT:crt0dat.obj
 0002:0000e91c       $unwind$?OnSysCommand@CMiniFrameWnd@@QEAAXI_J@Z 000000014004e91c     Minifrm.obj
 0002:0000e91c       $unwind$?GetTemplateSize@CDialogTemplate@@QEAAIPEBUDLGTEMPLATE@@@Z 000000014004e91c     Propsht.obj
 0002:0000e91c       $unwind$?Create@CPropertySheetMTL@@UEAAHPEAVCWnd@@KK@Z 000000014004e91c     Propsht.obj
 0002:0000e91c       $unwind$?CalcWindowRect@CWMHnd@@UEAAXPEAUtagRECT@@I@Z 000000014004e91c     Colorpge.obj
 0002:0000e91c       $unwind$_gmtime64_s        000000014004e91c     LIBCMT:gmtime64.obj
 0002:0000e91c       $unwind$_mtdeletelocks     000000014004e91c     LIBCMT:mlock.obj
 0002:0000e91c       $unwind$__crtGetEnvironmentStringsW 000000014004e91c     LIBCMT:w_env.obj
 0002:0000e91c       $unwind$?OnToolTipText@CMDIChildWnd@@QEAAHIPEAUtagNMHDR@@PEA_J@Z 000000014004e91c     Stdafx.obj
 0002:0000e91c       $unwind$?Store@CRuntimeClass@@QEBAXAEAVCArchive@@@Z 000000014004e91c     Shapedoc.obj
 0002:0000e91c       $unwind$?GetBuffer@CString@WTL@@QEAAPEA_WH@Z 000000014004e91c     Colorpge.obj
 0002:0000e91c       $unwind$?_AfxAbbreviateName@CAfx@@SAXPEA_WHH@Z 000000014004e91c     Propdlg.obj
 0002:0000e91c       $unwind$?DDX_Radio@@YAXPEAVCDataExchange@@HAEAH@Z 000000014004e91c     Colorpge.obj
 0002:0000e91c       $unwind$?OnUpdateFrameMenu@CMDIChildWnd@@QEAAXHPEAVCWnd@@PEAUHMENU__@@@Z 000000014004e91c     Stdafx.obj
 0002:0000e930       $unwind$??1CPropertyPageMTL@@UEAA@XZ 000000014004e930     Colorpge.obj
 0002:0000e948       $stateUnwindMap$??1CPropertyPageMTL@@UEAA@XZ 000000014004e948     Colorpge.obj
 0002:0000e960       $ip2state$??1CPropertyPageMTL@@UEAA@XZ 000000014004e960     Colorpge.obj
 0002:0000e988       $unwind$?OnCtlColor@CPropertySheetMTL@@QEAAPEAUHBRUSH__@@PEAVCDCMTL@@PEAVCWnd@@I@Z 000000014004e988     Propsht.obj
 0002:0000e988       $unwind$?OnCtlColor@CPropertyPageMTL@@QEAAPEAUHBRUSH__@@PEAVCDCMTL@@PEAVCWnd@@I@Z 000000014004e988     Colorpge.obj
 0002:0000e994       $unwind$?_ProcessWindowMessage@CPropertyPageMTL@@UEAAHPEAUHWND__@@I_K_JAEA_J@Z 000000014004e994     Colorpge.obj
 0002:0000e9ac       $stateUnwindMap$?_ProcessWindowMessage@CPropertyPageMTL@@UEAAHPEAUHWND__@@I_K_JAEA_J@Z 000000014004e9ac     Colorpge.obj
 0002:0000e9ac       $stateUnwindMap$?_ProcessWindowMessage@CScrollView@@UEAAHPEAUHWND__@@I_K_JAEA_J@Z 000000014004e9ac     Stdafx.obj
 0002:0000e9ac       $stateUnwindMap$?_ProcessWindowMessage@CPropertySheetMTL@@UEAAHPEAUHWND__@@I_K_JAEA_J@Z 000000014004e9ac     Propsht.obj
 0002:0000e9ac       $stateUnwindMap$?_ProcessWindowMessage@CShapePreviewWnd@@UEAAHPEAUHWND__@@I_K_JAEA_J@Z 000000014004e9ac     Preview.obj
 0002:0000e9c0       $ip2state$?_ProcessWindowMessage@CPropertyPageMTL@@UEAAHPEAUHWND__@@I_K_JAEA_J@Z 000000014004e9c0     Colorpge.obj
 0002:0000e9e0       $unwind$??0_LocaleUpdate@@QEAA@PEAUlocaleinfo_struct@@@Z 000000014004e9e0     LIBCMT:mbctype.obj
 0002:0000e9e0       $unwind$?OnIdleUpdateCmdUI@CMDIFrameWnd@@QEAAXXZ 000000014004e9e0     Mainfrm.obj
 0002:0000e9e0       $unwind$?classHandleFuncCDialog@CDialog@@SAPEAXPEAX0@Z 000000014004e9e0     Colorpge.obj
 0002:0000e9e0       $unwind$??1?$CAlloc@_WAEB_W@@QEAA@XZ 000000014004e9e0     Shapesvw.obj
 0002:0000e9e0       $unwind$?OnCancel@CCommonDialog@@UEAAXXZ 000000014004e9e0     Propdlg.obj
 0002:0000e9e0       $unwind$?CalcDynamicLayout@CControlBar@@UEAA?AVCSize@WTL@@HK@Z 000000014004e9e0     Mainfrm.obj
 0002:0000e9e0       $unwind$?DestroyWindow@CControlBar@@UEAAHXZ 000000014004e9e0     Mainfrm.obj
 0002:0000e9e0       $unwind$??0bad_alloc@std@@QEAA@AEBV01@@Z 000000014004e9e0     LIBCMT:new.obj
 0002:0000e9e0       $unwind$?classHandleFuncCWnd@CWnd@@SAPEAXPEAX0@Z 000000014004e9e0     Colorpge.obj
 0002:0000e9e0       $unwind$?DoModal@?$CPrintDialogImpl@VCPrintDialog@WTL@@@WTL@@QEAA_JPEAUHWND__@@@Z 000000014004e9e0     Propdlg.obj
 0002:0000e9e0       $unwind$_callnewh          000000014004e9e0     LIBCMT:handler.obj
 0002:0000e9e0       $unwind$?RemoveDocument@CMultiDocTemplate@@UEAAXPEAVCDocument@@@Z 000000014004e9e0     Propdlg.obj
 0002:0000e9e0       $unwind$?OnCancel@CDialog@@UEAAXXZ 000000014004e9e0     Colorpge.obj
 0002:0000e9e0       $unwind$??1?$CBrushT@$00@WTL@@QEAA@XZ 000000014004e9e0     Preview.obj
 0002:0000e9e0       $unwind$?OnDestroy@CFrameWnd@@QEAAXXZ 000000014004e9e0     Mainfrm.obj
 0002:0000e9e0       $unwind$?OnSize@CPreviewView@@QEAAXIHH@Z 000000014004e9e0     Stdafx.obj
 0002:0000e9e0       $unwind$?classHandleFuncCBrushMTL@CBrushMTL@@SAPEAXPEAX0@Z 000000014004e9e0     Preview.obj
 0002:0000e9e0       $unwind$?SetCurrentPage@CPreviewView@@QEAAXIH@Z 000000014004e9e0     Shapesvw.obj
 0002:0000e9e0       $unwind$fast_error_exit    000000014004e9e0     LIBCMT:wwincrt0.obj
 0002:0000e9e0       $unwind$?classHandleFuncCDCMTL@CDCMTL@@SAPEAXPEAX0@Z 000000014004e9e0     Shapesvw.obj
 0002:0000e9e0       $unwind$?OnCancel@CPrintingDialog@@UEAAXXZ 000000014004e9e0     Shapesvw.obj
 0002:0000e9e0       $unwind$?CreateNewDocument@CDocTemplate@@UEAAPEAVCDocument@@XZ 000000014004e9e0     Propdlg.obj
 0002:0000e9e0       $unwind$__crtLoadWinApiPointers 000000014004e9e0     LIBCMT:winapisupp.obj
 0002:0000e9e0       $unwind$?ParseParam@CCommandLineInfo@@UEAAXPEB_WHH@Z 000000014004e9e0     Propdlg.obj
 0002:0000e9e0       $unwind$?classHandleFuncCWMHnd@CWMHnd@@SAPEAXPEAX0@Z 000000014004e9e0     Colorpge.obj
 0002:0000e9e0       $unwind$?classHandleFuncCBitmapMTL@CBitmapMTL@@SAPEAXPEAX0@Z 000000014004e9e0     Stdafx.obj
 0002:0000e9e0       $unwind$?MapWizardResult@CPropertyPageMTL@@QEAA_J_J@Z 000000014004e9e0     Colorpge.obj
 0002:0000e9e0       $unwind$??1?$CAlloc@HAEBH@@QEAA@XZ 000000014004e9e0     Shapesvw.obj
 0002:0000e9e0       $unwind$??0bad_exception@std@@QEAA@AEBV01@@Z 000000014004e9e0     LIBCMT:frame.obj
 0002:0000e9e0       $unwind$_getptd            000000014004e9e0     LIBCMT:tidtable.obj
 0002:0000e9e0       $unwind$?PreCreateWindow@CMiniFrameWnd@@UEAAHAEAUtagCREATESTRUCTW@@@Z 000000014004e9e0     Minifrm.obj
 0002:0000e9e0       $unwind$??1?$CArray@PEAXAEBQEAX@@QEAA@XZ 000000014004e9e0     Propsht.obj
 0002:0000e9e0       $unwind$?OnNcCreate@CMiniFrameWnd@@QEAAHPEAUtagCREATESTRUCTW@@@Z 000000014004e9e0     Minifrm.obj
 0002:0000e9e0       $unwind$_mtinit            000000014004e9e0     LIBCMT:tidtable.obj
 0002:0000e9e0       $unwind$?OnQueryCenterWnd@CMiniFrameWnd@@QEAA_J_K_J@Z 000000014004e9e0     Minifrm.obj
 0002:0000e9e0       $unwind$?classHandleFuncCGdiObject@CGdiObject@@SAPEAXPEAX0@Z 000000014004e9e0     Shapeobj.obj
 0002:0000e9e0       $unwind$__crtIsPackagedApp 000000014004e9e0     LIBCMT:winapisupp.obj
 0002:0000e9e0       $unwind$?RemovePlaceHolder@CDockBar@@QEAAXPEAVCControlBar@@@Z 000000014004e9e0     Mainfrm.obj
 0002:0000e9e0       $unwind$??1?$CPenT@$00@WTL@@QEAA@XZ 000000014004e9e0     Shapeobj.obj
 0002:0000e9e0       $unwind$__raise_securityfailure 000000014004e9e0     LIBCMT:gs_report.obj
 0002:0000e9e0       $unwind$?SetMenuBarState@CFrameWnd@@QEAAHK@Z 000000014004e9e0     Mainfrm.obj
 0002:0000e9e0       $unwind$?PreCreateWindow@CFrameWnd@@UEAAHAEAUtagCREATESTRUCTW@@@Z 000000014004e9e0     Mainfrm.obj
 0002:0000e9e0       $unwind$??1?$CArray@HAEBH@@QEAA@XZ 000000014004e9e0     Mainfrm.obj
 0002:0000e9e0       $unwind$?classHandleFuncCMenuMTL@CMenuMTL@@SAPEAXPEAX0@Z 000000014004e9e0     Colorpge.obj
 0002:0000e9e0       $unwind$??0CPreviewView@@QEAA@XZ 000000014004e9e0     Stdafx.obj
 0002:0000e9e0       $unwind$?OnInitDialog@CWMHnd@@UEAAHXZ 000000014004e9e0     Colorpge.obj
 0002:0000e9e0       $unwind$?RemoveAt@?$CArray@PEAXAEBQEAX@@QEAAX_J0@Z 000000014004e9e0     Mainfrm.obj
 0002:0000e9e0       $unwind$__crtUnhandledException 000000014004e9e0     LIBCMT:winapisupp.obj
 0002:0000e9e0       $unwind$?OnPaint@CToolBar@@QEAAXXZ 000000014004e9e0     Mainfrm.obj
 0002:0000e9e0       $unwind$?GetActiveFrame@CMDIFrameWnd@@UEAAPEAVCFrameWnd@@XZ 000000014004e9e0     Mainfrm.obj
 0002:0000e9e0       $unwind$wWinMain           000000014004e9e0     Stdafx.obj
 0002:0000e9e0       $unwind$?OnNewDocument@CShapesDoc@@MEAAHXZ 000000014004e9e0     Shapedoc.obj
 0002:0000e9e0       $unwind$_amsg_exit         000000014004e9e0     LIBCMT:crt0dat.obj
 0002:0000e9e0       $unwind$?OnIdleUpdateCmdUI@CFrameWnd@@QEAAXXZ 000000014004e9e0     Mainfrm.obj
 0002:0000e9e0       $unwind$?CalcDynamicLayout@CToolBar@@UEAA?AVCSize@WTL@@HK@Z 000000014004e9e0     Mainfrm.obj
 0002:0000e9e0       $unwind$?CalcFixedLayout@CToolBar@@UEAA?AVCSize@WTL@@HH@Z 000000014004e9e0     Mainfrm.obj
 0002:0000e9e0       $unwind$__crtExitProcess   000000014004e9e0     LIBCMT:crt0dat.obj
 0002:0000e9e0       $unwind$?OnUpdateControlBarMenu@CFrameWnd@@QEAAXPEAVCCmdUI@@@Z 000000014004e9e0     Mainfrm.obj
 0002:0000e9e0       $unwind$__onexitinit       000000014004e9e0     LIBCMT:onexit.obj
 0002:0000e9e0       $unwind$??0CToolBar@@QEAA@XZ 000000014004e9e0     Mainfrm.obj
 0002:0000e9e0       $unwind$??0_AUX_DATA@@QEAA@XZ 000000014004e9e0     Mainfrm.obj
 0002:0000e9e0       $unwind$__crtCorExitProcess 000000014004e9e0     LIBCMT:crt0dat.obj
 0002:0000e9e0       $unwind$_cinit             000000014004e9e0     LIBCMT:crt0dat.obj
 0002:0000e9e0       $unwind$_init_pointers     000000014004e9e0     LIBCMT:crt0dat.obj
 0002:0000e9e0       $unwind$calloc             000000014004e9e0     LIBCMT:calloc.obj
 0002:0000e9e0       $unwind$wcsncpy_s          000000014004e9e0     LIBCMT:wcsncpy_s.obj
 0002:0000e9e0       $unwind$?ReleaseFile@CDocument@@UEAAXPEAVCFile@@H@Z 000000014004e9e0     Shapedoc.obj
 0002:0000e9e0       $unwind$?_Tidy@exception@std@@AEAAXXZ 000000014004e9e0     LIBCMT:stdexcpt.obj
 0002:0000e9e0       $unwind$?Seek@CFile@@UEAA_K_JI@Z 000000014004e9e0     Shapedoc.obj
 0002:0000e9e0       $unwind$??0exception@std@@QEAA@AEBV01@@Z 000000014004e9e0     LIBCMT:stdexcpt.obj
 0002:0000e9e0       $unwind$??0exception@std@@QEAA@AEBQEBD@Z 000000014004e9e0     LIBCMT:stdexcpt.obj
 0002:0000e9e0       $unwind$??1?$CRgnT@$00@WTL@@QEAA@XZ 000000014004e9e0     Stdafx.obj
 0002:0000e9e0       $unwind$__GSHandlerCheckCommon 000000014004e9e0     LIBCMT:gshandler.obj
 0002:0000e9e0       $unwind$??1?$CBitmapT@$00@WTL@@QEAA@XZ 000000014004e9e0     Stdafx.obj
 0002:0000e9e0       $unwind$?GetLength@CFile@@UEBA_KXZ 000000014004e9e0     Shapedoc.obj
 0002:0000e9e0       $unwind$?Abort@CFile@@UEAAXXZ 000000014004e9e0     Shapedoc.obj
 0002:0000e9e0       $unwind$wcscpy_s           000000014004e9e0     LIBCMT:wcscpy_s.obj
 0002:0000e9e0       $unwind$?Flush@CArchive@@QEAAXXZ 000000014004e9e0     Shapedoc.obj
 0002:0000e9e0       $unwind$wcscat_s           000000014004e9e0     LIBCMT:wcscat_s.obj
 0002:0000e9e0       $unwind$?OnBarCheck@CFrameWnd@@QEAAHI@Z 000000014004e9e0     Mainfrm.obj
 0002:0000e9e0       $unwind$?OnDestroy@CControlBar@@QEAAXXZ 000000014004e9e0     Mainfrm.obj
 0002:0000e9e0       $unwind$strncpy_s          000000014004e9e0     LIBCMT:strncpy_s.obj
 0002:0000e9e0       $unwind$strcpy_s           000000014004e9e0     LIBCMT:strcpy_s.obj
 0002:0000e9e0       $unwind$?OnFileSave@CDocument@@QEAAXXZ 000000014004e9e0     Shapedoc.obj
 0002:0000e9e0       $unwind$??1?$CMenuT@$00@WTL@@QEAA@XZ 000000014004e9e0     Colorpge.obj
 0002:0000e9e0       $unwind$?DoFileSave@CDocument@@QEAAHXZ 000000014004e9e0     Shapedoc.obj
 0002:0000e9e0       $unwind$?PreCreateWindow@CView@@UEAAHAEAUtagCREATESTRUCTW@@@Z 000000014004e9e0     Shapesvw.obj
 0002:0000e9e0       $unwind$?Empty@CString@WTL@@QEAAXXZ 000000014004e9e0     Mainfrm.obj
 0002:0000e9e0       $unwind$?__GetUnwindTryBlock@@YAHPEA_KPEAU_xDISPATCHER_CONTEXT@@PEBU_s_FuncInfo@@@Z 000000014004e9e0     LIBCMT:ehstate.obj
 0002:0000e9e0       $unwind$__crtTerminateProcess 000000014004e9e0     LIBCMT:winapisupp.obj
 0002:0000e9e0       $unwind$?RemoveControlBar@CFrameWnd@@QEAAXPEAVCControlBar@@@Z 000000014004e9e0     Mainfrm.obj
 0002:0000e9e0       $unwind$?GetDefaultAccelerator@CFrameWnd@@UEAAPEAUHACCEL__@@XZ 000000014004e9e0     Mainfrm.obj
 0002:0000e9e0       $unwind$_SetThrowImageBase 000000014004e9e0     LIBCMT:trnsctrl.obj
 0002:0000e9e0       $unwind$_fflush_nolock     000000014004e9e0     LIBCMT:fflush.obj
 0002:0000e9e0       $unwind$?PreCreateWindow@CMDIChildWnd@@UEAAHAEAUtagCREATESTRUCTW@@@Z 000000014004e9e0     Stdafx.obj
 0002:0000e9e0       $unwind$_SetImageBase      000000014004e9e0     LIBCMT:trnsctrl.obj
 0002:0000e9e0       $unwind$_freebuf           000000014004e9e0     LIBCMT:_freebuf.obj
 0002:0000e9e0       $unwind$_IsExceptionObjectToBeDestroyed 000000014004e9e0     LIBCMT:trnsctrl.obj
 0002:0000e9e0       $unwind$_CreateFrameInfo   000000014004e9e0     LIBCMT:trnsctrl.obj
 0002:0000e9e0       $unwind$?ReadCount@CArchive@@QEAA_KXZ 000000014004e9e0     Shapedoc.obj
 0002:0000e9e0       $unwind$??0CAtlWinModule@ATL@@QEAA@XZ 000000014004e9e0     Colorpge.obj
 0002:0000e9e0       $unwind$??1CAtlBaseModule@ATL@@QEAA@XZ 000000014004e9e0     atls:atlbase.obj
 0002:0000e9e0       $unwind$_lock_file2        000000014004e9e0     LIBCMT:_file.obj
 0002:0000e9e0       $unwind$_lock_file         000000014004e9e0     LIBCMT:_file.obj
 0002:0000e9e0       $unwind$?DelayUpdateFrameMenu@CMDIFrameWnd@@UEAAXPEAUHMENU__@@@Z 000000014004e9e0     Mainfrm.obj
 0002:0000e9e0       $unwind$?PreCreateWindow@CMDIFrameWnd@@UEAAHAEAUtagCREATESTRUCTW@@@Z 000000014004e9e0     Mainfrm.obj
 0002:0000e9e8       $unwind$memcpy_s           000000014004e9e8     LIBCMT:memcpy_s.obj
 0002:0000e9e8       $unwind$?OnNotify@CPropertyPageMTL@@UEAAH_K_JPEA_J@Z 000000014004e9e8     Colorpge.obj
 0002:0000e9e8       $unwind$?WriteCount@CArchive@@QEAAX_K@Z 000000014004e9e8     Shapedoc.obj
 0002:0000e9e8       $unwind$?RemoveHandle@?$CHandleHashList@PEAUHWND__@@VCWMHnd@@PEAU1@$0BB@@@QEAAPEAUHWND__@@QEAU2@@Z 000000014004e9e8     Colorpge.obj
 0002:0000e9e8       $unwind$?LoadBitmapW@CToolBar@@QEAAHPEB_W@Z 000000014004e9e8     Mainfrm.obj
 0002:0000e9e8       $unwind$?RemoveHandle@?$CHandleList@PEAUHMENU__@@VCMenuMTL@@PEAUHWND__@@@@QEAAPEAUHMENU__@@QEAU2@@Z 000000014004e9e8     Colorpge.obj
 0002:0000e9e8       $unwind$?AfxLoadString@CAfx@@SAHIPEA_WI@Z 000000014004e9e8     Mainfrm.obj
 0002:0000e9e8       $unwind$?OnCommand@CMDIFrameWnd@@UEAAH_K_J@Z 000000014004e9e8     Mainfrm.obj
 0002:0000e9e8       $unwind$??0CMainFrame@@QEAA@XZ 000000014004e9e8     Mainfrm.obj
 0002:0000e9e8       $unwind$?SetTitle@CDocument@@UEAAXPEB_W@Z 000000014004e9e8     Shapedoc.obj
 0002:0000e9e8       $unwind$_getenv_helper_nolock 000000014004e9e8     LIBCMT:getenv.obj
 0002:0000e9e8       $unwind$?RemoveHandle@?$CHandleList@PEAUHDC__@@VCDCMTL@@PEAUHWND__@@@@QEAAPEAUHDC__@@QEAU2@@Z 000000014004e9e8     Colorpge.obj
 0002:0000e9e8       $unwind$?Init@CDynamicStdCallThunk@ATL@@QEAAH_KPEAX@Z 000000014004e9e8     Colorpge.obj
 0002:0000e9e8       $unwind$malloc             000000014004e9e8     LIBCMT:malloc.obj
 0002:0000e9e8       $unwind$?RemoveHandle@?$CHandleList@PEAXVCGdiObject@@PEAUHWND__@@@@QEAAPEAXQEAX@Z 000000014004e9e8     Preview.obj
 0002:0000e9e8       $unwind$??_GCShapesDoc@@UEAAPEAXI@Z 000000014004e9e8     Shapedoc.obj
 0002:0000e9e8       $unwind$?AddView@CDocument@@QEAAXPEAVCView@@@Z 000000014004e9e8     Shapesvw.obj
 0002:0000e9e8       $unwind$realloc            000000014004e9e8     LIBCMT:realloc.obj
 0002:0000e9e8       $unwind$?AddFrameWnd@CFrameWnd@@QEAAXXZ 000000014004e9e8     Mainfrm.obj
 0002:0000e9e8       $unwind$?WalkPreTranslateTree@CWnd@@SAHPEAUHWND__@@PEAUtagMSG@@@Z 000000014004e9e8     Propdlg.obj
 0002:0000e9e8       $unwind$??0CString@WTL@@QEAA@PEB_W@Z 000000014004e9e8     Propdlg.obj
 0002:0000e9e8       $unwind$?OnCreateHelper@CFrameWnd@@QEAAHPEAUtagCREATESTRUCTW@@PEAUCCreateContext@@@Z 000000014004e9e8     Mainfrm.obj
 0002:0000e9e8       $unwind$?OnNotify@CFileDialogMTL@@UEAAH_K_JPEA_J@Z 000000014004e9e8     Propdlg.obj
 0002:0000e9e8       $unwind$?EnableScrollBarCtrl@CWMHnd@@QEAAXHH@Z 000000014004e9e8     Shapesvw.obj
 0002:0000e9e8       $unwind$_recalloc          000000014004e9e8     LIBCMT:recalloc.obj
 0002:0000e9e8       $unwind$?ActivateFrame@CFrameWnd@@UEAAXH@Z 000000014004e9e8     Mainfrm.obj
 0002:0000e9e8       $unwind$?AddDocument@CMultiDocTemplate@@UEAAXPEAVCDocument@@@Z 000000014004e9e8     Propdlg.obj
 0002:0000e9e8       $unwind$_lseeki64_nolock   000000014004e9e8     LIBCMT:lseeki64.obj
 0002:0000e9e8       $unwind$?ResetTimer@CControlBar@@QEAAX_KI@Z 000000014004e9e8     Mainfrm.obj
 0002:0000e9e8       $unwind$?PreTranslateMessage@CPropertySheetMTL@@UEAAHPEAUtagMSG@@@Z 000000014004e9e8     Propsht.obj
 0002:0000e9e8       $unwind$_mtinitlocks       000000014004e9e8     LIBCMT:mlock.obj
 0002:0000e9e8       $unwind$_flush             000000014004e9e8     LIBCMT:fflush.obj
 0002:0000e9f8       $unwind$?AddShape@CShapesDoc@@QEAAXPEAVCShape@@@Z 000000014004e9f8     Shapedoc.obj
 0002:0000e9f8       $unwind$?GetSafeOwner_@CWnd@@SAPEAUHWND__@@PEAU2@PEAPEAU2@@Z 000000014004e9f8     Colorpge.obj
 0002:0000e9f8       $unwind$?AfxExtractSubString@CAfx@@SAHAEAVCString@WTL@@PEB_WH_W@Z 000000014004e9f8     Mainfrm.obj
 0002:0000ea08       $chain$0$?GetSafeOwner_@CWnd@@SAPEAUHWND__@@PEAU2@PEAPEAU2@@Z 000000014004ea08     Colorpge.obj
 0002:0000ea1c       $chain$1$?GetSafeOwner_@CWnd@@SAPEAUHWND__@@PEAU2@PEAPEAU2@@Z 000000014004ea1c     Colorpge.obj
 0002:0000ea2c       $unwind$?SetText@CCmdUI@@UEAAXPEB_W@Z 000000014004ea2c     Colorpge.obj
 0002:0000ea2c       $unwind$?OnNcCalcSize@CStatusBar@@QEAAXHPEAUtagNCCALCSIZE_PARAMS@@@Z 000000014004ea2c     Mainfrm.obj
 0002:0000ea2c       $unwind$?_ProcessWindowMessage@CDialog@@UEAAHPEAUHWND__@@I_K_JAEA_J@Z 000000014004ea2c     Colorpge.obj
 0002:0000ea38       $unwind$?OnCmdMsg@CDialog@@UEAAHIHPEAXPEAUAFX_CMDHANDLERINFO@@@Z 000000014004ea38     Colorpge.obj
 0002:0000ea38       $unwind$?OnCmdMsg@CDocument@@UEAAHIHPEAXPEAUAFX_CMDHANDLERINFO@@@Z 000000014004ea38     Shapedoc.obj
 0002:0000ea38       $unwind$?CreateDlgIndirect@CWnd@@QEAAHPEBUDLGTEMPLATE@@PEAV1@PEAUHINSTANCE__@@@Z 000000014004ea38     Colorpge.obj
 0002:0000ea38       $unwind$?OnCmdMsg@CMDIFrameWnd@@UEAAHIHPEAXPEAUAFX_CMDHANDLERINFO@@@Z 000000014004ea38     Mainfrm.obj
 0002:0000ea38       $unwind$?OnCmdMsg@CView@@UEAAHIHPEAXPEAUAFX_CMDHANDLERINFO@@@Z 000000014004ea38     Shapesvw.obj
 0002:0000ea38       $unwind$?Run@CWinApp@@UEAAHXZ 000000014004ea38     Propdlg.obj
 0002:0000ea38       $unwind$?OnCmdMsg@CPropertySheetMTL@@UEAAHIHPEAXPEAUAFX_CMDHANDLERINFO@@@Z 000000014004ea38     Propsht.obj
 0002:0000ea38       $unwind$?OnCmdMsg@CFrameWnd@@UEAAHIHPEAXPEAUAFX_CMDHANDLERINFO@@@Z 000000014004ea38     Mainfrm.obj
 0002:0000ea50       $unwind$?PreTranslateMessage@CDialog@@UEAAHPEAUtagMSG@@@Z 000000014004ea50     Colorpge.obj
 0002:0000ea5c       $unwind$?OnWizardFinish@CPropertyPageMTL@@UEAAHXZ 000000014004ea5c     Colorpge.obj
 0002:0000ea5c       $unwind$_mbschr_l          000000014004ea5c     LIBCMT:mbschr.obj
 0002:0000ea5c       $unwind$?OnOK@CCommonDialog@@UEAAXXZ 000000014004ea5c     Propdlg.obj
 0002:0000ea5c       $unwind$?Enable@CToolCmdUI@@UEAAXH@Z 000000014004ea5c     Mainfrm.obj
 0002:0000ea5c       $unwind$?OnOK@CDialog@@UEAAXXZ 000000014004ea5c     Colorpge.obj
 0002:0000ea5c       $unwind$?DrawNonThemedGripper@CControlBar@@QEAAHPEAVCDCMTL@@AEBVCRect@WTL@@@Z 000000014004ea5c     Mainfrm.obj
 0002:0000ea5c       $unwind$?SetSheetPropsFromShape@CModelessShapePropSheet@@QEAAXPEAVCShape@@@Z 000000014004ea5c     Propsht2.obj
 0002:0000ea5c       $unwind$?SetCheck@CToolCmdUI@@UEAAXH@Z 000000014004ea5c     Mainfrm.obj
 0002:0000ea5c       $unwind$?RecalcDelayShow@CControlBar@@QEAAKPEAUAFX_SIZEPARENTPARAMS@@@Z 000000014004ea5c     Mainfrm.obj
 0002:0000ea5c       $unwind$?SetButtonStyle@CToolBar@@QEAAXHI@Z 000000014004ea5c     Mainfrm.obj
 0002:0000ea6c       $unwind$?CreateDlg@CWnd@@QEAAHPEB_WPEAV1@@Z 000000014004ea6c     Colorpge.obj
 0002:0000ea6c       $unwind$?OnMDIActivate@CMDIChildWnd@@QEAAXHPEAVCWnd@@0@Z 000000014004ea6c     Stdafx.obj
 0002:0000ea6c       $unwind$?AllocCopy@CString@WTL@@IEBAHAEAV12@HHH@Z 000000014004ea6c     Propdlg.obj
 0002:0000ea6c       $unwind$?OnPreserveZeroBorderHelper@CToolBar@@QEAA_J_K_J@Z 000000014004ea6c     Mainfrm.obj
 0002:0000ea6c       $unwind$?OnMenuSelect@CFrameWnd@@QEAAXIIPEAUHMENU__@@@Z 000000014004ea6c     Mainfrm.obj
 0002:0000ea84       $unwind$?ExecuteDlgInit@CWnd@@QEAAHPEAX@Z 000000014004ea84     Colorpge.obj
 0002:0000ea84       $unwind$?RunModalLoop@CWnd@@QEAAHK@Z 000000014004ea84     Colorpge.obj
 0002:0000eaa0       $unwind$?DoModal@CDialog@@UEAA_JXZ 000000014004eaa0     Colorpge.obj
 0002:0000eaac       $chain$3$?DoModal@CDialog@@UEAA_JXZ 000000014004eaac     Colorpge.obj
 0002:0000eacc       $chain$5$?DoModal@CDialog@@UEAA_JXZ 000000014004eacc     Colorpge.obj
 0002:0000eae4       $chain$6$?DoModal@CDialog@@UEAA_JXZ 000000014004eae4     Colorpge.obj
 0002:0000eaf4       $chain$7$?DoModal@CDialog@@UEAA_JXZ 000000014004eaf4     Colorpge.obj
 0002:0000eb0c       $chain$8$?DoModal@CDialog@@UEAA_JXZ 000000014004eb0c     Colorpge.obj
 0002:0000eb1c       $unwind$__crtInitializeCriticalSectionEx 000000014004eb1c     LIBCMT:winapisupp.obj
 0002:0000eb1c       $unwind$?HandleInitDialog@CPropertySheetMTL@@QEAA_J_K_J@Z 000000014004eb1c     Propsht.obj
 0002:0000eb1c       $unwind$_heap_init         000000014004eb1c     LIBCMT:heapinit.obj
 0002:0000eb1c       $unwind$?AfxThrowNotSupportedException@@YAXXZ 000000014004eb1c     Shapedoc.obj
 0002:0000eb1c       $unwind$?EnsureParentFrame@CWnd@@QEAAPEAVCFrameWnd@@XZ 000000014004eb1c     Mainfrm.obj
 0002:0000eb1c       $unwind$_mtterm            000000014004eb1c     LIBCMT:tidtable.obj
 0002:0000eb1c       $unwind$__CxxSetUnhandledExceptionFilter 000000014004eb1c     LIBCMT:unhandld.obj
 0002:0000eb1c       $unwind$?CreateObject@CWnd@@SAPEAVCObject@@XZ 000000014004eb1c     Stdafx.obj
 0002:0000eb1c       $unwind$?CreateObject@CShapesView@@SAPEAVCObject@@XZ 000000014004eb1c     Shapesvw.obj
 0002:0000eb1c       $unwind$___lc_codepage_func 000000014004eb1c     LIBCMT:initctyp.obj
 0002:0000eb1c       $unwind$??1?$CList@PEAUCRuntimeClass@@AEBQEAU1@@@QEAA@XZ 000000014004eb1c     Colorpge.obj
 0002:0000eb1c       $unwind$_get_daylight      000000014004eb1c     LIBCMT:timeset.obj
 0002:0000eb1c       $unwind$_initp_eh_hooks    000000014004eb1c     LIBCMT:hooks.obj
 0002:0000eb1c       $unwind$?OnCreateClient@CFrameWnd@@UEAAHPEAUtagCREATESTRUCTW@@PEAUCCreateContext@@@Z 000000014004eb1c     Mainfrm.obj
 0002:0000eb1c       $unwind$_get_timezone      000000014004eb1c     LIBCMT:timeset.obj
 0002:0000eb1c       $unwind$_invoke_watson     000000014004eb1c     LIBCMT:invarg.obj
 0002:0000eb1c       $unwind$??1CWaitCursor@@QEAA@XZ 000000014004eb1c     Propdlg.obj
 0002:0000eb1c       $unwind$__doserrno         000000014004eb1c     LIBCMT:dosmap.obj
 0002:0000eb1c       $unwind$?_AfxPreviewCloseProc@CPrintPreviewState@@SAHPEAVCFrameWnd@@@Z 000000014004eb1c     Shapesvw.obj
 0002:0000eb1c       $unwind$?__CxxUnhandledExceptionFilter@@YAJPEAU_EXCEPTION_POINTERS@@@Z 000000014004eb1c     LIBCMT:unhandld.obj
 0002:0000eb1c       $unwind$?CreateObject@CPreviewView@@SAPEAVCObject@@XZ 000000014004eb1c     Stdafx.obj
 0002:0000eb1c       $unwind$??__E_AtlWinModule@ATL@@YAXXZ 000000014004eb1c     Colorpge.obj
 0002:0000eb1c       $unwind$?AfxGetModuleState@@YAPEAVCModuleState@@XZ 000000014004eb1c     Colorpge.obj
 0002:0000eb1c       $unwind$??__F_AtlWinModule@ATL@@YAXXZ 000000014004eb1c     Colorpge.obj
 0002:0000eb1c       $unwind$?GetParentFrame@CWnd@@QEAAPEAVCFrameWnd@@XZ 000000014004eb1c     Mainfrm.obj
 0002:0000eb1c       $unwind$?ContinueModal@CPropertySheetMTL@@UEAAHXZ 000000014004eb1c     Propsht.obj
 0002:0000eb1c       $unwind$abort              000000014004eb1c     LIBCMT:abort.obj
 0002:0000eb1c       $unwind$??__EtheApp@@YAXXZ 000000014004eb1c     Propdlg.obj
 0002:0000eb1c       $unwind$__endstdio         000000014004eb1c     LIBCMT:_file.obj
 0002:0000eb1c       $unwind$_FF_MSGBANNER      000000014004eb1c     LIBCMT:crt0msg.obj
 0002:0000eb1c       $unwind$_errno             000000014004eb1c     LIBCMT:dosmap.obj
 0002:0000eb1c       $unwind$?AfxThrowResourceException@@YAXXZ 000000014004eb1c     Propsht.obj
 0002:0000eb1c       $unwind$?OnMDIWindowCmd@CMDIFrameWnd@@QEAAHI@Z 000000014004eb1c     Mainfrm.obj
 0002:0000eb1c       $unwind$??__E_AtlBaseModule@ATL@@YAXXZ 000000014004eb1c     atls:atlbase.obj
 0002:0000eb1c       $unwind$__FrameUnwindFilter 000000014004eb1c     LIBCMT:frame.obj
 0002:0000eb1c       $unwind$??1?$CList@PEAVCFrameWnd@@AEBQEAV1@@@QEAA@XZ 000000014004eb1c     Propdlg.obj
 0002:0000eb1c       $unwind$?AfxPropPageCallback@CPropertyPageMTL@@SAIPEAUHWND__@@IPEAU_PROPSHEETPAGEW@@@Z 000000014004eb1c     Colorpge.obj
 0002:0000eb1c       $unwind$__initmbctable     000000014004eb1c     LIBCMT:mbctype.obj
 0002:0000eb1c       $unwind$?AfxDlgProc@CWnd@@SA_JPEAUHWND__@@I_K_J@Z 000000014004eb1c     Colorpge.obj
 0002:0000eb1c       $unwind$??8type_info@@QEBA_NAEBV0@@Z 000000014004eb1c     LIBCMT:typinfo.obj
 0002:0000eb1c       $unwind$?CreateObject@CShapesDoc@@SAPEAVCObject@@XZ 000000014004eb1c     Shapedoc.obj
 0002:0000eb1c       $unwind$_get_dstbias       000000014004eb1c     LIBCMT:timeset.obj
 0002:0000eb1c       $unwind$_GetImageBase      000000014004eb1c     LIBCMT:trnsctrl.obj
 0002:0000eb1c       $unwind$_GetThrowImageBase 000000014004eb1c     LIBCMT:trnsctrl.obj
 0002:0000eb1c       $unwind$_msize             000000014004eb1c     LIBCMT:msize.obj
 0002:0000eb1c       $unwind$?__GetCurrentState@@YAHPEA_KPEAU_xDISPATCHER_CONTEXT@@PEBU_s_FuncInfo@@@Z 000000014004eb1c     LIBCMT:ehstate.obj
 0002:0000eb1c       $unwind$?OnWizardFinishEx@CPropertyPageMTL@@UEAAPEAUHWND__@@XZ 000000014004eb1c     Colorpge.obj
 0002:0000eb1c       $unwind$_isatty            000000014004eb1c     LIBCMT:isatty.obj
 0002:0000eb1c       $unwind$atexit             000000014004eb1c     LIBCMT:onexit.obj
 0002:0000eb1c       $unwind$_get_osfhandle     000000014004eb1c     LIBCMT:osfinfo.obj
 0002:0000eb1c       $unwind$?memcpy_x@SecureHelper@WTL@@YAXPEAX_KPEBX1@Z 000000014004eb1c     Colorpge.obj
 0002:0000eb1c       $unwind$??1?$CList@PEAUHWND__@@PEAU1@@@QEAA@XZ 000000014004eb1c     Mainfrm.obj
 0002:0000eb1c       $unwind$?AtlThrowImpl@ATL@@YAXJ@Z 000000014004eb1c     Colorpge.obj
 0002:0000eb1c       $unwind$?OnInitDone@CFileDialogMTL@@UEAAXXZ 000000014004eb1c     Propdlg.obj
 0002:0000eb1c       $unwind$_fileno            000000014004eb1c     LIBCMT:fileno.obj
 0002:0000eb1c       $unwind$_set_error_mode    000000014004eb1c     LIBCMT:errmode.obj
 0002:0000eb1c       $unwind$??1?$CList@PEAXPEAX@@QEAA@XZ 000000014004eb1c     Mainfrm.obj
 0002:0000eb1c       $unwind$?AfxThrowMemoryException@@YAXXZ 000000014004eb1c     Colorpge.obj
 0002:0000eb1c       $unwind$__termconout       000000014004eb1c     LIBCMT:initcon.obj
 0002:0000eb1c       $unwind$?CreateObject@CShape@@SAPEAVCObject@@XZ 000000014004eb1c     Shapeobj.obj
 0002:0000eb1c       $unwind$?OnApply@CPropertyPageMTL@@UEAAHXZ 000000014004eb1c     Colorpge.obj
 0002:0000eb1c       $unwind$_purecall          000000014004eb1c     LIBCMT:purevirt.obj
 0002:0000eb1c       $unwind$wWinMainCRTStartup 000000014004eb1c     LIBCMT:wwincrt0.obj
 0002:0000eb1c       $unwind$__crtDownlevelLocaleNameToLCID 000000014004eb1c     LIBCMT:winapinls.obj
 0002:0000eb1c       $unwind$?AfxThrowInvalidArgException@@YAXXZ 000000014004eb1c     Shapedoc.obj
 0002:0000eb1c       $unwind$__GSHandlerCheck   000000014004eb1c     LIBCMT:gshandler.obj
 0002:0000eb1c       $unwind$?IsVisible@CControlBar@@UEBAHXZ 000000014004eb1c     Mainfrm.obj
 0002:0000eb24       $unwind$?OnKillActive@CPropertyPageMTL@@UEAAHXZ 000000014004eb24     Colorpge.obj
 0002:0000eb24       $unwind$?_ProcessWindowMessage@CToolBar@@UEAAHPEAUHWND__@@I_K_JAEA_J@Z 000000014004eb24     Mainfrm.obj
 0002:0000eb24       $unwind$?OnGetMinMaxInfo@CMiniFrameWnd@@QEAAXPEAUtagMINMAXINFO@@@Z 000000014004eb24     Minifrm.obj
 0002:0000eb30       $unwind$?OnSetActive@CPropertyPageMTL@@UEAAHXZ 000000014004eb30     Colorpge.obj
 0002:0000eb3c       $unwind$?GetParentSheet@CPropertyPageMTL@@UEAAPEAVCPropertySheetMTL@@XZ 000000014004eb3c     Colorpge.obj
 0002:0000eb3c       $unwind$?IsInExceptionSpec@@YAEPEAUEHExceptionRecord@@PEBU_s_ESTypeList@@@Z 000000014004eb3c     LIBCMT:frame.obj
 0002:0000eb58       $unwind$?CenterWindow@CWindow@ATL@@QEAAHPEAUHWND__@@@Z 000000014004eb58     Colorpge.obj
 0002:0000eb70       $unwind$?SendMessageToDescendants@CWnd@@QEAAXPEAUHWND__@@I_K_JHH@Z 000000014004eb70     Colorpge.obj
 0002:0000eb80       $chain$0$?SendMessageToDescendants@CWnd@@QEAAXPEAUHWND__@@I_K_JHH@Z 000000014004eb80     Colorpge.obj
 0002:0000eb94       $chain$1$?SendMessageToDescendants@CWnd@@QEAAXPEAUHWND__@@I_K_JHH@Z 000000014004eb94     Colorpge.obj
 0002:0000eba4       $unwind$?OnInitDialog@CDialog@@UEAAHXZ 000000014004eba4     Colorpge.obj
 0002:0000ebb4       $chain$0$?AfxDlgProc@CWnd@@SA_JPEAUHWND__@@I_K_J@Z 000000014004ebb4     Colorpge.obj
 0002:0000ebc8       $chain$2$?AfxDlgProc@CWnd@@SA_JPEAUHWND__@@I_K_J@Z 000000014004ebc8     Colorpge.obj
 0002:0000ebdc       $chain$3$?AfxDlgProc@CWnd@@SA_JPEAUHWND__@@I_K_J@Z 000000014004ebdc     Colorpge.obj
 0002:0000ebec       $unwind$?OnToolHitTest@CWnd@@UEBA_JVCPoint@WTL@@PEAUtagTOOLINFOW@@@Z 000000014004ebec     Colorpge.obj
 0002:0000ebec       $unwind$?AssignCopy@CString@WTL@@IEAAXHPEB_W@Z 000000014004ebec     Colorpge.obj
 0002:0000ebfc       $chain$0$?AssignCopy@CString@WTL@@IEAAXHPEB_W@Z 000000014004ebfc     Colorpge.obj
 0002:0000ec10       $chain$1$?AssignCopy@CString@WTL@@IEAAXHPEB_W@Z 000000014004ec10     Colorpge.obj
 0002:0000ec20       $chain$2$?AssignCopy@CString@WTL@@IEAAXHPEB_W@Z 000000014004ec20     Colorpge.obj
 0002:0000ec34       $unwind$?LoadStringW@CString@WTL@@QEAAHI@Z 000000014004ec34     Colorpge.obj
 0002:0000ec48       $chain$1$?LoadStringW@CString@WTL@@QEAAHI@Z 000000014004ec48     Colorpge.obj
 0002:0000ec60       $chain$2$?LoadStringW@CString@WTL@@QEAAHI@Z 000000014004ec60     Colorpge.obj
 0002:0000ec70       $unwind$?_WindowProc@CCommonWnd@@UEAAHPEAUHWND__@@I_K_JAEA_J@Z 000000014004ec70     Propdlg.obj
 0002:0000ec70       $unwind$?WindowProc@CWnd@@UEAA_JI_K_J@Z 000000014004ec70     Colorpge.obj
 0002:0000ec70       $unwind$?WindowProc@_AFX_MOUSEANCHORWND@@UEAA_JI_K_J@Z 000000014004ec70     Stdafx.obj
 0002:0000ec84       $unwind$?ScrollToDevicePosition@CScrollView@@QEAAXUtagPOINT@@@Z 000000014004ec84     Shapesvw.obj
 0002:0000ec84       $unwind$?_AfxTopChildWindowFromPoint@CWnd@@SAPEAUHWND__@@PEAU2@UtagPOINT@@@Z 000000014004ec84     Colorpge.obj
 0002:0000ec94       $chain$0$?OnToolHitTest@CWnd@@UEBA_JVCPoint@WTL@@PEAUtagTOOLINFOW@@@Z 000000014004ec94     Colorpge.obj
 0002:0000eca8       $chain$1$?OnToolHitTest@CWnd@@UEBA_JVCPoint@WTL@@PEAUtagTOOLINFOW@@@Z 000000014004eca8     Colorpge.obj
 0002:0000ecb8       $unwind$?GetParent@CWnd@@QEAAPEAV1@XZ 000000014004ecb8     Colorpge.obj
 0002:0000ecb8       $unwind$?SetCapture@CWnd@@QEAAPEAV1@XZ 000000014004ecb8     Stdafx.obj
 0002:0000ecb8       $unwind$?GetDlgItem@CWnd@@QEAAPEAV1@H@Z 000000014004ecb8     Mainfrm.obj
 0002:0000ecb8       $unwind$?SetActiveWindow@CWnd@@QEAAPEAV1@XZ 000000014004ecb8     Mainfrm.obj
 0002:0000ecb8       $unwind$?GetLastActivePopup@CWnd@@QEAAPEAV1@XZ 000000014004ecb8     Mainfrm.obj
 0002:0000ecd0       $chain$3$?GetParent@CWnd@@QEAAPEAV1@XZ 000000014004ecd0     Colorpge.obj
 0002:0000ece4       $chain$4$?GetParent@CWnd@@QEAAPEAV1@XZ 000000014004ece4     Colorpge.obj
 0002:0000ece4       $chain$8$?GetParent@CWnd@@QEAAPEAV1@XZ 000000014004ece4     Colorpge.obj
 0002:0000ecf4       $chain$5$?GetParent@CWnd@@QEAAPEAV1@XZ 000000014004ecf4     Colorpge.obj
 0002:0000ed08       $chain$6$?GetParent@CWnd@@QEAAPEAV1@XZ 000000014004ed08     Colorpge.obj
 0002:0000ed1c       $chain$7$?GetParent@CWnd@@QEAAPEAV1@XZ 000000014004ed1c     Colorpge.obj
 0002:0000ed2c       $unwind$?WriteObject@CArchive@@QEAAXPEBVCObject@@@Z 000000014004ed2c     Shapedoc.obj
 0002:0000ed2c       $unwind$?Serialize@CShape@@UEAAXAEAVCArchive@@@Z 000000014004ed2c     Shapeobj.obj
 0002:0000ed2c       $unwind$?Enable@CCmdUI@@UEAAXH@Z 000000014004ed2c     Colorpge.obj
 0002:0000ed2c       $unwind$?PreTranslateMessage@CMDIChildWnd@@UEAAHPEAUtagMSG@@@Z 000000014004ed2c     Stdafx.obj
 0002:0000ed2c       $unwind$?SaveAllModified@CDocManager@@QEAAHXZ 000000014004ed2c     Mainfrm.obj
 0002:0000ed38       $chain$0$?Enable@CCmdUI@@UEAAXH@Z 000000014004ed38     Colorpge.obj
 0002:0000ed4c       $chain$1$?Enable@CCmdUI@@UEAAXH@Z 000000014004ed4c     Colorpge.obj
 0002:0000ed5c       $unwind$?AfxSetWindowText@CAfx@@SAXPEAUHWND__@@PEB_W@Z 000000014004ed5c     Colorpge.obj
 0002:0000ed70       $unwind$?OnCommand@CWnd@@UEAAH_K_J@Z 000000014004ed70     Colorpge.obj
 0002:0000ed88       $unwind$??_GCDCMTL@@UEAAPEAXI@Z 000000014004ed88     Colorpge.obj
 0002:0000ed9c       $stateUnwindMap$??_GCDCMTL@@UEAAPEAXI@Z 000000014004ed9c     Colorpge.obj
 0002:0000ed9c       $stateUnwindMap$??1CPaintDCMTL@@UEAA@XZ 000000014004ed9c     Preview.obj
 0002:0000ed9c       $stateUnwindMap$??1CWindowDCMTL@@UEAA@XZ 000000014004ed9c     Mainfrm.obj
 0002:0000ed9c       $stateUnwindMap$??1CDCMTL@@UEAA@XZ 000000014004ed9c     Colorpge.obj
 0002:0000ed9c       $stateUnwindMap$??1CPreviewDC@@UEAA@XZ 000000014004ed9c     Shapesvw.obj
 0002:0000ed9c       $stateUnwindMap$??1CClientDCMTL@@UEAA@XZ 000000014004ed9c     Mainfrm.obj
 0002:0000eda8       $ip2state$??_GCDCMTL@@UEAAPEAXI@Z 000000014004eda8     Colorpge.obj
 0002:0000edc0       $unwind$??1CDCMTL@@UEAA@XZ 000000014004edc0     Colorpge.obj
 0002:0000edd0       $ip2state$??1CDCMTL@@UEAA@XZ 000000014004edd0     Colorpge.obj
 0002:0000ede8       $unwind$__crtLCMapStringA  000000014004ede8     LIBCMT:a_map.obj
 0002:0000ede8       $unwind$?Create@CDockBar@@QEAAHPEAVCWnd@@KI@Z 000000014004ede8     Mainfrm.obj
 0002:0000ede8       $unwind$?OnNcDestroy@CWnd@@QEAAXXZ 000000014004ede8     Colorpge.obj
 0002:0000edf8       $unwind$?_ProcessWindowMessage@CWnd@@UEAAHPEAUHWND__@@I_K_JAEA_J@Z 000000014004edf8     Colorpge.obj
 0002:0000ee1c       $stateUnwindMap$?_ProcessWindowMessage@CPreviewView@@UEAAHPEAUHWND__@@I_K_JAEA_J@Z 000000014004ee1c     Stdafx.obj
 0002:0000ee1c       $stateUnwindMap$?_ProcessWindowMessage@CWnd@@UEAAHPEAUHWND__@@I_K_JAEA_J@Z 000000014004ee1c     Colorpge.obj
 0002:0000ee30       $ip2state$?_ProcessWindowMessage@CWnd@@UEAAHPEAUHWND__@@I_K_JAEA_J@Z 000000014004ee30     Colorpge.obj
 0002:0000ee50       $unwind$?ReflectChildNotify@CWnd@@QEAAHI_K_JPEA_J@Z 000000014004ee50     Colorpge.obj
 0002:0000ee50       $unwind$?DoModal@CPropertySheetMTL@@UEAA_JXZ 000000014004ee50     Propsht.obj
 0002:0000ee58       $chain$0$?ReflectChildNotify@CWnd@@QEAAHI_K_JPEA_J@Z 000000014004ee58     Colorpge.obj
 0002:0000ee6c       $chain$1$?ReflectChildNotify@CWnd@@QEAAHI_K_JPEA_J@Z 000000014004ee6c     Colorpge.obj
 0002:0000ee7c       $unwind$?OnNotify@CWnd@@UEAAH_K_JPEA_J@Z 000000014004ee7c     Colorpge.obj
 0002:0000ee94       $unwind$?Create@CWnd@@UEAAHPEB_W0KAEBUtagRECT@@PEAV1@IPEAUCCreateContext@@@Z 000000014004ee94     Colorpge.obj
 0002:0000ee94       $unwind$?CreateEx@CMiniFrameWnd@@UEAAHKPEB_W0KAEBUtagRECT@@PEAVCWnd@@I@Z 000000014004ee94     Mainfrm.obj
 0002:0000eeac       $unwind$?GetControlBar@CFrameWnd@@QEAAPEAVCControlBar@@I@Z 000000014004eeac     Mainfrm.obj
 0002:0000eeac       $unwind$?AtlWinModuleTerm@ATL@@YAJPEAU_ATL_WIN_MODULE70@1@PEAUHINSTANCE__@@@Z 000000014004eeac     Colorpge.obj
 0002:0000eeac       $unwind$?FillBuffer@CArchive@@QEAAXI@Z 000000014004eeac     Shapedoc.obj
 0002:0000eeb4       $chain$2$?AtlWinModuleTerm@ATL@@YAJPEAU_ATL_WIN_MODULE70@1@PEAUHINSTANCE__@@@Z 000000014004eeb4     Colorpge.obj
 0002:0000eed0       $chain$3$?AtlWinModuleTerm@ATL@@YAJPEAU_ATL_WIN_MODULE70@1@PEAUHINSTANCE__@@@Z 000000014004eed0     Colorpge.obj
 0002:0000eee0       $chain$4$?AtlWinModuleTerm@ATL@@YAJPEAU_ATL_WIN_MODULE70@1@PEAUHINSTANCE__@@@Z 000000014004eee0     Colorpge.obj
 0002:0000eefc       $unwind$?_AfxAbortProc@CPrintingDialog@@SAHPEAUHDC__@@H@Z 000000014004eefc     Shapesvw.obj
 0002:0000eefc       $unwind$??0CTime@@QEAA@AEBU_FILETIME@@H@Z 000000014004eefc     Shapedoc.obj
 0002:0000eefc       $unwind$?AfxWindowProc@CWMHnd@@SA_JPEAUHWND__@@I_K_J@Z 000000014004eefc     Colorpge.obj
 0002:0000ef04       $unwind$?FromHandle@?$CHandleHashList@PEAUHWND__@@VCWMHnd@@PEAU1@$0BB@@@QEAAPEAVCWMHnd@@QEAUHWND__@@PEAV2@0Q6APEAXPEAX2@Z@Z 000000014004ef04     Colorpge.obj
 0002:0000ef14       $chain$1$?FromHandle@?$CHandleHashList@PEAUHWND__@@VCWMHnd@@PEAU1@$0BB@@@QEAAPEAVCWMHnd@@QEAUHWND__@@PEAV2@0Q6APEAXPEAX2@Z@Z 000000014004ef14     Colorpge.obj
 0002:0000ef2c       $chain$2$?FromHandle@?$CHandleHashList@PEAUHWND__@@VCWMHnd@@PEAU1@$0BB@@@QEAAPEAVCWMHnd@@QEAUHWND__@@PEAV2@0Q6APEAXPEAX2@Z@Z 000000014004ef2c     Colorpge.obj
 0002:0000ef3c       $chain$3$?FromHandle@?$CHandleHashList@PEAUHWND__@@VCWMHnd@@PEAU1@$0BB@@@QEAAPEAVCWMHnd@@QEAUHWND__@@PEAV2@0Q6APEAXPEAX2@Z@Z 000000014004ef3c     Colorpge.obj
 0002:0000ef54       $chain$4$?FromHandle@?$CHandleHashList@PEAUHWND__@@VCWMHnd@@PEAU1@$0BB@@@QEAAPEAVCWMHnd@@QEAUHWND__@@PEAV2@0Q6APEAXPEAX2@Z@Z 000000014004ef54     Colorpge.obj
 0002:0000ef68       $chain$5$?FromHandle@?$CHandleHashList@PEAUHWND__@@VCWMHnd@@PEAU1@$0BB@@@QEAAPEAVCWMHnd@@QEAUHWND__@@PEAV2@0Q6APEAXPEAX2@Z@Z 000000014004ef68     Colorpge.obj
 0002:0000ef78       $unwind$??_GCWMHnd@@UEAAPEAXI@Z 000000014004ef78     Colorpge.obj
 0002:0000ef8c       $stateUnwindMap$??1CWnd@@UEAA@XZ 000000014004ef8c     Colorpge.obj
 0002:0000ef8c       $stateUnwindMap$??_GCWMHnd@@UEAAPEAXI@Z 000000014004ef8c     Colorpge.obj
 0002:0000ef98       $ip2state$??_GCWMHnd@@UEAAPEAXI@Z 000000014004ef98     Colorpge.obj
 0002:0000efb0       $unwind$?OnCreateClient@CMDIFrameWnd@@UEAAHPEAUtagCREATESTRUCTW@@PEAUCCreateContext@@@Z 000000014004efb0     Mainfrm.obj
 0002:0000efb0       $unwind$?SubclassWindow@CWMHnd@@QEAAHPEAUHWND__@@PEAUtagCREATESTRUCTW@@@Z 000000014004efb0     Colorpge.obj
 0002:0000efc0       $chain$0$?SubclassWindow@CWMHnd@@QEAAHPEAUHWND__@@PEAUtagCREATESTRUCTW@@@Z 000000014004efc0     Colorpge.obj
 0002:0000efd4       $chain$1$?SubclassWindow@CWMHnd@@QEAAHPEAUHWND__@@PEAUtagCREATESTRUCTW@@@Z 000000014004efd4     Colorpge.obj
 0002:0000efe4       $unwind$?CreateEx@CWnd@@UEAAHKPEB_W0KHHHHPEAUHWND__@@PEAUHMENU__@@PEAX@Z 000000014004efe4     Colorpge.obj
 0002:0000eff8       $chain$1$?CreateEx@CWnd@@UEAAHKPEB_W0KHHHHPEAUHWND__@@PEAUHMENU__@@PEAX@Z 000000014004eff8     Colorpge.obj
 0002:0000f00c       $chain$2$?CreateEx@CWnd@@UEAAHKPEB_W0KHHHHPEAUHWND__@@PEAUHMENU__@@PEAX@Z 000000014004f00c     Colorpge.obj
 0002:0000f01c       $chain$0$??1?$CList@PEAUCRuntimeClass@@AEBQEAU1@@@QEAA@XZ 000000014004f01c     Colorpge.obj
 0002:0000f01c       $chain$0$??1?$CList@PEAXPEAX@@QEAA@XZ 000000014004f01c     Mainfrm.obj
 0002:0000f01c       $chain$0$??1?$CList@PEAVCFrameWnd@@AEBQEAV1@@@QEAA@XZ 000000014004f01c     Propdlg.obj
 0002:0000f01c       $chain$0$??1?$CList@PEAUHWND__@@PEAU1@@@QEAA@XZ 000000014004f01c     Mainfrm.obj
 0002:0000f030       $chain$1$??1?$CList@PEAUCRuntimeClass@@AEBQEAU1@@@QEAA@XZ 000000014004f030     Colorpge.obj
 0002:0000f030       $chain$1$??1?$CList@PEAVCFrameWnd@@AEBQEAV1@@@QEAA@XZ 000000014004f030     Propdlg.obj
 0002:0000f030       $chain$1$??1?$CList@PEAXPEAX@@QEAA@XZ 000000014004f030     Mainfrm.obj
 0002:0000f030       $chain$1$??1?$CList@PEAUHWND__@@PEAU1@@@QEAA@XZ 000000014004f030     Mainfrm.obj
 0002:0000f040       $unwind$??1CModuleState@@QEAA@XZ 000000014004f040     Colorpge.obj
 0002:0000f050       $stateUnwindMap$??1CModuleState@@QEAA@XZ 000000014004f050     Colorpge.obj
 0002:0000f058       $ip2state$??1CModuleState@@QEAA@XZ 000000014004f058     Colorpge.obj
 0002:0000f070       $unwind$?AllocBuffer@CString@WTL@@IEAAHH@Z 000000014004f070     Colorpge.obj
 0002:0000f084       $stateUnwindMap$?AllocBuffer@CString@WTL@@IEAAHH@Z 000000014004f084     Colorpge.obj
 0002:0000f084       $stateUnwindMap$?ReadObject@CArchive@@QEAAPEAVCObject@@PEBUCRuntimeClass@@@Z 000000014004f084     Shapedoc.obj
 0002:0000f084       $stateUnwindMap$?OnFilePrintPreview@CView@@QEAAXXZ 000000014004f084     Shapesvw.obj
 0002:0000f084       $stateUnwindMap$?EnsureSchemaMapExists@CArchive@@QEAAXPEAPEAV?$CArray@W4LoadArrayObjType@CArchive@@AEBW412@@@@Z 000000014004f084     Shapedoc.obj
 0002:0000f094       $tryMap$?AllocBuffer@CString@WTL@@IEAAHH@Z 000000014004f094     Colorpge.obj
 0002:0000f0a8       $handlerMap$0$?AllocBuffer@CString@WTL@@IEAAHH@Z 000000014004f0a8     Colorpge.obj
 0002:0000f0c0       $ip2state$?AllocBuffer@CString@WTL@@IEAAHH@Z 000000014004f0c0     Colorpge.obj
 0002:0000f0e0       $unwind$?catch$0@?0??AllocBuffer@CString@WTL@@IEAAHH@Z@4HA 000000014004f0e0     Colorpge.obj
 0002:0000f0f0       $unwind$?ConcatCopy@CString@WTL@@IEAAHHPEB_WH0@Z 000000014004f0f0     Colorpge.obj
 0002:0000f104       $chain$0$?ConcatCopy@CString@WTL@@IEAAHHPEB_WH0@Z 000000014004f104     Colorpge.obj
 0002:0000f118       $chain$1$?ConcatCopy@CString@WTL@@IEAAHHPEB_WH0@Z 000000014004f118     Colorpge.obj
 0002:0000f12c       $chain$2$?ConcatCopy@CString@WTL@@IEAAHHPEB_WH0@Z 000000014004f12c     Colorpge.obj
 0002:0000f13c       $chain$3$?ConcatCopy@CString@WTL@@IEAAHHPEB_WH0@Z 000000014004f13c     Colorpge.obj
 0002:0000f14c       $unwind$_strdup            000000014004f14c     LIBCMT:strdup.obj
 0002:0000f14c       $unwind$?ConcatInPlace@CString@WTL@@IEAAXHPEB_W@Z 000000014004f14c     Colorpge.obj
 0002:0000f14c       $unwind$_wcsdup            000000014004f14c     LIBCMT:wcsdup.obj
 0002:0000f14c       $unwind$?ProcessShellCommand@CWinApp@@QEAAHAEAVCCommandLineInfo@@@Z 000000014004f14c     Propdlg.obj
 0002:0000f15c       $unwind$?AfxEndDeferRegisterClass@CAfx@@SAHJ@Z 000000014004f15c     Colorpge.obj
 0002:0000f16c       $chain$2$?AfxEndDeferRegisterClass@CAfx@@SAHJ@Z 000000014004f16c     Colorpge.obj
 0002:0000f188       $chain$4$?AfxEndDeferRegisterClass@CAfx@@SAHJ@Z 000000014004f188     Colorpge.obj
 0002:0000f1a0       $chain$5$?AfxEndDeferRegisterClass@CAfx@@SAHJ@Z 000000014004f1a0     Colorpge.obj
 0002:0000f1b0       $chain$6$?AfxEndDeferRegisterClass@CAfx@@SAHJ@Z 000000014004f1b0     Colorpge.obj
 0002:0000f1c8       $unwind$?RemoveOwner@?$CHandleList@PEAUHDC__@@VCDCMTL@@PEAUHWND__@@@@QEAAHQEAUHWND__@@@Z 000000014004f1c8     Colorpge.obj
 0002:0000f1c8       $unwind$?FromHandle@?$CHandleList@PEAUHMENU__@@VCMenuMTL@@PEAUHWND__@@@@QEAAPEAVCMenuMTL@@QEAUHMENU__@@PEAV2@QEAUHWND__@@Q6APEAXPEAX3@Z@Z 000000014004f1c8     Colorpge.obj
 0002:0000f1c8       $unwind$?RemoveOwner@?$CHandleList@PEAXXPEAUHWND__@@@@QEAAHQEAUHWND__@@@Z 000000014004f1c8     Colorpge.obj
 0002:0000f1c8       $unwind$?RemoveOwner@?$CHandleList@PEAUHMENU__@@VCMenuMTL@@PEAUHWND__@@@@QEAAHQEAUHWND__@@@Z 000000014004f1c8     Colorpge.obj
 0002:0000f1c8       $unwind$?RemoveOwner@?$CHandleList@PEAXVCGdiObject@@PEAUHWND__@@@@QEAAHQEAUHWND__@@@Z 000000014004f1c8     Colorpge.obj
 0002:0000f1d8       $chain$1$?FromHandle@?$CHandleList@PEAUHMENU__@@VCMenuMTL@@PEAUHWND__@@@@QEAAPEAVCMenuMTL@@QEAUHMENU__@@PEAV2@QEAUHWND__@@Q6APEAXPEAX3@Z@Z 000000014004f1d8     Colorpge.obj
 0002:0000f1f0       $chain$2$?FromHandle@?$CHandleList@PEAUHMENU__@@VCMenuMTL@@PEAUHWND__@@@@QEAAPEAVCMenuMTL@@QEAUHMENU__@@PEAV2@QEAUHWND__@@Q6APEAXPEAX3@Z@Z 000000014004f1f0     Colorpge.obj
 0002:0000f200       $chain$3$?FromHandle@?$CHandleList@PEAUHMENU__@@VCMenuMTL@@PEAUHWND__@@@@QEAAPEAVCMenuMTL@@QEAUHMENU__@@PEAV2@QEAUHWND__@@Q6APEAXPEAX3@Z@Z 000000014004f200     Colorpge.obj
 0002:0000f218       $unwind$??_GCMenuMTL@@UEAAPEAXI@Z 000000014004f218     Colorpge.obj
 0002:0000f22c       $stateUnwindMap$??_GCMenuMTL@@UEAAPEAXI@Z 000000014004f22c     Colorpge.obj
 0002:0000f22c       $stateUnwindMap$??1CMenuMTL@@UEAA@XZ 000000014004f22c     Colorpge.obj
 0002:0000f238       $ip2state$??_GCMenuMTL@@UEAAPEAXI@Z 000000014004f238     Colorpge.obj
 0002:0000f250       $unwind$??1CMenuMTL@@UEAA@XZ 000000014004f250     Colorpge.obj
 0002:0000f260       $ip2state$??1CMenuMTL@@UEAA@XZ 000000014004f260     Colorpge.obj
 0002:0000f278       $unwind$?_ProcessWindowMessage@CNewTypeDlg@@UEAAHPEAUHWND__@@I_K_JAEA_J@Z 000000014004f278     Propdlg.obj
 0002:0000f278       $unwind$?GetActivePage@CPropertySheetMTL@@QEBAPEAVCPropertyPageMTL@@XZ 000000014004f278     Propsht.obj
 0002:0000f278       $unwind$?ProcessWindowMessage@?$CPrintDialogImpl@VCPrintDialog@WTL@@@WTL@@UEAAHPEAUHWND__@@I_K_JAEA_JK@Z 000000014004f278     Propdlg.obj
 0002:0000f278       $unwind$?AfxHelpEnabled@@YAHXZ 000000014004f278     Colorpge.obj
 0002:0000f278       $unwind$?Create@CStatusBar@@UEAAHPEAVCWnd@@KI@Z 000000014004f278     Mainfrm.obj
 0002:0000f278       $unwind$_invalid_parameter_noinfo 000000014004f278     LIBCMT:invarg.obj
 0002:0000f278       $unwind$?_ProcessWindowMessage@_AFX_MOUSEANCHORWND@@UEAAHPEAUHWND__@@I_K_JAEA_J@Z 000000014004f278     Stdafx.obj
 0002:0000f278       $unwind$?DefWindowProcW@CWMHnd@@UEAA_JI_K_J@Z 000000014004f278     Colorpge.obj
 0002:0000f278       $unwind$_cfltcvt_l         000000014004f278     LIBCMT:cvt.obj
 0002:0000f278       $unwind$?DefWindowProcW@CMDIFrameWnd@@UEAA_JI_K_J@Z 000000014004f278     Mainfrm.obj
 0002:0000f278       $unwind$strtol             000000014004f278     LIBCMT:strtol.obj
 0002:0000f280       $unwind$?RemoveOwner@?$CHandleHashList@PEAUHWND__@@VCWMHnd@@PEAU1@$0BB@@@QEAAHQEAUHWND__@@@Z 000000014004f280     Colorpge.obj
 0002:0000f29c       $chain$1$?RemoveOwner@?$CHandleList@PEAUHMENU__@@VCMenuMTL@@PEAUHWND__@@@@QEAAHQEAUHWND__@@@Z 000000014004f29c     Colorpge.obj
 0002:0000f29c       $chain$1$?RemoveOwner@?$CHandleList@PEAXVCGdiObject@@PEAUHWND__@@@@QEAAHQEAUHWND__@@@Z 000000014004f29c     Colorpge.obj
 0002:0000f29c       $chain$1$?RemoveOwner@?$CHandleList@PEAUHDC__@@VCDCMTL@@PEAUHWND__@@@@QEAAHQEAUHWND__@@@Z 000000014004f29c     Colorpge.obj
 0002:0000f29c       $chain$1$?RemoveOwner@?$CHandleList@PEAXXPEAUHWND__@@@@QEAAHQEAUHWND__@@@Z 000000014004f29c     Colorpge.obj
 0002:0000f2b4       $chain$2$?RemoveOwner@?$CHandleList@PEAXXPEAUHWND__@@@@QEAAHQEAUHWND__@@@Z 000000014004f2b4     Colorpge.obj
 0002:0000f2b4       $chain$2$?RemoveOwner@?$CHandleList@PEAUHDC__@@VCDCMTL@@PEAUHWND__@@@@QEAAHQEAUHWND__@@@Z 000000014004f2b4     Colorpge.obj
 0002:0000f2b4       $chain$2$?RemoveOwner@?$CHandleList@PEAXVCGdiObject@@PEAUHWND__@@@@QEAAHQEAUHWND__@@@Z 000000014004f2b4     Colorpge.obj
 0002:0000f2b4       $chain$2$?RemoveOwner@?$CHandleList@PEAUHMENU__@@VCMenuMTL@@PEAUHWND__@@@@QEAAHQEAUHWND__@@@Z 000000014004f2b4     Colorpge.obj
 0002:0000f2c4       $unwind$?RemoveHandleWnd@CModuleThreadState@@QEAAPEAUHWND__@@PEAU2@@Z 000000014004f2c4     Colorpge.obj
 0002:0000f2d4       $unwind$??1CWnd@@UEAA@XZ   000000014004f2d4     Colorpge.obj
 0002:0000f2e8       $ip2state$??1CWnd@@UEAA@XZ 000000014004f2e8     Colorpge.obj
 0002:0000f300       $unwind$?GetFocus@CWnd@@SAPEAV1@XZ 000000014004f300     Stdafx.obj
 0002:0000f300       $unwind$?GetActiveWindow@CWnd@@SAPEAV1@XZ 000000014004f300     Colorpge.obj
 0002:0000f300       $unwind$?GetCapture@CWnd@@SAPEAV1@XZ 000000014004f300     Mainfrm.obj
 0002:0000f300       $unwind$?GetForegroundWindow@CWnd@@SAPEAV1@XZ 000000014004f300     Mainfrm.obj
 0002:0000f318       $chain$3$?GetActiveWindow@CWnd@@SAPEAV1@XZ 000000014004f318     Colorpge.obj
 0002:0000f32c       $chain$4$?GetActiveWindow@CWnd@@SAPEAV1@XZ 000000014004f32c     Colorpge.obj
 0002:0000f32c       $chain$8$?GetActiveWindow@CWnd@@SAPEAV1@XZ 000000014004f32c     Colorpge.obj
 0002:0000f33c       $chain$5$?GetActiveWindow@CWnd@@SAPEAV1@XZ 000000014004f33c     Colorpge.obj
 0002:0000f350       $chain$6$?GetActiveWindow@CWnd@@SAPEAV1@XZ 000000014004f350     Colorpge.obj
 0002:0000f364       $chain$7$?GetActiveWindow@CWnd@@SAPEAV1@XZ 000000014004f364     Colorpge.obj
 0002:0000f374       $unwind$?OnCmdMsg@CCmdTarget@@UEAAHIHPEAXPEAUAFX_CMDHANDLERINFO@@@Z 000000014004f374     Colorpge.obj
 0002:0000f380       $chain$0$?OnCmdMsg@CCmdTarget@@UEAAHIHPEAXPEAUAFX_CMDHANDLERINFO@@@Z 000000014004f380     Colorpge.obj
 0002:0000f394       $chain$1$?OnCmdMsg@CCmdTarget@@UEAAHIHPEAXPEAUAFX_CMDHANDLERINFO@@@Z 000000014004f394     Colorpge.obj
 0002:0000f3a4       $unwind$??0CPropertyPageMTL@@QEAA@IIK@Z 000000014004f3a4     Colorpge.obj
 0002:0000f3b8       $stateUnwindMap$??0CPropertyPageMTL@@QEAA@IIK@Z 000000014004f3b8     Colorpge.obj
 0002:0000f3d8       $ip2state$??0CPropertyPageMTL@@QEAA@IIK@Z 000000014004f3d8     Colorpge.obj
 0002:0000f408       $unwind$?_ProcessWindowMessage@CMainFrame@@UEAAHPEAUHWND__@@I_K_JAEA_J@Z 000000014004f408     Mainfrm.obj
 0002:0000f428       $unwind$??_GCMainFrame@@UEAAPEAXI@Z 000000014004f428     Mainfrm.obj
 0002:0000f43c       $stateUnwindMap$??_GCMainFrame@@UEAAPEAXI@Z 000000014004f43c     Mainfrm.obj
 0002:0000f450       $ip2state$??_GCMainFrame@@UEAAPEAXI@Z 000000014004f450     Mainfrm.obj
 0002:0000f470       $unwind$?OnCloseDocument@CDocument@@QEAAXXZ 000000014004f470     Mainfrm.obj
 0002:0000f470       $unwind$?GetTopLevelFrame@CWnd@@QEAAPEAVCFrameWnd@@XZ 000000014004f470     Mainfrm.obj
 0002:0000f470       $unwind$?OnCreate@CMainFrame@@QEAAHPEAUtagCREATESTRUCTW@@@Z 000000014004f470     Mainfrm.obj
 0002:0000f470       $unwind$??1CMultiDocTemplate@@UEAA@XZ 000000014004f470     Propdlg.obj
 0002:0000f470       $unwind$?OnDestroy@CView@@QEAAXXZ 000000014004f470     Shapesvw.obj
 0002:0000f470       $unwind$?LoadTemplate@CMultiDocTemplate@@UEAAXXZ 000000014004f470     Propdlg.obj
 0002:0000f470       $unwind$?AfxPropSheetCallback@CPropertySheetMTL@@SAHPEAUHWND__@@I_J@Z 000000014004f470     Propsht.obj
 0002:0000f478       $chain$0$?OnCreate@CMainFrame@@QEAAHPEAUtagCREATESTRUCTW@@@Z 000000014004f478     Mainfrm.obj
 0002:0000f48c       $chain$2$?OnCreate@CMainFrame@@QEAAHPEAUtagCREATESTRUCTW@@@Z 000000014004f48c     Mainfrm.obj
 0002:0000f4a0       $unwind$?OnMiniFramePropertySheet@CMainFrame@@QEAAXXZ 000000014004f4a0     Mainfrm.obj
 0002:0000f4b8       $stateUnwindMap$?OnMiniFramePropertySheet@CMainFrame@@QEAAXXZ 000000014004f4b8     Mainfrm.obj
 0002:0000f4c8       $ip2state$?OnMiniFramePropertySheet@CMainFrame@@QEAAXXZ 000000014004f4c8     Mainfrm.obj
 0002:0000f500       $unwind$?AllocElements@CStatusBar@@QEAAHHH@Z 000000014004f500     Mainfrm.obj
 0002:0000f510       $chain$0$?AllocElements@CStatusBar@@QEAAHHH@Z 000000014004f510     Mainfrm.obj
 0002:0000f524       $chain$1$?AllocElements@CStatusBar@@QEAAHHH@Z 000000014004f524     Mainfrm.obj
 0002:0000f538       $chain$2$?AllocElements@CStatusBar@@QEAAHHH@Z 000000014004f538     Mainfrm.obj
 0002:0000f548       $chain$3$?AllocElements@CStatusBar@@QEAAHHH@Z 000000014004f548     Mainfrm.obj
 0002:0000f558       $unwind$?SetIndicators@CStatusBar@@QEAAHPEBIH@Z 000000014004f558     Mainfrm.obj
 0002:0000f578       $stateUnwindMap$?SetIndicators@CStatusBar@@QEAAHPEBIH@Z 000000014004f578     Mainfrm.obj
 0002:0000f588       $ip2state$?SetIndicators@CStatusBar@@QEAAHPEBIH@Z 000000014004f588     Mainfrm.obj
 0002:0000f5b0       $unwind$?SetButtons@CToolBar@@QEAAHPEBIH@Z 000000014004f5b0     Mainfrm.obj
 0002:0000f5b0       $unwind$?OnIdle@CWinApp@@UEAAHH@Z 000000014004f5b0     Propdlg.obj
 0002:0000f5c8       $unwind$?AfxLoadSysColorBitmap@@YAPEAUHBITMAP__@@PEAUHINSTANCE__@@PEAUHRSRC__@@H@Z 000000014004f5c8     Mainfrm.obj
 0002:0000f5c8       $unwind$__crtGetShowWindowMode 000000014004f5c8     LIBCMT:winapisupp.obj
 0002:0000f5d0       $chain$2$?AfxLoadSysColorBitmap@@YAPEAUHBITMAP__@@PEAUHINSTANCE__@@PEAUHRSRC__@@H@Z 000000014004f5d0     Mainfrm.obj
 0002:0000f5ec       $chain$9$?AfxLoadSysColorBitmap@@YAPEAUHBITMAP__@@PEAUHINSTANCE__@@PEAUHRSRC__@@H@Z 000000014004f5ec     Mainfrm.obj
 0002:0000f61c       $chain$10$?AfxLoadSysColorBitmap@@YAPEAUHBITMAP__@@PEAUHINSTANCE__@@PEAUHRSRC__@@H@Z 000000014004f61c     Mainfrm.obj
 0002:0000f630       $unwind$?AddReplaceBitmap@CToolBar@@QEAAHPEAUHBITMAP__@@@Z 000000014004f630     Mainfrm.obj
 0002:0000f640       $unwind$?_GetEstablisherFrame@@YAPEA_KPEA_KPEAU_xDISPATCHER_CONTEXT@@PEBU_s_FuncInfo@@0@Z 000000014004f640     LIBCMT:trnsctrl.obj
 0002:0000f640       $unwind$?OnSetSizeHelper@CToolBar@@QEAA_JAEAVCSize@WTL@@_J@Z 000000014004f640     Mainfrm.obj
 0002:0000f640       $unwind$?OnScroll@CScrollView@@UEAAHIIH@Z 000000014004f640     Stdafx.obj
 0002:0000f658       $unwind$?OnPreserveSizingPolicyHelper@CToolBar@@QEAA_J_K_J@Z 000000014004f658     Mainfrm.obj
 0002:0000f670       $chain$0$?OnPreserveSizingPolicyHelper@CToolBar@@QEAA_J_K_J@Z 000000014004f670     Mainfrm.obj
 0002:0000f684       $chain$1$?OnPreserveSizingPolicyHelper@CToolBar@@QEAA_J_K_J@Z 000000014004f684     Mainfrm.obj
 0002:0000f694       $unwind$?OnToolHitTest@CToolBar@@UEBA_JVCPoint@WTL@@PEAUtagTOOLINFOW@@@Z 000000014004f694     Mainfrm.obj
 0002:0000f6a0       $chain$2$?OnToolHitTest@CToolBar@@UEBA_JVCPoint@WTL@@PEAUtagTOOLINFOW@@@Z 000000014004f6a0     Mainfrm.obj
 0002:0000f6bc       $chain$3$?OnToolHitTest@CToolBar@@UEBA_JVCPoint@WTL@@PEAUtagTOOLINFOW@@@Z 000000014004f6bc     Mainfrm.obj
 0002:0000f6cc       $chain$4$?OnToolHitTest@CToolBar@@UEBA_JVCPoint@WTL@@PEAUtagTOOLINFOW@@@Z 000000014004f6cc     Mainfrm.obj
 0002:0000f6e8       $unwind$?_ProcessWindowMessage@CControlBar@@UEAAHPEAUHWND__@@I_K_JAEA_J@Z 000000014004f6e8     Mainfrm.obj
 0002:0000f6e8       $unwind$?getSystemCP@@YAHH@Z 000000014004f6e8     LIBCMT:mbctype.obj
 0002:0000f6e8       $unwind$isleadbyte         000000014004f6e8     LIBCMT:_wctype.obj
 0002:0000f6e8       $unwind$?_ProcessWindowMessage@CMiniFrameWnd@@UEAAHPEAUHWND__@@I_K_JAEA_J@Z 000000014004f6e8     Minifrm.obj
 0002:0000f6e8       $unwind$?ExitInstance@CWinApp@@UEAAHXZ 000000014004f6e8     Propdlg.obj
 0002:0000f6e8       $unwind$??2@YAPEAX_K@Z     000000014004f6e8     LIBCMT:new.obj
 0002:0000f6e8       $unwind$_isleadbyte_l      000000014004f6e8     LIBCMT:_wctype.obj
 0002:0000f6e8       $unwind$_cropzeros_l       000000014004f6e8     LIBCMT:cvt.obj
 0002:0000f6e8       $unwind$isdigit            000000014004f6e8     LIBCMT:_ctype.obj
 0002:0000f6e8       $unwind$?OnBarStyleChange@CToolBar@@UEAAXKK@Z 000000014004f6e8     Mainfrm.obj
 0002:0000f6e8       $unwind$_forcdecpt_l       000000014004f6e8     LIBCMT:cvt.obj
 0002:0000f6f0       $unwind$?OnUpdateCmdUI@CToolBar@@UEAAXPEAVCFrameWnd@@H@Z 000000014004f6f0     Mainfrm.obj
 0002:0000f704       $chain$0$?OnUpdateCmdUI@CToolBar@@UEAAXPEAVCFrameWnd@@H@Z 000000014004f704     Mainfrm.obj
 0002:0000f718       $chain$1$?OnUpdateCmdUI@CToolBar@@UEAAXPEAVCFrameWnd@@H@Z 000000014004f718     Mainfrm.obj
 0002:0000f728       $unwind$?WrapToolBar@CToolBar@@QEAAHPEAU_TBBUTTON@@HH@Z 000000014004f728     Mainfrm.obj
 0002:0000f740       $unwind$?SizeToolBar@CToolBar@@QEAAXPEAU_TBBUTTON@@HHH@Z 000000014004f740     Mainfrm.obj
 0002:0000f758       $chain$0$?SizeToolBar@CToolBar@@QEAAXPEAU_TBBUTTON@@HHH@Z 000000014004f758     Mainfrm.obj
 0002:0000f76c       $chain$1$?SizeToolBar@CToolBar@@QEAAXPEAU_TBBUTTON@@HHH@Z 000000014004f76c     Mainfrm.obj
 0002:0000f77c       $unwind$?CalcSize@CToolBar@@QEAA?AVCSize@WTL@@PEAU_TBBUTTON@@H@Z 000000014004f77c     Mainfrm.obj
 0002:0000f790       $chain$1$?CalcSize@CToolBar@@QEAA?AVCSize@WTL@@PEAU_TBBUTTON@@H@Z 000000014004f790     Mainfrm.obj
 0002:0000f7a8       $chain$2$?CalcSize@CToolBar@@QEAA?AVCSize@WTL@@PEAU_TBBUTTON@@H@Z 000000014004f7a8     Mainfrm.obj
 0002:0000f7b8       $unwind$?_SetButton@CToolBar@@QEAAXHPEAU_TBBUTTON@@@Z 000000014004f7b8     Mainfrm.obj
 0002:0000f7c8       $chain$1$?_SetButton@CToolBar@@QEAAXHPEAU_TBBUTTON@@@Z 000000014004f7c8     Mainfrm.obj
 0002:0000f7e0       $chain$2$?_SetButton@CToolBar@@QEAAXHPEAU_TBBUTTON@@@Z 000000014004f7e0     Mainfrm.obj
 0002:0000f7f0       $unwind$?CalcLayout@CToolBar@@QEAA?AVCSize@WTL@@KH@Z 000000014004f7f0     Mainfrm.obj
 0002:0000f80c       $unwind$__initconout       000000014004f80c     LIBCMT:initcon.obj
 0002:0000f80c       $unwind$_cfltcvt           000000014004f80c     LIBCMT:cvt.obj
 0002:0000f80c       $unwind$?OnBarStyleChange@CStatusBar@@UEAAXKK@Z 000000014004f80c     Mainfrm.obj
 0002:0000f80c       $unwind$?Create@CMiniFrameWnd@@UEAAHPEB_W0KAEBUtagRECT@@PEAVCWnd@@I@Z 000000014004f80c     Minifrm.obj
 0002:0000f80c       $unwind$?TextOutW@CPreviewDC@@UEAAHHHPEB_WH@Z 000000014004f80c     Shapesvw.obj
 0002:0000f80c       $unwind$?Create@CToolBar@@UEAAHPEAVCWnd@@KI@Z 000000014004f80c     Mainfrm.obj
 0002:0000f814       $unwind$?_AfxGetDropDownWidth@CToolBar@@SAHXZ 000000014004f814     Mainfrm.obj
 0002:0000f814       $unwind$?CreateClient@CMDIFrameWnd@@UEAAHPEAUtagCREATESTRUCTW@@PEAVCMenuMTL@@@Z 000000014004f814     Mainfrm.obj
 0002:0000f81c       $chain$2$?_AfxGetDropDownWidth@CToolBar@@SAHXZ 000000014004f81c     Mainfrm.obj
 0002:0000f838       $chain$3$?_AfxGetDropDownWidth@CToolBar@@SAHXZ 000000014004f838     Mainfrm.obj
 0002:0000f848       $unwind$?SetSizes@CToolBar@@QEAAXUtagSIZE@@0@Z 000000014004f848     Mainfrm.obj
 0002:0000f848       $unwind$?OnSetCursor@CPreviewView@@QEAAHPEAVCWnd@@II@Z 000000014004f848     Stdafx.obj
 0002:0000f850       $unwind$?CreateEx@CToolBar@@UEAAHPEAVCWnd@@KKVCRect@WTL@@I@Z 000000014004f850     Mainfrm.obj
 0002:0000f850       $unwind$?CreateEx@CStatusBar@@UEAAHPEAVCWnd@@KKI@Z 000000014004f850     Mainfrm.obj
 0002:0000f864       $unwind$?OnGetText@CStatusBar@@QEAAHHPEA_W@Z 000000014004f864     Mainfrm.obj
 0002:0000f874       $unwind$??1CWindowDCMTL@@UEAA@XZ 000000014004f874     Mainfrm.obj
 0002:0000f888       $ip2state$??1CWindowDCMTL@@UEAA@XZ 000000014004f888     Mainfrm.obj
 0002:0000f8a0       $unwind$?DrawBorders@CControlBar@@QEAAXPEAVCDCMTL@@AEAVCRect@WTL@@@Z 000000014004f8a0     Mainfrm.obj
 0002:0000f8b0       $chain$4$?DrawBorders@CControlBar@@QEAAXPEAVCDCMTL@@AEAVCRect@WTL@@@Z 000000014004f8b0     Mainfrm.obj
 0002:0000f8d4       $chain$5$?DrawBorders@CControlBar@@QEAAXPEAVCDCMTL@@AEAVCRect@WTL@@@Z 000000014004f8d4     Mainfrm.obj
 0002:0000f8ec       $chain$6$?DrawBorders@CControlBar@@QEAAXPEAVCDCMTL@@AEAVCRect@WTL@@@Z 000000014004f8ec     Mainfrm.obj
 0002:0000f900       $chain$7$?DrawBorders@CControlBar@@QEAAXPEAVCDCMTL@@AEAVCRect@WTL@@@Z 000000014004f900     Mainfrm.obj
 0002:0000f910       $unwind$?FillSolidRect@?$CDCT@$00@WTL@@QEAAXHHHHK@Z 000000014004f910     Mainfrm.obj
 0002:0000f91c       $unwind$?Draw3dRect@?$CDCT@$00@WTL@@QEAAXHHHHKK@Z 000000014004f91c     Mainfrm.obj
 0002:0000f938       $unwind$?EraseNonClient@CControlBar@@QEAAXXZ 000000014004f938     Mainfrm.obj
 0002:0000f960       $stateUnwindMap$?EraseNonClient@CControlBar@@QEAAXXZ 000000014004f960     Mainfrm.obj
 0002:0000f970       $ip2state$?EraseNonClient@CControlBar@@QEAAXXZ 000000014004f970     Mainfrm.obj
 0002:0000f998       $unwind$?OnSetText@CStatusBar@@QEAAHPEB_W@Z 000000014004f998     Mainfrm.obj
 0002:0000f9a4       $chain$2$?OnSetText@CStatusBar@@QEAAHPEB_W@Z 000000014004f9a4     Mainfrm.obj
 0002:0000f9c0       $chain$4$?OnSetText@CStatusBar@@QEAAHPEB_W@Z 000000014004f9c0     Mainfrm.obj
 0002:0000f9dc       $unwind$?_ProcessWindowMessage@CStatusBar@@UEAAHPEAUHWND__@@I_K_JAEA_J@Z 000000014004f9dc     Mainfrm.obj
 0002:0000f9dc       $unwind$?OnPreviewClose@CPreviewView@@QEAAXXZ 000000014004f9dc     Shapesvw.obj
 0002:0000f9e4       $chain$0$?_ProcessWindowMessage@CStatusBar@@UEAAHPEAUHWND__@@I_K_JAEA_J@Z 000000014004f9e4     Mainfrm.obj
 0002:0000f9f8       $chain$1$?_ProcessWindowMessage@CStatusBar@@UEAAHPEAUHWND__@@I_K_JAEA_J@Z 000000014004f9f8     Mainfrm.obj
 0002:0000fa08       $unwind$?OnCreate@CControlBar@@QEAAHPEAUtagCREATESTRUCTW@@@Z 000000014004fa08     Mainfrm.obj
 0002:0000fa14       $chain$1$?OnCreate@CControlBar@@QEAAHPEAUtagCREATESTRUCTW@@@Z 000000014004fa14     Mainfrm.obj
 0002:0000fa28       $chain$2$?OnCreate@CControlBar@@QEAAHPEAUtagCREATESTRUCTW@@@Z 000000014004fa28     Mainfrm.obj
 0002:0000fa38       $unwind$__free_lconv_num   000000014004fa38     LIBCMT:initnum.obj
 0002:0000fa38       $unwind$?UpdateAllViews@CDocument@@QEAAXPEAVCView@@_JPEAVCObject@@@Z 000000014004fa38     Shapedoc.obj
 0002:0000fa38       $unwind$?OnLButtonDown@CControlBar@@QEAAXIVCPoint@WTL@@@Z 000000014004fa38     Mainfrm.obj
 0002:0000fa38       $unwind$free               000000014004fa38     LIBCMT:free.obj
 0002:0000fa38       $unwind$?OnChangeObjectProps@CShapesView@@IEAA_J_K_J@Z 000000014004fa38     Shapesvw.obj
 0002:0000fa40       $unwind$?ReDockControlBar@CDockBar@@QEAAXPEAVCControlBar@@PEBUtagRECT@@@Z 000000014004fa40     Mainfrm.obj
 0002:0000fa54       $chain$0$?ReDockControlBar@CDockBar@@QEAAXPEAVCControlBar@@PEBUtagRECT@@@Z 000000014004fa54     Mainfrm.obj
 0002:0000fa68       $chain$1$?ReDockControlBar@CDockBar@@QEAAXPEAVCControlBar@@PEBUtagRECT@@@Z 000000014004fa68     Mainfrm.obj
 0002:0000fa7c       $chain$2$?ReDockControlBar@CDockBar@@QEAAXPEAVCControlBar@@PEBUtagRECT@@@Z 000000014004fa7c     Mainfrm.obj
 0002:0000fa8c       $chain$3$?ReDockControlBar@CDockBar@@QEAAXPEAVCControlBar@@PEBUtagRECT@@@Z 000000014004fa8c     Mainfrm.obj
 0002:0000fa9c       $unwind$?ReDockControlBar@CFrameWnd@@QEAAXPEAVCControlBar@@PEAVCDockBar@@PEBUtagRECT@@@Z 000000014004fa9c     Mainfrm.obj
 0002:0000faac       $chain$3$?ReDockControlBar@CFrameWnd@@QEAAXPEAVCControlBar@@PEAVCDockBar@@PEBUtagRECT@@@Z 000000014004faac     Mainfrm.obj
 0002:0000facc       $chain$4$?ReDockControlBar@CFrameWnd@@QEAAXPEAVCControlBar@@PEAVCDockBar@@PEBUtagRECT@@@Z 000000014004facc     Mainfrm.obj
 0002:0000fadc       $unwind$?ToggleDocking@CDockContext@@QEAAXXZ 000000014004fadc     Mainfrm.obj
 0002:0000fae8       $unwind$?OnTimer@CControlBar@@QEAAX_K@Z 000000014004fae8     Mainfrm.obj
 0002:0000faf4       $chain$5$?OnTimer@CControlBar@@QEAAX_K@Z 000000014004faf4     Mainfrm.obj
 0002:0000fb1c       $chain$6$?OnTimer@CControlBar@@QEAAX_K@Z 000000014004fb1c     Mainfrm.obj
 0002:0000fb30       $chain$7$?OnTimer@CControlBar@@QEAAX_K@Z 000000014004fb30     Mainfrm.obj
 0002:0000fb40       $unwind$?OnSizeParent@CControlBar@@QEAA_J_K_J@Z 000000014004fb40     Mainfrm.obj
 0002:0000fb40       $unwind$?OnSetPreviewMode@CFrameWnd@@UEAAXHPEAUCPrintPreviewState@@@Z 000000014004fb40     Mainfrm.obj
 0002:0000fb4c       $chain$2$?OnSizeParent@CControlBar@@QEAA_J_K_J@Z 000000014004fb4c     Mainfrm.obj
 0002:0000fb68       $chain$3$?OnSizeParent@CControlBar@@QEAA_J_K_J@Z 000000014004fb68     Mainfrm.obj
 0002:0000fb78       $unwind$?OnIdleUpdateCmdUI@CControlBar@@QEAA_J_K_J@Z 000000014004fb78     Mainfrm.obj
 0002:0000fb84       $chain$0$?OnIdleUpdateCmdUI@CControlBar@@QEAA_J_K_J@Z 000000014004fb84     Mainfrm.obj
 0002:0000fb98       $chain$1$?OnIdleUpdateCmdUI@CControlBar@@QEAA_J_K_J@Z 000000014004fb98     Mainfrm.obj
 0002:0000fba8       $unwind$?__SehTransFilter@@YAHPEAU_EXCEPTION_POINTERS@@PEAUEHExceptionRecord@@PEA_KPEAU_CONTEXT@@PEAU_xDISPATCHER_CONTEXT@@PEBU_s_FuncInfo@@PEAH@Z 000000014004fba8     LIBCMT:trnsctrl.obj
 0002:0000fba8       $unwind$?WindowProc@CControlBar@@UEAA_JI_K_J@Z 000000014004fba8     Mainfrm.obj
 0002:0000fba8       $unwind$?ShowControlBar@CFrameWnd@@QEAAXPEAVCControlBar@@HH@Z 000000014004fba8     Mainfrm.obj
 0002:0000fba8       $unwind$?OnFloatStatus@CMiniFrameWnd@@QEAA_J_K_J@Z 000000014004fba8     Minifrm.obj
 0002:0000fba8       $unwind$_strnicmp_l        000000014004fba8     LIBCMT:strnicmp.obj
 0002:0000fbbc       $chain$3$?GetCapture@CWnd@@SAPEAV1@XZ 000000014004fbbc     Mainfrm.obj
 0002:0000fbd0       $chain$4$?GetCapture@CWnd@@SAPEAV1@XZ 000000014004fbd0     Mainfrm.obj
 0002:0000fbd0       $chain$8$?GetCapture@CWnd@@SAPEAV1@XZ 000000014004fbd0     Mainfrm.obj
 0002:0000fbe0       $chain$5$?GetCapture@CWnd@@SAPEAV1@XZ 000000014004fbe0     Mainfrm.obj
 0002:0000fbf4       $chain$6$?GetCapture@CWnd@@SAPEAV1@XZ 000000014004fbf4     Mainfrm.obj
 0002:0000fc08       $chain$7$?GetCapture@CWnd@@SAPEAV1@XZ 000000014004fc08     Mainfrm.obj
 0002:0000fc18       $unwind$?Create@CMiniDockFrameWnd@@QEAAHPEAVCWnd@@K@Z 000000014004fc18     Mainfrm.obj
 0002:0000fc38       $stateUnwindMap$?Create@CMiniDockFrameWnd@@QEAAHPEAVCWnd@@K@Z 000000014004fc38     Mainfrm.obj
 0002:0000fc40       $ip2state$?Create@CMiniDockFrameWnd@@QEAAHPEAVCWnd@@K@Z 000000014004fc40     Mainfrm.obj
 0002:0000fc58       $chain$3$?GetDlgItem@CWnd@@QEAAPEAV1@H@Z 000000014004fc58     Mainfrm.obj
 0002:0000fc6c       $chain$4$?GetDlgItem@CWnd@@QEAAPEAV1@H@Z 000000014004fc6c     Mainfrm.obj
 0002:0000fc6c       $chain$8$?GetDlgItem@CWnd@@QEAAPEAV1@H@Z 000000014004fc6c     Mainfrm.obj
 0002:0000fc7c       $chain$5$?GetDlgItem@CWnd@@QEAAPEAV1@H@Z 000000014004fc7c     Mainfrm.obj
 0002:0000fc90       $chain$6$?GetDlgItem@CWnd@@QEAAPEAV1@H@Z 000000014004fc90     Mainfrm.obj
 0002:0000fca4       $chain$7$?GetDlgItem@CWnd@@QEAAPEAV1@H@Z 000000014004fca4     Mainfrm.obj
 0002:0000fcb4       $chain$0$?GetParentOwner@CWnd@@QEAAPEAV1@XZ 000000014004fcb4     Mainfrm.obj
 0002:0000fcc8       $chain$4$?GetParentOwner@CWnd@@QEAAPEAV1@XZ 000000014004fcc8     Mainfrm.obj
 0002:0000fce4       $chain$6$?GetParentOwner@CWnd@@QEAAPEAV1@XZ 000000014004fce4     Mainfrm.obj
 0002:0000fcfc       $chain$7$?GetParentOwner@CWnd@@QEAAPEAV1@XZ 000000014004fcfc     Mainfrm.obj
 0002:0000fcfc       $chain$11$?GetParentOwner@CWnd@@QEAAPEAV1@XZ 000000014004fcfc     Mainfrm.obj
 0002:0000fd0c       $chain$8$?GetParentOwner@CWnd@@QEAAPEAV1@XZ 000000014004fd0c     Mainfrm.obj
 0002:0000fd24       $chain$9$?GetParentOwner@CWnd@@QEAAPEAV1@XZ 000000014004fd24     Mainfrm.obj
 0002:0000fd38       $chain$10$?GetParentOwner@CWnd@@QEAAPEAV1@XZ 000000014004fd38     Mainfrm.obj
 0002:0000fd48       $chain$12$?GetParentOwner@CWnd@@QEAAPEAV1@XZ 000000014004fd48     Mainfrm.obj
 0002:0000fd58       $unwind$__crtGetStringTypeA 000000014004fd58     LIBCMT:a_str.obj
 0002:0000fd58       $unwind$?OnInitDialog@CModalShapePropSheet@@UEAAHXZ 000000014004fd58     Propsht.obj
 0002:0000fd58       $unwind$?Create@CToolTipCtrlMTL@@QEAAHPEAVCWnd@@K@Z 000000014004fd58     Mainfrm.obj
 0002:0000fd58       $unwind$?Load@CRuntimeClass@@SAPEAU1@AEAVCArchive@@PEAI@Z 000000014004fd58     Shapedoc.obj
 0002:0000fd58       $unwind$__crtCompareStringA 000000014004fd58     LIBCMT:a_cmp.obj
 0002:0000fd68       $unwind$?_AfxRelayToolTipMessage@CWnd@@SAXPEAVCToolTipCtrlMTL@@PEAUtagMSG@@@Z 000000014004fd68     Mainfrm.obj
 0002:0000fd74       $unwind$?FilterToolTipMessage@CWnd@@QEAAXPEAUtagMSG@@@Z 000000014004fd74     Mainfrm.obj
 0002:0000fd8c       $unwind$?_EnableToolTips@CWnd@@QEAAHHI@Z 000000014004fd8c     Mainfrm.obj
 0002:0000fd98       $chain$0$?_EnableToolTips@CWnd@@QEAAHHI@Z 000000014004fd98     Mainfrm.obj
 0002:0000fdac       $chain$1$?_EnableToolTips@CWnd@@QEAAHHI@Z 000000014004fdac     Mainfrm.obj
 0002:0000fdbc       $unwind$?InsertAt@?$CArray@W4LoadArrayObjType@CArchive@@AEBW412@@@QEAAX_JAEBW4LoadArrayObjType@CArchive@@0@Z 000000014004fdbc     Shapedoc.obj
 0002:0000fdbc       $unwind$?InsertAt@?$CArray@PEAXAEBQEAX@@QEAAX_JAEBQEAX0@Z 000000014004fdbc     Mainfrm.obj
 0002:0000fdd0       $unwind$?Insert@CDockBar@@QEAAHPEAVCControlBar@@VCRect@WTL@@VCPoint@4@@Z 000000014004fdd0     Mainfrm.obj
 0002:0000fde8       $unwind$?SetSize@?$CArray@PEAXAEBQEAX@@QEAAX_J0@Z 000000014004fde8     Mainfrm.obj
 0002:0000fde8       $unwind$?SetSize@?$CArray@HAEBH@@QEAAX_J0@Z 000000014004fde8     Mainfrm.obj
 0002:0000fde8       $unwind$?SetSize@?$CArray@W4LoadArrayObjType@CArchive@@AEBW412@@@QEAAX_J0@Z 000000014004fde8     Shapedoc.obj
 0002:0000fdf8       $chain$0$?SetSize@?$CArray@PEAXAEBQEAX@@QEAAX_J0@Z 000000014004fdf8     Mainfrm.obj
 0002:0000fe0c       $chain$1$?SetSize@?$CArray@PEAXAEBQEAX@@QEAAX_J0@Z 000000014004fe0c     Mainfrm.obj
 0002:0000fe1c       $unwind$?SetParent@CWnd@@QEAAPEAV1@PEAV1@@Z 000000014004fe1c     Mainfrm.obj
 0002:0000fe34       $chain$3$?SetParent@CWnd@@QEAAPEAV1@PEAV1@@Z 000000014004fe34     Mainfrm.obj
 0002:0000fe48       $chain$4$?SetParent@CWnd@@QEAAPEAV1@PEAV1@@Z 000000014004fe48     Mainfrm.obj
 0002:0000fe48       $chain$8$?SetParent@CWnd@@QEAAPEAV1@PEAV1@@Z 000000014004fe48     Mainfrm.obj
 0002:0000fe58       $chain$5$?SetParent@CWnd@@QEAAPEAV1@PEAV1@@Z 000000014004fe58     Mainfrm.obj
 0002:0000fe6c       $chain$6$?SetParent@CWnd@@QEAAPEAV1@PEAV1@@Z 000000014004fe6c     Mainfrm.obj
 0002:0000fe80       $chain$7$?SetParent@CWnd@@QEAAPEAV1@PEAV1@@Z 000000014004fe80     Mainfrm.obj
 0002:0000fe90       $unwind$?DockControlBar@CDockBar@@QEAAXPEAVCControlBar@@PEBUtagRECT@@@Z 000000014004fe90     Mainfrm.obj
 0002:0000fea0       $chain$0$?DockControlBar@CDockBar@@QEAAXPEAVCControlBar@@PEBUtagRECT@@@Z 000000014004fea0     Mainfrm.obj
 0002:0000feb4       $chain$3$?DockControlBar@CDockBar@@QEAAXPEAVCControlBar@@PEBUtagRECT@@@Z 000000014004feb4     Mainfrm.obj
 0002:0000fed0       $chain$4$?DockControlBar@CDockBar@@QEAAXPEAVCControlBar@@PEBUtagRECT@@@Z 000000014004fed0     Mainfrm.obj
 0002:0000fee8       $chain$5$?DockControlBar@CDockBar@@QEAAXPEAVCControlBar@@PEBUtagRECT@@@Z 000000014004fee8     Mainfrm.obj
 0002:0000fef8       $chain$6$?DockControlBar@CDockBar@@QEAAXPEAVCControlBar@@PEBUtagRECT@@@Z 000000014004fef8     Mainfrm.obj
 0002:0000ff08       $unwind$?FloatControlBar@CFrameWnd@@QEAAXPEAVCControlBar@@VCPoint@WTL@@K@Z 000000014004ff08     Mainfrm.obj
 0002:0000ff1c       $chain$0$?RemovePlaceHolder@CDockBar@@QEAAXPEAVCControlBar@@@Z 000000014004ff1c     Mainfrm.obj
 0002:0000ff30       $chain$1$?RemovePlaceHolder@CDockBar@@QEAAXPEAVCControlBar@@@Z 000000014004ff30     Mainfrm.obj
 0002:0000ff40       $unwind$?RemoveControlBar@CDockBar@@QEAAHPEAVCControlBar@@HH@Z 000000014004ff40     Mainfrm.obj
 0002:0000ff4c       $chain$3$?RemoveControlBar@CDockBar@@QEAAHPEAVCControlBar@@HH@Z 000000014004ff4c     Mainfrm.obj
 0002:0000ff6c       $chain$4$?RemoveControlBar@CDockBar@@QEAAHPEAVCControlBar@@HH@Z 000000014004ff6c     Mainfrm.obj
 0002:0000ff84       $unwind$??1CControlBar@@UEAA@XZ 000000014004ff84     Mainfrm.obj
 0002:0000ff94       $stateUnwindMap$??1CView@@UEAA@XZ 000000014004ff94     Shapesvw.obj
 0002:0000ff94       $stateUnwindMap$??_GCShapesView@@UEAAPEAXI@Z 000000014004ff94     Shapesvw.obj
 0002:0000ff94       $stateUnwindMap$??1CControlBar@@UEAA@XZ 000000014004ff94     Mainfrm.obj
 0002:0000ff94       $stateUnwindMap$??_GCView@@UEAAPEAXI@Z 000000014004ff94     Shapesvw.obj
 0002:0000ffa0       $ip2state$??1CControlBar@@UEAA@XZ 000000014004ffa0     Mainfrm.obj
 0002:0000ffb8       $unwind$?PreTranslateMessage@CControlBar@@UEAAHPEAUtagMSG@@@Z 000000014004ffb8     Mainfrm.obj
 0002:0000ffc8       $chain$0$?PreTranslateMessage@CControlBar@@UEAAHPEAUtagMSG@@@Z 000000014004ffc8     Mainfrm.obj
 0002:0000ffdc       $chain$3$?PreTranslateMessage@CControlBar@@UEAAHPEAUtagMSG@@@Z 000000014004ffdc     Mainfrm.obj
 0002:0000fff8       $chain$4$?PreTranslateMessage@CControlBar@@UEAAHPEAUtagMSG@@@Z 000000014004fff8     Mainfrm.obj
 0002:00010008       $chain$5$?PreTranslateMessage@CControlBar@@UEAAHPEAUtagMSG@@@Z 0000000140050008     Mainfrm.obj
 0002:00010018       $chain$0$?SetSize@?$CArray@HAEBH@@QEAAX_J0@Z 0000000140050018     Mainfrm.obj
 0002:00010018       $chain$0$?SetSize@?$CArray@W4LoadArrayObjType@CArchive@@AEBW412@@@QEAAX_J0@Z 0000000140050018     Shapedoc.obj
 0002:0001002c       $chain$1$?SetSize@?$CArray@W4LoadArrayObjType@CArchive@@AEBW412@@@QEAAX_J0@Z 000000014005002c     Shapedoc.obj
 0002:0001002c       $chain$1$?SetSize@?$CArray@HAEBH@@QEAAX_J0@Z 000000014005002c     Mainfrm.obj
 0002:0001003c       $unwind$?UpdateAllPanes@CStatusBar@@QEAAXHH@Z 000000014005003c     Mainfrm.obj
 0002:00010060       $stateUnwindMap$?UpdateAllPanes@CStatusBar@@QEAAXHH@Z 0000000140050060     Mainfrm.obj
 0002:00010068       $ip2state$?UpdateAllPanes@CStatusBar@@QEAAXHH@Z 0000000140050068     Mainfrm.obj
 0002:00010080       $unwind$?SetPaneStyle@CStatusBar@@QEAAXHI@Z 0000000140050080     Mainfrm.obj
 0002:00010080       $unwind$?OnEndPrintPreview@CView@@UEAAXPEAVCDCMTL@@PEAUCPrintInfo@@UtagPOINT@@PEAVCPreviewView@@@Z 0000000140050080     Shapesvw.obj
 0002:00010098       $unwind$?DoModal@CFileDialogMTL@@UEAA_JXZ 0000000140050098     Propdlg.obj
 0002:00010098       $unwind$?OnSetDefID@CPropertySheetMTL@@QEAA_J_K_J@Z 0000000140050098     Propsht.obj
 0002:00010098       $unwind$?_ProcessWindowMessage@CWinApp@@UEAAHPEAUHWND__@@I_K_JAEA_J@Z 0000000140050098     Propdlg.obj
 0002:00010098       $unwind$?DoPrintDialog@CWinApp@@QEAA_JPEAVCPrintDialogMTL@@@Z 0000000140050098     Propdlg.obj
 0002:00010098       $unwind$?SetPaneText@CStatusBar@@QEAAHHPEB_WH@Z 0000000140050098     Mainfrm.obj
 0002:00010098       $unwind$_recalloc_crt      0000000140050098     LIBCMT:crtheap.obj
 0002:000100b0       $unwind$?UpdateDialogControls@CWnd@@QEAAXPEAVCCmdTarget@@H@Z 00000001400500b0     Mainfrm.obj
 0002:000100d4       $stateUnwindMap$?UpdateDialogControls@CWnd@@QEAAXPEAVCCmdTarget@@H@Z 00000001400500d4     Mainfrm.obj
 0002:000100e8       $ip2state$?UpdateDialogControls@CWnd@@QEAAXPEAVCCmdTarget@@H@Z 00000001400500e8     Mainfrm.obj
 0002:00010110       $unwind$?OnUpdateCmdUI@CStatusBar@@UEAAXPEAVCFrameWnd@@H@Z 0000000140050110     Mainfrm.obj
 0002:00010120       $chain$1$?OnUpdateCmdUI@CStatusBar@@UEAAXPEAVCFrameWnd@@H@Z 0000000140050120     Mainfrm.obj
 0002:00010138       $chain$2$?OnUpdateCmdUI@CStatusBar@@UEAAXPEAVCFrameWnd@@H@Z 0000000140050138     Mainfrm.obj
 0002:00010148       $unwind$??1CClientDCMTL@@UEAA@XZ 0000000140050148     Mainfrm.obj
 0002:00010158       $ip2state$??1CClientDCMTL@@UEAA@XZ 0000000140050158     Mainfrm.obj
 0002:00010170       $unwind$?CalcFixedLayout@CStatusBar@@UEAA?AVCSize@WTL@@HH@Z 0000000140050170     Mainfrm.obj
 0002:00010198       $stateUnwindMap$?CalcFixedLayout@CStatusBar@@UEAA?AVCSize@WTL@@HH@Z 0000000140050198     Mainfrm.obj
 0002:000101a0       $ip2state$?CalcFixedLayout@CStatusBar@@UEAA?AVCSize@WTL@@HH@Z 00000001400501a0     Mainfrm.obj
 0002:000101b8       $unwind$??0CFrameWnd@@QEAA@XZ 00000001400501b8     Mainfrm.obj
 0002:000101c8       $stateUnwindMap$??0CFrameWnd@@QEAA@XZ 00000001400501c8     Mainfrm.obj
 0002:000101e0       $ip2state$??0CFrameWnd@@QEAA@XZ 00000001400501e0     Mainfrm.obj
 0002:00010208       $chain$0$?OnCreateClient@CMDIFrameWnd@@UEAAHPEAUtagCREATESTRUCTW@@PEAUCCreateContext@@@Z 0000000140050208     Mainfrm.obj
 0002:0001021c       $chain$1$?OnCreateClient@CMDIFrameWnd@@UEAAHPEAUtagCREATESTRUCTW@@PEAUCCreateContext@@@Z 000000014005021c     Mainfrm.obj
 0002:0001022c       $chain$2$?CreateClient@CMDIFrameWnd@@UEAAHPEAUtagCREATESTRUCTW@@PEAVCMenuMTL@@@Z 000000014005022c     Mainfrm.obj
 0002:00010248       $chain$3$?CreateClient@CMDIFrameWnd@@UEAAHPEAUtagCREATESTRUCTW@@PEAVCMenuMTL@@@Z 0000000140050248     Mainfrm.obj
 0002:0001025c       $chain$4$?CreateClient@CMDIFrameWnd@@UEAAHPEAUtagCREATESTRUCTW@@PEAVCMenuMTL@@@Z 000000014005025c     Mainfrm.obj
 0002:0001026c       $chain$5$?CreateClient@CMDIFrameWnd@@UEAAHPEAUtagCREATESTRUCTW@@PEAVCMenuMTL@@@Z 000000014005026c     Mainfrm.obj
 0002:0001027c       $unwind$?GetWindowMenuPopup@CMDIFrameWnd@@UEAAPEAUHMENU__@@PEAU2@@Z 000000014005027c     Mainfrm.obj
 0002:00010284       $chain$3$?GetWindowMenuPopup@CMDIFrameWnd@@UEAAPEAUHMENU__@@PEAU2@@Z 0000000140050284     Mainfrm.obj
 0002:000102a4       $chain$5$?GetWindowMenuPopup@CMDIFrameWnd@@UEAAPEAUHMENU__@@PEAU2@@Z 00000001400502a4     Mainfrm.obj
 0002:000102c4       $unwind$?AfxRegisterWndClass@CAfx@@SAPEB_WIPEAUHICON__@@PEAUHBRUSH__@@0@Z 00000001400502c4     Mainfrm.obj
 0002:000102e0       $unwind$?GetIconWndClass@CFrameWnd@@QEAAPEB_WKI@Z 00000001400502e0     Mainfrm.obj
 0002:000102f4       $unwind$?ShowOwnedWindows@CFrameWnd@@QEAAXH@Z 00000001400502f4     Mainfrm.obj
 0002:00010300       $chain$4$?ShowOwnedWindows@CFrameWnd@@QEAAXH@Z 0000000140050300     Mainfrm.obj
 0002:00010324       $chain$5$?ShowOwnedWindows@CFrameWnd@@QEAAXH@Z 0000000140050324     Mainfrm.obj
 0002:00010334       $chain$2$?OnSetPreviewMode@CFrameWnd@@UEAAXHPEAUCPrintPreviewState@@@Z 0000000140050334     Mainfrm.obj
 0002:00010350       $chain$4$?OnSetPreviewMode@CFrameWnd@@UEAAXHPEAUCPrintPreviewState@@@Z 0000000140050350     Mainfrm.obj
 0002:00010368       $chain$5$?OnSetPreviewMode@CFrameWnd@@UEAAXHPEAUCPrintPreviewState@@@Z 0000000140050368     Mainfrm.obj
 0002:00010378       $chain$6$?OnSetPreviewMode@CFrameWnd@@UEAAXHPEAUCPrintPreviewState@@@Z 0000000140050378     Mainfrm.obj
 0002:00010388       $unwind$??1CFrameWnd@@UEAA@XZ 0000000140050388     Mainfrm.obj
 0002:0001039c       $stateUnwindMap$??1CFrameWnd@@UEAA@XZ 000000014005039c     Mainfrm.obj
 0002:000103b0       $ip2state$??1CFrameWnd@@UEAA@XZ 00000001400503b0     Mainfrm.obj
 0002:000103d0       $unwind$?Create@CFrameWnd@@UEAAHPEB_W0KAEBUtagRECT@@PEAVCWnd@@0KPEAUCCreateContext@@@Z 00000001400503d0     Mainfrm.obj
 0002:000103e8       $chain$0$?Create@CFrameWnd@@UEAAHPEB_W0KAEBUtagRECT@@PEAVCWnd@@0KPEAUCCreateContext@@@Z 00000001400503e8     Mainfrm.obj
 0002:000103fc       $chain$1$?Create@CFrameWnd@@UEAAHPEB_W0KAEBUtagRECT@@PEAVCWnd@@0KPEAUCCreateContext@@@Z 00000001400503fc     Mainfrm.obj
 0002:0001040c       $unwind$?LoadFrame@CFrameWnd@@UEAAHIKPEAVCWnd@@PEAUCCreateContext@@@Z 000000014005040c     Mainfrm.obj
 0002:00010430       $stateUnwindMap$?LoadFrame@CFrameWnd@@UEAAHIKPEAVCWnd@@PEAUCCreateContext@@@Z 0000000140050430     Mainfrm.obj
 0002:00010440       $ip2state$?LoadFrame@CFrameWnd@@UEAAHIKPEAVCWnd@@PEAUCCreateContext@@@Z 0000000140050440     Mainfrm.obj
 0002:00010468       $chain$3$?GetForegroundWindow@CWnd@@SAPEAV1@XZ 0000000140050468     Mainfrm.obj
 0002:0001047c       $chain$4$?GetForegroundWindow@CWnd@@SAPEAV1@XZ 000000014005047c     Mainfrm.obj
 0002:0001047c       $chain$8$?GetForegroundWindow@CWnd@@SAPEAV1@XZ 000000014005047c     Mainfrm.obj
 0002:0001048c       $chain$5$?GetForegroundWindow@CWnd@@SAPEAV1@XZ 000000014005048c     Mainfrm.obj
 0002:000104a0       $chain$6$?GetForegroundWindow@CWnd@@SAPEAV1@XZ 00000001400504a0     Mainfrm.obj
 0002:000104b4       $chain$7$?GetForegroundWindow@CWnd@@SAPEAV1@XZ 00000001400504b4     Mainfrm.obj
 0002:000104c4       $chain$3$?GetLastActivePopup@CWnd@@QEAAPEAV1@XZ 00000001400504c4     Mainfrm.obj
 0002:000104d8       $chain$4$?GetLastActivePopup@CWnd@@QEAAPEAV1@XZ 00000001400504d8     Mainfrm.obj
 0002:000104d8       $chain$8$?GetLastActivePopup@CWnd@@QEAAPEAV1@XZ 00000001400504d8     Mainfrm.obj
 0002:000104e8       $chain$5$?GetLastActivePopup@CWnd@@QEAAPEAV1@XZ 00000001400504e8     Mainfrm.obj
 0002:000104fc       $chain$6$?GetLastActivePopup@CWnd@@QEAAPEAV1@XZ 00000001400504fc     Mainfrm.obj
 0002:00010510       $chain$7$?GetLastActivePopup@CWnd@@QEAAPEAV1@XZ 0000000140050510     Mainfrm.obj
 0002:00010520       $unwind$?OnWindowNew@CMDIFrameWnd@@QEAAXXZ 0000000140050520     Mainfrm.obj
 0002:00010534       $stateUnwindMap$?OnWindowNew@CMDIFrameWnd@@QEAAXXZ 0000000140050534     Mainfrm.obj
 0002:00010540       $ip2state$?OnWindowNew@CMDIFrameWnd@@QEAAXXZ 0000000140050540     Mainfrm.obj
 0002:00010558       $unwind$?MDIGetActive@CMDIFrameWnd@@QEBAPEAVCMDIChildWnd@@PEAH@Z 0000000140050558     Mainfrm.obj
 0002:0001056c       $chain$3$?MDIGetActive@CMDIFrameWnd@@QEBAPEAVCMDIChildWnd@@PEAH@Z 000000014005056c     Mainfrm.obj
 0002:00010584       $chain$4$?MDIGetActive@CMDIFrameWnd@@QEBAPEAVCMDIChildWnd@@PEAH@Z 0000000140050584     Mainfrm.obj
 0002:00010598       $chain$9$?MDIGetActive@CMDIFrameWnd@@QEBAPEAVCMDIChildWnd@@PEAH@Z 0000000140050598     Mainfrm.obj
 0002:00010598       $chain$5$?MDIGetActive@CMDIFrameWnd@@QEBAPEAVCMDIChildWnd@@PEAH@Z 0000000140050598     Mainfrm.obj
 0002:000105a8       $chain$6$?MDIGetActive@CMDIFrameWnd@@QEBAPEAVCMDIChildWnd@@PEAH@Z 00000001400505a8     Mainfrm.obj
 0002:000105bc       $chain$7$?MDIGetActive@CMDIFrameWnd@@QEBAPEAVCMDIChildWnd@@PEAH@Z 00000001400505bc     Mainfrm.obj
 0002:000105d0       $chain$8$?MDIGetActive@CMDIFrameWnd@@QEBAPEAVCMDIChildWnd@@PEAH@Z 00000001400505d0     Mainfrm.obj
 0002:000105e0       $chain$10$?MDIGetActive@CMDIFrameWnd@@QEBAPEAVCMDIChildWnd@@PEAH@Z 00000001400505e0     Mainfrm.obj
 0002:000105f0       $unwind$?CanCloseFrame@CDocument@@QEAAHPEAVCFrameWnd@@@Z 00000001400505f0     Mainfrm.obj
 0002:000105fc       $unwind$?CloseAllDocuments@CDocTemplate@@QEAAXH@Z 00000001400505fc     Mainfrm.obj
 0002:00010604       $chain$3$?CloseAllDocuments@CDocTemplate@@QEAAXH@Z 0000000140050604     Mainfrm.obj
 0002:00010624       $chain$4$?CloseAllDocuments@CDocTemplate@@QEAAXH@Z 0000000140050624     Mainfrm.obj
 0002:00010634       $unwind$??1CDocument@@QEAA@XZ 0000000140050634     Mainfrm.obj
 0002:0001064c       $stateUnwindMap$??1CDocument@@QEAA@XZ 000000014005064c     Mainfrm.obj
 0002:00010668       $ip2state$??1CDocument@@QEAA@XZ 0000000140050668     Mainfrm.obj
 0002:00010690       $chain$0$?OnCloseDocument@CDocument@@QEAAXXZ 0000000140050690     Mainfrm.obj
 0002:000106a4       $chain$1$?OnCloseDocument@CDocument@@QEAAXXZ 00000001400506a4     Mainfrm.obj
 0002:000106b8       $chain$2$?OnCloseDocument@CDocument@@QEAAXXZ 00000001400506b8     Mainfrm.obj
 0002:000106c8       $chain$3$?OnCloseDocument@CDocument@@QEAAXXZ 00000001400506c8     Mainfrm.obj
 0002:000106d8       $unwind$?OnClose@CFrameWnd@@QEAAXXZ 00000001400506d8     Mainfrm.obj
 0002:000106e4       $chain$2$?OnClose@CFrameWnd@@QEAAXXZ 00000001400506e4     Mainfrm.obj
 0002:000106fc       $chain$3$?OnClose@CFrameWnd@@QEAAXXZ 00000001400506fc     Mainfrm.obj
 0002:0001070c       $unwind$?CreateView@CFrameWnd@@QEAAPEAVCWnd@@PEAUCCreateContext@@I@Z 000000014005070c     Mainfrm.obj
 0002:0001071c       $chain$0$?CreateView@CFrameWnd@@QEAAPEAVCWnd@@PEAUCCreateContext@@I@Z 000000014005071c     Mainfrm.obj
 0002:00010730       $chain$2$?CreateView@CFrameWnd@@QEAAPEAVCWnd@@PEAUCCreateContext@@I@Z 0000000140050730     Mainfrm.obj
 0002:00010744       $chain$3$?CreateView@CFrameWnd@@QEAAPEAVCWnd@@PEAUCCreateContext@@I@Z 0000000140050744     Mainfrm.obj
 0002:00010754       $chain$0$?GetParentFrame@CWnd@@QEAAPEAVCFrameWnd@@XZ 0000000140050754     Mainfrm.obj
 0002:00010754       $chain$0$?EnsureParentFrame@CWnd@@QEAAPEAVCFrameWnd@@XZ 0000000140050754     Mainfrm.obj
 0002:00010768       $chain$2$?GetParentFrame@CWnd@@QEAAPEAVCFrameWnd@@XZ 0000000140050768     Mainfrm.obj
 0002:00010768       $chain$2$?EnsureParentFrame@CWnd@@QEAAPEAVCFrameWnd@@XZ 0000000140050768     Mainfrm.obj
 0002:0001077c       $chain$3$?GetParentFrame@CWnd@@QEAAPEAVCFrameWnd@@XZ 000000014005077c     Mainfrm.obj
 0002:0001077c       $chain$3$?EnsureParentFrame@CWnd@@QEAAPEAVCFrameWnd@@XZ 000000014005077c     Mainfrm.obj
 0002:0001078c       $unwind$?DestroyDockBars@CFrameWnd@@QEAAXXZ 000000014005078c     Mainfrm.obj
 0002:000107b0       $stateUnwindMap$?DestroyDockBars@CFrameWnd@@QEAAXXZ 00000001400507b0     Mainfrm.obj
 0002:000107c0       $ip2state$?DestroyDockBars@CFrameWnd@@QEAAXXZ 00000001400507c0     Mainfrm.obj
 0002:000107e8       $chain$0$?OnDestroy@CFrameWnd@@QEAAXXZ 00000001400507e8     Mainfrm.obj
 0002:000107fc       $chain$1$?OnDestroy@CFrameWnd@@QEAAXXZ 00000001400507fc     Mainfrm.obj
 0002:0001080c       $chain$3$?SetActiveWindow@CWnd@@QEAAPEAV1@XZ 000000014005080c     Mainfrm.obj
 0002:00010820       $chain$4$?SetActiveWindow@CWnd@@QEAAPEAV1@XZ 0000000140050820     Mainfrm.obj
 0002:00010820       $chain$8$?SetActiveWindow@CWnd@@QEAAPEAV1@XZ 0000000140050820     Mainfrm.obj
 0002:00010830       $chain$5$?SetActiveWindow@CWnd@@QEAAPEAV1@XZ 0000000140050830     Mainfrm.obj
 0002:00010844       $chain$6$?SetActiveWindow@CWnd@@QEAAPEAV1@XZ 0000000140050844     Mainfrm.obj
 0002:00010858       $chain$7$?SetActiveWindow@CWnd@@QEAAPEAV1@XZ 0000000140050858     Mainfrm.obj
 0002:00010868       $unwind$?ShowAppMessageBox@CWinApp@@SAHPEAV1@PEB_WII@Z 0000000140050868     Mainfrm.obj
 0002:00010884       $unwind$?AfxMessageBox@@YAHIII@Z 0000000140050884     Mainfrm.obj
 0002:00010898       $stateUnwindMap$?AfxMessageBox@@YAHIII@Z 0000000140050898     Mainfrm.obj
 0002:00010898       $stateUnwindMap$?OnFileOpen@CDocManager@@UEAAXXZ 0000000140050898     Propdlg.obj
 0002:000108a0       $ip2state$?AfxMessageBox@@YAHIII@Z 00000001400508a0     Mainfrm.obj
 0002:000108b8       $unwind$?OnDropFiles@CFrameWnd@@QEAAXPEAUHDROP__@@@Z 00000001400508b8     Mainfrm.obj
 0002:000108b8       $unwind$?AfxGetFileTitle@CAfx@@SAIPEB_WPEA_WI@Z 00000001400508b8     Propdlg.obj
 0002:000108d0       $chain$2$?GetOwner@CWnd@@QEAAPEAV1@XZ 00000001400508d0     Mainfrm.obj
 0002:000108ec       $chain$4$?GetOwner@CWnd@@QEAAPEAV1@XZ 00000001400508ec     Mainfrm.obj
 0002:00010904       $chain$9$?GetOwner@CWnd@@QEAAPEAV1@XZ 0000000140050904     Mainfrm.obj
 0002:00010904       $chain$5$?GetOwner@CWnd@@QEAAPEAV1@XZ 0000000140050904     Mainfrm.obj
 0002:00010914       $chain$6$?GetOwner@CWnd@@QEAAPEAV1@XZ 0000000140050914     Mainfrm.obj
 0002:0001092c       $chain$7$?GetOwner@CWnd@@QEAAPEAV1@XZ 000000014005092c     Mainfrm.obj
 0002:00010940       $chain$8$?GetOwner@CWnd@@QEAAPEAV1@XZ 0000000140050940     Mainfrm.obj
 0002:00010950       $chain$10$?GetOwner@CWnd@@QEAAPEAV1@XZ 0000000140050950     Mainfrm.obj
 0002:00010960       $chain$0$?GetTopLevelParent@CWnd@@QEAAPEAV1@XZ 0000000140050960     Mainfrm.obj
 0002:00010974       $chain$2$?GetTopLevelParent@CWnd@@QEAAPEAV1@XZ 0000000140050974     Mainfrm.obj
 0002:0001098c       $chain$4$?GetTopLevelParent@CWnd@@QEAAPEAV1@XZ 000000014005098c     Mainfrm.obj
 0002:000109a4       $chain$5$?GetTopLevelParent@CWnd@@QEAAPEAV1@XZ 00000001400509a4     Mainfrm.obj
 0002:000109a4       $chain$9$?GetTopLevelParent@CWnd@@QEAAPEAV1@XZ 00000001400509a4     Mainfrm.obj
 0002:000109b4       $chain$6$?GetTopLevelParent@CWnd@@QEAAPEAV1@XZ 00000001400509b4     Mainfrm.obj
 0002:000109cc       $chain$7$?GetTopLevelParent@CWnd@@QEAAPEAV1@XZ 00000001400509cc     Mainfrm.obj
 0002:000109e0       $chain$8$?GetTopLevelParent@CWnd@@QEAAPEAV1@XZ 00000001400509e0     Mainfrm.obj
 0002:000109f0       $chain$10$?GetTopLevelParent@CWnd@@QEAAPEAV1@XZ 00000001400509f0     Mainfrm.obj
 0002:00010a00       $chain$11$?GetTopLevelParent@CWnd@@QEAAPEAV1@XZ 0000000140050a00     Mainfrm.obj
 0002:00010a10       $unwind$?OnIdle@CCmdUI@@QEAAHPEAVCCmdTarget@@H@Z 0000000140050a10     Mainfrm.obj
 0002:00010a24       $unwind$?OnInitMenuPopup@CFrameWnd@@QEAAXPEAVCMenuMTL@@IH@Z 0000000140050a24     Mainfrm.obj
 0002:00010a30       $chain$2$?OnInitMenuPopup@CFrameWnd@@QEAAXPEAVCMenuMTL@@IH@Z 0000000140050a30     Mainfrm.obj
 0002:00010a4c       $chain$3$?OnInitMenuPopup@CFrameWnd@@QEAAXPEAVCMenuMTL@@IH@Z 0000000140050a4c     Mainfrm.obj
 0002:00010a60       $chain$4$?OnInitMenuPopup@CFrameWnd@@QEAAXPEAVCMenuMTL@@IH@Z 0000000140050a60     Mainfrm.obj
 0002:00010a70       $chain$5$?OnInitMenuPopup@CFrameWnd@@QEAAXPEAVCMenuMTL@@IH@Z 0000000140050a70     Mainfrm.obj
 0002:00010a80       $chain$6$?OnInitMenuPopup@CFrameWnd@@QEAAXPEAVCMenuMTL@@IH@Z 0000000140050a80     Mainfrm.obj
 0002:00010a9c       $chain$0$?GetTopLevelFrame@CWnd@@QEAAPEAVCFrameWnd@@XZ 0000000140050a9c     Mainfrm.obj
 0002:00010ab0       $chain$1$?GetTopLevelFrame@CWnd@@QEAAPEAVCFrameWnd@@XZ 0000000140050ab0     Mainfrm.obj
 0002:00010ab0       $chain$3$?GetTopLevelFrame@CWnd@@QEAAPEAVCFrameWnd@@XZ 0000000140050ab0     Mainfrm.obj
 0002:00010ac0       $chain$2$?GetTopLevelFrame@CWnd@@QEAAPEAVCFrameWnd@@XZ 0000000140050ac0     Mainfrm.obj
 0002:00010ad4       $unwind$?CenterOnPoint@CScrollView@@QEAAXVCPoint@WTL@@@Z 0000000140050ad4     Stdafx.obj
 0002:00010ad4       $unwind$?GetDescendantWindow@CWnd@@QEAAPEAV1@PEAUHWND__@@HH@Z 0000000140050ad4     Mainfrm.obj
 0002:00010ae8       $unwind$?OnSetMessageString@CFrameWnd@@QEAA_J_K_J@Z 0000000140050ae8     Mainfrm.obj
 0002:00010b08       $stateUnwindMap$?OnSetMessageString@CFrameWnd@@QEAA_J_K_J@Z 0000000140050b08     Mainfrm.obj
 0002:00010b10       $ip2state$?OnSetMessageString@CFrameWnd@@QEAA_J_K_J@Z 0000000140050b10     Mainfrm.obj
 0002:00010b28       $unwind$?UpdateFrameTitleForDocument@CFrameWnd@@QEAAXPEB_W@Z 0000000140050b28     Mainfrm.obj
 0002:00010b4c       $stateUnwindMap$?UpdateFrameTitleForDocument@CFrameWnd@@QEAAXPEB_W@Z 0000000140050b4c     Mainfrm.obj
 0002:00010b58       $ip2state$?UpdateFrameTitleForDocument@CFrameWnd@@QEAAXPEB_W@Z 0000000140050b58     Mainfrm.obj
 0002:00010b70       $unwind$?OnUpdateFrameTitle@CFrameWnd@@UEAAXH@Z 0000000140050b70     Mainfrm.obj
 0002:00010b84       $stateUnwindMap$?OnUpdateNumPageChange@CPreviewView@@QEAAXPEAVCCmdUI@@@Z 0000000140050b84     Stdafx.obj
 0002:00010b84       $stateUnwindMap$?AfxResolveShortcut@@YAHPEAVCWMHnd@@PEB_WPEA_WH@Z 0000000140050b84     Propdlg.obj
 0002:00010b84       $stateUnwindMap$?_AfxFullPath2@CAfx@@SAHPEA_WPEB_WPEAVCFileException@@@Z 0000000140050b84     Propdlg.obj
 0002:00010b84       $stateUnwindMap$?OnUpdateFrameTitle@CFrameWnd@@UEAAXH@Z 0000000140050b84     Mainfrm.obj
 0002:00010b90       $ip2state$?OnUpdateFrameTitle@CFrameWnd@@UEAAXH@Z 0000000140050b90     Mainfrm.obj
 0002:00010ba8       $chain$1$?GetControlBar@CFrameWnd@@QEAAPEAVCControlBar@@I@Z 0000000140050ba8     Mainfrm.obj
 0002:00010bc0       $chain$3$?GetControlBar@CFrameWnd@@QEAAPEAVCControlBar@@I@Z 0000000140050bc0     Mainfrm.obj
 0002:00010bd8       $unwind$?AfxRepositionWindow@CAfx@@SAXPEAUAFX_SIZEPARENTPARAMS@@PEAUHWND__@@PEBUtagRECT@@@Z 0000000140050bd8     Mainfrm.obj
 0002:00010bec       $unwind$?RepositionBars@CWnd@@QEAAXIIIIPEAUtagRECT@@PEBU2@H@Z 0000000140050bec     Mainfrm.obj
 0002:00010c04       $chain$0$?RepositionBars@CWnd@@QEAAXIIIIPEAUtagRECT@@PEBU2@H@Z 0000000140050c04     Mainfrm.obj
 0002:00010c18       $chain$3$?RepositionBars@CWnd@@QEAAXIIIIPEAUtagRECT@@PEBU2@H@Z 0000000140050c18     Mainfrm.obj
 0002:00010c18       $chain$1$?RepositionBars@CWnd@@QEAAXIIIIPEAUtagRECT@@PEBU2@H@Z 0000000140050c18     Mainfrm.obj
 0002:00010c28       $chain$2$?RepositionBars@CWnd@@QEAAXIIIIPEAUtagRECT@@PEBU2@H@Z 0000000140050c28     Mainfrm.obj
 0002:00010c3c       $unwind$?RecalcLayout@CFrameWnd@@UEAAXH@Z 0000000140050c3c     Mainfrm.obj
 0002:00010c3c       $unwind$?FindData@?$CMapList@PEAXPEAXV?$CPair@PEAXPEAX@@$0A@@@QEAAAEAV?$CPair@PEAXPEAX@@QEAXH@Z 0000000140050c3c     Shapedoc.obj
 0002:00010c44       $unwind$?_AtlGetStringResourceImage@CAfx@@SAPEBUATLSTRINGRESOURCEIMAGE@ATL@@PEAUHINSTANCE__@@PEAUHRSRC__@@I@Z 0000000140050c44     Mainfrm.obj
 0002:00010c58       $chain$0$?AfxExtractSubString@CAfx@@SAHAEAVCString@WTL@@PEB_WH_W@Z 0000000140050c58     Mainfrm.obj
 0002:00010c6c       $chain$1$?AfxExtractSubString@CAfx@@SAHAEAVCString@WTL@@PEB_WH_W@Z 0000000140050c6c     Mainfrm.obj
 0002:00010c7c       $chain$2$?AfxExtractSubString@CAfx@@SAHAEAVCString@WTL@@PEB_WH_W@Z 0000000140050c7c     Mainfrm.obj
 0002:00010c90       $unwind$?OnToolTipText@CFrameWnd@@QEAAHIPEAUtagNMHDR@@PEA_J@Z 0000000140050c90     Mainfrm.obj
 0002:00010cb8       $stateUnwindMap$?OnToolTipText@CFrameWnd@@QEAAHIPEAUtagNMHDR@@PEA_J@Z 0000000140050cb8     Mainfrm.obj
 0002:00010cc0       $ip2state$?OnToolTipText@CFrameWnd@@QEAAHIPEAUtagNMHDR@@PEA_J@Z 0000000140050cc0     Mainfrm.obj
 0002:00010cd8       $unwind$?OnUpdateKeyIndicator@CFrameWnd@@QEAAXPEAVCCmdUI@@@Z 0000000140050cd8     Mainfrm.obj
 0002:00010ce4       $unwind$?_ProcessWindowMessage@CFrameWnd@@UEAAHPEAUHWND__@@I_K_JAEA_J@Z 0000000140050ce4     Mainfrm.obj
 0002:00010d04       $stateUnwindMap$?_ProcessWindowMessage@CFrameWnd@@UEAAHPEAUHWND__@@I_K_JAEA_J@Z 0000000140050d04     Mainfrm.obj
 0002:00010d40       $ip2state$?_ProcessWindowMessage@CFrameWnd@@UEAAHPEAUHWND__@@I_K_JAEA_J@Z 0000000140050d40     Mainfrm.obj
 0002:00010da0       $unwind$?_ProcessWindowMessage@CMDIFrameWnd@@UEAAHPEAUHWND__@@I_K_JAEA_J@Z 0000000140050da0     Mainfrm.obj
 0002:00010dc0       $unwind$?_ProcessWindowMessage@CShapePropSheetFrame@@UEAAHPEAUHWND__@@I_K_JAEA_J@Z 0000000140050dc0     Minifrm.obj
 0002:00010dcc       $chain$0$?_ProcessWindowMessage@CShapePropSheetFrame@@UEAAHPEAUHWND__@@I_K_JAEA_J@Z 0000000140050dcc     Minifrm.obj
 0002:00010de0       $chain$7$?_ProcessWindowMessage@CShapePropSheetFrame@@UEAAHPEAUHWND__@@I_K_JAEA_J@Z 0000000140050de0     Minifrm.obj
 0002:00010e08       $unwind$?OnCreate@CShapePropSheetFrame@@IEAAHPEAUtagCREATESTRUCTW@@@Z 0000000140050e08     Minifrm.obj
 0002:00010e18       $stateUnwindMap$?OnCreate@CShapePropSheetFrame@@IEAAHPEAUtagCREATESTRUCTW@@@Z 0000000140050e18     Minifrm.obj
 0002:00010e20       $ip2state$?OnCreate@CShapePropSheetFrame@@IEAAHPEAUtagCREATESTRUCTW@@@Z 0000000140050e20     Minifrm.obj
 0002:00010e38       $unwind$??1CMiniFrameWnd@@UEAA@XZ 0000000140050e38     Minifrm.obj
 0002:00010e48       $stateUnwindMap$??1CMiniFrameWnd@@UEAA@XZ 0000000140050e48     Minifrm.obj
 0002:00010e50       $ip2state$??1CMiniFrameWnd@@UEAA@XZ 0000000140050e50     Minifrm.obj
 0002:00010e68       $chain$1$?OnNcCreate@CMiniFrameWnd@@QEAAHPEAUtagCREATESTRUCTW@@@Z 0000000140050e68     Minifrm.obj
 0002:00010e80       $chain$2$?OnNcCreate@CMiniFrameWnd@@QEAAHPEAUtagCREATESTRUCTW@@@Z 0000000140050e80     Minifrm.obj
 0002:00010e90       $unwind$?OnNcHitTest@CMiniFrameWnd@@QEAA_JVCPoint@WTL@@@Z 0000000140050e90     Minifrm.obj
 0002:00010ea4       $unwind$?HandleFloatingSysCommand@CWnd@@QEAAHI_J@Z 0000000140050ea4     Minifrm.obj
 0002:00010eb8       $chain$0$?HandleFloatingSysCommand@CWnd@@QEAAHI_J@Z 0000000140050eb8     Minifrm.obj
 0002:00010ecc       $chain$1$?HandleFloatingSysCommand@CWnd@@QEAAHI_J@Z 0000000140050ecc     Minifrm.obj
 0002:00010edc       $unwind$?_ProcessWindowMessage@CShapePreviewWnd@@UEAAHPEAUHWND__@@I_K_JAEA_J@Z 0000000140050edc     Preview.obj
 0002:00010ef0       $ip2state$?_ProcessWindowMessage@CShapePreviewWnd@@UEAAHPEAUHWND__@@I_K_JAEA_J@Z 0000000140050ef0     Preview.obj
 0002:00010f10       $unwind$?OnPaint@CShapePreviewWnd@@AEAAXXZ 0000000140050f10     Preview.obj
 0002:00010f30       $stateUnwindMap$?OnPaint@CShapePreviewWnd@@AEAAXXZ 0000000140050f30     Preview.obj
 0002:00010f40       $ip2state$?OnPaint@CShapePreviewWnd@@AEAAXXZ 0000000140050f40     Preview.obj
 0002:00010f68       $unwind$?OnEraseBkgnd@CShapePreviewWnd@@AEAAHPEAVCDCMTL@@@Z 0000000140050f68     Preview.obj
 0002:00010f78       $chain$0$?OnEraseBkgnd@CShapePreviewWnd@@AEAAHPEAVCDCMTL@@@Z 0000000140050f78     Preview.obj
 0002:00010f8c       $chain$1$?OnEraseBkgnd@CShapePreviewWnd@@AEAAHPEAVCDCMTL@@@Z 0000000140050f8c     Preview.obj
 0002:00010fa0       $chain$2$?OnEraseBkgnd@CShapePreviewWnd@@AEAAHPEAVCDCMTL@@@Z 0000000140050fa0     Preview.obj
 0002:00010fa0       $chain$4$?OnEraseBkgnd@CShapePreviewWnd@@AEAAHPEAVCDCMTL@@@Z 0000000140050fa0     Preview.obj
 0002:00010fb0       $chain$3$?OnEraseBkgnd@CShapePreviewWnd@@AEAAHPEAVCDCMTL@@@Z 0000000140050fb0     Preview.obj
 0002:00010fc4       $chain$5$?OnEraseBkgnd@CShapePreviewWnd@@AEAAHPEAVCDCMTL@@@Z 0000000140050fc4     Preview.obj
 0002:00010fd4       $unwind$??_GCPenMTL@@UEAAPEAXI@Z 0000000140050fd4     Shapeobj.obj
 0002:00010fd4       $unwind$??_GCBrushMTL@@UEAAPEAXI@Z 0000000140050fd4     Preview.obj
 0002:00010fd4       $unwind$??_GCBitmapMTL@@UEAAPEAXI@Z 0000000140050fd4     Stdafx.obj
 0002:00010fd4       $unwind$??_GCRgnMTL@@UEAAPEAXI@Z 0000000140050fd4     Stdafx.obj
 0002:00010fe8       $stateUnwindMap$??_GCRgnMTL@@UEAAPEAXI@Z 0000000140050fe8     Stdafx.obj
 0002:00010fe8       $stateUnwindMap$??1CImage@@UEAA@XZ 0000000140050fe8     Stdafx.obj
 0002:00010fe8       $stateUnwindMap$??_GCPenMTL@@UEAAPEAXI@Z 0000000140050fe8     Shapeobj.obj
 0002:00010fe8       $stateUnwindMap$??_GCBrushMTL@@UEAAPEAXI@Z 0000000140050fe8     Preview.obj
 0002:00010fe8       $stateUnwindMap$??1CPenMTL@@UEAA@XZ 0000000140050fe8     Shapeobj.obj
 0002:00010fe8       $stateUnwindMap$??1CBrushMTL@@UEAA@XZ 0000000140050fe8     Preview.obj
 0002:00010fe8       $stateUnwindMap$??1CRgnMTL@@UEAA@XZ 0000000140050fe8     Stdafx.obj
 0002:00010fe8       $stateUnwindMap$??_GCBitmapMTL@@UEAAPEAXI@Z 0000000140050fe8     Stdafx.obj
 0002:00010ff0       $ip2state$??_GCBitmapMTL@@UEAAPEAXI@Z 0000000140050ff0     Stdafx.obj
 0002:00010ff0       $ip2state$??_GCBrushMTL@@UEAAPEAXI@Z 0000000140050ff0     Preview.obj
 0002:00010ff0       $ip2state$??_GCPenMTL@@UEAAPEAXI@Z 0000000140050ff0     Shapeobj.obj
 0002:00010ff0       $ip2state$??_GCRgnMTL@@UEAAPEAXI@Z 0000000140050ff0     Stdafx.obj
 0002:00011008       $unwind$??1CBrushMTL@@UEAA@XZ 0000000140051008     Preview.obj
 0002:00011008       $unwind$??1CRgnMTL@@UEAA@XZ 0000000140051008     Stdafx.obj
 0002:00011008       $unwind$??1CPenMTL@@UEAA@XZ 0000000140051008     Shapeobj.obj
 0002:00011018       $ip2state$??1CBrushMTL@@UEAA@XZ 0000000140051018     Preview.obj
 0002:00011018       $ip2state$??1CPenMTL@@UEAA@XZ 0000000140051018     Shapeobj.obj
 0002:00011018       $ip2state$??1CRgnMTL@@UEAA@XZ 0000000140051018     Stdafx.obj
 0002:00011030       $unwind$?FromHandle@?$CHandleList@PEAXVCGdiObject@@PEAUHWND__@@@@QEAAPEAVCGdiObject@@QEAXPEAV2@QEAUHWND__@@Q6APEAXPEAX3@Z@Z 0000000140051030     Preview.obj
 0002:00011040       $chain$1$?FromHandle@?$CHandleList@PEAXVCGdiObject@@PEAUHWND__@@@@QEAAPEAVCGdiObject@@QEAXPEAV2@QEAUHWND__@@Q6APEAXPEAX3@Z@Z 0000000140051040     Preview.obj
 0002:00011058       $chain$2$?FromHandle@?$CHandleList@PEAXVCGdiObject@@PEAUHWND__@@@@QEAAPEAVCGdiObject@@QEAXPEAV2@QEAUHWND__@@Q6APEAXPEAX3@Z@Z 0000000140051058     Preview.obj
 0002:00011068       $chain$3$?FromHandle@?$CHandleList@PEAXVCGdiObject@@PEAUHWND__@@@@QEAAPEAVCGdiObject@@QEAXPEAV2@QEAUHWND__@@Q6APEAXPEAX3@Z@Z 0000000140051068     Preview.obj
 0002:00011080       $unwind$??1CPaintDCMTL@@UEAA@XZ 0000000140051080     Preview.obj
 0002:00011090       $ip2state$??1CPaintDCMTL@@UEAA@XZ 0000000140051090     Preview.obj
 0002:000110a8       $unwind$?InitInstance@CPropDlgApp@@UEAAHXZ 00000001400510a8     Propdlg.obj
 0002:000110c8       $stateUnwindMap$?InitInstance@CPropDlgApp@@UEAAHXZ 00000001400510c8     Propdlg.obj
 0002:00011100       $ip2state$?InitInstance@CPropDlgApp@@UEAAHXZ 0000000140051100     Propdlg.obj
 0002:00011160       $unwind$?OnAppAbout@CPropDlgApp@@QEAAXXZ 0000000140051160     Propdlg.obj
 0002:00011170       $stateUnwindMap$?OnAppAbout@CPropDlgApp@@QEAAXXZ 0000000140051170     Propdlg.obj
 0002:00011178       $ip2state$?OnAppAbout@CPropDlgApp@@QEAAXXZ 0000000140051178     Propdlg.obj
 0002:00011190       $unwind$??HWTL@@YA?AVCString@0@AEBV10@PEB_W@Z 0000000140051190     Propdlg.obj
 0002:000111a8       $stateUnwindMap$??HWTL@@YA?AVCString@0@AEBV10@0@Z 00000001400511a8     Propdlg.obj
 0002:000111a8       $stateUnwindMap$??HWTL@@YA?AVCString@0@AEBV10@PEB_W@Z 00000001400511a8     Propdlg.obj
 0002:000111b0       $ip2state$??HWTL@@YA?AVCString@0@AEBV10@PEB_W@Z 00000001400511b0     Propdlg.obj
 0002:000111c0       $unwind$_initptd$fin$0     00000001400511c0     LIBCMT:tidtable.obj
 0002:000111c0       $unwind$__updatetmbcinfo$fin$0 00000001400511c0     LIBCMT:mbctype.obj
 0002:000111c0       $unwind$_fcloseall$fin$0   00000001400511c0     LIBCMT:closeall.obj
 0002:000111c0       $unwind$__updatetlocinfo$fin$0 00000001400511c0     LIBCMT:localref.obj
 0002:000111c0       $unwind$_setmbcp$fin$0     00000001400511c0     LIBCMT:mbctype.obj
 0002:000111c0       $unwind$raise$fin$0        00000001400511c0     LIBCMT:winsig.obj
 0002:000111c0       $unwind$?fin$0@?0???_L@YAXPEAX_KHP6AX0@Z2@Z@4HA 00000001400511c0     LIBCMT:ehvecctr.obj
 0002:000111c0       $unwind$?dtor$1@?0??UpdatePrinterSelection@CWinApp@@QEAAXH@Z@4HA 00000001400511c0     Propdlg.obj
 0002:000111c0       $unwind$_initptd$fin$1     00000001400511c0     LIBCMT:tidtable.obj
 0002:000111c0       $unwind$?dtor$0@?0???HWTL@@YA?AVCString@0@AEBV10@0@Z@4HA 00000001400511c0     Propdlg.obj
 0002:000111c0       $unwind$?fin$0@?0??_Type_info_dtor@type_info@@CAXPEAV1@@Z@4HA 00000001400511c0     LIBCMT:typname.obj
 0002:000111c0       $unwind$_freefls$fin$1     00000001400511c0     LIBCMT:tidtable.obj
 0002:000111c0       $unwind$__DestructExceptionObject$filt$0 00000001400511c0     LIBCMT:frame.obj
 0002:000111c0       $unwind$_close$fin$0       00000001400511c0     LIBCMT:close.obj
 0002:000111c0       $unwind$__CxxCallCatchBlock$filt$0 00000001400511c0     LIBCMT:frame.obj
 0002:000111c0       $unwind$_locterm$fin$0     00000001400511c0     LIBCMT:wsetloca.obj
 0002:000111c0       $unwind$?dtor$0@?0???HWTL@@YA?AVCString@0@AEBV10@PEB_W@Z@4HA 00000001400511c0     Propdlg.obj
 0002:000111c0       $unwind$_freefls$fin$0     00000001400511c0     LIBCMT:tidtable.obj
 0002:000111c0       $unwind$?filt$0@?0??__ArrayUnwind@@YAXPEAX_KHP6AX0@Z@Z@4HA 00000001400511c0     LIBCMT:ehvecdtr.obj
 0002:000111c0       $unwind$_commit$fin$0      00000001400511c0     LIBCMT:commit.obj
 0002:000111c0       $unwind$?dtor$0@?0??Mid@CString@WTL@@QEBA?AV12@HH@Z@4HA 00000001400511c0     Propdlg.obj
 0002:000111c0       $unwind$flsall$fin$1       00000001400511c0     LIBCMT:fflush.obj
 0002:000111c0       $unwind$__tzset$fin$0      00000001400511c0     LIBCMT:tzset.obj
 0002:000111c0       $unwind$doexit$fin$0       00000001400511c0     LIBCMT:crt0dat.obj
 0002:000111c0       $unwind$_isindst$fin$0     00000001400511c0     LIBCMT:tzset.obj
 0002:000111c0       $unwind$_ioinit$fin$0      00000001400511c0     LIBCMT:ioinit.obj
 0002:000111c0       $unwind$__tmainCRTStartup$filt$0 00000001400511c0     LIBCMT:wwincrt0.obj
 0002:000111c0       $unwind$flsall$fin$0       00000001400511c0     LIBCMT:fflush.obj
 0002:000111c0       $unwind$fclose$fin$0       00000001400511c0     LIBCMT:fclose.obj
 0002:000111c0       $unwind$?fin$0@?0???_M@YAXPEAX_KHP6AX0@Z@Z@4HA 00000001400511c0     LIBCMT:ehvecdtr.obj
 0002:000111c0       $unwind$_write$fin$0       00000001400511c0     LIBCMT:write.obj
 0002:000111c0       $unwind$_IsNonwritableInCurrentImage$filt$0 00000001400511c0     LIBCMT:pesect.obj
 0002:000111c0       $unwind$__lock_fhandle$fin$0 00000001400511c0     LIBCMT:osfinfo.obj
 0002:000111c0       $unwind$_onexit$fin$0      00000001400511c0     LIBCMT:onexit.obj
 0002:000111c0       $unwind$_mtinitlocknum$fin$0 00000001400511c0     LIBCMT:mlock.obj
 0002:000111c0       $unwind$__FrameUnwindToState$fin$1 00000001400511c0     LIBCMT:frame.obj
 0002:000111c0       $unwind$__FrameUnwindToState$filt$0 00000001400511c0     LIBCMT:frame.obj
 0002:000111c0       $unwind$?dtor$2@?0??UpdatePrinterSelection@CWinApp@@QEAAXH@Z@4HA 00000001400511c0     Propdlg.obj
 0002:000111c8       $unwind$?AfxDelRegTreeHelper@CAfx@@SAJPEAUHKEY__@@AEBVCString@WTL@@PEAVCAtlTransactionManager@ATL@@@Z 00000001400511c8     Propdlg.obj
 0002:000111e0       $stateUnwindMap$?AfxDelRegTreeHelper@CAfx@@SAJPEAUHKEY__@@AEBVCString@WTL@@PEAVCAtlTransactionManager@ATL@@@Z 00000001400511e0     Propdlg.obj
 0002:000111f0       $ip2state$?AfxDelRegTreeHelper@CAfx@@SAJPEAUHKEY__@@AEBVCString@WTL@@PEAVCAtlTransactionManager@ATL@@@Z 00000001400511f0     Propdlg.obj
 0002:00011218       $unwind$?Unregister@CWinApp@@QEAAHXZ 0000000140051218     Propdlg.obj
 0002:00011230       $stateUnwindMap$?Unregister@CWinApp@@QEAAHXZ 0000000140051230     Propdlg.obj
 0002:00011250       $ip2state$?Unregister@CWinApp@@QEAAHXZ 0000000140051250     Propdlg.obj
 0002:00011280       $chain$1$?ParseParam@CCommandLineInfo@@UEAAXPEB_WHH@Z 0000000140051280     Propdlg.obj
 0002:00011298       $chain$2$?ParseParam@CCommandLineInfo@@UEAAXPEB_WHH@Z 0000000140051298     Propdlg.obj
 0002:000112ac       $chain$3$?ParseParam@CCommandLineInfo@@UEAAXPEB_WHH@Z 00000001400512ac     Propdlg.obj
 0002:000112bc       $chain$4$?ParseParam@CCommandLineInfo@@UEAAXPEB_WHH@Z 00000001400512bc     Propdlg.obj
 0002:000112cc       $unwind$?EnableShellOpen@CWinApp@@QEAAXXZ 00000001400512cc     Propdlg.obj
 0002:000112e4       $stateUnwindMap$?EnableShellOpen@CWinApp@@QEAAXXZ 00000001400512e4     Propdlg.obj
 0002:000112f8       $ip2state$?EnableShellOpen@CWinApp@@QEAAXXZ 00000001400512f8     Propdlg.obj
 0002:00011320       $unwind$??0CDocTemplate@@QEAA@IPEAUCRuntimeClass@@00@Z 0000000140051320     Propdlg.obj
 0002:00011330       $stateUnwindMap$??0CDocTemplate@@QEAA@IPEAUCRuntimeClass@@00@Z 0000000140051330     Propdlg.obj
 0002:00011338       $ip2state$??0CDocTemplate@@QEAA@IPEAUCRuntimeClass@@00@Z 0000000140051338     Propdlg.obj
 0002:00011350       $chain$0$?CreateNewDocument@CDocTemplate@@UEAAPEAVCDocument@@XZ 0000000140051350     Propdlg.obj
 0002:00011364       $chain$2$?CreateNewDocument@CDocTemplate@@UEAAPEAVCDocument@@XZ 0000000140051364     Propdlg.obj
 0002:00011378       $unwind$?CreateNewFrame@CDocTemplate@@UEAAPEAVCFrameWnd@@PEAVCDocument@@PEAV2@@Z 0000000140051378     Propdlg.obj
 0002:00011380       $chain$0$?CreateNewFrame@CDocTemplate@@UEAAPEAVCFrameWnd@@PEAVCDocument@@PEAV2@@Z 0000000140051380     Propdlg.obj
 0002:00011394       $chain$2$?CreateNewFrame@CDocTemplate@@UEAAPEAVCFrameWnd@@PEAVCDocument@@PEAV2@@Z 0000000140051394     Propdlg.obj
 0002:000113a8       $unwind$?InitialUpdateFrame@CFrameWnd@@QEAAXPEAVCDocument@@H@Z 00000001400513a8     Propdlg.obj
 0002:000113b4       $chain$0$?InitialUpdateFrame@CFrameWnd@@QEAAXPEAVCDocument@@H@Z 00000001400513b4     Propdlg.obj
 0002:000113c8       $chain$1$?InitialUpdateFrame@CFrameWnd@@QEAAXPEAVCDocument@@H@Z 00000001400513c8     Propdlg.obj
 0002:000113dc       $chain$2$?InitialUpdateFrame@CFrameWnd@@QEAAXPEAVCDocument@@H@Z 00000001400513dc     Propdlg.obj
 0002:000113f0       $chain$3$?InitialUpdateFrame@CFrameWnd@@QEAAXPEAVCDocument@@H@Z 00000001400513f0     Propdlg.obj
 0002:00011400       $chain$4$?InitialUpdateFrame@CFrameWnd@@QEAAXPEAVCDocument@@H@Z 0000000140051400     Propdlg.obj
 0002:00011410       $chain$5$?InitialUpdateFrame@CFrameWnd@@QEAAXPEAVCDocument@@H@Z 0000000140051410     Propdlg.obj
 0002:00011420       $unwind$?OpenDocumentFile@CMultiDocTemplate@@UEAAPEAVCDocument@@PEB_WHH@Z 0000000140051420     Propdlg.obj
 0002:00011444       $stateUnwindMap$?OpenDocumentFile@CMultiDocTemplate@@UEAAPEAVCDocument@@PEB_WHH@Z 0000000140051444     Propdlg.obj
 0002:00011450       $ip2state$?OpenDocumentFile@CMultiDocTemplate@@UEAAPEAVCDocument@@PEB_WHH@Z 0000000140051450     Propdlg.obj
 0002:00011478       $chain$0$??1CMultiDocTemplate@@UEAA@XZ 0000000140051478     Propdlg.obj
 0002:0001148c       $chain$1$??1CMultiDocTemplate@@UEAA@XZ 000000014005148c     Propdlg.obj
 0002:0001149c       $unwind$?UpdateFrameCounts@CDocument@@QEAAXXZ 000000014005149c     Propdlg.obj
 0002:000114b0       $unwind$?SetDefaultTitle@CMultiDocTemplate@@UEAAXPEAVCDocument@@@Z 00000001400514b0     Propdlg.obj
 0002:000114d4       $stateUnwindMap$?SetDefaultTitle@CMultiDocTemplate@@UEAAXPEAVCDocument@@@Z 00000001400514d4     Propdlg.obj
 0002:000114e0       $ip2state$?SetDefaultTitle@CMultiDocTemplate@@UEAAXPEAVCDocument@@@Z 00000001400514e0     Propdlg.obj
 0002:000114f8       $chain$0$?LoadTemplate@CMultiDocTemplate@@UEAAXXZ 00000001400514f8     Propdlg.obj
 0002:0001150c       $chain$1$?LoadTemplate@CMultiDocTemplate@@UEAAXXZ 000000014005150c     Propdlg.obj
 0002:0001151c       $unwind$??0CRecentFileList@@QEAA@IPEB_W0HH@Z 000000014005151c     Propdlg.obj
 0002:00011538       $stateUnwindMap$??0CRecentFileList@@QEAA@IPEB_W0HH@Z 0000000140051538     Propdlg.obj
 0002:00011558       $ip2state$??0CRecentFileList@@QEAA@IPEB_W0HH@Z 0000000140051558     Propdlg.obj
 0002:00011590       $unwind$?Add@CRecentFileList@@UEAAXPEB_W@Z 0000000140051590     Propdlg.obj
 0002:000115ac       $chain$0$?Add@CRecentFileList@@UEAAXPEB_W@Z 00000001400515ac     Propdlg.obj
 0002:000115c0       $chain$1$?Add@CRecentFileList@@UEAAXPEB_W@Z 00000001400515c0     Propdlg.obj
 0002:000115d0       $unwind$?GetProfileStringW@CWinApp@@QEAA?AVCString@WTL@@PEB_W00@Z 00000001400515d0     Propdlg.obj
 0002:000115dc       $unwind$?ReadList@CRecentFileList@@UEAAXXZ 00000001400515dc     Propdlg.obj
 0002:00011600       $stateUnwindMap$?ReadList@CRecentFileList@@UEAAXXZ 0000000140051600     Propdlg.obj
 0002:00011608       $ip2state$?ReadList@CRecentFileList@@UEAAXXZ 0000000140051608     Propdlg.obj
 0002:00011620       $unwind$??1CRecentFileList@@UEAA@XZ 0000000140051620     Propdlg.obj
 0002:00011638       $stateUnwindMap$??1CRecentFileList@@UEAA@XZ 0000000140051638     Propdlg.obj
 0002:00011650       $ip2state$??1CRecentFileList@@UEAA@XZ 0000000140051650     Propdlg.obj
 0002:00011678       $unwind$??1CCommandLineInfo@@QEAA@XZ 0000000140051678     Propdlg.obj
 0002:00011690       $stateUnwindMap$??1CCommandLineInfo@@QEAA@XZ 0000000140051690     Propdlg.obj
 0002:000116a8       $ip2state$??1CCommandLineInfo@@QEAA@XZ 00000001400516a8     Propdlg.obj
 0002:000116d0       $unwind$??1CWinApp@@QEAA@XZ 00000001400516d0     Propdlg.obj
 0002:000116e4       $stateUnwindMap$??1CWinApp@@QEAA@XZ 00000001400516e4     Propdlg.obj
 0002:00011700       $ip2state$??1CWinApp@@QEAA@XZ 0000000140051700     Propdlg.obj
 0002:00011730       $unwind$??0CModuleThreadState@@QEAA@XZ 0000000140051730     Propdlg.obj
 0002:00011744       $stateUnwindMap$??1CModuleThreadState@@QEAA@XZ 0000000140051744     Propdlg.obj
 0002:00011744       $stateUnwindMap$??0CModuleThreadState@@QEAA@XZ 0000000140051744     Propdlg.obj
 0002:00011750       $ip2state$??0CModuleThreadState@@QEAA@XZ 0000000140051750     Propdlg.obj
 0002:00011768       $unwind$??1CModuleThreadState@@QEAA@XZ 0000000140051768     Propdlg.obj
 0002:00011778       $ip2state$??1CModuleThreadState@@QEAA@XZ 0000000140051778     Propdlg.obj
 0002:00011790       $unwind$?FromHandle@?$CHandleList@PEAUHDC__@@VCDCMTL@@PEAUHWND__@@@@QEAAPEAVCDCMTL@@QEAUHDC__@@PEAV2@QEAUHWND__@@Q6APEAXPEAX3@Z@Z 0000000140051790     Shapesvw.obj
 0002:00011790       $unwind$?WriteList@CRecentFileList@@UEAAXXZ 0000000140051790     Propdlg.obj
 0002:000117a0       $chain$1$?WriteList@CRecentFileList@@UEAAXXZ 00000001400517a0     Propdlg.obj
 0002:000117b8       $chain$2$?WriteList@CRecentFileList@@UEAAXXZ 00000001400517b8     Propdlg.obj
 0002:000117c8       $unwind$??0CWinApp@@QEAA@XZ 00000001400517c8     Propdlg.obj
 0002:000117d8       $stateUnwindMap$??0CWinApp@@QEAA@XZ 00000001400517d8     Propdlg.obj
 0002:000117e0       $ip2state$??0CWinApp@@QEAA@XZ 00000001400517e0     Propdlg.obj
 0002:000117f8       $unwind$?GetMenuStringW@CMenuMTL@@QEBAHIAEAVCString@WTL@@I@Z 00000001400517f8     Propdlg.obj
 0002:0001180c       $chain$0$?GetMenuStringW@CMenuMTL@@QEBAHIAEAVCString@WTL@@I@Z 000000014005180c     Propdlg.obj
 0002:00011820       $chain$1$?GetMenuStringW@CMenuMTL@@QEBAHIAEAVCString@WTL@@I@Z 0000000140051820     Propdlg.obj
 0002:00011830       $unwind$?GetDisplayName@CRecentFileList@@UEBAHAEAVCString@WTL@@HPEB_WHH@Z 0000000140051830     Propdlg.obj
 0002:00011840       $chain$1$?GetDisplayName@CRecentFileList@@UEBAHAEAVCString@WTL@@HPEB_WHH@Z 0000000140051840     Propdlg.obj
 0002:00011858       $chain$3$?GetDisplayName@CRecentFileList@@UEBAHAEAVCString@WTL@@HPEB_WHH@Z 0000000140051858     Propdlg.obj
 0002:00011870       $chain$4$?GetDisplayName@CRecentFileList@@UEBAHAEAVCString@WTL@@HPEB_WHH@Z 0000000140051870     Propdlg.obj
 0002:00011884       $chain$5$?GetDisplayName@CRecentFileList@@UEBAHAEAVCString@WTL@@HPEB_WHH@Z 0000000140051884     Propdlg.obj
 0002:00011898       $chain$6$?GetDisplayName@CRecentFileList@@UEBAHAEAVCString@WTL@@HPEB_WHH@Z 0000000140051898     Propdlg.obj
 0002:000118a8       $chain$8$?GetDisplayName@CRecentFileList@@UEBAHAEAVCString@WTL@@HPEB_WHH@Z 00000001400518a8     Propdlg.obj
 0002:000118b8       $unwind$??HWTL@@YA?AVCString@0@AEBV10@0@Z 00000001400518b8     Propdlg.obj
 0002:000118c8       $ip2state$??HWTL@@YA?AVCString@0@AEBV10@0@Z 00000001400518c8     Propdlg.obj
 0002:000118d8       $unwind$?UpdateMenu@CRecentFileList@@UEAAXPEAVCCmdUI@@@Z 00000001400518d8     Propdlg.obj
 0002:000118f8       $stateUnwindMap$?UpdateMenu@CRecentFileList@@UEAAXPEAVCCmdUI@@@Z 00000001400518f8     Propdlg.obj
 0002:00011910       $ip2state$?UpdateMenu@CRecentFileList@@UEAAXPEAVCCmdUI@@@Z 0000000140051910     Propdlg.obj
 0002:00011948       $unwind$?Remove@CRecentFileList@@UEAAXH@Z 0000000140051948     Propdlg.obj
 0002:00011954       $chain$1$?Remove@CRecentFileList@@UEAAXH@Z 0000000140051954     Propdlg.obj
 0002:0001196c       $chain$3$?Remove@CRecentFileList@@UEAAXH@Z 000000014005196c     Propdlg.obj
 0002:00011984       $chain$4$?Remove@CRecentFileList@@UEAAXH@Z 0000000140051984     Propdlg.obj
 0002:00011994       $chain$5$?Remove@CRecentFileList@@UEAAXH@Z 0000000140051994     Propdlg.obj
 0002:000119a4       $unwind$?HookProc@CCommonDialogImplBase@WTL@@SA_KPEAUHWND__@@I_K_J@Z 00000001400519a4     Propdlg.obj
 0002:000119bc       $unwind$?OnPrintSetup@?$CPrintDialogImpl@VCPrintDialog@WTL@@@WTL@@QEAA_JGGPEAUHWND__@@AEAH@Z 00000001400519bc     Propdlg.obj
 0002:000119d4       $unwind$?WindowProc@?$CWindowImplBaseT@VCWindow@ATL@@V?$CWinTraits@$0FGAAAAAA@$0A@@2@@ATL@@SA_JPEAUHWND__@@I_K_J@Z 00000001400519d4     Propdlg.obj
 0002:000119ec       $unwind$?UpdatePrinterSelection@CWinApp@@QEAAXH@Z 00000001400519ec     Propdlg.obj
 0002:00011a0c       $stateUnwindMap$?UpdatePrinterSelection@CWinApp@@QEAAXH@Z 0000000140051a0c     Propdlg.obj
 0002:00011a30       $ip2state$?UpdatePrinterSelection@CWinApp@@QEAAXH@Z 0000000140051a30     Propdlg.obj
 0002:00011a78       $unwind$?AfxGlobalFree@@YAXPEAX@Z 0000000140051a78     Propdlg.obj
 0002:00011a80       $chain$0$?AfxGlobalFree@@YAXPEAX@Z 0000000140051a80     Propdlg.obj
 0002:00011a94       $chain$1$?AfxGlobalFree@@YAXPEAX@Z 0000000140051a94     Propdlg.obj
 0002:00011aa4       $chain$0$?DoModal@?$CPrintDialogImpl@VCPrintDialog@WTL@@@WTL@@QEAA_JPEAUHWND__@@@Z 0000000140051aa4     Propdlg.obj
 0002:00011ab8       $chain$2$?DoModal@?$CPrintDialogImpl@VCPrintDialog@WTL@@@WTL@@QEAA_JPEAUHWND__@@@Z 0000000140051ab8     Propdlg.obj
 0002:00011acc       $unwind$?OnFilePrintSetup@CWinApp@@QEAAXXZ 0000000140051acc     Propdlg.obj
 0002:00011ae0       $stateUnwindMap$?OnFilePrintSetup@CWinApp@@QEAAXXZ 0000000140051ae0     Propdlg.obj
 0002:00011ae8       $ip2state$?OnFilePrintSetup@CWinApp@@QEAAXXZ 0000000140051ae8     Propdlg.obj
 0002:00011b00       $unwind$?_AfxCommDlgProc@CCommonDialog@@SA_KPEAUHWND__@@I_K_J@Z 0000000140051b00     Propdlg.obj
 0002:00011b10       $chain$1$?_AfxCommDlgProc@CCommonDialog@@SA_KPEAUHWND__@@I_K_J@Z 0000000140051b10     Propdlg.obj
 0002:00011b28       $chain$3$?_AfxCommDlgProc@CCommonDialog@@SA_KPEAUHWND__@@I_K_J@Z 0000000140051b28     Propdlg.obj
 0002:00011b40       $chain$5$?_AfxCommDlgProc@CCommonDialog@@SA_KPEAUHWND__@@I_K_J@Z 0000000140051b40     Propdlg.obj
 0002:00011b58       $chain$6$?_AfxCommDlgProc@CCommonDialog@@SA_KPEAUHWND__@@I_K_J@Z 0000000140051b58     Propdlg.obj
 0002:00011b68       $unwind$??0CFileDialogMTL@@QEAA@HPEB_W0K0PEAVCWnd@@KH@Z 0000000140051b68     Propdlg.obj
 0002:00011b8c       $stateUnwindMap$??0CFileDialogMTL@@QEAA@HPEB_W0K0PEAVCWnd@@KH@Z 0000000140051b8c     Propdlg.obj
 0002:00011ba0       $ip2state$??0CFileDialogMTL@@QEAA@HPEB_W0K0PEAVCWnd@@KH@Z 0000000140051ba0     Propdlg.obj
 0002:00011bc0       $unwind$??1CFileDialogMTL@@UEAA@XZ 0000000140051bc0     Propdlg.obj
 0002:00011bd0       $stateUnwindMap$??1CFileDialogMTL@@UEAA@XZ 0000000140051bd0     Propdlg.obj
 0002:00011be0       $ip2state$??1CFileDialogMTL@@UEAA@XZ 0000000140051be0     Propdlg.obj
 0002:00011c00       $unwind$?Tokenize@CAfx@@SA?AVCString@WTL@@AEAV23@PEA_WAEAH@Z 0000000140051c00     Propdlg.obj
 0002:00011c18       $unwind$?Mid@CString@WTL@@QEBA?AV12@HH@Z 0000000140051c18     Propdlg.obj
 0002:00011c28       $stateUnwindMap$?Mid@CString@WTL@@QEBA?AV12@HH@Z 0000000140051c28     Propdlg.obj
 0002:00011c30       $ip2state$?Mid@CString@WTL@@QEBA?AV12@HH@Z 0000000140051c30     Propdlg.obj
 0002:00011c40       $unwind$?_AfxAppendFilterSuffix@@YAXAEAVCString@WTL@@AEAUtagOFNW@@PEAVCDocTemplate@@PEAV12@@Z 0000000140051c40     Propdlg.obj
 0002:00011c64       $stateUnwindMap$?_AfxAppendFilterSuffix@@YAXAEAVCString@WTL@@AEAUtagOFNW@@PEAVCDocTemplate@@PEAV12@@Z 0000000140051c64     Propdlg.obj
 0002:00011c90       $ip2state$?_AfxAppendFilterSuffix@@YAXAEAVCString@WTL@@AEAUtagOFNW@@PEAVCDocTemplate@@PEAV12@@Z 0000000140051c90     Propdlg.obj
 0002:00011cd8       $unwind$?ApplyOFNToShellDialog@CFileDialogMTL@@QEAAXXZ 0000000140051cd8     Propdlg.obj
 0002:00011cf8       $stateUnwindMap$?ApplyOFNToShellDialog@CFileDialogMTL@@QEAAXXZ 0000000140051cf8     Propdlg.obj
 0002:00011d30       $ip2state$?ApplyOFNToShellDialog@CFileDialogMTL@@QEAAXXZ 0000000140051d30     Propdlg.obj
 0002:00011db8       $unwind$?GetPathName@CFileDialogMTL@@QEAA?AVCString@WTL@@XZ 0000000140051db8     Propdlg.obj
 0002:00011dd0       $stateUnwindMap$?GetPathName@CFileDialogMTL@@QEAA?AVCString@WTL@@XZ 0000000140051dd0     Propdlg.obj
 0002:00011de0       $ip2state$?GetPathName@CFileDialogMTL@@QEAA?AVCString@WTL@@XZ 0000000140051de0     Propdlg.obj
 0002:00011e08       $unwind$?UpdateOFNFromShellDialog@CFileDialogMTL@@UEAAXXZ 0000000140051e08     Propdlg.obj
 0002:00011e28       $stateUnwindMap$?UpdateOFNFromShellDialog@CFileDialogMTL@@UEAAXXZ 0000000140051e28     Propdlg.obj
 0002:00011e60       $ip2state$?UpdateOFNFromShellDialog@CFileDialogMTL@@UEAAXXZ 0000000140051e60     Propdlg.obj
 0002:00011ec8       $unwind$?DoPromptFileName@CDocManager@@QEAAHAEAVCString@WTL@@IKHPEAVCDocTemplate@@@Z 0000000140051ec8     Propdlg.obj
 0002:00011eec       $stateUnwindMap$?DoPromptFileName@CDocManager@@QEAAHAEAVCString@WTL@@IKHPEAVCDocTemplate@@@Z 0000000140051eec     Propdlg.obj
 0002:00011f30       $ip2state$?DoPromptFileName@CDocManager@@QEAAHAEAVCString@WTL@@IKHPEAVCDocTemplate@@@Z 0000000140051f30     Propdlg.obj
 0002:00011fa0       $unwind$?_AfxFullPath2@CAfx@@SAHPEA_WPEB_WPEAVCFileException@@@Z 0000000140051fa0     Propdlg.obj
 0002:00011fc0       $ip2state$?_AfxFullPath2@CAfx@@SAHPEA_WPEB_WPEAVCFileException@@@Z 0000000140051fc0     Propdlg.obj
 0002:00011fd8       $unwind$?AfxStringFromCLSID@CAfx@@SA?AVCString@WTL@@AEBU_GUID@@@Z 0000000140051fd8     Propdlg.obj
 0002:00011ff4       $unwind$?AfxGetInProcServer@CAfx@@SAHPEB_WAEAVCString@WTL@@@Z 0000000140051ff4     Propdlg.obj
 0002:00012004       $unwind$?GetClassObject@AFX_COM@@QEAAJAEBU_GUID@@0PEAPEAX@Z 0000000140052004     Propdlg.obj
 0002:0001201c       $stateUnwindMap$?GetClassObject@AFX_COM@@QEAAJAEBU_GUID@@0PEAPEAX@Z 000000014005201c     Propdlg.obj
 0002:00012030       $ip2state$?GetClassObject@AFX_COM@@QEAAJAEBU_GUID@@0PEAPEAX@Z 0000000140052030     Propdlg.obj
 0002:00012058       $unwind$?AfxResolveShortcut@@YAHPEAVCWMHnd@@PEB_WPEA_WH@Z 0000000140052058     Propdlg.obj
 0002:00012078       $ip2state$?AfxResolveShortcut@@YAHPEAVCWMHnd@@PEB_WPEA_WH@Z 0000000140052078     Propdlg.obj
 0002:000120a0       $unwind$?AfxComparePath@CAfx@@SAHPEB_W0@Z 00000001400520a0     Propdlg.obj
 0002:000120b0       $chain$0$?AfxComparePath@CAfx@@SAHPEB_W0@Z 00000001400520b0     Propdlg.obj
 0002:000120c4       $chain$2$?AfxComparePath@CAfx@@SAHPEB_W0@Z 00000001400520c4     Propdlg.obj
 0002:000120d8       $unwind$?MatchDocType@CDocTemplate@@UEAA?AW4Confidence@1@PEB_WAEAPEAVCDocument@@@Z 00000001400520d8     Propdlg.obj
 0002:000120f0       $stateUnwindMap$?MatchDocType@CDocTemplate@@UEAA?AW4Confidence@1@PEB_WAEAPEAVCDocument@@@Z 00000001400520f0     Propdlg.obj
 0002:000120f0       $stateUnwindMap$?OnInitDialog@CNewTypeDlg@@UEAAHXZ 00000001400520f0     Propdlg.obj
 0002:000120f8       $ip2state$?MatchDocType@CDocTemplate@@UEAA?AW4Confidence@1@PEB_WAEAPEAVCDocument@@@Z 00000001400520f8     Propdlg.obj
 0002:00012110       $unwind$?OpenDocumentFile@CDocManager@@QEAAPEAVCDocument@@PEB_WH@Z 0000000140052110     Propdlg.obj
 0002:00012124       $chain$3$?OpenDocumentFile@CDocManager@@QEAAPEAVCDocument@@PEB_WH@Z 0000000140052124     Propdlg.obj
 0002:00012138       $chain$4$?OpenDocumentFile@CDocManager@@QEAAPEAVCDocument@@PEB_WH@Z 0000000140052138     Propdlg.obj
 0002:00012148       $unwind$?OnFileOpen@CDocManager@@UEAAXXZ 0000000140052148     Propdlg.obj
 0002:00012158       $ip2state$?OnFileOpen@CDocManager@@UEAAXXZ 0000000140052158     Propdlg.obj
 0002:00012170       $unwind$?OnInitDialog@CNewTypeDlg@@UEAAHXZ 0000000140052170     Propdlg.obj
 0002:00012190       $ip2state$?OnInitDialog@CNewTypeDlg@@UEAAHXZ 0000000140052190     Propdlg.obj
 0002:000121b8       $unwind$?PreTranslateMessage@CWinApp@@UEAAHPEAUtagMSG@@@Z 00000001400521b8     Propdlg.obj
 0002:000121c8       $chain$0$?PreTranslateMessage@CWinApp@@UEAAHPEAUtagMSG@@@Z 00000001400521c8     Propdlg.obj
 0002:000121dc       $chain$1$?PreTranslateMessage@CWinApp@@UEAAHPEAUtagMSG@@@Z 00000001400521dc     Propdlg.obj
 0002:000121ec       $unwind$?OnFileNew@CDocManager@@UEAAXXZ 00000001400521ec     Propdlg.obj
 0002:00012200       $stateUnwindMap$?OnFileNew@CDocManager@@UEAAXXZ 0000000140052200     Propdlg.obj
 0002:00012208       $ip2state$?OnFileNew@CDocManager@@UEAAXXZ 0000000140052208     Propdlg.obj
 0002:00012230       $unwind$??0CModalShapePropSheet@@QEAA@PEAVCWnd@@@Z 0000000140052230     Propsht.obj
 0002:0001224c       $stateUnwindMap$??0CModalShapePropSheet@@QEAA@PEAVCWnd@@@Z 000000014005224c     Propsht.obj
 0002:00012270       $ip2state$??0CModalShapePropSheet@@QEAA@PEAVCWnd@@@Z 0000000140052270     Propsht.obj
 0002:000122a0       $unwind$??_GCModalShapePropSheet@@UEAAPEAXI@Z 00000001400522a0     Propsht.obj
 0002:000122b4       $stateUnwindMap$??_GCModalShapePropSheet@@UEAAPEAXI@Z 00000001400522b4     Propsht.obj
 0002:000122b4       $stateUnwindMap$??0CModelessShapePropSheet@@QEAA@PEAVCWnd@@@Z 00000001400522b4     Propsht2.obj
 0002:000122d0       $ip2state$??_GCModalShapePropSheet@@UEAAPEAXI@Z 00000001400522d0     Propsht.obj
 0002:000122f8       $unwind$?SelectStockObject@CDCMTL@@QEAAPEAVCGdiObject@@H@Z 00000001400522f8     Stdafx.obj
 0002:000122f8       $unwind$?AddPage@CPropertySheetMTL@@QEAAXPEAVCPropertyPageMTL@@@Z 00000001400522f8     Propsht.obj
 0002:000122f8       $unwind$?SelectObject@CDCMTL@@QEAAPEAVCPenMTL@@PEAV2@@Z 00000001400522f8     Shapeobj.obj
 0002:000122f8       $unwind$?SelectObject@CDCMTL@@QEAAPEAVCBrushMTL@@PEAV2@@Z 00000001400522f8     Shapeobj.obj
 0002:0001230c       $chain$0$?AddPage@CPropertySheetMTL@@QEAAXPEAVCPropertyPageMTL@@@Z 000000014005230c     Propsht.obj
 0002:00012320       $chain$1$?AddPage@CPropertySheetMTL@@QEAAXPEAVCPropertyPageMTL@@@Z 0000000140052320     Propsht.obj
 0002:00012330       $chain$2$?AddPage@CPropertySheetMTL@@QEAAXPEAVCPropertyPageMTL@@@Z 0000000140052330     Propsht.obj
 0002:00012344       $unwind$??1CPropertySheetMTL@@UEAA@XZ 0000000140052344     Propsht.obj
 0002:00012354       $stateUnwindMap$??1CPropertySheetMTL@@UEAA@XZ 0000000140052354     Propsht.obj
 0002:00012368       $ip2state$??1CPropertySheetMTL@@UEAA@XZ 0000000140052368     Propsht.obj
 0002:00012388       $unwind$?OnCommand@CPropertySheetMTL@@UEAAH_K_J@Z 0000000140052388     Propsht.obj
 0002:0001239c       $chain$0$?AfxPropSheetCallback@CPropertySheetMTL@@SAHPEAUHWND__@@I_J@Z 000000014005239c     Propsht.obj
 0002:000123b0       $chain$2$?AfxPropSheetCallback@CPropertySheetMTL@@SAHPEAUHWND__@@I_J@Z 00000001400523b0     Propsht.obj
 0002:000123c4       $unwind$?IsFontInstalled@CPropertyPageMTL@@SAHPEB_W@Z 00000001400523c4     Propsht.obj
 0002:000123d0       $unwind$?AfxGetPropSheetFont@CPropertyPageMTL@@SAHAEAVCString@WTL@@AEAGH@Z 00000001400523d0     Propsht.obj
 0002:000123e0       $chain$0$?AfxGetPropSheetFont@CPropertyPageMTL@@SAHAEAVCString@WTL@@AEAGH@Z 00000001400523e0     Propsht.obj
 0002:000123f4       $chain$2$?AfxGetPropSheetFont@CPropertyPageMTL@@SAHAEAVCString@WTL@@AEAGH@Z 00000001400523f4     Propsht.obj
 0002:0001240c       $chain$3$?AfxGetPropSheetFont@CPropertyPageMTL@@SAHAEAVCString@WTL@@AEAGH@Z 000000014005240c     Propsht.obj
 0002:0001241c       $chain$4$?AfxGetPropSheetFont@CPropertyPageMTL@@SAHAEAVCString@WTL@@AEAGH@Z 000000014005241c     Propsht.obj
 0002:0001242c       $unwind$?SetFont@CDialogTemplate@@QEAAHPEB_WG@Z 000000014005242c     Propsht.obj
 0002:00012448       $unwind$?_AfxChangePropPageFont@CPropertyPageMTL@@SAPEAUDLGTEMPLATE@@PEBU2@H@Z 0000000140052448     Propsht.obj
 0002:00012468       $stateUnwindMap$?_AfxChangePropPageFont@CPropertyPageMTL@@SAPEAUDLGTEMPLATE@@PEBU2@H@Z 0000000140052468     Propsht.obj
 0002:00012478       $ip2state$?_AfxChangePropPageFont@CPropertyPageMTL@@SAPEAUDLGTEMPLATE@@PEBU2@H@Z 0000000140052478     Propsht.obj
 0002:000124b0       $unwind$?BuildPropPageArray@CPropertySheetMTL@@UEAAXXZ 00000001400524b0     Propsht.obj
 0002:000124c4       $chain$1$?BuildPropPageArray@CPropertySheetMTL@@UEAAXXZ 00000001400524c4     Propsht.obj
 0002:000124dc       $chain$2$?BuildPropPageArray@CPropertySheetMTL@@UEAAXXZ 00000001400524dc     Propsht.obj
 0002:000124ec       $chain$3$?BuildPropPageArray@CPropertySheetMTL@@UEAAXXZ 00000001400524ec     Propsht.obj
 0002:00012504       $chain$4$?DoModal@CPropertySheetMTL@@UEAA_JXZ 0000000140052504     Propsht.obj
 0002:00012528       $chain$5$?DoModal@CPropertySheetMTL@@UEAA_JXZ 0000000140052528     Propsht.obj
 0002:00012544       $chain$6$?DoModal@CPropertySheetMTL@@UEAA_JXZ 0000000140052544     Propsht.obj
 0002:0001255c       $chain$7$?DoModal@CPropertySheetMTL@@UEAA_JXZ 000000014005255c     Propsht.obj
 0002:00012570       $unwind$??0CPropertySheetMTL@@QEAA@IPEAVCWnd@@I@Z 0000000140052570     Propsht.obj
 0002:0001258c       $stateUnwindMap$??0CPropertySheetMTL@@QEAA@IPEAVCWnd@@I@Z 000000014005258c     Propsht.obj
 0002:000125a8       $ip2state$??0CPropertySheetMTL@@QEAA@IPEAVCWnd@@I@Z 00000001400525a8     Propsht.obj
 0002:000125d0       $unwind$?OnInitDialog@CPropertySheetMTL@@UEAAHXZ 00000001400525d0     Propsht.obj
 0002:000125dc       $chain$2$?OnInitDialog@CPropertySheetMTL@@UEAAHXZ 00000001400525dc     Propsht.obj
 0002:000125f8       $chain$3$?OnInitDialog@CPropertySheetMTL@@UEAAHXZ 00000001400525f8     Propsht.obj
 0002:0001260c       $chain$4$?OnInitDialog@CPropertySheetMTL@@UEAAHXZ 000000014005260c     Propsht.obj
 0002:00012620       $chain$5$?OnInitDialog@CPropertySheetMTL@@UEAAHXZ 0000000140052620     Propsht.obj
 0002:00012630       $chain$6$?OnInitDialog@CPropertySheetMTL@@UEAAHXZ 0000000140052630     Propsht.obj
 0002:00012640       $chain$7$?OnInitDialog@CPropertySheetMTL@@UEAAHXZ 0000000140052640     Propsht.obj
 0002:00012650       $chain$1$?GetActivePage@CPropertySheetMTL@@QEBAPEAVCPropertyPageMTL@@XZ 0000000140052650     Propsht.obj
 0002:00012668       $chain$5$?GetActivePage@CPropertySheetMTL@@QEBAPEAVCPropertyPageMTL@@XZ 0000000140052668     Propsht.obj
 0002:00012688       $chain$7$?GetActivePage@CPropertySheetMTL@@QEBAPEAVCPropertyPageMTL@@XZ 0000000140052688     Propsht.obj
 0002:000126a0       $chain$12$?GetActivePage@CPropertySheetMTL@@QEBAPEAVCPropertyPageMTL@@XZ 00000001400526a0     Propsht.obj
 0002:000126a0       $chain$8$?GetActivePage@CPropertySheetMTL@@QEBAPEAVCPropertyPageMTL@@XZ 00000001400526a0     Propsht.obj
 0002:000126b0       $chain$9$?GetActivePage@CPropertySheetMTL@@QEBAPEAVCPropertyPageMTL@@XZ 00000001400526b0     Propsht.obj
 0002:000126c8       $chain$10$?GetActivePage@CPropertySheetMTL@@QEBAPEAVCPropertyPageMTL@@XZ 00000001400526c8     Propsht.obj
 0002:000126dc       $chain$11$?GetActivePage@CPropertySheetMTL@@QEBAPEAVCPropertyPageMTL@@XZ 00000001400526dc     Propsht.obj
 0002:000126ec       $chain$13$?GetActivePage@CPropertySheetMTL@@QEBAPEAVCPropertyPageMTL@@XZ 00000001400526ec     Propsht.obj
 0002:000126fc       $unwind$?_ProcessWindowMessage@CPropertySheetMTL@@UEAAHPEAUHWND__@@I_K_JAEA_J@Z 00000001400526fc     Propsht.obj
 0002:00012718       $ip2state$?_ProcessWindowMessage@CPropertySheetMTL@@UEAAHPEAUHWND__@@I_K_JAEA_J@Z 0000000140052718     Propsht.obj
 0002:00012738       $unwind$??0CModelessShapePropSheet@@QEAA@PEAVCWnd@@@Z 0000000140052738     Propsht2.obj
 0002:00012750       $ip2state$??0CModelessShapePropSheet@@QEAA@PEAVCWnd@@@Z 0000000140052750     Propsht2.obj
 0002:00012778       $unwind$??_GCModelessShapePropSheet@@UEAAPEAXI@Z 0000000140052778     Propsht2.obj
 0002:0001278c       $stateUnwindMap$??_GCModelessShapePropSheet@@UEAAPEAXI@Z 000000014005278c     Propsht2.obj
 0002:000127a0       $ip2state$??_GCModelessShapePropSheet@@UEAAPEAXI@Z 00000001400527a0     Propsht2.obj
 0002:000127c0       $unwind$?Serialize@?$CTypedPtrList@VCObList@@PEAVCShape@@@@QEAAXAEAVCArchive@@@Z 00000001400527c0     Shapedoc.obj
 0002:000127cc       $chain$0$?Serialize@?$CTypedPtrList@VCObList@@PEAVCShape@@@@QEAAXAEAVCArchive@@@Z 00000001400527cc     Shapedoc.obj
 0002:000127e0       $chain$3$?Serialize@?$CTypedPtrList@VCObList@@PEAVCShape@@@@QEAAXAEAVCArchive@@@Z 00000001400527e0     Shapedoc.obj
 0002:000127fc       $chain$4$?Serialize@?$CTypedPtrList@VCObList@@PEAVCShape@@@@QEAAXAEAVCArchive@@@Z 00000001400527fc     Shapedoc.obj
 0002:0001280c       $chain$5$?Serialize@?$CTypedPtrList@VCObList@@PEAVCShape@@@@QEAAXAEAVCArchive@@@Z 000000014005280c     Shapedoc.obj
 0002:0001281c       $unwind$?OnOpenDocument@CDocument@@UEAAHPEB_W@Z 000000014005281c     Shapedoc.obj
 0002:0001283c       $stateUnwindMap$?OnOpenDocument@CDocument@@UEAAHPEB_W@Z 000000014005283c     Shapedoc.obj
 0002:0001286c       $tryMap$?OnOpenDocument@CDocument@@UEAAHPEB_W@Z 000000014005286c     Shapedoc.obj
 0002:00012880       $handlerMap$0$?OnOpenDocument@CDocument@@UEAAHPEB_W@Z 0000000140052880     Shapedoc.obj
 0002:000128a0       $ip2state$?OnOpenDocument@CDocument@@UEAAHPEB_W@Z 00000001400528a0     Shapedoc.obj
 0002:00012910       $unwind$?catch$0@?0??OnOpenDocument@CDocument@@UEAAHPEB_W@Z@4HA 0000000140052910     Shapedoc.obj
 0002:00012924       $unwind$?Read@CArchive@@QEAAIPEAXI@Z 0000000140052924     Shapedoc.obj
 0002:0001293c       $chain$4$?Read@CArchive@@QEAAIPEAXI@Z 000000014005293c     Shapedoc.obj
 0002:00012954       $chain$5$?Read@CArchive@@QEAAIPEAXI@Z 0000000140052954     Shapedoc.obj
 0002:00012964       $unwind$?ReadClass@CArchive@@QEAAPEAUCRuntimeClass@@PEBU2@PEAIPEAK@Z 0000000140052964     Shapedoc.obj
 0002:00012970       $chain$1$?ReadClass@CArchive@@QEAAPEAUCRuntimeClass@@PEBU2@PEAIPEAK@Z 0000000140052970     Shapedoc.obj
 0002:00012988       $chain$3$?ReadClass@CArchive@@QEAAPEAUCRuntimeClass@@PEBU2@PEAIPEAK@Z 0000000140052988     Shapedoc.obj
 0002:000129a0       $chain$4$?ReadClass@CArchive@@QEAAPEAUCRuntimeClass@@PEBU2@PEAIPEAK@Z 00000001400529a0     Shapedoc.obj
 0002:000129b0       $chain$5$?ReadClass@CArchive@@QEAAPEAUCRuntimeClass@@PEBU2@PEAIPEAK@Z 00000001400529b0     Shapedoc.obj
 0002:000129c0       $chain$6$?ReadClass@CArchive@@QEAAPEAUCRuntimeClass@@PEBU2@PEAIPEAK@Z 00000001400529c0     Shapedoc.obj
 0002:000129d8       $chain$7$?ReadClass@CArchive@@QEAAPEAUCRuntimeClass@@PEBU2@PEAIPEAK@Z 00000001400529d8     Shapedoc.obj
 0002:000129f8       $unwind$?ReadObject@CArchive@@QEAAPEAVCObject@@PEBUCRuntimeClass@@@Z 00000001400529f8     Shapedoc.obj
 0002:00012a10       $tryMap$?ReadObject@CArchive@@QEAAPEAVCObject@@PEBUCRuntimeClass@@@Z 0000000140052a10     Shapedoc.obj
 0002:00012a24       $handlerMap$0$?ReadObject@CArchive@@QEAAPEAVCObject@@PEBUCRuntimeClass@@@Z 0000000140052a24     Shapedoc.obj
 0002:00012a38       $ip2state$?ReadObject@CArchive@@QEAAPEAVCObject@@PEBUCRuntimeClass@@@Z 0000000140052a38     Shapedoc.obj
 0002:00012a60       $unwind$?catch$0@?0??ReadObject@CArchive@@QEAAPEAVCObject@@PEBUCRuntimeClass@@@Z@4HA 0000000140052a60     Shapedoc.obj
 0002:00012a70       $chain$1$?FillBuffer@CArchive@@QEAAXI@Z 0000000140052a70     Shapedoc.obj
 0002:00012a88       $chain$3$?FillBuffer@CArchive@@QEAAXI@Z 0000000140052a88     Shapedoc.obj
 0002:00012aa0       $chain$4$?FillBuffer@CArchive@@QEAAXI@Z 0000000140052aa0     Shapedoc.obj
 0002:00012ab0       $chain$5$?FillBuffer@CArchive@@QEAAXI@Z 0000000140052ab0     Shapedoc.obj
 0002:00012ac0       $unwind$?EnsureSchemaMapExists@CArchive@@QEAAXPEAPEAV?$CArray@W4LoadArrayObjType@CArchive@@AEBW412@@@@Z 0000000140052ac0     Shapedoc.obj
 0002:00012ad8       $tryMap$?EnsureSchemaMapExists@CArchive@@QEAAXPEAPEAV?$CArray@W4LoadArrayObjType@CArchive@@AEBW412@@@@Z 0000000140052ad8     Shapedoc.obj
 0002:00012aec       $handlerMap$0$?EnsureSchemaMapExists@CArchive@@QEAAXPEAPEAV?$CArray@W4LoadArrayObjType@CArchive@@AEBW412@@@@Z 0000000140052aec     Shapedoc.obj
 0002:00012b00       $ip2state$?EnsureSchemaMapExists@CArchive@@QEAAXPEAPEAV?$CArray@W4LoadArrayObjType@CArchive@@AEBW412@@@@Z 0000000140052b00     Shapedoc.obj
 0002:00012b30       $unwind$?catch$0@?0??EnsureSchemaMapExists@CArchive@@QEAAXPEAPEAV?$CArray@W4LoadArrayObjType@CArchive@@AEBW412@@@@Z@4HA 0000000140052b30     Shapedoc.obj
 0002:00012b44       $unwind$?MapObject@CArchive@@QEAAXPEBVCObject@@@Z 0000000140052b44     Shapedoc.obj
 0002:00012b50       $chain$0$?MapObject@CArchive@@QEAAXPEBVCObject@@@Z 0000000140052b50     Shapedoc.obj
 0002:00012b64       $chain$1$?MapObject@CArchive@@QEAAXPEBVCObject@@@Z 0000000140052b64     Shapedoc.obj
 0002:00012b74       $unwind$?Write@CArchive@@QEAAXPEBXI@Z 0000000140052b74     Shapedoc.obj
 0002:00012b84       $chain$1$?Write@CArchive@@QEAAXPEBXI@Z 0000000140052b84     Shapedoc.obj
 0002:00012b9c       $chain$2$?Write@CArchive@@QEAAXPEBXI@Z 0000000140052b9c     Shapedoc.obj
 0002:00012bac       $unwind$?WriteClass@CArchive@@QEAAXPEBUCRuntimeClass@@@Z 0000000140052bac     Shapedoc.obj
 0002:00012bac       $unwind$?_AtlCreateDC@WTL@@YAPEAUHDC__@@PEAX0@Z 0000000140052bac     Shapesvw.obj
 0002:00012bb8       $chain$0$?WriteClass@CArchive@@QEAAXPEBUCRuntimeClass@@@Z 0000000140052bb8     Shapedoc.obj
 0002:00012bcc       $chain$4$?WriteClass@CArchive@@QEAAXPEBUCRuntimeClass@@@Z 0000000140052bcc     Shapedoc.obj
 0002:00012bcc       $chain$2$?WriteClass@CArchive@@QEAAXPEBUCRuntimeClass@@@Z 0000000140052bcc     Shapedoc.obj
 0002:00012bcc       $chain$6$?WriteClass@CArchive@@QEAAXPEBUCRuntimeClass@@@Z 0000000140052bcc     Shapedoc.obj
 0002:00012be0       $chain$5$?WriteClass@CArchive@@QEAAXPEBUCRuntimeClass@@@Z 0000000140052be0     Shapedoc.obj
 0002:00012bf0       $unwind$?AfxThrowArchiveException@CArchive@@SAXHPEB_W@Z 0000000140052bf0     Shapedoc.obj
 0002:00012c08       $stateUnwindMap$?AfxThrowArchiveException@CArchive@@SAXHPEB_W@Z 0000000140052c08     Shapedoc.obj
 0002:00012c18       $ip2state$?AfxThrowArchiveException@CArchive@@SAXHPEB_W@Z 0000000140052c18     Shapedoc.obj
 0002:00012c40       $chain$1$?FindData@?$CMapList@PEAXPEAXV?$CPair@PEAXPEAX@@$0A@@@QEAAAEAV?$CPair@PEAXPEAX@@QEAXH@Z 0000000140052c40     Shapedoc.obj
 0002:00012c58       $chain$2$?FindData@?$CMapList@PEAXPEAXV?$CPair@PEAXPEAX@@$0A@@@QEAAAEAV?$CPair@PEAXPEAX@@QEAXH@Z 0000000140052c58     Shapedoc.obj
 0002:00012c68       $chain$0$?WriteObject@CArchive@@QEAAXPEBVCObject@@@Z 0000000140052c68     Shapedoc.obj
 0002:00012c7c       $chain$2$?WriteObject@CArchive@@QEAAXPEBVCObject@@@Z 0000000140052c7c     Shapedoc.obj
 0002:00012c7c       $chain$6$?WriteObject@CArchive@@QEAAXPEBVCObject@@@Z 0000000140052c7c     Shapedoc.obj
 0002:00012c7c       $chain$4$?WriteObject@CArchive@@QEAAXPEBVCObject@@@Z 0000000140052c7c     Shapedoc.obj
 0002:00012c90       $chain$5$?WriteObject@CArchive@@QEAAXPEBVCObject@@@Z 0000000140052c90     Shapedoc.obj
 0002:00012ca0       $unwind$?AfxFormatStrings@CAfx@@SAXAEAVCString@WTL@@PEB_WPEBQEB_WH@Z 0000000140052ca0     Shapedoc.obj
 0002:00012cac       $chain$2$?AfxFormatStrings@CAfx@@SAXAEAVCString@WTL@@PEB_WPEBQEB_WH@Z 0000000140052cac     Shapedoc.obj
 0002:00012cc8       $chain$4$?AfxFormatStrings@CAfx@@SAXAEAVCString@WTL@@PEB_WPEBQEB_WH@Z 0000000140052cc8     Shapedoc.obj
 0002:00012ce0       $chain$5$?AfxFormatStrings@CAfx@@SAXAEAVCString@WTL@@PEB_WPEBQEB_WH@Z 0000000140052ce0     Shapedoc.obj
 0002:00012cf0       $chain$6$?AfxFormatStrings@CAfx@@SAXAEAVCString@WTL@@PEB_WPEBQEB_WH@Z 0000000140052cf0     Shapedoc.obj
 0002:00012d00       $unwind$?SaveModified@CDocument@@UEAAHXZ 0000000140052d00     Shapedoc.obj
 0002:00012d20       $stateUnwindMap$?SaveModified@CDocument@@UEAAHXZ 0000000140052d20     Shapedoc.obj
 0002:00012d40       $ip2state$?SaveModified@CDocument@@UEAAHXZ 0000000140052d40     Shapedoc.obj
 0002:00012d88       $unwind$??0CArchive@@QEAA@PEAVCFile@@IHPEAX@Z 0000000140052d88     Shapedoc.obj
 0002:00012da0       $stateUnwindMap$??0CArchive@@QEAA@PEAVCFile@@IHPEAX@Z 0000000140052da0     Shapedoc.obj
 0002:00012db0       $ip2state$??0CArchive@@QEAA@PEAVCFile@@IHPEAX@Z 0000000140052db0     Shapedoc.obj
 0002:00012dd8       $unwind$?GetStatus@CFile@@QEBAHAEAUCFileStatus@@@Z 0000000140052dd8     Shapedoc.obj
 0002:00012de4       $unwind$?GetFilePath@CFile@@UEBA?AVCString@WTL@@XZ 0000000140052de4     Shapedoc.obj
 0002:00012df0       $unwind$?Open@CFile@@UEAAHPEB_WIPEAVCFileException@@@Z 0000000140052df0     Shapedoc.obj
 0002:00012e0c       $unwind$?Write@CFile@@UEAAXPEBXI@Z 0000000140052e0c     Shapedoc.obj
 0002:00012e28       $stateUnwindMap$?Write@CFile@@UEAAXPEBXI@Z 0000000140052e28     Shapedoc.obj
 0002:00012e38       $ip2state$?Write@CFile@@UEAAXPEBXI@Z 0000000140052e38     Shapedoc.obj
 0002:00012e60       $unwind$??0CFileException@@QEAA@HJPEB_W@Z 0000000140052e60     Shapedoc.obj
 0002:00012e78       $stateUnwindMap$??0CFileException@@QEAA@HJPEB_W@Z 0000000140052e78     Shapedoc.obj
 0002:00012e80       $ip2state$??0CFileException@@QEAA@HJPEB_W@Z 0000000140052e80     Shapedoc.obj
 0002:00012e98       $unwind$?ThrowOsError@CFileException@@SAXJPEB_W@Z 0000000140052e98     Shapedoc.obj
 0002:00012eb0       $stateUnwindMap$?Close@CFile@@UEAAXXZ 0000000140052eb0     Shapedoc.obj
 0002:00012eb0       $stateUnwindMap$?ThrowOsError@CFileException@@SAXJPEB_W@Z 0000000140052eb0     Shapedoc.obj
 0002:00012eb8       $ip2state$?ThrowOsError@CFileException@@SAXJPEB_W@Z 0000000140052eb8     Shapedoc.obj
 0002:00012ed0       $unwind$?Close@CFile@@UEAAXXZ 0000000140052ed0     Shapedoc.obj
 0002:00012ee8       $ip2state$?Close@CFile@@UEAAXXZ 0000000140052ee8     Shapedoc.obj
 0002:00012f00       $unwind$??_GCFile@@QEAAPEAXI@Z 0000000140052f00     Shapedoc.obj
 0002:00012f10       $stateUnwindMap$??_GCFile@@QEAAPEAXI@Z 0000000140052f10     Shapedoc.obj
 0002:00012f18       $ip2state$??_GCFile@@QEAAPEAXI@Z 0000000140052f18     Shapedoc.obj
 0002:00012f30       $unwind$?OnSaveDocument@CDocument@@UEAAHPEB_W@Z 0000000140052f30     Shapedoc.obj
 0002:00012f50       $stateUnwindMap$?OnSaveDocument@CDocument@@UEAAHPEB_W@Z 0000000140052f50     Shapedoc.obj
 0002:00012f70       $ip2state$?OnSaveDocument@CDocument@@UEAAHPEB_W@Z 0000000140052f70     Shapedoc.obj
 0002:00012fb8       $unwind$?SetPathName@CDocument@@UEAAXPEB_WH@Z 0000000140052fb8     Shapedoc.obj
 0002:00012fcc       $unwind$?DoSave@CDocument@@UEAAHPEB_WH@Z 0000000140052fcc     Shapedoc.obj
 0002:00012ff0       $stateUnwindMap$?DoSave@CDocument@@UEAAHPEB_WH@Z 0000000140052ff0     Shapedoc.obj
 0002:00013010       $ip2state$?DoSave@CDocument@@UEAAHPEB_WH@Z 0000000140053010     Shapedoc.obj
 0002:00013058       $unwind$?Draw@CShape@@QEAAXPEAVCDCMTL@@H@Z 0000000140053058     Shapeobj.obj
 0002:00013078       $stateUnwindMap$?Draw@CShape@@QEAAXPEAVCDCMTL@@H@Z 0000000140053078     Shapeobj.obj
 0002:00013098       $ip2state$?Draw@CShape@@QEAAXPEAVCDCMTL@@H@Z 0000000140053098     Shapeobj.obj
 0002:000130d0       $chain$0$?Serialize@CShape@@UEAAXAEAVCArchive@@@Z 00000001400530d0     Shapeobj.obj
 0002:000130e4       $chain$1$?Serialize@CShape@@UEAAXAEAVCArchive@@@Z 00000001400530e4     Shapeobj.obj
 0002:000130f4       $chain$0$?SelectObject@CDCMTL@@QEAAPEAVCBrushMTL@@PEAV2@@Z 00000001400530f4     Shapeobj.obj
 0002:000130f4       $chain$0$?SelectObject@CDCMTL@@QEAAPEAVCPenMTL@@PEAV2@@Z 00000001400530f4     Shapeobj.obj
 0002:00013108       $chain$3$?SelectObject@CDCMTL@@QEAAPEAVCBrushMTL@@PEAV2@@Z 0000000140053108     Shapeobj.obj
 0002:00013108       $chain$1$?SelectObject@CDCMTL@@QEAAPEAVCBrushMTL@@PEAV2@@Z 0000000140053108     Shapeobj.obj
 0002:00013108       $chain$3$?SelectObject@CDCMTL@@QEAAPEAVCPenMTL@@PEAV2@@Z 0000000140053108     Shapeobj.obj
 0002:00013108       $chain$1$?SelectObject@CDCMTL@@QEAAPEAVCPenMTL@@PEAV2@@Z 0000000140053108     Shapeobj.obj
 0002:00013118       $chain$2$?SelectObject@CDCMTL@@QEAAPEAVCBrushMTL@@PEAV2@@Z 0000000140053118     Shapeobj.obj
 0002:00013118       $chain$2$?SelectObject@CDCMTL@@QEAAPEAVCPenMTL@@PEAV2@@Z 0000000140053118     Shapeobj.obj
 0002:0001312c       $unwind$??_GCGdiObject@@UEAAPEAXI@Z 000000014005312c     Shapeobj.obj
 0002:00013140       $stateUnwindMap$??_GCGdiObject@@UEAAPEAXI@Z 0000000140053140     Shapeobj.obj
 0002:00013148       $ip2state$??_GCGdiObject@@UEAAPEAXI@Z 0000000140053148     Shapeobj.obj
 0002:00013160       $unwind$?_ProcessWindowMessage@CShapesView@@UEAAHPEAUHWND__@@I_K_JAEA_J@Z 0000000140053160     Shapesvw.obj
 0002:00013170       $chain$0$?_ProcessWindowMessage@CShapesView@@UEAAHPEAUHWND__@@I_K_JAEA_J@Z 0000000140053170     Shapesvw.obj
 0002:00013184       $chain$5$?_ProcessWindowMessage@CShapesView@@UEAAHPEAUHWND__@@I_K_JAEA_J@Z 0000000140053184     Shapesvw.obj
 0002:000131a4       $unwind$??_GCView@@UEAAPEAXI@Z 00000001400531a4     Shapesvw.obj
 0002:000131a4       $unwind$??_GCShapesView@@UEAAPEAXI@Z 00000001400531a4     Shapesvw.obj
 0002:000131b8       $ip2state$??_GCShapesView@@UEAAPEAXI@Z 00000001400531b8     Shapesvw.obj
 0002:000131b8       $ip2state$??_GCView@@UEAAPEAXI@Z 00000001400531b8     Shapesvw.obj
 0002:000131d0       $unwind$_CallSETranslator$filt$0 00000001400531d0     LIBCMT:trnsctrl.obj
 0002:000131d0       $unwind$?OnDraw@CShapesView@@UEAAXPEAVCDCMTL@@@Z 00000001400531d0     Shapesvw.obj
 0002:000131d0       $unwind$_tzset_nolock$fin$0 00000001400531d0     LIBCMT:tzset.obj
 0002:000131d8       $chain$1$?OnDraw@CShapesView@@UEAAXPEAVCDCMTL@@@Z 00000001400531d8     Shapesvw.obj
 0002:000131f0       $chain$2$?OnDraw@CShapesView@@UEAAXPEAVCDCMTL@@@Z 00000001400531f0     Shapesvw.obj
 0002:00013204       $chain$3$?OnDraw@CShapesView@@UEAAXPEAVCDCMTL@@@Z 0000000140053204     Shapesvw.obj
 0002:00013214       $chain$4$?OnDraw@CShapesView@@UEAAXPEAVCDCMTL@@@Z 0000000140053214     Shapesvw.obj
 0002:00013224       $unwind$?OnLButtonDown@CShapesView@@IEAAXIVCPoint@WTL@@@Z 0000000140053224     Shapesvw.obj
 0002:00013248       $stateUnwindMap$?OnLButtonDown@CShapesView@@IEAAXIVCPoint@WTL@@@Z 0000000140053248     Shapesvw.obj
 0002:00013258       $ip2state$?OnLButtonDown@CShapesView@@IEAAXIVCPoint@WTL@@@Z 0000000140053258     Shapesvw.obj
 0002:00013280       $unwind$?OnSimplePropertySheet@CShapesView@@IEAAXXZ 0000000140053280     Shapesvw.obj
 0002:0001329c       $stateUnwindMap$?OnSimplePropertySheet@CShapesView@@IEAAXXZ 000000014005329c     Shapesvw.obj
 0002:000132d0       $ip2state$?OnSimplePropertySheet@CShapesView@@IEAAXXZ 00000001400532d0     Shapesvw.obj
 0002:00013320       $unwind$?OnPropertySheetWithPreview@CShapesView@@IEAAXXZ 0000000140053320     Shapesvw.obj
 0002:00013330       $stateUnwindMap$?CreateObject@CFrameWnd@@SAPEAVCObject@@XZ 0000000140053330     Stdafx.obj
 0002:00013330       $stateUnwindMap$?CreateObject@CMiniFrameWnd@@SAPEAVCObject@@XZ 0000000140053330     Stdafx.obj
 0002:00013330       $stateUnwindMap$?OnPropertySheetWithPreview@CShapesView@@IEAAXXZ 0000000140053330     Shapesvw.obj
 0002:00013330       $stateUnwindMap$?CreateObject@CMDIFrameWnd@@SAPEAVCObject@@XZ 0000000140053330     Stdafx.obj
 0002:00013330       $stateUnwindMap$?CreateObject@CMDIChildWnd@@SAPEAVCObject@@XZ 0000000140053330     Stdafx.obj
 0002:00013338       $ip2state$?OnPropertySheetWithPreview@CShapesView@@IEAAXXZ 0000000140053338     Shapesvw.obj
 0002:00013350       $chain$0$?_AtlCreateDC@WTL@@YAPEAUHDC__@@PEAX0@Z 0000000140053350     Shapesvw.obj
 0002:00013364       $chain$2$?_AtlCreateDC@WTL@@YAPEAUHDC__@@PEAX0@Z 0000000140053364     Shapesvw.obj
 0002:00013378       $unwind$?DoPreparePrinting@CView@@QEAAHPEAUCPrintInfo@@@Z 0000000140053378     Shapesvw.obj
 0002:00013388       $unwind$??_GCDialogBar@@UEAAPEAXI@Z 0000000140053388     Shapesvw.obj
 0002:0001339c       $stateUnwindMap$??_GCDialogBar@@UEAAPEAXI@Z 000000014005339c     Shapesvw.obj
 0002:000133a8       $ip2state$??_GCDialogBar@@UEAAPEAXI@Z 00000001400533a8     Shapesvw.obj
 0002:000133c0       $unwind$?Create@CDialogBar@@UEAAHPEAVCWnd@@PEB_WII@Z 00000001400533c0     Shapesvw.obj
 0002:000133d8       $chain$0$?OnDestroy@CView@@QEAAXXZ 00000001400533d8     Shapesvw.obj
 0002:000133ec       $chain$1$?OnDestroy@CView@@QEAAXXZ 00000001400533ec     Shapesvw.obj
 0002:000133fc       $unwind$?OnMouseActivate@CView@@QEAAHPEAVCWnd@@II@Z 00000001400533fc     Shapesvw.obj
 0002:00013408       $chain$0$?OnMouseActivate@CView@@QEAAHPEAVCWnd@@II@Z 0000000140053408     Shapesvw.obj
 0002:0001341c       $chain$1$?OnMouseActivate@CView@@QEAAHPEAVCWnd@@II@Z 000000014005341c     Shapesvw.obj
 0002:00013430       $chain$2$?OnMouseActivate@CView@@QEAAHPEAVCWnd@@II@Z 0000000140053430     Shapesvw.obj
 0002:00013440       $chain$4$?OnMouseActivate@CView@@QEAAHPEAVCWnd@@II@Z 0000000140053440     Shapesvw.obj
 0002:00013454       $chain$5$?OnMouseActivate@CView@@QEAAHPEAVCWnd@@II@Z 0000000140053454     Shapesvw.obj
 0002:00013464       $unwind$?OnPaint@CView@@QEAAXXZ 0000000140053464     Shapesvw.obj
 0002:0001347c       $stateUnwindMap$?OnPaint@CView@@QEAAXXZ 000000014005347c     Shapesvw.obj
 0002:00013490       $ip2state$?OnPaint@CView@@QEAAXXZ 0000000140053490     Shapesvw.obj
 0002:000134b8       $unwind$?_ProcessWindowMessage@CView@@UEAAHPEAUHWND__@@I_K_JAEA_J@Z 00000001400534b8     Shapesvw.obj
 0002:000134cc       $stateUnwindMap$?_ProcessWindowMessage@CView@@UEAAHPEAUHWND__@@I_K_JAEA_J@Z 00000001400534cc     Shapesvw.obj
 0002:000134d8       $ip2state$?_ProcessWindowMessage@CView@@UEAAHPEAUHWND__@@I_K_JAEA_J@Z 00000001400534d8     Shapesvw.obj
 0002:000134f0       $unwind$??1CView@@UEAA@XZ  00000001400534f0     Shapesvw.obj
 0002:00013500       $ip2state$??1CView@@UEAA@XZ 0000000140053500     Shapesvw.obj
 0002:00013518       $unwind$??1CPreviewDC@@UEAA@XZ 0000000140053518     Shapesvw.obj
 0002:00013528       $ip2state$??1CPreviewDC@@UEAA@XZ 0000000140053528     Shapesvw.obj
 0002:00013540       $unwind$?SelectStockObject@CPreviewDC@@QEAAPEAVCGdiObject@@H@Z 0000000140053540     Shapesvw.obj
 0002:0001354c       $chain$0$?SelectStockObject@CPreviewDC@@QEAAPEAVCGdiObject@@H@Z 000000014005354c     Shapesvw.obj
 0002:00013560       $chain$1$?SelectStockObject@CPreviewDC@@QEAAPEAVCGdiObject@@H@Z 0000000140053560     Shapesvw.obj
 0002:00013574       $chain$3$?SelectStockObject@CPreviewDC@@QEAAPEAVCGdiObject@@H@Z 0000000140053574     Shapesvw.obj
 0002:0001358c       $chain$4$?SelectStockObject@CPreviewDC@@QEAAPEAVCGdiObject@@H@Z 000000014005358c     Shapesvw.obj
 0002:0001358c       $chain$6$?SelectStockObject@CPreviewDC@@QEAAPEAVCGdiObject@@H@Z 000000014005358c     Shapesvw.obj
 0002:0001359c       $chain$5$?SelectStockObject@CPreviewDC@@QEAAPEAVCGdiObject@@H@Z 000000014005359c     Shapesvw.obj
 0002:000135b4       $chain$7$?SelectStockObject@CPreviewDC@@QEAAPEAVCGdiObject@@H@Z 00000001400535b4     Shapesvw.obj
 0002:000135c4       $chain$8$?SelectStockObject@CPreviewDC@@QEAAPEAVCGdiObject@@H@Z 00000001400535c4     Shapesvw.obj
 0002:000135d4       $unwind$?MirrorFont@CPreviewDC@@QEAAXXZ 00000001400535d4     Shapesvw.obj
 0002:000135e0       $chain$0$?MirrorFont@CPreviewDC@@QEAAXXZ 00000001400535e0     Shapesvw.obj
 0002:000135f4       $chain$3$?MirrorFont@CPreviewDC@@QEAAXXZ 00000001400535f4     Shapesvw.obj
 0002:00013610       $chain$4$?MirrorFont@CPreviewDC@@QEAAXXZ 0000000140053610     Shapesvw.obj
 0002:00013628       $chain$5$?MirrorFont@CPreviewDC@@QEAAXXZ 0000000140053628     Shapesvw.obj
 0002:00013640       $chain$6$?MirrorFont@CPreviewDC@@QEAAXXZ 0000000140053640     Shapesvw.obj
 0002:00013650       $unwind$?ComputeDeltas@CPreviewDC@@QEAA?AVCSize@WTL@@AEAHPEB_WAEAIHIPEAHHPEA_W30@Z 0000000140053650     Shapesvw.obj
 0002:00013668       $unwind$?ExtTextOutW@CPreviewDC@@QEAAHHHIPEBUtagRECT@@PEB_WIPEAH@Z 0000000140053668     Shapesvw.obj
 0002:0001368c       $stateUnwindMap$?ExtTextOutW@CPreviewDC@@QEAAHHHIPEBUtagRECT@@PEB_WIPEAH@Z 000000014005368c     Shapesvw.obj
 0002:000136a0       $ip2state$?ExtTextOutW@CPreviewDC@@QEAAHHHIPEBUtagRECT@@PEB_WIPEAH@Z 00000001400536a0     Shapesvw.obj
 0002:000136c8       $unwind$?GetScrollBarState@CScrollView@@QEAAXVCSize@WTL@@AEAV23@1AEAVCPoint@3@H@Z 00000001400536c8     Shapesvw.obj
 0002:000136dc       $unwind$?ScrollWindow@CWMHnd@@QEAAXHHPEBUtagRECT@@0@Z 00000001400536dc     Shapesvw.obj
 0002:000136f0       $chain$0$?ScrollWindow@CWMHnd@@QEAAXHHPEBUtagRECT@@0@Z 00000001400536f0     Shapesvw.obj
 0002:00013704       $chain$1$?ScrollWindow@CWMHnd@@QEAAXHHPEBUtagRECT@@0@Z 0000000140053704     Shapesvw.obj
 0002:00013714       $unwind$?UpdateBars@CScrollView@@QEAAXXZ 0000000140053714     Shapesvw.obj
 0002:00013720       $chain$5$?UpdateBars@CScrollView@@QEAAXXZ 0000000140053720     Shapesvw.obj
 0002:00013748       $chain$6$?UpdateBars@CScrollView@@QEAAXXZ 0000000140053748     Shapesvw.obj
 0002:00013758       $unwind$?SetScrollSizes@CScrollView@@QEAAXHUtagSIZE@@AEBU2@1@Z 0000000140053758     Shapesvw.obj
 0002:0001377c       $stateUnwindMap$?SetScrollSizes@CScrollView@@QEAAXHUtagSIZE@@AEBU2@1@Z 000000014005377c     Shapesvw.obj
 0002:00013788       $ip2state$?SetScrollSizes@CScrollView@@QEAAXHUtagSIZE@@AEBU2@1@Z 0000000140053788     Shapesvw.obj
 0002:000137a0       $chain$0$?SetCurrentPage@CPreviewView@@QEAAXIH@Z 00000001400537a0     Shapesvw.obj
 0002:000137b4       $chain$1$?SetCurrentPage@CPreviewView@@QEAAXIH@Z 00000001400537b4     Shapesvw.obj
 0002:000137c8       $chain$2$?SetCurrentPage@CPreviewView@@QEAAXIH@Z 00000001400537c8     Shapesvw.obj
 0002:000137d8       $chain$3$?SetCurrentPage@CPreviewView@@QEAAXIH@Z 00000001400537d8     Shapesvw.obj
 0002:000137e8       $unwind$?SetPrintView@CPreviewView@@QEAAHPEAVCView@@@Z 00000001400537e8     Shapesvw.obj
 0002:00013800       $stateUnwindMap$?SetPrintView@CPreviewView@@QEAAHPEAVCView@@@Z 0000000140053800     Shapesvw.obj
 0002:00013808       $ip2state$?SetPrintView@CPreviewView@@QEAAHPEAVCView@@@Z 0000000140053808     Shapesvw.obj
 0002:00013820       $chain$0$?OnPreviewClose@CPreviewView@@QEAAXXZ 0000000140053820     Shapesvw.obj
 0002:00013834       $chain$1$?OnPreviewClose@CPreviewView@@QEAAXXZ 0000000140053834     Shapesvw.obj
 0002:00013844       $unwind$?OnActivateView@CView@@UEAAXHPEAV1@0@Z 0000000140053844     Shapesvw.obj
 0002:00013844       $unwind$?OnActivateView@CPreviewView@@UEAAXHPEAVCView@@0@Z 0000000140053844     Stdafx.obj
 0002:0001384c       $chain$0$?OnActivateView@CView@@UEAAXHPEAV1@0@Z 000000014005384c     Shapesvw.obj
 0002:00013860       $chain$1$?OnActivateView@CView@@UEAAXHPEAV1@0@Z 0000000140053860     Shapesvw.obj
 0002:00013870       $unwind$?DoPrintPreview@CView@@QEAAHIPEAV1@PEAUCRuntimeClass@@PEAUCPrintPreviewState@@@Z 0000000140053870     Shapesvw.obj
 0002:0001387c       $chain$1$?DoPrintPreview@CView@@QEAAHIPEAV1@PEAUCRuntimeClass@@PEAUCPrintPreviewState@@@Z 000000014005387c     Shapesvw.obj
 0002:00013894       $chain$2$?DoPrintPreview@CView@@QEAAHIPEAV1@PEAUCRuntimeClass@@PEAUCPrintPreviewState@@@Z 0000000140053894     Shapesvw.obj
 0002:000138a8       $chain$3$?DoPrintPreview@CView@@QEAAHIPEAV1@PEAUCRuntimeClass@@PEAUCPrintPreviewState@@@Z 00000001400538a8     Shapesvw.obj
 0002:000138b8       $chain$5$?DoPrintPreview@CView@@QEAAHIPEAV1@PEAUCRuntimeClass@@PEAUCPrintPreviewState@@@Z 00000001400538b8     Shapesvw.obj
 0002:000138d0       $chain$6$?DoPrintPreview@CView@@QEAAHIPEAV1@PEAUCRuntimeClass@@PEAUCPrintPreviewState@@@Z 00000001400538d0     Shapesvw.obj
 0002:000138e0       $unwind$?OnFilePrintPreview@CView@@QEAAXXZ 00000001400538e0     Shapesvw.obj
 0002:000138f4       $tryMap$?OnFilePrintPreview@CView@@QEAAXXZ 00000001400538f4     Shapesvw.obj
 0002:00013908       $handlerMap$0$?OnFilePrintPreview@CView@@QEAAXXZ 0000000140053908     Shapesvw.obj
 0002:00013920       $ip2state$?OnFilePrintPreview@CView@@QEAAXXZ 0000000140053920     Shapesvw.obj
 0002:00013948       $unwind$?catch$0@?0??OnFilePrintPreview@CView@@QEAAXXZ@4HA 0000000140053948     Shapesvw.obj
 0002:00013958       $unwind$??0CPrintInfo@@QEAA@XZ 0000000140053958     Shapesvw.obj
 0002:00013970       $stateUnwindMap$??1CPrintInfo@@QEAA@XZ 0000000140053970     Shapesvw.obj
 0002:00013970       $stateUnwindMap$??0CPrintInfo@@QEAA@XZ 0000000140053970     Shapesvw.obj
 0002:00013978       $ip2state$??0CPrintInfo@@QEAA@XZ 0000000140053978     Shapesvw.obj
 0002:00013990       $unwind$??1CPrintInfo@@QEAA@XZ 0000000140053990     Shapesvw.obj
 0002:000139a0       $ip2state$??1CPrintInfo@@QEAA@XZ 00000001400539a0     Shapesvw.obj
 0002:000139b8       $chain$1$?FromHandle@?$CHandleList@PEAUHDC__@@VCDCMTL@@PEAUHWND__@@@@QEAAPEAVCDCMTL@@QEAUHDC__@@PEAV2@QEAUHWND__@@Q6APEAXPEAX3@Z@Z 00000001400539b8     Shapesvw.obj
 0002:000139d0       $chain$2$?FromHandle@?$CHandleList@PEAUHDC__@@VCDCMTL@@PEAUHWND__@@@@QEAAPEAVCDCMTL@@QEAUHDC__@@PEAV2@QEAUHWND__@@Q6APEAXPEAX3@Z@Z 00000001400539d0     Shapesvw.obj
 0002:000139e0       $chain$3$?FromHandle@?$CHandleList@PEAUHDC__@@VCDCMTL@@PEAUHWND__@@@@QEAAPEAVCDCMTL@@QEAUHDC__@@PEAV2@QEAUHWND__@@Q6APEAXPEAX3@Z@Z 00000001400539e0     Shapesvw.obj
 0002:000139f8       $unwind$?OnFilePrint@CView@@QEAAXXZ 00000001400539f8     Shapesvw.obj
 0002:00013a18       $stateUnwindMap$?OnFilePrint@CView@@QEAAXXZ 0000000140053a18     Shapesvw.obj
 0002:00013ab0       $ip2state$?OnFilePrint@CView@@QEAAXXZ 0000000140053ab0     Shapesvw.obj
 0002:00013c20       $chain$0$?SelectStockObject@CDCMTL@@QEAAPEAVCGdiObject@@H@Z 0000000140053c20     Stdafx.obj
 0002:00013c34       $chain$1$?SelectStockObject@CDCMTL@@QEAAPEAVCGdiObject@@H@Z 0000000140053c34     Stdafx.obj
 0002:00013c34       $chain$3$?SelectStockObject@CDCMTL@@QEAAPEAVCGdiObject@@H@Z 0000000140053c34     Stdafx.obj
 0002:00013c44       $chain$2$?SelectStockObject@CDCMTL@@QEAAPEAVCGdiObject@@H@Z 0000000140053c44     Stdafx.obj
 0002:00013c58       $unwind$?ClipToPage@CPreviewDC@@QEAAXXZ 0000000140053c58     Stdafx.obj
 0002:00013c58       $unwind$_wsetargv          0000000140053c58     LIBCMT:wstdargv.obj
 0002:00013c68       $chain$0$?MirrorMappingMode@CPreviewDC@@QEAAXH@Z 0000000140053c68     Stdafx.obj
 0002:00013c7c       $chain$1$?MirrorMappingMode@CPreviewDC@@QEAAXH@Z 0000000140053c7c     Stdafx.obj
 0002:00013c90       $chain$2$?MirrorMappingMode@CPreviewDC@@QEAAXH@Z 0000000140053c90     Stdafx.obj
 0002:00013ca0       $chain$3$?MirrorMappingMode@CPreviewDC@@QEAAXH@Z 0000000140053ca0     Stdafx.obj
 0002:00013cb0       $unwind$?MirrorViewportOrg@CPreviewDC@@QEAAXXZ 0000000140053cb0     Stdafx.obj
 0002:00013cb8       $chain$1$?MirrorViewportOrg@CPreviewDC@@QEAAXXZ 0000000140053cb8     Stdafx.obj
 0002:00013cd0       $chain$2$?MirrorViewportOrg@CPreviewDC@@QEAAXXZ 0000000140053cd0     Stdafx.obj
 0002:00013ce0       $unwind$??1CImage@@UEAA@XZ 0000000140053ce0     Stdafx.obj
 0002:00013cf0       $ip2state$??1CImage@@UEAA@XZ 0000000140053cf0     Stdafx.obj
 0002:00013d08       $unwind$?CreateEx@CImage@@QEAAHHHHKPEBKK@Z 0000000140053d08     Stdafx.obj
 0002:00013d24       $unwind$?UpdateBitmapInfo@CImage@@QEAAXW4DIBOrientation@1@@Z 0000000140053d24     Stdafx.obj
 0002:00013d34       $unwind$?GetScrollLimit@CWMHnd@@QEAAHH@Z 0000000140053d34     Stdafx.obj
 0002:00013d44       $chain$3$?GetFocus@CWnd@@SAPEAV1@XZ 0000000140053d44     Stdafx.obj
 0002:00013d58       $chain$4$?GetFocus@CWnd@@SAPEAV1@XZ 0000000140053d58     Stdafx.obj
 0002:00013d58       $chain$8$?GetFocus@CWnd@@SAPEAV1@XZ 0000000140053d58     Stdafx.obj
 0002:00013d68       $chain$5$?GetFocus@CWnd@@SAPEAV1@XZ 0000000140053d68     Stdafx.obj
 0002:00013d7c       $chain$6$?GetFocus@CWnd@@SAPEAV1@XZ 0000000140053d7c     Stdafx.obj
 0002:00013d90       $chain$7$?GetFocus@CWnd@@SAPEAV1@XZ 0000000140053d90     Stdafx.obj
 0002:00013da0       $chain$3$?SetCapture@CWnd@@QEAAPEAV1@XZ 0000000140053da0     Stdafx.obj
 0002:00013db4       $chain$8$?SetCapture@CWnd@@QEAAPEAV1@XZ 0000000140053db4     Stdafx.obj
 0002:00013db4       $chain$4$?SetCapture@CWnd@@QEAAPEAV1@XZ 0000000140053db4     Stdafx.obj
 0002:00013dc4       $chain$5$?SetCapture@CWnd@@QEAAPEAV1@XZ 0000000140053dc4     Stdafx.obj
 0002:00013dd8       $chain$6$?SetCapture@CWnd@@QEAAPEAV1@XZ 0000000140053dd8     Stdafx.obj
 0002:00013dec       $chain$7$?SetCapture@CWnd@@QEAAPEAV1@XZ 0000000140053dec     Stdafx.obj
 0002:00013dfc       $unwind$?OnPaint@_AFX_MOUSEANCHORWND@@QEAAXXZ 0000000140053dfc     Stdafx.obj
 0002:00013e18       $stateUnwindMap$?OnPaint@_AFX_MOUSEANCHORWND@@QEAAXXZ 0000000140053e18     Stdafx.obj
 0002:00013e20       $ip2state$?OnPaint@_AFX_MOUSEANCHORWND@@QEAAXXZ 0000000140053e20     Stdafx.obj
 0002:00013e38       $unwind$??1CScrollView@@UEAA@XZ 0000000140053e38     Stdafx.obj
 0002:00013e48       $stateUnwindMap$??1CScrollView@@UEAA@XZ 0000000140053e48     Stdafx.obj
 0002:00013e58       $ip2state$??1CScrollView@@UEAA@XZ 0000000140053e58     Stdafx.obj
 0002:00013e80       $unwind$?OnHScroll@CScrollView@@QEAAXIIPEAVCScrollBarMTL@@@Z 0000000140053e80     Stdafx.obj
 0002:00013e80       $unwind$_invalid_parameter 0000000140053e80     LIBCMT:invarg.obj
 0002:00013e80       $unwind$?OnVScroll@CScrollView@@QEAAXIIPEAVCScrollBarMTL@@@Z 0000000140053e80     Stdafx.obj
 0002:00013e94       $unwind$?OnPrepareDC@CScrollView@@UEAAXPEAVCDCMTL@@PEAUCPrintInfo@@@Z 0000000140053e94     Stdafx.obj
 0002:00013ea8       $unwind$?OnPrintClient@CScrollView@@QEAA_JPEAVCDCMTL@@I@Z 0000000140053ea8     Stdafx.obj
 0002:00013ecc       $stateUnwindMap$?OnPrintClient@CScrollView@@QEAA_JPEAVCDCMTL@@I@Z 0000000140053ecc     Stdafx.obj
 0002:00013ef0       $ip2state$?OnPrintClient@CScrollView@@QEAA_JPEAVCDCMTL@@I@Z 0000000140053ef0     Stdafx.obj
 0002:00013f30       $unwind$?OnScrollBy@CScrollView@@UEAAHVCSize@WTL@@H@Z 0000000140053f30     Stdafx.obj
 0002:00013f48       $unwind$?CCalcWindowRect@CScrollView@@UEAAXPEAUtagRECT@@I@Z 0000000140053f48     Stdafx.obj
 0002:00013f54       $chain$0$?CCalcWindowRect@CScrollView@@UEAAXPEAUtagRECT@@I@Z 0000000140053f54     Stdafx.obj
 0002:00013f68       $chain$3$?CCalcWindowRect@CScrollView@@UEAAXPEAUtagRECT@@I@Z 0000000140053f68     Stdafx.obj
 0002:00013f84       $chain$4$?CCalcWindowRect@CScrollView@@UEAAXPEAUtagRECT@@I@Z 0000000140053f84     Stdafx.obj
 0002:00013f98       $chain$5$?CCalcWindowRect@CScrollView@@UEAAXPEAUtagRECT@@I@Z 0000000140053f98     Stdafx.obj
 0002:00013fa8       $unwind$?DoMouseWheel@CScrollView@@QEAAHIFVCPoint@WTL@@@Z 0000000140053fa8     Stdafx.obj
 0002:00013fc0       $unwind$?HandleMButtonDown@CScrollView@@QEAA_J_K_J@Z 0000000140053fc0     Stdafx.obj
 0002:00013fd4       $unwind$?_ProcessWindowMessage@CScrollView@@UEAAHPEAUHWND__@@I_K_JAEA_J@Z 0000000140053fd4     Stdafx.obj
 0002:00013ff0       $ip2state$?_ProcessWindowMessage@CScrollView@@UEAAHPEAUHWND__@@I_K_JAEA_J@Z 0000000140053ff0     Stdafx.obj
 0002:00014010       $unwind$?Create@_AFX_MOUSEANCHORWND@@QEAAHPEAVCScrollView@@@Z 0000000140054010     Stdafx.obj
 0002:0001402c       $stateUnwindMap$?Create@_AFX_MOUSEANCHORWND@@QEAAHPEAVCScrollView@@@Z 000000014005402c     Stdafx.obj
 0002:00014040       $ip2state$?Create@_AFX_MOUSEANCHORWND@@QEAAHPEAVCScrollView@@@Z 0000000140054040     Stdafx.obj
 0002:00014060       $unwind$??1CPreviewView@@UEAA@XZ 0000000140054060     Stdafx.obj
 0002:00014074       $stateUnwindMap$??1CPreviewView@@UEAA@XZ 0000000140054074     Stdafx.obj
 0002:00014090       $ip2state$??1CPreviewView@@UEAA@XZ 0000000140054090     Stdafx.obj
 0002:000140c0       $chain$0$?OnActivateView@CPreviewView@@UEAAXHPEAVCView@@0@Z 00000001400540c0     Stdafx.obj
 0002:000140d4       $chain$1$?OnActivateView@CPreviewView@@UEAAXHPEAVCView@@0@Z 00000001400540d4     Stdafx.obj
 0002:000140e4       $unwind$?OnDraw@CPreviewView@@UEAAXPEAVCDCMTL@@@Z 00000001400540e4     Stdafx.obj
 0002:00014108       $stateUnwindMap$?OnDraw@CPreviewView@@UEAAXPEAVCDCMTL@@@Z 0000000140054108     Stdafx.obj
 0002:00014128       $ip2state$?OnDraw@CPreviewView@@UEAAXPEAVCDCMTL@@@Z 0000000140054128     Stdafx.obj
 0002:00014160       $unwind$?OnEraseBkgnd@CPreviewView@@QEAAHPEAVCDCMTL@@@Z 0000000140054160     Stdafx.obj
 0002:00014178       $stateUnwindMap$?OnEraseBkgnd@CPreviewView@@QEAAHPEAVCDCMTL@@@Z 0000000140054178     Stdafx.obj
 0002:00014188       $ip2state$?OnEraseBkgnd@CPreviewView@@QEAAHPEAVCDCMTL@@@Z 0000000140054188     Stdafx.obj
 0002:000141a8       $unwind$?OnUpdateNumPageChange@CPreviewView@@QEAAXPEAVCCmdUI@@@Z 00000001400541a8     Stdafx.obj
 0002:000141c8       $ip2state$?OnUpdateNumPageChange@CPreviewView@@QEAAXPEAVCCmdUI@@@Z 00000001400541c8     Stdafx.obj
 0002:000141e0       $unwind$?CalcPageDisplaySize@CPreviewView@@QEAA?AVCSize@WTL@@XZ 00000001400541e0     Stdafx.obj
 0002:000141f8       $unwind$?CalcScaleRatio@CPreviewView@@UEAA?AVCSize@WTL@@V23@0@Z 00000001400541f8     Stdafx.obj
 0002:00014208       $unwind$?DoZoom@CPreviewView@@QEAAXIVCPoint@WTL@@@Z 0000000140054208     Stdafx.obj
 0002:00014214       $chain$0$?DoZoom@CPreviewView@@QEAAXIVCPoint@WTL@@@Z 0000000140054214     Stdafx.obj
 0002:00014228       $chain$1$?DoZoom@CPreviewView@@QEAAXIVCPoint@WTL@@@Z 0000000140054228     Stdafx.obj
 0002:00014238       $unwind$?FindPageRect@CPreviewView@@QEAAHAEAVCPoint@WTL@@AEAI@Z 0000000140054238     Stdafx.obj
 0002:0001424c       $unwind$?PositionPage@CPreviewView@@UEAAXI@Z 000000014005424c     Stdafx.obj
 0002:00014260       $unwind$?SetScaledSize@CPreviewView@@QEAAXI@Z 0000000140054260     Stdafx.obj
 0002:00014270       $unwind$?_ProcessWindowMessage@CPreviewView@@UEAAHPEAUHWND__@@I_K_JAEA_J@Z 0000000140054270     Stdafx.obj
 0002:00014290       $ip2state$?_ProcessWindowMessage@CPreviewView@@UEAAHPEAUHWND__@@I_K_JAEA_J@Z 0000000140054290     Stdafx.obj
 0002:000142b0       $unwind$?OnUpdateFrameTitle@CMDIChildWnd@@UEAAXH@Z 00000001400542b0     Stdafx.obj
 0002:000142c0       $chain$0$?OnUpdateFrameTitle@CMDIChildWnd@@UEAAXH@Z 00000001400542c0     Stdafx.obj
 0002:000142d4       $chain$1$?OnUpdateFrameTitle@CMDIChildWnd@@UEAAXH@Z 00000001400542d4     Stdafx.obj
 0002:000142e4       $unwind$?OnWindowPosChanging@CMDIChildWnd@@QEAAXPEAUtagWINDOWPOS@@@Z 00000001400542e4     Stdafx.obj
 0002:000142f0       $chain$0$?OnWindowPosChanging@CMDIChildWnd@@QEAAXPEAUtagWINDOWPOS@@@Z 00000001400542f0     Stdafx.obj
 0002:00014304       $chain$1$?OnWindowPosChanging@CMDIChildWnd@@QEAAXPEAUtagWINDOWPOS@@@Z 0000000140054304     Stdafx.obj
 0002:00014314       $unwind$?ActivateFrame@CMDIChildWnd@@UEAAXH@Z 0000000140054314     Stdafx.obj
 0002:00014328       $unwind$?DestroyWindow@CMDIChildWnd@@UEAAHXZ 0000000140054328     Stdafx.obj
 0002:0001433c       $unwind$?GetMDIFrame@CMDIChildWnd@@QEAAPEAVCMDIFrameWnd@@XZ 000000014005433c     Stdafx.obj
 0002:00014354       $chain$3$?GetMDIFrame@CMDIChildWnd@@QEAAPEAVCMDIFrameWnd@@XZ 0000000140054354     Stdafx.obj
 0002:00014368       $chain$8$?GetMDIFrame@CMDIChildWnd@@QEAAPEAVCMDIFrameWnd@@XZ 0000000140054368     Stdafx.obj
 0002:00014368       $chain$4$?GetMDIFrame@CMDIChildWnd@@QEAAPEAVCMDIFrameWnd@@XZ 0000000140054368     Stdafx.obj
 0002:00014378       $chain$5$?GetMDIFrame@CMDIChildWnd@@QEAAPEAVCMDIFrameWnd@@XZ 0000000140054378     Stdafx.obj
 0002:0001438c       $chain$6$?GetMDIFrame@CMDIChildWnd@@QEAAPEAVCMDIFrameWnd@@XZ 000000014005438c     Stdafx.obj
 0002:000143a0       $chain$7$?GetMDIFrame@CMDIChildWnd@@QEAAPEAVCMDIFrameWnd@@XZ 00000001400543a0     Stdafx.obj
 0002:000143b0       $chain$0$?PreTranslateMessage@CMDIChildWnd@@UEAAHPEAUtagMSG@@@Z 00000001400543b0     Stdafx.obj
 0002:000143c4       $chain$2$?PreTranslateMessage@CMDIChildWnd@@UEAAHPEAUtagMSG@@@Z 00000001400543c4     Stdafx.obj
 0002:000143d8       $chain$3$?PreTranslateMessage@CMDIChildWnd@@UEAAHPEAUtagMSG@@@Z 00000001400543d8     Stdafx.obj
 0002:000143e8       $unwind$?UpdateClientEdge@CMDIChildWnd@@QEAAHPEAUtagRECT@@@Z 00000001400543e8     Stdafx.obj
 0002:000143fc       $chain$0$?UpdateClientEdge@CMDIChildWnd@@QEAAHPEAUtagRECT@@@Z 00000001400543fc     Stdafx.obj
 0002:00014410       $chain$1$?UpdateClientEdge@CMDIChildWnd@@QEAAHPEAUtagRECT@@@Z 0000000140054410     Stdafx.obj
 0002:00014420       $unwind$?_ProcessWindowMessage@CMDIChildWnd@@UEAAHPEAUHWND__@@I_K_JAEA_J@Z 0000000140054420     Stdafx.obj
 0002:00014440       $unwind$?LoadFrame@CMDIChildWnd@@UEAAHIKPEAVCWnd@@PEAUCCreateContext@@@Z 0000000140054440     Stdafx.obj
 0002:00014460       $stateUnwindMap$?LoadFrame@CMDIChildWnd@@UEAAHIKPEAVCWnd@@PEAUCCreateContext@@@Z 0000000140054460     Stdafx.obj
 0002:00014470       $ip2state$?LoadFrame@CMDIChildWnd@@UEAAHIKPEAVCWnd@@PEAUCCreateContext@@@Z 0000000140054470     Stdafx.obj
 0002:00014498       $unwind$?OnTimer@_AFX_MOUSEANCHORWND@@QEAAX_K@Z 0000000140054498     Stdafx.obj
 0002:000144a8       $chain$1$?OnTimer@_AFX_MOUSEANCHORWND@@QEAAX_K@Z 00000001400544a8     Stdafx.obj
 0002:000144bc       $chain$3$?OnTimer@_AFX_MOUSEANCHORWND@@QEAAX_K@Z 00000001400544bc     Stdafx.obj
 0002:000144d0       $unwind$?SetCurrentHandles@CWinApp@@QEAAXXZ 00000001400544d0     Stdafx.obj
 0002:000144e0       $chain$4$?SetCurrentHandles@CWinApp@@QEAAXXZ 00000001400544e0     Stdafx.obj
 0002:00014504       $chain$5$?SetCurrentHandles@CWinApp@@QEAAXXZ 0000000140054504     Stdafx.obj
 0002:00014514       $unwind$?Create@CMDIChildWnd@@UEAAHPEB_W0KAEBUtagRECT@@PEAVCMDIFrameWnd@@PEAUCCreateContext@@@Z 0000000140054514     Stdafx.obj
 0002:00014530       $unwind$?OnDisplayPageNumber@CPreviewView@@UEAAXII@Z 0000000140054530     Stdafx.obj
 0002:00014550       $stateUnwindMap$?OnDisplayPageNumber@CPreviewView@@UEAAXII@Z 0000000140054550     Stdafx.obj
 0002:00014558       $ip2state$?OnDisplayPageNumber@CPreviewView@@UEAAXII@Z 0000000140054558     Stdafx.obj
 0002:00014570       $unwind$??__F?wndTop@CWMHnd@@2V1@B@@YAXXZ 0000000140054570     Stdafx.obj
 0002:00014580       $stateUnwindMap$??__F?wndTop@CWMHnd@@2V1@B@@YAXXZ 0000000140054580     Stdafx.obj
 0002:00014588       $ip2state$??__F?wndTop@CWMHnd@@2V1@B@@YAXXZ 0000000140054588     Stdafx.obj
 0002:000145a0       $unwind$??__F?wndBottom@CWMHnd@@2V1@B@@YAXXZ 00000001400545a0     Stdafx.obj
 0002:000145b0       $stateUnwindMap$??__F?wndBottom@CWMHnd@@2V1@B@@YAXXZ 00000001400545b0     Stdafx.obj
 0002:000145b8       $ip2state$??__F?wndBottom@CWMHnd@@2V1@B@@YAXXZ 00000001400545b8     Stdafx.obj
 0002:000145d0       $unwind$??__F?wndTopMost@CWMHnd@@2V1@B@@YAXXZ 00000001400545d0     Stdafx.obj
 0002:000145e0       $stateUnwindMap$??__F?wndTopMost@CWMHnd@@2V1@B@@YAXXZ 00000001400545e0     Stdafx.obj
 0002:000145e8       $ip2state$??__F?wndTopMost@CWMHnd@@2V1@B@@YAXXZ 00000001400545e8     Stdafx.obj
 0002:00014600       $unwind$??__F?wndNoTopMost@CWMHnd@@2V1@B@@YAXXZ 0000000140054600     Stdafx.obj
 0002:00014610       $stateUnwindMap$??__F?wndNoTopMost@CWMHnd@@2V1@B@@YAXXZ 0000000140054610     Stdafx.obj
 0002:00014618       $ip2state$??__F?wndNoTopMost@CWMHnd@@2V1@B@@YAXXZ 0000000140054618     Stdafx.obj
 0002:00014630       $unwind$?CreateObject@CFrameWnd@@SAPEAVCObject@@XZ 0000000140054630     Stdafx.obj
 0002:00014640       $ip2state$?CreateObject@CFrameWnd@@SAPEAVCObject@@XZ 0000000140054640     Stdafx.obj
 0002:00014658       $unwind$?CreateObject@CMiniFrameWnd@@SAPEAVCObject@@XZ 0000000140054658     Stdafx.obj
 0002:00014668       $ip2state$?CreateObject@CMiniFrameWnd@@SAPEAVCObject@@XZ 0000000140054668     Stdafx.obj
 0002:00014680       $unwind$?CreateObject@CMDIFrameWnd@@SAPEAVCObject@@XZ 0000000140054680     Stdafx.obj
 0002:00014690       $ip2state$?CreateObject@CMDIFrameWnd@@SAPEAVCObject@@XZ 0000000140054690     Stdafx.obj
 0002:000146a8       $unwind$?CreateObject@CMDIChildWnd@@SAPEAVCObject@@XZ 00000001400546a8     Stdafx.obj
 0002:000146b8       $ip2state$?CreateObject@CMDIChildWnd@@SAPEAVCObject@@XZ 00000001400546b8     Stdafx.obj
 0002:000146d0       $unwind$__tmainCRTStartup  00000001400546d0     LIBCMT:wwincrt0.obj
 0002:000146f8       $unwind$_onexit            00000001400546f8     LIBCMT:onexit.obj
 0002:00014728       $unwind$wcsncpy            0000000140054728     LIBCMT:wcsncpy.obj
 0002:00014730       $xdatasym                  0000000140054730     LIBCMT:memcpy.obj
 0002:00014734       $unwind$??_M@YAXPEAX_KHP6AX0@Z@Z 0000000140054734     LIBCMT:ehvecdtr.obj
 0002:0001475c       $unwind$?__ArrayUnwind@@YAXPEAX_KHP6AX0@Z@Z 000000014005475c     LIBCMT:ehvecdtr.obj
 0002:00014784       $unwind$??_L@YAXPEAX_KHP6AX0@Z2@Z 0000000140054784     LIBCMT:ehvecctr.obj
 0002:000147b0       $unwind$doexit             00000001400547b0     LIBCMT:crt0dat.obj
 0002:000147e0       $unwind$_make__time64_t    00000001400547e0     LIBCMT:mktime64.obj
 0002:00014800       $xdatasym                  0000000140054800     LIBCMT:memset.obj
 0002:00014804       $unwind$_freefls           0000000140054804     LIBCMT:tidtable.obj
 0002:00014838       $unwind$_initptd           0000000140054838     LIBCMT:tidtable.obj
 0002:0001486c       $unwind$_ioinit            000000014005486c     LIBCMT:ioinit.obj
 0002:000148b4       $unwind$wparse_cmdline     00000001400548b4     LIBCMT:wstdargv.obj
 0002:000148cc       $unwind$_wsetenvp          00000001400548cc     LIBCMT:wstdenvp.obj
 0002:000148e4       $unwind$_NMSG_WRITE        00000001400548e4     LIBCMT:crt0msg.obj
 0002:00014908       $unwind$__security_init_cookie 0000000140054908     LIBCMT:gs_support.obj
 0002:00014914       $unwind$__crtCaptureCurrentContext 0000000140054914     LIBCMT:winapisupp.obj
 0002:00014920       $unwind$__crtCapturePreviousContext 0000000140054920     LIBCMT:winapisupp.obj
 0002:0001492c       $unwind$__C_specific_handler 000000014005492c     LIBCMT:chandler.obj
 0002:00014948       $xdatasym                  0000000140054948     LIBCMT:strcmp.obj
 0002:0001494c       $unwind$?_Type_info_dtor@type_info@@CAXPEAV1@@Z 000000014005494c     LIBCMT:typname.obj
 0002:0001496c       $unwind$?_Copy_str@exception@std@@AEAAXPEBD@Z 000000014005496c     LIBCMT:stdexcpt.obj
 0002:0001497c       $unwind$_CxxThrowException 000000014005497c     LIBCMT:throw.obj
 0002:0001498c       $unwind$_call_reportfault  000000014005498c     LIBCMT:invarg.obj
 0002:000149ac       $unwind$_malloc_crt        00000001400549ac     LIBCMT:crtheap.obj
 0002:000149ac       $unwind$__TypeMatch        00000001400549ac     LIBCMT:crtheap.obj
 0002:000149ac       $unwind$_realloc_crt       00000001400549ac     LIBCMT:crtheap.obj
 0002:000149ac       $unwind$GetTableIndexFromLocaleName 00000001400549ac     LIBCMT:crtheap.obj
 0002:000149ac       $unwind$_calloc_crt        00000001400549ac     LIBCMT:crtheap.obj
 0002:000149c4       $unwind$__isa_available_init 00000001400549c4     LIBCMT:cpu_disp.obj
 0002:000149d8       $unwind$?terminate@@YAXXZ  00000001400549d8     LIBCMT:hooks.obj
 0002:000149f8       $unwind$?_inconsistency@@YAXXZ 00000001400549f8     LIBCMT:hooks.obj
 0002:00014a18       $unwind$_mtinitlocknum     0000000140054a18     LIBCMT:mlock.obj
 0002:00014a40       $unwind$_IsNonwritableInCurrentImage 0000000140054a40     LIBCMT:pesect.obj
 0002:00014a64       $unwind$raise              0000000140054a64     LIBCMT:winsig.obj
 0002:00014a94       $unwind$__updatetmbcinfo   0000000140054a94     LIBCMT:mbctype.obj
 0002:00014ab8       $unwind$_setmbcp           0000000140054ab8     LIBCMT:mbctype.obj
 0002:00014ae8       $unwind$_setmbcp_nolock    0000000140054ae8     LIBCMT:mbctype.obj
 0002:00014b08       $unwind$?setSBUpLow@@YAXPEAUthreadmbcinfostruct@@@Z 0000000140054b08     LIBCMT:mbctype.obj
 0002:00014b24       $unwind$_localtime64_s     0000000140054b24     LIBCMT:loctim64.obj
 0002:00014b30       $unwind$_isindst           0000000140054b30     LIBCMT:tzset.obj
 0002:00014b50       $unwind$__tzset            0000000140054b50     LIBCMT:tzset.obj
 0002:00014b70       $unwind$_isindst_nolock    0000000140054b70     LIBCMT:tzset.obj
 0002:00014b88       $unwind$_tzset_nolock      0000000140054b88     LIBCMT:tzset.obj
 0002:00014bc4       $unwind$cvtdate            0000000140054bc4     LIBCMT:tzset.obj
 0002:00014bd8       $xdatasym                  0000000140054bd8     LIBCMT:amdsecgs.obj
 0002:00014bdc       $unwind$__updatetlocinfo   0000000140054bdc     LIBCMT:localref.obj
 0002:00014c00       $xdatasym                  0000000140054c00     LIBCMT:jmpuwind.obj
 0002:00014c18       $xdatasym                  0000000140054c18     LIBCMT:strlen.obj
 0002:00014c1c       $unwind$__crtMessageBoxW   0000000140054c1c     LIBCMT:crtmboxw.obj
 0002:00014c38       $unwind$__crtCompareStringEx 0000000140054c38     LIBCMT:winapinls.obj
 0002:00014c38       $unwind$__crtLCMapStringEx 0000000140054c38     LIBCMT:winapinls.obj
 0002:00014c48       $unwind$?__crtLCMapStringA_stat@@YAHPEAUlocaleinfo_struct@@PEB_WKPEBDHPEADHHH@Z 0000000140054c48     LIBCMT:a_map.obj
 0002:00014c70       $unwind$?__crtGetStringTypeA_stat@@YAHPEAUlocaleinfo_struct@@KPEBDHPEAGHH@Z 0000000140054c70     LIBCMT:a_str.obj
 0002:00014c98       $unwind$flsall             0000000140054c98     LIBCMT:fflush.obj
 0002:00014cd8       $unwind$__free_lconv_mon   0000000140054cd8     LIBCMT:initmon.obj
 0002:00014cd8       $unwind$__free_lc_time     0000000140054cd8     LIBCMT:initmon.obj
 0002:00014ce0       $unwind$_fcloseall         0000000140054ce0     LIBCMT:closeall.obj
 0002:00014d08       $xdatasym                  0000000140054d08     LIBCMT:chkstk.obj
 0002:00014d10       $unwind$_commit            0000000140054d10     LIBCMT:commit.obj
 0002:00014d38       $unwind$_write             0000000140054d38     LIBCMT:write.obj
 0002:00014d64       $unwind$_write_nolock      0000000140054d64     LIBCMT:write.obj
 0002:00014d88       $unwind$?strtoxl@@YAKPEAUlocaleinfo_struct@@PEBDPEAPEBDHH@Z 0000000140054d88     LIBCMT:strtol.obj
 0002:00014da0       $unwind$__wtomb_environ    0000000140054da0     LIBCMT:wtombenv.obj
 0002:00014db0       $unwind$_mbsnbicoll_l      0000000140054db0     LIBCMT:mbsnbico.obj
 0002:00014dc8       $unwind$_locterm           0000000140054dc8     LIBCMT:wsetloca.obj
 0002:00014de8       $unwind$fclose             0000000140054de8     LIBCMT:fclose.obj
 0002:00014e0c       $unwind$_free_osfhnd       0000000140054e0c     LIBCMT:osfinfo.obj
 0002:00014e1c       $unwind$__lock_fhandle     0000000140054e1c     LIBCMT:osfinfo.obj
 0002:00014e48       $unwind$_mbtowc_l          0000000140054e48     LIBCMT:mbtowc.obj
 0002:00014e60       $unwind$__report_gsfailure 0000000140054e60     LIBCMT:putwch.obj
 0002:00014e60       $unwind$_putwch_nolock     0000000140054e60     LIBCMT:putwch.obj
 0002:00014e68       $unwind$_isctype_l         0000000140054e68     LIBCMT:isctype.obj
 0002:00014e78       $unwind$_atodbl_l          0000000140054e78     LIBCMT:atodbl.obj
 0002:00014e8c       $unwind$__crt_atoflt_l     0000000140054e8c     LIBCMT:atodbl.obj
 0002:00014ea0       $unwind$__crtsetenv        0000000140054ea0     LIBCMT:setenv.obj
 0002:00014ebc       $unwind$_strnicoll_l       0000000140054ebc     LIBCMT:strnicol.obj
 0002:00014ed0       $unwind$?__crtCompareStringA_stat@@YAHPEAUlocaleinfo_struct@@PEB_WKPEBDH2HH@Z 0000000140054ed0     LIBCMT:a_cmp.obj
 0002:00014ef0       $xdatasym                  0000000140054ef0     LIBCMT:memcmp.obj
 0002:00014ef4       $unwind$_close             0000000140054ef4     LIBCMT:close.obj
 0002:00014f1c       $unwind$_ld12tod           0000000140054f1c     LIBCMT:intrncvt.obj
 0002:00014f1c       $unwind$_ld12tof           0000000140054f1c     LIBCMT:intrncvt.obj
 0002:00014f40       $unwind$__strgtold12_l     0000000140054f40     LIBCMT:strgtold.obj
 0002:00014f64       $unwind$_cftoe2_l          0000000140054f64     LIBCMT:cvt.obj
 0002:00014f80       $unwind$_cftoe_l           0000000140054f80     LIBCMT:cvt.obj
 0002:00014f98       $unwind$_cftoa_l           0000000140054f98     LIBCMT:cvt.obj
 0002:00014fb4       $unwind$_cftof2_l          0000000140054fb4     LIBCMT:cvt.obj
 0002:00014fcc       $unwind$_cftof_l           0000000140054fcc     LIBCMT:cvt.obj
 0002:00014fe4       $unwind$_cftog_l           0000000140054fe4     LIBCMT:cvt.obj
 0002:00014ffc       $unwind$__mtold12          0000000140054ffc     LIBCMT:mantold.obj
 0002:00015014       $unwind$_tolower_l         0000000140055014     LIBCMT:tolower.obj
 0002:00015024       $unwind$_fltout2           0000000140055024     LIBCMT:cfout.obj
 0002:0001503c       $unwind$__dtold            000000014005503c     LIBCMT:cfout.obj
 0002:00015044       $unwind$strchr             0000000140055044     LIBCMT:strchr.obj
 0002:00015044       $unwind$wcschr             0000000140055044     LIBCMT:strchr.obj
 0002:00015044       $unwind$strrchr            0000000140055044     LIBCMT:strchr.obj
 0002:0001504c       $unwind$$I10_OUTPUT        000000014005504c     LIBCMT:x10fout.obj
 0002:00015070       $unwind$?__FrameUnwindToEmptyState@@YAXPEA_KPEAU_xDISPATCHER_CONTEXT@@PEBU_s_FuncInfo@@@Z 0000000140055070     LIBCMT:trnsctrl.obj
 0002:00015084       $unwind$_UnwindNestedFrames 0000000140055084     LIBCMT:trnsctrl.obj
 0002:00015098       $unwind$_CallSETranslator  0000000140055098     LIBCMT:trnsctrl.obj
 0002:000150b8       $unwind$?_GetRangeOfTrysToCheck@@YAPEBU_s_TryBlockMapEntry@@PEA_KPEBU_s_FuncInfo@@HHPEAI2PEAU_xDISPATCHER_CONTEXT@@@Z 00000001400550b8     LIBCMT:trnsctrl.obj
 0002:000150d4       $unwind$__CxxFrameHandler3 00000001400550d4     LIBCMT:trnsctrl.obj
 0002:000150e4       $unwind$__CxxCallCatchBlock 00000001400550e4     LIBCMT:frame.obj
 0002:00015124       $unwind$__CxxCallCatchBlock$fin$1 0000000140055124     LIBCMT:frame.obj
 0002:00015130       $unwind$__FrameUnwindToState 0000000140055130     LIBCMT:frame.obj
 0002:0001516c       $unwind$?FindHandler@@YAXPEAUEHExceptionRecord@@PEA_KPEAU_CONTEXT@@PEAU_xDISPATCHER_CONTEXT@@PEBU_s_FuncInfo@@EH1@Z 000000014005516c     LIBCMT:frame.obj
 0002:00015188       $unwind$?CatchIt@@YAXPEAUEHExceptionRecord@@PEA_KPEAU_CONTEXT@@PEAU_xDISPATCHER_CONTEXT@@PEBU_s_FuncInfo@@PEBU_s_HandlerType@@PEBU_s_CatchableType@@PEBU_s_TryBlockMapEntry@@H1EE@Z 0000000140055188     LIBCMT:frame.obj
 0002:000151a0       $unwind$__BuildCatchObject 00000001400551a0     LIBCMT:frame.obj
 0002:000151cc       $unwind$?FindHandlerForForeignException@@YAXPEAUEHExceptionRecord@@PEA_KPEAU_CONTEXT@@PEAU_xDISPATCHER_CONTEXT@@PEBU_s_FuncInfo@@HH1@Z 00000001400551cc     LIBCMT:frame.obj
 0002:000151e4       $unwind$__DestructExceptionObject 00000001400551e4     LIBCMT:frame.obj
 0002:00015204       $unwind$__InternalCxxFrameHandler 0000000140055204     LIBCMT:frame.obj
 0002:0001521c       $unwind$__BuildCatchObjectHelper 000000014005521c     LIBCMT:frame.obj
 0002:00015250       $xdatasym                  0000000140055250     LIBCMT:handlers.obj
 0002:00016672       .idata$6                   0000000140056672     kernel32:KERNEL32.dll
 0002:00016f8c       .idata$6                   0000000140056f8c     user32:USER32.dll
 0002:00016ffa       .idata$6                   0000000140056ffa     advapi32:ADVAPI32.dll
 0002:00017050       .idata$6                   0000000140057050     ole32:ole32.dll
 0002:0001709e       .idata$6                   000000014005709e     shell32:SHELL32.dll
 0002:00017124       .idata$6                   0000000140057124     shlwapi:SHLWAPI.dll
 0002:000174a4       .idata$6                   00000001400574a4     gdi32:GDI32.dll
 0002:00017510       .idata$6                   0000000140057510     comctl32:COMCTL32.dll
 0002:0001757a       .idata$6                   000000014005757a     comdlg32:COMDLG32.dll
 0002:000175a2       .idata$6                   00000001400575a2     winspool:WINSPOOL.DRV
 0003:00000068       ?isPackaged@?1??__crtIsPackagedApp@@9@9 0000000140058068     LIBCMT:winapisupp.obj
 0003:00000070       errtable                   0000000140058070     LIBCMT:dosmap.obj
 0003:000001d8       ErrnoNoMem                 00000001400581d8     LIBCMT:dosmap.obj
 0003:000001dc       DoserrorNoMem              00000001400581dc     LIBCMT:dosmap.obj
 0003:000001f0       _locktable                 00000001400581f0     LIBCMT:mlock.obj
 0003:000008b8       __rgctypeflag              00000001400588b8     LIBCMT:mbctype.obj
 0003:000008c0       __rgcode_page_info         00000001400588c0     LIBCMT:mbctype.obj
 0003:000009d0       tzstd                      00000001400589d0     LIBCMT:timeset.obj
 0003:00000a10       tzdst                      0000000140058a10     LIBCMT:timeset.obj
 0003:00000a60       dststart                   0000000140058a60     LIBCMT:tzset.obj
 0003:00000a70       dstend                     0000000140058a70     LIBCMT:tzset.obj
 0003:000013e0       _ctype_loc_style           00000001400593e0     LIBCMT:wsetloca.obj
 0003:00001408       DoubleFormat               0000000140059408     LIBCMT:intrncvt.obj
 0003:00001420       FloatFormat                0000000140059420     LIBCMT:intrncvt.obj
 0003:00001740       indicators                 0000000140059740     Mainfrm.obj
 0003:00001750       buttons                    0000000140059750     Mainfrm.obj
 0003:00002c70       ?_pgmname@?1??_wsetargv@@9@9 000000014005ac70     LIBCMT:wstdargv.obj
 0003:00002e90       ?outmsg@?8??_NMSG_WRITE@@9@9 000000014005ae90     LIBCMT:crt0msg.obj
 0003:000034c0       __type_info_root_node      000000014005b4c0     LIBCMT:typname.obj
 0003:00003500       lclcritsects               000000014005b500     LIBCMT:mlock.obj
 0003:00003730       ctrlc_action               000000014005b730     LIBCMT:winsig.obj
 0003:00003738       ctrlbreak_action           000000014005b738     LIBCMT:winsig.obj
 0003:00003740       abort_action               000000014005b740     LIBCMT:winsig.obj
 0003:00003748       term_action                000000014005b748     LIBCMT:winsig.obj
 0003:00003750       ConsoleCtrlHandler_Installed 000000014005b750     LIBCMT:winsig.obj
 0003:00003758       g_pfnRtlGenRandom          000000014005b758     LIBCMT:rand_s.obj
 0003:00003780       fSystemSet                 000000014005b780     LIBCMT:mbctype.obj
 0003:000037a0       lastTZ                     000000014005b7a0     LIBCMT:tzset.obj
 0003:000037a8       ?first_time@?1??__tzset@@9@9 000000014005b7a8     LIBCMT:tzset.obj
 0003:000037ac       tzapiused                  000000014005b7ac     LIBCMT:tzset.obj
 0003:000037b0       tzinfo                     000000014005b7b0     LIBCMT:tzset.obj
 0003:00003860       ?pfnMessageBox@?1??__crtMessageBoxW@@9@9 000000014005b860     LIBCMT:crtmboxw.obj
 0003:00003868       ?pfnGetActiveWindow@?1??__crtMessageBoxW@@9@9 000000014005b868     LIBCMT:crtmboxw.obj
 0003:00003870       ?pfnGetLastActivePopup@?1??__crtMessageBoxW@@9@9 000000014005b870     LIBCMT:crtmboxw.obj
 0003:00003878       ?pfnGetProcessWindowStation@?1??__crtMessageBoxW@@9@9 000000014005b878     LIBCMT:crtmboxw.obj
 0003:00003880       ?pfnGetUserObjectInformation@?1??__crtMessageBoxW@@9@9 000000014005b880     LIBCMT:crtmboxw.obj
 0003:000038d0       heap                       000000014005b8d0     LIBCMT:undname.obj
 0003:000038f8       __crtCallProc              000000014005b8f8     LIBCMT:winapinls.obj
 0003:00003900       GS_ExceptionRecord         000000014005b900     LIBCMT:gs_report.obj
 0003:000039a0       GS_ContextRecord           000000014005b9a0     LIBCMT:gs_report.obj
 0003:00003e70       DebuggerWasPresent         000000014005be70     LIBCMT:gs_report.obj
 0003:00004268       atlTraceUI                 000000014005c268     Stdafx.obj
 0004:00000000       $pdata$??__E_AtlWinModule@ATL@@YAXXZ 000000014005e000     Colorpge.obj
 0004:0000000c       $pdata$??__EtheApp@@YAXXZ  000000014005e00c     Propdlg.obj
 0004:00000018       $pdata$??__E_AtlBaseModule@ATL@@YAXXZ 000000014005e018     atls:atlbase.obj
 0004:00000024       $pdata$??_GCColorPage@@UEAAPEAXI@Z 000000014005e024     Colorpge.obj
 0004:00000024       $pdata$??_GCPropertyPageMTL@@UEAAPEAXI@Z 000000014005e024     Colorpge.obj
 0004:00000024       $pdata$??_GCStylePage@@UEAAPEAXI@Z 000000014005e024     Stylepge.obj
 0004:00000030       $pdata$?OnColorClicked@CColorPage@@IEAAXI@Z 000000014005e030     Colorpge.obj
 0004:00000030       $pdata$?OnStyleClicked@CStylePage@@IEAAXI@Z 000000014005e030     Stylepge.obj
 0004:0000003c       $pdata$1$?OnColorClicked@CColorPage@@IEAAXI@Z 000000014005e03c     Colorpge.obj
 0004:0000003c       $pdata$1$?OnStyleClicked@CStylePage@@IEAAXI@Z 000000014005e03c     Stylepge.obj
 0004:00000048       $pdata$2$?OnStyleClicked@CStylePage@@IEAAXI@Z 000000014005e048     Stylepge.obj
 0004:00000048       $pdata$2$?OnColorClicked@CColorPage@@IEAAXI@Z 000000014005e048     Colorpge.obj
 0004:00000054       $pdata$3$?OnStyleClicked@CStylePage@@IEAAXI@Z 000000014005e054     Stylepge.obj
 0004:00000054       $pdata$3$?OnColorClicked@CColorPage@@IEAAXI@Z 000000014005e054     Colorpge.obj
 0004:00000060       $pdata$4$?OnStyleClicked@CStylePage@@IEAAXI@Z 000000014005e060     Stylepge.obj
 0004:00000060       $pdata$4$?OnColorClicked@CColorPage@@IEAAXI@Z 000000014005e060     Colorpge.obj
 0004:0000006c       $pdata$?_ProcessWindowMessage@CColorPage@@UEAAHPEAUHWND__@@I_K_JAEA_J@Z 000000014005e06c     Colorpge.obj
 0004:00000078       $pdata$?DDX_Radio@@YAXPEAVCDataExchange@@HAEAH@Z 000000014005e078     Colorpge.obj
 0004:00000084       $pdata$??1CPropertyPageMTL@@UEAA@XZ 000000014005e084     Colorpge.obj
 0004:00000090       $pdata$?OnCtlColor@CPropertySheetMTL@@QEAAPEAUHBRUSH__@@PEAVCDCMTL@@PEAVCWnd@@I@Z 000000014005e090     Propsht.obj
 0004:00000090       $pdata$?OnCtlColor@CPropertyPageMTL@@QEAAPEAUHBRUSH__@@PEAVCDCMTL@@PEAVCWnd@@I@Z 000000014005e090     Colorpge.obj
 0004:0000009c       $pdata$?_ProcessWindowMessage@CPropertyPageMTL@@UEAAHPEAUHWND__@@I_K_JAEA_J@Z 000000014005e09c     Colorpge.obj
 0004:000000a8       $pdata$?PreTranslateMessage@CPropertyPageMTL@@UEAAHPEAUtagMSG@@@Z 000000014005e0a8     Colorpge.obj
 0004:000000a8       $pdata$?PreTranslateMessage@CWnd@@UEAAHPEAUtagMSG@@@Z 000000014005e0a8     Colorpge.obj
 0004:000000b4       $pdata$?MapWizardResult@CPropertyPageMTL@@QEAA_J_J@Z 000000014005e0b4     Colorpge.obj
 0004:000000c0       $pdata$?OnNotify@CPropertyPageMTL@@UEAAH_K_JPEA_J@Z 000000014005e0c0     Colorpge.obj
 0004:000000cc       $pdata$?GetSafeOwner_@CWnd@@SAPEAUHWND__@@PEAU2@PEAPEAU2@@Z 000000014005e0cc     Colorpge.obj
 0004:000000d8       $pdata$0$?GetSafeOwner_@CWnd@@SAPEAUHWND__@@PEAU2@PEAPEAU2@@Z 000000014005e0d8     Colorpge.obj
 0004:000000e4       $pdata$1$?GetSafeOwner_@CWnd@@SAPEAUHWND__@@PEAU2@PEAPEAU2@@Z 000000014005e0e4     Colorpge.obj
 0004:000000f0       $pdata$?_ProcessWindowMessage@CDialog@@UEAAHPEAUHWND__@@I_K_JAEA_J@Z 000000014005e0f0     Colorpge.obj
 0004:000000fc       $pdata$?OnCmdMsg@CDialog@@UEAAHIHPEAXPEAUAFX_CMDHANDLERINFO@@@Z 000000014005e0fc     Colorpge.obj
 0004:000000fc       $pdata$?OnCmdMsg@CPropertySheetMTL@@UEAAHIHPEAXPEAUAFX_CMDHANDLERINFO@@@Z 000000014005e0fc     Propsht.obj
 0004:00000108       $pdata$??_GCShapePreviewWnd@@UEAAPEAXI@Z 000000014005e108     Preview.obj
 0004:00000108       $pdata$??_GCDialog@@UEAAPEAXI@Z 000000014005e108     Colorpge.obj
 0004:00000108       $pdata$??_GCWnd@@UEAAPEAXI@Z 000000014005e108     Colorpge.obj
 0004:00000108       $pdata$??_GCAboutDlg@@UEAAPEAXI@Z 000000014005e108     Propdlg.obj
 0004:00000108       $pdata$??_GCNewTypeDlg@@UEAAPEAXI@Z 000000014005e108     Propdlg.obj
 0004:00000108       $pdata$??_GCPrintingDialog@@UEAAPEAXI@Z 000000014005e108     Shapesvw.obj
 0004:00000114       $pdata$?PreTranslateMessage@CDialog@@UEAAHPEAUtagMSG@@@Z 000000014005e114     Colorpge.obj
 0004:00000120       $pdata$?OnOK@CDialog@@UEAAXXZ 000000014005e120     Colorpge.obj
 0004:0000012c       $pdata$?OnCancel@CDialog@@UEAAXXZ 000000014005e12c     Colorpge.obj
 0004:00000138       $pdata$?CreateIndirect@CDialog@@UEAAHPEAXPEAVCWnd@@PEAUHINSTANCE__@@@Z 000000014005e138     Colorpge.obj
 0004:00000144       $pdata$?classHandleFuncCDialog@CDialog@@SAPEAXPEAX0@Z 000000014005e144     Colorpge.obj
 0004:00000150       $pdata$?CreateDlgIndirect@CWnd@@QEAAHPEBUDLGTEMPLATE@@PEAV1@PEAUHINSTANCE__@@@Z 000000014005e150     Colorpge.obj
 0004:0000015c       $pdata$?CreateDlg@CWnd@@QEAAHPEB_WPEAV1@@Z 000000014005e15c     Colorpge.obj
 0004:00000168       $pdata$?Create@CDialog@@UEAAHPEB_WPEAVCWnd@@@Z 000000014005e168     Colorpge.obj
 0004:00000174       $pdata$?RunModalLoop@CWnd@@QEAAHK@Z 000000014005e174     Colorpge.obj
 0004:00000180       $pdata$?DoModal@CDialog@@UEAA_JXZ 000000014005e180     Colorpge.obj
 0004:0000018c       $pdata$3$?DoModal@CDialog@@UEAA_JXZ 000000014005e18c     Colorpge.obj
 0004:00000198       $pdata$5$?DoModal@CDialog@@UEAA_JXZ 000000014005e198     Colorpge.obj
 0004:000001a4       $pdata$6$?DoModal@CDialog@@UEAA_JXZ 000000014005e1a4     Colorpge.obj
 0004:000001b0       $pdata$7$?DoModal@CDialog@@UEAA_JXZ 000000014005e1b0     Colorpge.obj
 0004:000001bc       $pdata$8$?DoModal@CDialog@@UEAA_JXZ 000000014005e1bc     Colorpge.obj
 0004:000001c8       $pdata$?OnApply@CPropertyPageMTL@@UEAAHXZ 000000014005e1c8     Colorpge.obj
 0004:000001d4       $pdata$?OnKillActive@CPropertyPageMTL@@UEAAHXZ 000000014005e1d4     Colorpge.obj
 0004:000001e0       $pdata$?OnSetActive@CPropertyPageMTL@@UEAAHXZ 000000014005e1e0     Colorpge.obj
 0004:000001ec       $pdata$?OnWizardFinish@CPropertyPageMTL@@UEAAHXZ 000000014005e1ec     Colorpge.obj
 0004:000001f8       $pdata$?OnWizardFinishEx@CPropertyPageMTL@@UEAAPEAUHWND__@@XZ 000000014005e1f8     Colorpge.obj
 0004:00000204       $pdata$?GetParentSheet@CPropertyPageMTL@@UEAAPEAVCPropertySheetMTL@@XZ 000000014005e204     Colorpge.obj
 0004:00000210       $pdata$?AfxThrowMemoryException@@YAXXZ 000000014005e210     Colorpge.obj
 0004:0000021c       $pdata$?CenterWindow@CWindow@ATL@@QEAAHPEAUHWND__@@@Z 000000014005e21c     Colorpge.obj
 0004:00000228       $pdata$?SendMessageToDescendants@CWnd@@QEAAXPEAUHWND__@@I_K_JHH@Z 000000014005e228     Colorpge.obj
 0004:00000234       $pdata$0$?SendMessageToDescendants@CWnd@@QEAAXPEAUHWND__@@I_K_JHH@Z 000000014005e234     Colorpge.obj
 0004:00000240       $pdata$1$?SendMessageToDescendants@CWnd@@QEAAXPEAUHWND__@@I_K_JHH@Z 000000014005e240     Colorpge.obj
 0004:0000024c       $pdata$?ExecuteDlgInit@CWnd@@QEAAHPEAX@Z 000000014005e24c     Colorpge.obj
 0004:00000258       $pdata$?ExecuteDlgInit@CWnd@@QEAAHPEB_W@Z 000000014005e258     Colorpge.obj
 0004:00000264       $pdata$?OnInitDialog@CDialog@@UEAAHXZ 000000014005e264     Colorpge.obj
 0004:00000270       $pdata$?AfxDlgProc@CWnd@@SA_JPEAUHWND__@@I_K_J@Z 000000014005e270     Colorpge.obj
 0004:0000027c       $pdata$0$?AfxDlgProc@CWnd@@SA_JPEAUHWND__@@I_K_J@Z 000000014005e27c     Colorpge.obj
 0004:00000288       $pdata$2$?AfxDlgProc@CWnd@@SA_JPEAUHWND__@@I_K_J@Z 000000014005e288     Colorpge.obj
 0004:00000294       $pdata$3$?AfxDlgProc@CWnd@@SA_JPEAUHWND__@@I_K_J@Z 000000014005e294     Colorpge.obj
 0004:000002a0       $pdata$?AfxPropPageCallback@CPropertyPageMTL@@SAIPEAUHWND__@@IPEAU_PROPSHEETPAGEW@@@Z 000000014005e2a0     Colorpge.obj
 0004:000002ac       $pdata$?AssignCopy@CString@WTL@@IEAAXHPEB_W@Z 000000014005e2ac     Colorpge.obj
 0004:000002b8       $pdata$0$?AssignCopy@CString@WTL@@IEAAXHPEB_W@Z 000000014005e2b8     Colorpge.obj
 0004:000002c4       $pdata$1$?AssignCopy@CString@WTL@@IEAAXHPEB_W@Z 000000014005e2c4     Colorpge.obj
 0004:000002d0       $pdata$2$?AssignCopy@CString@WTL@@IEAAXHPEB_W@Z 000000014005e2d0     Colorpge.obj
 0004:000002dc       $pdata$?GetBuffer@CString@WTL@@QEAAPEA_WH@Z 000000014005e2dc     Colorpge.obj
 0004:000002e8       $pdata$?CopyBeforeWrite@CString@WTL@@IEAAXXZ 000000014005e2e8     Colorpge.obj
 0004:000002f4       $pdata$?LoadStringW@CString@WTL@@QEAAHI@Z 000000014005e2f4     Colorpge.obj
 0004:00000300       $pdata$1$?LoadStringW@CString@WTL@@QEAAHI@Z 000000014005e300     Colorpge.obj
 0004:0000030c       $pdata$2$?LoadStringW@CString@WTL@@QEAAHI@Z 000000014005e30c     Colorpge.obj
 0004:00000318       $pdata$?WindowProc@CWnd@@UEAA_JI_K_J@Z 000000014005e318     Colorpge.obj
 0004:00000324       $pdata$?_AfxTopChildWindowFromPoint@CWnd@@SAPEAUHWND__@@PEAU2@UtagPOINT@@@Z 000000014005e324     Colorpge.obj
 0004:00000330       $pdata$?OnToolHitTest@CWnd@@UEBA_JVCPoint@WTL@@PEAUtagTOOLINFOW@@@Z 000000014005e330     Colorpge.obj
 0004:0000033c       $pdata$0$?OnToolHitTest@CWnd@@UEBA_JVCPoint@WTL@@PEAUtagTOOLINFOW@@@Z 000000014005e33c     Colorpge.obj
 0004:00000348       $pdata$1$?OnToolHitTest@CWnd@@UEBA_JVCPoint@WTL@@PEAUtagTOOLINFOW@@@Z 000000014005e348     Colorpge.obj
 0004:00000354       $pdata$?GetParent@CWnd@@QEAAPEAV1@XZ 000000014005e354     Colorpge.obj
 0004:00000360       $pdata$3$?GetParent@CWnd@@QEAAPEAV1@XZ 000000014005e360     Colorpge.obj
 0004:0000036c       $pdata$4$?GetParent@CWnd@@QEAAPEAV1@XZ 000000014005e36c     Colorpge.obj
 0004:00000378       $pdata$5$?GetParent@CWnd@@QEAAPEAV1@XZ 000000014005e378     Colorpge.obj
 0004:00000384       $pdata$6$?GetParent@CWnd@@QEAAPEAV1@XZ 000000014005e384     Colorpge.obj
 0004:00000390       $pdata$7$?GetParent@CWnd@@QEAAPEAV1@XZ 000000014005e390     Colorpge.obj
 0004:0000039c       $pdata$8$?GetParent@CWnd@@QEAAPEAV1@XZ 000000014005e39c     Colorpge.obj
 0004:000003a8       $pdata$?Enable@CCmdUI@@UEAAXH@Z 000000014005e3a8     Colorpge.obj
 0004:000003b4       $pdata$0$?Enable@CCmdUI@@UEAAXH@Z 000000014005e3b4     Colorpge.obj
 0004:000003c0       $pdata$1$?Enable@CCmdUI@@UEAAXH@Z 000000014005e3c0     Colorpge.obj
 0004:000003cc       $pdata$?SetCheck@CCmdUI@@UEAAXH@Z 000000014005e3cc     Colorpge.obj
 0004:000003d8       $pdata$?SetRadio@CCmdUI@@UEAAXH@Z 000000014005e3d8     Colorpge.obj
 0004:000003e4       $pdata$?AfxSetWindowText@CAfx@@SAXPEAUHWND__@@PEB_W@Z 000000014005e3e4     Colorpge.obj
 0004:000003f0       $pdata$?SetText@CCmdUI@@UEAAXPEB_W@Z 000000014005e3f0     Colorpge.obj
 0004:000003fc       $pdata$?OnCommand@CWnd@@UEAAH_K_J@Z 000000014005e3fc     Colorpge.obj
 0004:00000408       $pdata$??_GCDCMTL@@UEAAPEAXI@Z 000000014005e408     Colorpge.obj
 0004:00000414       $pdata$?SaveDC@CDCMTL@@UEAAHXZ 000000014005e414     Colorpge.obj
 0004:00000420       $pdata$?RestoreDC@CDCMTL@@UEAAHH@Z 000000014005e420     Colorpge.obj
 0004:0000042c       $pdata$?RemoveHandle@?$CHandleList@PEAUHMENU__@@VCMenuMTL@@PEAUHWND__@@@@QEAAPEAUHMENU__@@QEAU2@@Z 000000014005e42c     Colorpge.obj
 0004:0000042c       $pdata$?RemoveHandle@?$CHandleList@PEAUHDC__@@VCDCMTL@@PEAUHWND__@@@@QEAAPEAUHDC__@@QEAU2@@Z 000000014005e42c     Colorpge.obj
 0004:0000042c       $pdata$?RemoveHandle@?$CHandleList@PEAXVCGdiObject@@PEAUHWND__@@@@QEAAPEAXQEAX@Z 000000014005e42c     Preview.obj
 0004:00000438       $pdata$??1CDCMTL@@UEAA@XZ  000000014005e438     Colorpge.obj
 0004:00000444       $pdata$?UnsubclassWindow@CWMHnd@@QEAAPEAUHWND__@@XZ 000000014005e444     Colorpge.obj
 0004:00000450       $pdata$?OnNcDestroy@CWnd@@QEAAXXZ 000000014005e450     Colorpge.obj
 0004:0000045c       $pdata$?_ProcessWindowMessage@CWnd@@UEAAHPEAUHWND__@@I_K_JAEA_J@Z 000000014005e45c     Colorpge.obj
 0004:00000468       $pdata$?OnWndMsg@CWnd@@UEAAHI_K_JPEA_J@Z 000000014005e468     Colorpge.obj
 0004:00000474       $pdata$?ReflectChildNotify@CWnd@@QEAAHI_K_JPEA_J@Z 000000014005e474     Colorpge.obj
 0004:00000480       $pdata$0$?ReflectChildNotify@CWnd@@QEAAHI_K_JPEA_J@Z 000000014005e480     Colorpge.obj
 0004:0000048c       $pdata$1$?ReflectChildNotify@CWnd@@QEAAHI_K_JPEA_J@Z 000000014005e48c     Colorpge.obj
 0004:00000498       $pdata$?OnNotify@CWnd@@UEAAH_K_JPEA_J@Z 000000014005e498     Colorpge.obj
 0004:000004a4       $pdata$?Create@CWnd@@UEAAHPEB_W0KAEBUtagRECT@@PEAV1@IPEAUCCreateContext@@@Z 000000014005e4a4     Colorpge.obj
 0004:000004b0       $pdata$?AtlWinModuleExtractCreateWndData@ATL@@YAPEAXPEAU_ATL_WIN_MODULE70@1@@Z 000000014005e4b0     Colorpge.obj
 0004:000004bc       $pdata$?AtlWinModuleTerm@ATL@@YAJPEAU_ATL_WIN_MODULE70@1@PEAUHINSTANCE__@@@Z 000000014005e4bc     Colorpge.obj
 0004:000004c8       $pdata$2$?AtlWinModuleTerm@ATL@@YAJPEAU_ATL_WIN_MODULE70@1@PEAUHINSTANCE__@@@Z 000000014005e4c8     Colorpge.obj
 0004:000004d4       $pdata$3$?AtlWinModuleTerm@ATL@@YAJPEAU_ATL_WIN_MODULE70@1@PEAUHINSTANCE__@@@Z 000000014005e4d4     Colorpge.obj
 0004:000004e0       $pdata$4$?AtlWinModuleTerm@ATL@@YAJPEAU_ATL_WIN_MODULE70@1@PEAUHINSTANCE__@@@Z 000000014005e4e0     Colorpge.obj
 0004:000004ec       $pdata$??0CAtlWinModule@ATL@@QEAA@XZ 000000014005e4ec     Colorpge.obj
 0004:000004f8       $pdata$?Init@CDynamicStdCallThunk@ATL@@QEAAH_KPEAX@Z 000000014005e4f8     Colorpge.obj
 0004:00000504       $pdata$?AfxWindowProc@CWMHnd@@SA_JPEAUHWND__@@I_K_J@Z 000000014005e504     Colorpge.obj
 0004:00000510       $pdata$?FromHandle@?$CHandleHashList@PEAUHWND__@@VCWMHnd@@PEAU1@$0BB@@@QEAAPEAVCWMHnd@@QEAUHWND__@@PEAV2@0Q6APEAXPEAX2@Z@Z 000000014005e510     Colorpge.obj
 0004:0000051c       $pdata$1$?FromHandle@?$CHandleHashList@PEAUHWND__@@VCWMHnd@@PEAU1@$0BB@@@QEAAPEAVCWMHnd@@QEAUHWND__@@PEAV2@0Q6APEAXPEAX2@Z@Z 000000014005e51c     Colorpge.obj
 0004:00000528       $pdata$2$?FromHandle@?$CHandleHashList@PEAUHWND__@@VCWMHnd@@PEAU1@$0BB@@@QEAAPEAVCWMHnd@@QEAUHWND__@@PEAV2@0Q6APEAXPEAX2@Z@Z 000000014005e528     Colorpge.obj
 0004:00000534       $pdata$3$?FromHandle@?$CHandleHashList@PEAUHWND__@@VCWMHnd@@PEAU1@$0BB@@@QEAAPEAVCWMHnd@@QEAUHWND__@@PEAV2@0Q6APEAXPEAX2@Z@Z 000000014005e534     Colorpge.obj
 0004:00000540       $pdata$4$?FromHandle@?$CHandleHashList@PEAUHWND__@@VCWMHnd@@PEAU1@$0BB@@@QEAAPEAVCWMHnd@@QEAUHWND__@@PEAV2@0Q6APEAXPEAX2@Z@Z 000000014005e540     Colorpge.obj
 0004:0000054c       $pdata$5$?FromHandle@?$CHandleHashList@PEAUHWND__@@VCWMHnd@@PEAU1@$0BB@@@QEAAPEAVCWMHnd@@QEAUHWND__@@PEAV2@0Q6APEAXPEAX2@Z@Z 000000014005e54c     Colorpge.obj
 0004:00000558       $pdata$??_GCWMHnd@@UEAAPEAXI@Z 000000014005e558     Colorpge.obj
 0004:00000564       $pdata$?classHandleFuncCWMHnd@CWMHnd@@SAPEAXPEAX0@Z 000000014005e564     Colorpge.obj
 0004:00000570       $pdata$?SubclassWindow@CWMHnd@@QEAAHPEAUHWND__@@PEAUtagCREATESTRUCTW@@@Z 000000014005e570     Colorpge.obj
 0004:0000057c       $pdata$0$?SubclassWindow@CWMHnd@@QEAAHPEAUHWND__@@PEAUtagCREATESTRUCTW@@@Z 000000014005e57c     Colorpge.obj
 0004:00000588       $pdata$1$?SubclassWindow@CWMHnd@@QEAAHPEAUHWND__@@PEAUtagCREATESTRUCTW@@@Z 000000014005e588     Colorpge.obj
 0004:00000594       $pdata$?CbtFilterHook@CWnd@@SA_JH_K_J@Z 000000014005e594     Colorpge.obj
 0004:000005a0       $pdata$?HookWindowCreate@CWnd@@SAHPEAV1@G@Z 000000014005e5a0     Colorpge.obj
 0004:000005ac       $pdata$?CreateEx@CWnd@@UEAAHKPEB_W0KHHHHPEAUHWND__@@PEAUHMENU__@@PEAX@Z 000000014005e5ac     Colorpge.obj
 0004:000005b8       $pdata$1$?CreateEx@CWnd@@UEAAHKPEB_W0KHHHHPEAUHWND__@@PEAUHMENU__@@PEAX@Z 000000014005e5b8     Colorpge.obj
 0004:000005c4       $pdata$2$?CreateEx@CWnd@@UEAAHKPEB_W0KHHHHPEAUHWND__@@PEAUHMENU__@@PEAX@Z 000000014005e5c4     Colorpge.obj
 0004:000005d0       $pdata$??1?$CList@PEAVCFrameWnd@@AEBQEAV1@@@QEAA@XZ 000000014005e5d0     Propdlg.obj
 0004:000005d0       $pdata$??1?$CList@PEAUCRuntimeClass@@AEBQEAU1@@@QEAA@XZ 000000014005e5d0     Colorpge.obj
 0004:000005d0       $pdata$??1?$CList@PEAUHWND__@@PEAU1@@@QEAA@XZ 000000014005e5d0     Mainfrm.obj
 0004:000005d0       $pdata$??1?$CList@PEAXPEAX@@QEAA@XZ 000000014005e5d0     Mainfrm.obj
 0004:000005dc       $pdata$0$??1?$CList@PEAUHWND__@@PEAU1@@@QEAA@XZ 000000014005e5dc     Mainfrm.obj
 0004:000005dc       $pdata$0$??1?$CList@PEAVCFrameWnd@@AEBQEAV1@@@QEAA@XZ 000000014005e5dc     Propdlg.obj
 0004:000005dc       $pdata$0$??1?$CList@PEAUCRuntimeClass@@AEBQEAU1@@@QEAA@XZ 000000014005e5dc     Colorpge.obj
 0004:000005dc       $pdata$0$??1?$CList@PEAXPEAX@@QEAA@XZ 000000014005e5dc     Mainfrm.obj
 0004:000005e8       $pdata$1$??1?$CList@PEAVCFrameWnd@@AEBQEAV1@@@QEAA@XZ 000000014005e5e8     Propdlg.obj
 0004:000005e8       $pdata$1$??1?$CList@PEAUHWND__@@PEAU1@@@QEAA@XZ 000000014005e5e8     Mainfrm.obj
 0004:000005e8       $pdata$1$??1?$CList@PEAXPEAX@@QEAA@XZ 000000014005e5e8     Mainfrm.obj
 0004:000005e8       $pdata$1$??1?$CList@PEAUCRuntimeClass@@AEBQEAU1@@@QEAA@XZ 000000014005e5e8     Colorpge.obj
 0004:000005f4       $pdata$??1CModuleState@@QEAA@XZ 000000014005e5f4     Colorpge.obj
 0004:00000600       $pdata$?AfxGetModuleState@@YAPEAVCModuleState@@XZ 000000014005e600     Colorpge.obj
 0004:0000060c       $pdata$?AllocBuffer@CString@WTL@@IEAAHH@Z 000000014005e60c     Colorpge.obj
 0004:00000618       $pdata$?ConcatCopy@CString@WTL@@IEAAHHPEB_WH0@Z 000000014005e618     Colorpge.obj
 0004:00000624       $pdata$0$?ConcatCopy@CString@WTL@@IEAAHHPEB_WH0@Z 000000014005e624     Colorpge.obj
 0004:00000630       $pdata$1$?ConcatCopy@CString@WTL@@IEAAHHPEB_WH0@Z 000000014005e630     Colorpge.obj
 0004:0000063c       $pdata$2$?ConcatCopy@CString@WTL@@IEAAHHPEB_WH0@Z 000000014005e63c     Colorpge.obj
 0004:00000648       $pdata$3$?ConcatCopy@CString@WTL@@IEAAHHPEB_WH0@Z 000000014005e648     Colorpge.obj
 0004:00000654       $pdata$?AtlThrowImpl@ATL@@YAXJ@Z 000000014005e654     Colorpge.obj
 0004:00000660       $pdata$?memcpy_x@SecureHelper@WTL@@YAXPEAX_KPEBX1@Z 000000014005e660     Colorpge.obj
 0004:0000066c       $pdata$?ConcatInPlace@CString@WTL@@IEAAXHPEB_W@Z 000000014005e66c     Colorpge.obj
 0004:00000678       $pdata$?AfxEndDeferRegisterClass@CAfx@@SAHJ@Z 000000014005e678     Colorpge.obj
 0004:00000684       $pdata$2$?AfxEndDeferRegisterClass@CAfx@@SAHJ@Z 000000014005e684     Colorpge.obj
 0004:00000690       $pdata$4$?AfxEndDeferRegisterClass@CAfx@@SAHJ@Z 000000014005e690     Colorpge.obj
 0004:0000069c       $pdata$5$?AfxEndDeferRegisterClass@CAfx@@SAHJ@Z 000000014005e69c     Colorpge.obj
 0004:000006a8       $pdata$6$?AfxEndDeferRegisterClass@CAfx@@SAHJ@Z 000000014005e6a8     Colorpge.obj
 0004:000006b4       $pdata$?PreCreateWindow@CWnd@@UEAAHAEAUtagCREATESTRUCTW@@@Z 000000014005e6b4     Colorpge.obj
 0004:000006c0       $pdata$?CalcWindowRect@CWMHnd@@UEAAXPEAUtagRECT@@I@Z 000000014005e6c0     Colorpge.obj
 0004:000006cc       $pdata$?FromHandle@?$CHandleList@PEAUHMENU__@@VCMenuMTL@@PEAUHWND__@@@@QEAAPEAVCMenuMTL@@QEAUHMENU__@@PEAV2@QEAUHWND__@@Q6APEAXPEAX3@Z@Z 000000014005e6cc     Colorpge.obj
 0004:000006d8       $pdata$1$?FromHandle@?$CHandleList@PEAUHMENU__@@VCMenuMTL@@PEAUHWND__@@@@QEAAPEAVCMenuMTL@@QEAUHMENU__@@PEAV2@QEAUHWND__@@Q6APEAXPEAX3@Z@Z 000000014005e6d8     Colorpge.obj
 0004:000006e4       $pdata$2$?FromHandle@?$CHandleList@PEAUHMENU__@@VCMenuMTL@@PEAUHWND__@@@@QEAAPEAVCMenuMTL@@QEAUHMENU__@@PEAV2@QEAUHWND__@@Q6APEAXPEAX3@Z@Z 000000014005e6e4     Colorpge.obj
 0004:000006f0       $pdata$3$?FromHandle@?$CHandleList@PEAUHMENU__@@VCMenuMTL@@PEAUHWND__@@@@QEAAPEAVCMenuMTL@@QEAUHMENU__@@PEAV2@QEAUHWND__@@Q6APEAXPEAX3@Z@Z 000000014005e6f0     Colorpge.obj
 0004:000006fc       $pdata$??_GCMenuMTL@@UEAAPEAXI@Z 000000014005e6fc     Colorpge.obj
 0004:00000708       $pdata$??1?$CMenuT@$00@WTL@@QEAA@XZ 000000014005e708     Colorpge.obj
 0004:00000714       $pdata$??1CMenuMTL@@UEAA@XZ 000000014005e714     Colorpge.obj
 0004:00000720       $pdata$?classHandleFuncCMenuMTL@CMenuMTL@@SAPEAXPEAX0@Z 000000014005e720     Colorpge.obj
 0004:0000072c       $pdata$?GetMenu@CWMHnd@@UEBAPEAVCMenuMTL@@XZ 000000014005e72c     Colorpge.obj
 0004:00000738       $pdata$?DefWindowProcW@CWMHnd@@UEAA_JI_K_J@Z 000000014005e738     Colorpge.obj
 0004:00000744       $pdata$?OnInitDialog@CWMHnd@@UEAAHXZ 000000014005e744     Colorpge.obj
 0004:00000744       $pdata$?OnCancel@CCommonDialog@@UEAAXXZ 000000014005e744     Propdlg.obj
 0004:00000750       $pdata$?RemoveHandle@?$CHandleHashList@PEAUHWND__@@VCWMHnd@@PEAU1@$0BB@@@QEAAPEAUHWND__@@QEAU2@@Z 000000014005e750     Colorpge.obj
 0004:0000075c       $pdata$?RemoveOwner@?$CHandleHashList@PEAUHWND__@@VCWMHnd@@PEAU1@$0BB@@@QEAAHQEAUHWND__@@@Z 000000014005e75c     Colorpge.obj
 0004:00000768       $pdata$?RemoveOwner@?$CHandleList@PEAXXPEAUHWND__@@@@QEAAHQEAUHWND__@@@Z 000000014005e768     Colorpge.obj
 0004:00000768       $pdata$?RemoveOwner@?$CHandleList@PEAXVCGdiObject@@PEAUHWND__@@@@QEAAHQEAUHWND__@@@Z 000000014005e768     Colorpge.obj
 0004:00000768       $pdata$?RemoveOwner@?$CHandleList@PEAUHDC__@@VCDCMTL@@PEAUHWND__@@@@QEAAHQEAUHWND__@@@Z 000000014005e768     Colorpge.obj
 0004:00000768       $pdata$?RemoveOwner@?$CHandleList@PEAUHMENU__@@VCMenuMTL@@PEAUHWND__@@@@QEAAHQEAUHWND__@@@Z 000000014005e768     Colorpge.obj
 0004:00000774       $pdata$1$?RemoveOwner@?$CHandleList@PEAXVCGdiObject@@PEAUHWND__@@@@QEAAHQEAUHWND__@@@Z 000000014005e774     Colorpge.obj
 0004:00000774       $pdata$1$?RemoveOwner@?$CHandleList@PEAXXPEAUHWND__@@@@QEAAHQEAUHWND__@@@Z 000000014005e774     Colorpge.obj
 0004:00000774       $pdata$1$?RemoveOwner@?$CHandleList@PEAUHDC__@@VCDCMTL@@PEAUHWND__@@@@QEAAHQEAUHWND__@@@Z 000000014005e774     Colorpge.obj
 0004:00000774       $pdata$1$?RemoveOwner@?$CHandleList@PEAUHMENU__@@VCMenuMTL@@PEAUHWND__@@@@QEAAHQEAUHWND__@@@Z 000000014005e774     Colorpge.obj
 0004:00000780       $pdata$2$?RemoveOwner@?$CHandleList@PEAXVCGdiObject@@PEAUHWND__@@@@QEAAHQEAUHWND__@@@Z 000000014005e780     Colorpge.obj
 0004:00000780       $pdata$2$?RemoveOwner@?$CHandleList@PEAUHDC__@@VCDCMTL@@PEAUHWND__@@@@QEAAHQEAUHWND__@@@Z 000000014005e780     Colorpge.obj
 0004:00000780       $pdata$2$?RemoveOwner@?$CHandleList@PEAUHMENU__@@VCMenuMTL@@PEAUHWND__@@@@QEAAHQEAUHWND__@@@Z 000000014005e780     Colorpge.obj
 0004:00000780       $pdata$2$?RemoveOwner@?$CHandleList@PEAXXPEAUHWND__@@@@QEAAHQEAUHWND__@@@Z 000000014005e780     Colorpge.obj
 0004:0000078c       $pdata$?RemoveHandleWnd@CModuleThreadState@@QEAAPEAUHWND__@@PEAU2@@Z 000000014005e78c     Colorpge.obj
 0004:00000798       $pdata$??1CWnd@@UEAA@XZ    000000014005e798     Colorpge.obj
 0004:000007a4       $pdata$?classHandleFuncCWnd@CWnd@@SAPEAXPEAX0@Z 000000014005e7a4     Colorpge.obj
 0004:000007b0       $pdata$?GetActiveWindow@CWnd@@SAPEAV1@XZ 000000014005e7b0     Colorpge.obj
 0004:000007bc       $pdata$3$?GetActiveWindow@CWnd@@SAPEAV1@XZ 000000014005e7bc     Colorpge.obj
 0004:000007c8       $pdata$4$?GetActiveWindow@CWnd@@SAPEAV1@XZ 000000014005e7c8     Colorpge.obj
 0004:000007d4       $pdata$5$?GetActiveWindow@CWnd@@SAPEAV1@XZ 000000014005e7d4     Colorpge.obj
 0004:000007e0       $pdata$6$?GetActiveWindow@CWnd@@SAPEAV1@XZ 000000014005e7e0     Colorpge.obj
 0004:000007ec       $pdata$7$?GetActiveWindow@CWnd@@SAPEAV1@XZ 000000014005e7ec     Colorpge.obj
 0004:000007f8       $pdata$8$?GetActiveWindow@CWnd@@SAPEAV1@XZ 000000014005e7f8     Colorpge.obj
 0004:00000804       $pdata$?OnCmdMsg@CCmdTarget@@UEAAHIHPEAXPEAUAFX_CMDHANDLERINFO@@@Z 000000014005e804     Colorpge.obj
 0004:00000810       $pdata$0$?OnCmdMsg@CCmdTarget@@UEAAHIHPEAXPEAUAFX_CMDHANDLERINFO@@@Z 000000014005e810     Colorpge.obj
 0004:0000081c       $pdata$1$?OnCmdMsg@CCmdTarget@@UEAAHIHPEAXPEAUAFX_CMDHANDLERINFO@@@Z 000000014005e81c     Colorpge.obj
 0004:00000828       $pdata$?AfxHelpEnabled@@YAHXZ 000000014005e828     Colorpge.obj
 0004:00000834       $pdata$?CommonConstruct@CPropertyPageMTL@@QEAAXPEB_WI@Z 000000014005e834     Colorpge.obj
 0004:00000840       $pdata$??0CPropertyPageMTL@@QEAA@IIK@Z 000000014005e840     Colorpge.obj
 0004:0000084c       $pdata$?_ProcessWindowMessage@CMainFrame@@UEAAHPEAUHWND__@@I_K_JAEA_J@Z 000000014005e84c     Mainfrm.obj
 0004:00000858       $pdata$??0CMainFrame@@QEAA@XZ 000000014005e858     Mainfrm.obj
 0004:00000864       $pdata$??_GCMainFrame@@UEAAPEAXI@Z 000000014005e864     Mainfrm.obj
 0004:00000870       $pdata$?OnCreate@CMainFrame@@QEAAHPEAUtagCREATESTRUCTW@@@Z 000000014005e870     Mainfrm.obj
 0004:0000087c       $pdata$0$?OnCreate@CMainFrame@@QEAAHPEAUtagCREATESTRUCTW@@@Z 000000014005e87c     Mainfrm.obj
 0004:00000888       $pdata$2$?OnCreate@CMainFrame@@QEAAHPEAUtagCREATESTRUCTW@@@Z 000000014005e888     Mainfrm.obj
 0004:00000894       $pdata$?OnMiniFramePropertySheet@CMainFrame@@QEAAXXZ 000000014005e894     Mainfrm.obj
 0004:000008a0       $pdata$?AllocElements@CStatusBar@@QEAAHHH@Z 000000014005e8a0     Mainfrm.obj
 0004:000008ac       $pdata$0$?AllocElements@CStatusBar@@QEAAHHH@Z 000000014005e8ac     Mainfrm.obj
 0004:000008b8       $pdata$1$?AllocElements@CStatusBar@@QEAAHHH@Z 000000014005e8b8     Mainfrm.obj
 0004:000008c4       $pdata$2$?AllocElements@CStatusBar@@QEAAHHH@Z 000000014005e8c4     Mainfrm.obj
 0004:000008d0       $pdata$3$?AllocElements@CStatusBar@@QEAAHHH@Z 000000014005e8d0     Mainfrm.obj
 0004:000008dc       $pdata$?SetIndicators@CStatusBar@@QEAAHPEBIH@Z 000000014005e8dc     Mainfrm.obj
 0004:000008e8       $pdata$?SetButtons@CToolBar@@QEAAHPEBIH@Z 000000014005e8e8     Mainfrm.obj
 0004:000008f4       $pdata$?AfxLoadSysColorBitmap@@YAPEAUHBITMAP__@@PEAUHINSTANCE__@@PEAUHRSRC__@@H@Z 000000014005e8f4     Mainfrm.obj
 0004:00000900       $pdata$2$?AfxLoadSysColorBitmap@@YAPEAUHBITMAP__@@PEAUHINSTANCE__@@PEAUHRSRC__@@H@Z 000000014005e900     Mainfrm.obj
 0004:0000090c       $pdata$9$?AfxLoadSysColorBitmap@@YAPEAUHBITMAP__@@PEAUHINSTANCE__@@PEAUHRSRC__@@H@Z 000000014005e90c     Mainfrm.obj
 0004:00000918       $pdata$10$?AfxLoadSysColorBitmap@@YAPEAUHBITMAP__@@PEAUHINSTANCE__@@PEAUHRSRC__@@H@Z 000000014005e918     Mainfrm.obj
 0004:00000924       $pdata$?AddReplaceBitmap@CToolBar@@QEAAHPEAUHBITMAP__@@@Z 000000014005e924     Mainfrm.obj
 0004:00000930       $pdata$?LoadBitmapW@CToolBar@@QEAAHPEB_W@Z 000000014005e930     Mainfrm.obj
 0004:0000093c       $pdata$?OnPaint@CToolBar@@QEAAXXZ 000000014005e93c     Mainfrm.obj
 0004:00000948       $pdata$?OnSetSizeHelper@CToolBar@@QEAA_JAEAVCSize@WTL@@_J@Z 000000014005e948     Mainfrm.obj
 0004:00000954       $pdata$?OnPreserveSizingPolicyHelper@CToolBar@@QEAA_J_K_J@Z 000000014005e954     Mainfrm.obj
 0004:00000960       $pdata$0$?OnPreserveSizingPolicyHelper@CToolBar@@QEAA_J_K_J@Z 000000014005e960     Mainfrm.obj
 0004:0000096c       $pdata$1$?OnPreserveSizingPolicyHelper@CToolBar@@QEAA_J_K_J@Z 000000014005e96c     Mainfrm.obj
 0004:00000978       $pdata$?OnPreserveZeroBorderHelper@CToolBar@@QEAA_J_K_J@Z 000000014005e978     Mainfrm.obj
 0004:00000984       $pdata$?_ProcessWindowMessage@CToolBar@@UEAAHPEAUHWND__@@I_K_JAEA_J@Z 000000014005e984     Mainfrm.obj
 0004:00000990       $pdata$??_GCControlBar@@UEAAPEAXI@Z 000000014005e990     Mainfrm.obj
 0004:00000990       $pdata$??_GCStatusBar@@UEAAPEAXI@Z 000000014005e990     Mainfrm.obj
 0004:00000990       $pdata$??_GCToolBar@@UEAAPEAXI@Z 000000014005e990     Mainfrm.obj
 0004:0000099c       $pdata$?OnToolHitTest@CToolBar@@UEBA_JVCPoint@WTL@@PEAUtagTOOLINFOW@@@Z 000000014005e99c     Mainfrm.obj
 0004:000009a8       $pdata$2$?OnToolHitTest@CToolBar@@UEBA_JVCPoint@WTL@@PEAUtagTOOLINFOW@@@Z 000000014005e9a8     Mainfrm.obj
 0004:000009b4       $pdata$3$?OnToolHitTest@CToolBar@@UEBA_JVCPoint@WTL@@PEAUtagTOOLINFOW@@@Z 000000014005e9b4     Mainfrm.obj
 0004:000009c0       $pdata$4$?OnToolHitTest@CToolBar@@UEBA_JVCPoint@WTL@@PEAUtagTOOLINFOW@@@Z 000000014005e9c0     Mainfrm.obj
 0004:000009cc       $pdata$?OnBarStyleChange@CToolBar@@UEAAXKK@Z 000000014005e9cc     Mainfrm.obj
 0004:000009d8       $pdata$?Enable@CToolCmdUI@@UEAAXH@Z 000000014005e9d8     Mainfrm.obj
 0004:000009e4       $pdata$?SetButtonStyle@CToolBar@@QEAAXHI@Z 000000014005e9e4     Mainfrm.obj
 0004:000009f0       $pdata$?SetCheck@CToolCmdUI@@UEAAXH@Z 000000014005e9f0     Mainfrm.obj
 0004:000009fc       $pdata$?OnUpdateCmdUI@CToolBar@@UEAAXPEAVCFrameWnd@@H@Z 000000014005e9fc     Mainfrm.obj
 0004:00000a08       $pdata$0$?OnUpdateCmdUI@CToolBar@@UEAAXPEAVCFrameWnd@@H@Z 000000014005ea08     Mainfrm.obj
 0004:00000a14       $pdata$1$?OnUpdateCmdUI@CToolBar@@UEAAXPEAVCFrameWnd@@H@Z 000000014005ea14     Mainfrm.obj
 0004:00000a20       $pdata$?WrapToolBar@CToolBar@@QEAAHPEAU_TBBUTTON@@HH@Z 000000014005ea20     Mainfrm.obj
 0004:00000a2c       $pdata$?SizeToolBar@CToolBar@@QEAAXPEAU_TBBUTTON@@HHH@Z 000000014005ea2c     Mainfrm.obj
 0004:00000a38       $pdata$0$?SizeToolBar@CToolBar@@QEAAXPEAU_TBBUTTON@@HHH@Z 000000014005ea38     Mainfrm.obj
 0004:00000a44       $pdata$1$?SizeToolBar@CToolBar@@QEAAXPEAU_TBBUTTON@@HHH@Z 000000014005ea44     Mainfrm.obj
 0004:00000a50       $pdata$?CalcSize@CToolBar@@QEAA?AVCSize@WTL@@PEAU_TBBUTTON@@H@Z 000000014005ea50     Mainfrm.obj
 0004:00000a5c       $pdata$1$?CalcSize@CToolBar@@QEAA?AVCSize@WTL@@PEAU_TBBUTTON@@H@Z 000000014005ea5c     Mainfrm.obj
 0004:00000a68       $pdata$2$?CalcSize@CToolBar@@QEAA?AVCSize@WTL@@PEAU_TBBUTTON@@H@Z 000000014005ea68     Mainfrm.obj
 0004:00000a74       $pdata$?_SetButton@CToolBar@@QEAAXHPEAU_TBBUTTON@@@Z 000000014005ea74     Mainfrm.obj
 0004:00000a80       $pdata$1$?_SetButton@CToolBar@@QEAAXHPEAU_TBBUTTON@@@Z 000000014005ea80     Mainfrm.obj
 0004:00000a8c       $pdata$2$?_SetButton@CToolBar@@QEAAXHPEAU_TBBUTTON@@@Z 000000014005ea8c     Mainfrm.obj
 0004:00000a98       $pdata$?CalcDynamicLayout@CToolBar@@UEAA?AVCSize@WTL@@HK@Z 000000014005ea98     Mainfrm.obj
 0004:00000aa4       $pdata$?CalcLayout@CToolBar@@QEAA?AVCSize@WTL@@KH@Z 000000014005eaa4     Mainfrm.obj
 0004:00000ab0       $pdata$?CalcFixedLayout@CToolBar@@UEAA?AVCSize@WTL@@HH@Z 000000014005eab0     Mainfrm.obj
 0004:00000abc       $pdata$?Create@CToolBar@@UEAAHPEAVCWnd@@KI@Z 000000014005eabc     Mainfrm.obj
 0004:00000ac8       $pdata$?_AfxGetDropDownWidth@CToolBar@@SAHXZ 000000014005eac8     Mainfrm.obj
 0004:00000ad4       $pdata$2$?_AfxGetDropDownWidth@CToolBar@@SAHXZ 000000014005ead4     Mainfrm.obj
 0004:00000ae0       $pdata$3$?_AfxGetDropDownWidth@CToolBar@@SAHXZ 000000014005eae0     Mainfrm.obj
 0004:00000aec       $pdata$?SetSizes@CToolBar@@QEAAXUtagSIZE@@0@Z 000000014005eaec     Mainfrm.obj
 0004:00000af8       $pdata$?CreateEx@CToolBar@@UEAAHPEAVCWnd@@KKVCRect@WTL@@I@Z 000000014005eaf8     Mainfrm.obj
 0004:00000b04       $pdata$??0CToolBar@@QEAA@XZ 000000014005eb04     Mainfrm.obj
 0004:00000b10       $pdata$??0_AUX_DATA@@QEAA@XZ 000000014005eb10     Mainfrm.obj
 0004:00000b1c       $pdata$??0CControlBar@@QEAA@XZ 000000014005eb1c     Mainfrm.obj
 0004:00000b28       $pdata$?OnGetText@CStatusBar@@QEAAHHPEA_W@Z 000000014005eb28     Mainfrm.obj
 0004:00000b34       $pdata$?OnNcCalcSize@CStatusBar@@QEAAXHPEAUtagNCCALCSIZE_PARAMS@@@Z 000000014005eb34     Mainfrm.obj
 0004:00000b40       $pdata$??_GCWindowDCMTL@@UEAAPEAXI@Z 000000014005eb40     Mainfrm.obj
 0004:00000b4c       $pdata$??1CWindowDCMTL@@UEAA@XZ 000000014005eb4c     Mainfrm.obj
 0004:00000b58       $pdata$?DrawBorders@CControlBar@@QEAAXPEAVCDCMTL@@AEAVCRect@WTL@@@Z 000000014005eb58     Mainfrm.obj
 0004:00000b64       $pdata$4$?DrawBorders@CControlBar@@QEAAXPEAVCDCMTL@@AEAVCRect@WTL@@@Z 000000014005eb64     Mainfrm.obj
 0004:00000b70       $pdata$5$?DrawBorders@CControlBar@@QEAAXPEAVCDCMTL@@AEAVCRect@WTL@@@Z 000000014005eb70     Mainfrm.obj
 0004:00000b7c       $pdata$6$?DrawBorders@CControlBar@@QEAAXPEAVCDCMTL@@AEAVCRect@WTL@@@Z 000000014005eb7c     Mainfrm.obj
 0004:00000b88       $pdata$7$?DrawBorders@CControlBar@@QEAAXPEAVCDCMTL@@AEAVCRect@WTL@@@Z 000000014005eb88     Mainfrm.obj
 0004:00000b94       $pdata$?FillSolidRect@?$CDCT@$00@WTL@@QEAAXHHHHK@Z 000000014005eb94     Mainfrm.obj
 0004:00000ba0       $pdata$?Draw3dRect@?$CDCT@$00@WTL@@QEAAXHHHHKK@Z 000000014005eba0     Mainfrm.obj
 0004:00000bac       $pdata$?DrawNonThemedGripper@CControlBar@@QEAAHPEAVCDCMTL@@AEBVCRect@WTL@@@Z 000000014005ebac     Mainfrm.obj
 0004:00000bb8       $pdata$?EraseNonClient@CControlBar@@QEAAXXZ 000000014005ebb8     Mainfrm.obj
 0004:00000bc4       $pdata$?OnSetText@CStatusBar@@QEAAHPEB_W@Z 000000014005ebc4     Mainfrm.obj
 0004:00000bd0       $pdata$2$?OnSetText@CStatusBar@@QEAAHPEB_W@Z 000000014005ebd0     Mainfrm.obj
 0004:00000bdc       $pdata$4$?OnSetText@CStatusBar@@QEAAHPEB_W@Z 000000014005ebdc     Mainfrm.obj
 0004:00000be8       $pdata$?OnSetMinHeight@CStatusBar@@QEAA_J_K_J@Z 000000014005ebe8     Mainfrm.obj
 0004:00000bf4       $pdata$?_ProcessWindowMessage@CStatusBar@@UEAAHPEAUHWND__@@I_K_JAEA_J@Z 000000014005ebf4     Mainfrm.obj
 0004:00000c00       $pdata$0$?_ProcessWindowMessage@CStatusBar@@UEAAHPEAUHWND__@@I_K_JAEA_J@Z 000000014005ec00     Mainfrm.obj
 0004:00000c0c       $pdata$1$?_ProcessWindowMessage@CStatusBar@@UEAAHPEAUHWND__@@I_K_JAEA_J@Z 000000014005ec0c     Mainfrm.obj
 0004:00000c18       $pdata$?OnCreate@CControlBar@@QEAAHPEAUtagCREATESTRUCTW@@@Z 000000014005ec18     Mainfrm.obj
 0004:00000c24       $pdata$1$?OnCreate@CControlBar@@QEAAHPEAUtagCREATESTRUCTW@@@Z 000000014005ec24     Mainfrm.obj
 0004:00000c30       $pdata$2$?OnCreate@CControlBar@@QEAAHPEAUtagCREATESTRUCTW@@@Z 000000014005ec30     Mainfrm.obj
 0004:00000c3c       $pdata$?OnDestroy@CControlBar@@QEAAXXZ 000000014005ec3c     Mainfrm.obj
 0004:00000c48       $pdata$?OnLButtonDown@CControlBar@@QEAAXIVCPoint@WTL@@@Z 000000014005ec48     Mainfrm.obj
 0004:00000c54       $pdata$?ReDockControlBar@CDockBar@@QEAAXPEAVCControlBar@@PEBUtagRECT@@@Z 000000014005ec54     Mainfrm.obj
 0004:00000c60       $pdata$0$?ReDockControlBar@CDockBar@@QEAAXPEAVCControlBar@@PEBUtagRECT@@@Z 000000014005ec60     Mainfrm.obj
 0004:00000c6c       $pdata$1$?ReDockControlBar@CDockBar@@QEAAXPEAVCControlBar@@PEBUtagRECT@@@Z 000000014005ec6c     Mainfrm.obj
 0004:00000c78       $pdata$2$?ReDockControlBar@CDockBar@@QEAAXPEAVCControlBar@@PEBUtagRECT@@@Z 000000014005ec78     Mainfrm.obj
 0004:00000c84       $pdata$3$?ReDockControlBar@CDockBar@@QEAAXPEAVCControlBar@@PEBUtagRECT@@@Z 000000014005ec84     Mainfrm.obj
 0004:00000c90       $pdata$?ReDockControlBar@CFrameWnd@@QEAAXPEAVCControlBar@@PEAVCDockBar@@PEBUtagRECT@@@Z 000000014005ec90     Mainfrm.obj
 0004:00000c9c       $pdata$3$?ReDockControlBar@CFrameWnd@@QEAAXPEAVCControlBar@@PEAVCDockBar@@PEBUtagRECT@@@Z 000000014005ec9c     Mainfrm.obj
 0004:00000ca8       $pdata$4$?ReDockControlBar@CFrameWnd@@QEAAXPEAVCControlBar@@PEAVCDockBar@@PEBUtagRECT@@@Z 000000014005eca8     Mainfrm.obj
 0004:00000cb4       $pdata$?ToggleDocking@CDockContext@@QEAAXXZ 000000014005ecb4     Mainfrm.obj
 0004:00000cc0       $pdata$?OnTimer@CControlBar@@QEAAX_K@Z 000000014005ecc0     Mainfrm.obj
 0004:00000ccc       $pdata$5$?OnTimer@CControlBar@@QEAAX_K@Z 000000014005eccc     Mainfrm.obj
 0004:00000cd8       $pdata$6$?OnTimer@CControlBar@@QEAAX_K@Z 000000014005ecd8     Mainfrm.obj
 0004:00000ce4       $pdata$7$?OnTimer@CControlBar@@QEAAX_K@Z 000000014005ece4     Mainfrm.obj
 0004:00000cf0       $pdata$?RecalcDelayShow@CControlBar@@QEAAKPEAUAFX_SIZEPARENTPARAMS@@@Z 000000014005ecf0     Mainfrm.obj
 0004:00000cfc       $pdata$?OnSizeParent@CControlBar@@QEAA_J_K_J@Z 000000014005ecfc     Mainfrm.obj
 0004:00000d08       $pdata$2$?OnSizeParent@CControlBar@@QEAA_J_K_J@Z 000000014005ed08     Mainfrm.obj
 0004:00000d14       $pdata$3$?OnSizeParent@CControlBar@@QEAA_J_K_J@Z 000000014005ed14     Mainfrm.obj
 0004:00000d20       $pdata$?OnIdleUpdateCmdUI@CControlBar@@QEAA_J_K_J@Z 000000014005ed20     Mainfrm.obj
 0004:00000d2c       $pdata$0$?OnIdleUpdateCmdUI@CControlBar@@QEAA_J_K_J@Z 000000014005ed2c     Mainfrm.obj
 0004:00000d38       $pdata$1$?OnIdleUpdateCmdUI@CControlBar@@QEAA_J_K_J@Z 000000014005ed38     Mainfrm.obj
 0004:00000d44       $pdata$?_ProcessWindowMessage@CControlBar@@UEAAHPEAUHWND__@@I_K_JAEA_J@Z 000000014005ed44     Mainfrm.obj
 0004:00000d50       $pdata$?WindowProc@CControlBar@@UEAA_JI_K_J@Z 000000014005ed50     Mainfrm.obj
 0004:00000d5c       $pdata$?RemoveControlBar@CFrameWnd@@QEAAXPEAVCControlBar@@@Z 000000014005ed5c     Mainfrm.obj
 0004:00000d68       $pdata$?GetCapture@CWnd@@SAPEAV1@XZ 000000014005ed68     Mainfrm.obj
 0004:00000d74       $pdata$3$?GetCapture@CWnd@@SAPEAV1@XZ 000000014005ed74     Mainfrm.obj
 0004:00000d80       $pdata$4$?GetCapture@CWnd@@SAPEAV1@XZ 000000014005ed80     Mainfrm.obj
 0004:00000d8c       $pdata$5$?GetCapture@CWnd@@SAPEAV1@XZ 000000014005ed8c     Mainfrm.obj
 0004:00000d98       $pdata$6$?GetCapture@CWnd@@SAPEAV1@XZ 000000014005ed98     Mainfrm.obj
 0004:00000da4       $pdata$7$?GetCapture@CWnd@@SAPEAV1@XZ 000000014005eda4     Mainfrm.obj
 0004:00000db0       $pdata$8$?GetCapture@CWnd@@SAPEAV1@XZ 000000014005edb0     Mainfrm.obj
 0004:00000dbc       $pdata$?CreateEx@CMiniFrameWnd@@UEAAHKPEB_W0KAEBUtagRECT@@PEAVCWnd@@I@Z 000000014005edbc     Mainfrm.obj
 0004:00000dc8       $pdata$?Create@CDockBar@@QEAAHPEAVCWnd@@KI@Z 000000014005edc8     Mainfrm.obj
 0004:00000dd4       $pdata$?Create@CMiniDockFrameWnd@@QEAAHPEAVCWnd@@K@Z 000000014005edd4     Mainfrm.obj
 0004:00000de0       $pdata$?GetDlgItem@CWnd@@QEAAPEAV1@H@Z 000000014005ede0     Mainfrm.obj
 0004:00000dec       $pdata$3$?GetDlgItem@CWnd@@QEAAPEAV1@H@Z 000000014005edec     Mainfrm.obj
 0004:00000df8       $pdata$4$?GetDlgItem@CWnd@@QEAAPEAV1@H@Z 000000014005edf8     Mainfrm.obj
 0004:00000e04       $pdata$5$?GetDlgItem@CWnd@@QEAAPEAV1@H@Z 000000014005ee04     Mainfrm.obj
 0004:00000e10       $pdata$6$?GetDlgItem@CWnd@@QEAAPEAV1@H@Z 000000014005ee10     Mainfrm.obj
 0004:00000e1c       $pdata$7$?GetDlgItem@CWnd@@QEAAPEAV1@H@Z 000000014005ee1c     Mainfrm.obj
 0004:00000e28       $pdata$8$?GetDlgItem@CWnd@@QEAAPEAV1@H@Z 000000014005ee28     Mainfrm.obj
 0004:00000e34       $pdata$?GetParentOwner@CWnd@@QEAAPEAV1@XZ 000000014005ee34     Mainfrm.obj
 0004:00000e40       $pdata$0$?GetParentOwner@CWnd@@QEAAPEAV1@XZ 000000014005ee40     Mainfrm.obj
 0004:00000e4c       $pdata$4$?GetParentOwner@CWnd@@QEAAPEAV1@XZ 000000014005ee4c     Mainfrm.obj
 0004:00000e58       $pdata$6$?GetParentOwner@CWnd@@QEAAPEAV1@XZ 000000014005ee58     Mainfrm.obj
 0004:00000e64       $pdata$7$?GetParentOwner@CWnd@@QEAAPEAV1@XZ 000000014005ee64     Mainfrm.obj
 0004:00000e70       $pdata$8$?GetParentOwner@CWnd@@QEAAPEAV1@XZ 000000014005ee70     Mainfrm.obj
 0004:00000e7c       $pdata$9$?GetParentOwner@CWnd@@QEAAPEAV1@XZ 000000014005ee7c     Mainfrm.obj
 0004:00000e88       $pdata$10$?GetParentOwner@CWnd@@QEAAPEAV1@XZ 000000014005ee88     Mainfrm.obj
 0004:00000e94       $pdata$11$?GetParentOwner@CWnd@@QEAAPEAV1@XZ 000000014005ee94     Mainfrm.obj
 0004:00000ea0       $pdata$12$?GetParentOwner@CWnd@@QEAAPEAV1@XZ 000000014005eea0     Mainfrm.obj
 0004:00000eac       $pdata$?Create@CToolTipCtrlMTL@@QEAAHPEAVCWnd@@K@Z 000000014005eeac     Mainfrm.obj
 0004:00000eb8       $pdata$??_GCToolTipCtrlMTL@@UEAAPEAXI@Z 000000014005eeb8     Mainfrm.obj
 0004:00000ec4       $pdata$?_AfxRelayToolTipMessage@CWnd@@SAXPEAVCToolTipCtrlMTL@@PEAUtagMSG@@@Z 000000014005eec4     Mainfrm.obj
 0004:00000ed0       $pdata$?CancelToolTips@CWnd@@QEAAXH@Z 000000014005eed0     Mainfrm.obj
 0004:00000edc       $pdata$?FilterToolTipMessage@CWnd@@QEAAXPEAUtagMSG@@@Z 000000014005eedc     Mainfrm.obj
 0004:00000ee8       $pdata$?_EnableToolTips@CWnd@@QEAAHHI@Z 000000014005eee8     Mainfrm.obj
 0004:00000ef4       $pdata$0$?_EnableToolTips@CWnd@@QEAAHHI@Z 000000014005eef4     Mainfrm.obj
 0004:00000f00       $pdata$1$?_EnableToolTips@CWnd@@QEAAHHI@Z 000000014005ef00     Mainfrm.obj
 0004:00000f0c       $pdata$?InsertAt@?$CArray@PEAXAEBQEAX@@QEAAX_JAEBQEAX0@Z 000000014005ef0c     Mainfrm.obj
 0004:00000f18       $pdata$?Insert@CDockBar@@QEAAHPEAVCControlBar@@VCRect@WTL@@VCPoint@4@@Z 000000014005ef18     Mainfrm.obj
 0004:00000f24       $pdata$?SetSize@?$CArray@PEAXAEBQEAX@@QEAAX_J0@Z 000000014005ef24     Mainfrm.obj
 0004:00000f30       $pdata$0$?SetSize@?$CArray@PEAXAEBQEAX@@QEAAX_J0@Z 000000014005ef30     Mainfrm.obj
 0004:00000f3c       $pdata$1$?SetSize@?$CArray@PEAXAEBQEAX@@QEAAX_J0@Z 000000014005ef3c     Mainfrm.obj
 0004:00000f48       $pdata$?SetParent@CWnd@@QEAAPEAV1@PEAV1@@Z 000000014005ef48     Mainfrm.obj
 0004:00000f54       $pdata$3$?SetParent@CWnd@@QEAAPEAV1@PEAV1@@Z 000000014005ef54     Mainfrm.obj
 0004:00000f60       $pdata$4$?SetParent@CWnd@@QEAAPEAV1@PEAV1@@Z 000000014005ef60     Mainfrm.obj
 0004:00000f6c       $pdata$5$?SetParent@CWnd@@QEAAPEAV1@PEAV1@@Z 000000014005ef6c     Mainfrm.obj
 0004:00000f78       $pdata$6$?SetParent@CWnd@@QEAAPEAV1@PEAV1@@Z 000000014005ef78     Mainfrm.obj
 0004:00000f84       $pdata$7$?SetParent@CWnd@@QEAAPEAV1@PEAV1@@Z 000000014005ef84     Mainfrm.obj
 0004:00000f90       $pdata$8$?SetParent@CWnd@@QEAAPEAV1@PEAV1@@Z 000000014005ef90     Mainfrm.obj
 0004:00000f9c       $pdata$?DockControlBar@CDockBar@@QEAAXPEAVCControlBar@@PEBUtagRECT@@@Z 000000014005ef9c     Mainfrm.obj
 0004:00000fa8       $pdata$0$?DockControlBar@CDockBar@@QEAAXPEAVCControlBar@@PEBUtagRECT@@@Z 000000014005efa8     Mainfrm.obj
 0004:00000fb4       $pdata$3$?DockControlBar@CDockBar@@QEAAXPEAVCControlBar@@PEBUtagRECT@@@Z 000000014005efb4     Mainfrm.obj
 0004:00000fc0       $pdata$4$?DockControlBar@CDockBar@@QEAAXPEAVCControlBar@@PEBUtagRECT@@@Z 000000014005efc0     Mainfrm.obj
 0004:00000fcc       $pdata$5$?DockControlBar@CDockBar@@QEAAXPEAVCControlBar@@PEBUtagRECT@@@Z 000000014005efcc     Mainfrm.obj
 0004:00000fd8       $pdata$6$?DockControlBar@CDockBar@@QEAAXPEAVCControlBar@@PEBUtagRECT@@@Z 000000014005efd8     Mainfrm.obj
 0004:00000fe4       $pdata$?FloatControlBar@CFrameWnd@@QEAAXPEAVCControlBar@@VCPoint@WTL@@K@Z 000000014005efe4     Mainfrm.obj
 0004:00000ff0       $pdata$?RemoveAt@?$CArray@PEAXAEBQEAX@@QEAAX_J0@Z 000000014005eff0     Mainfrm.obj
 0004:00000ffc       $pdata$?RemovePlaceHolder@CDockBar@@QEAAXPEAVCControlBar@@@Z 000000014005effc     Mainfrm.obj
 0004:00001008       $pdata$0$?RemovePlaceHolder@CDockBar@@QEAAXPEAVCControlBar@@@Z 000000014005f008     Mainfrm.obj
 0004:00001014       $pdata$1$?RemovePlaceHolder@CDockBar@@QEAAXPEAVCControlBar@@@Z 000000014005f014     Mainfrm.obj
 0004:00001020       $pdata$?RemoveControlBar@CDockBar@@QEAAHPEAVCControlBar@@HH@Z 000000014005f020     Mainfrm.obj
 0004:0000102c       $pdata$3$?RemoveControlBar@CDockBar@@QEAAHPEAVCControlBar@@HH@Z 000000014005f02c     Mainfrm.obj
 0004:00001038       $pdata$4$?RemoveControlBar@CDockBar@@QEAAHPEAVCControlBar@@HH@Z 000000014005f038     Mainfrm.obj
 0004:00001044       $pdata$??1CControlBar@@UEAA@XZ 000000014005f044     Mainfrm.obj
 0004:00001050       $pdata$?PreTranslateMessage@CControlBar@@UEAAHPEAUtagMSG@@@Z 000000014005f050     Mainfrm.obj
 0004:0000105c       $pdata$0$?PreTranslateMessage@CControlBar@@UEAAHPEAUtagMSG@@@Z 000000014005f05c     Mainfrm.obj
 0004:00001068       $pdata$3$?PreTranslateMessage@CControlBar@@UEAAHPEAUtagMSG@@@Z 000000014005f068     Mainfrm.obj
 0004:00001074       $pdata$4$?PreTranslateMessage@CControlBar@@UEAAHPEAUtagMSG@@@Z 000000014005f074     Mainfrm.obj
 0004:00001080       $pdata$5$?PreTranslateMessage@CControlBar@@UEAAHPEAUtagMSG@@@Z 000000014005f080     Mainfrm.obj
 0004:0000108c       $pdata$?PreCreateWindow@CControlBar@@UEAAHAEAUtagCREATESTRUCTW@@@Z 000000014005f08c     Mainfrm.obj
 0004:00001098       $pdata$?OnBarStyleChange@CStatusBar@@UEAAXKK@Z 000000014005f098     Mainfrm.obj
 0004:000010a4       $pdata$??1?$CArray@HAEBH@@QEAA@XZ 000000014005f0a4     Mainfrm.obj
 0004:000010a4       $pdata$??1?$CArray@PEAXAEBQEAX@@QEAA@XZ 000000014005f0a4     Propsht.obj
 0004:000010b0       $pdata$?SetSize@?$CArray@W4LoadArrayObjType@CArchive@@AEBW412@@@QEAAX_J0@Z 000000014005f0b0     Shapedoc.obj
 0004:000010b0       $pdata$?SetSize@?$CArray@HAEBH@@QEAAX_J0@Z 000000014005f0b0     Mainfrm.obj
 0004:000010bc       $pdata$0$?SetSize@?$CArray@W4LoadArrayObjType@CArchive@@AEBW412@@@QEAAX_J0@Z 000000014005f0bc     Shapedoc.obj
 0004:000010bc       $pdata$0$?SetSize@?$CArray@HAEBH@@QEAAX_J0@Z 000000014005f0bc     Mainfrm.obj
 0004:000010c8       $pdata$1$?SetSize@?$CArray@HAEBH@@QEAAX_J0@Z 000000014005f0c8     Mainfrm.obj
 0004:000010c8       $pdata$1$?SetSize@?$CArray@W4LoadArrayObjType@CArchive@@AEBW412@@@QEAAX_J0@Z 000000014005f0c8     Shapedoc.obj
 0004:000010d4       $pdata$?UpdateAllPanes@CStatusBar@@QEAAXHH@Z 000000014005f0d4     Mainfrm.obj
 0004:000010e0       $pdata$?SetPaneStyle@CStatusBar@@QEAAXHI@Z 000000014005f0e0     Mainfrm.obj
 0004:000010ec       $pdata$?SetPaneText@CStatusBar@@QEAAHHPEB_WH@Z 000000014005f0ec     Mainfrm.obj
 0004:000010f8       $pdata$?UpdateDialogControls@CWnd@@QEAAXPEAVCCmdTarget@@H@Z 000000014005f0f8     Mainfrm.obj
 0004:00001104       $pdata$?OnUpdateCmdUI@CStatusBar@@UEAAXPEAVCFrameWnd@@H@Z 000000014005f104     Mainfrm.obj
 0004:00001110       $pdata$1$?OnUpdateCmdUI@CStatusBar@@UEAAXPEAVCFrameWnd@@H@Z 000000014005f110     Mainfrm.obj
 0004:0000111c       $pdata$2$?OnUpdateCmdUI@CStatusBar@@UEAAXPEAVCFrameWnd@@H@Z 000000014005f11c     Mainfrm.obj
 0004:00001128       $pdata$?CalcDynamicLayout@CControlBar@@UEAA?AVCSize@WTL@@HK@Z 000000014005f128     Mainfrm.obj
 0004:00001134       $pdata$??_GCClientDCMTL@@UEAAPEAXI@Z 000000014005f134     Mainfrm.obj
 0004:00001140       $pdata$??1CClientDCMTL@@UEAA@XZ 000000014005f140     Mainfrm.obj
 0004:0000114c       $pdata$?CalcFixedLayout@CStatusBar@@UEAA?AVCSize@WTL@@HH@Z 000000014005f14c     Mainfrm.obj
 0004:00001158       $pdata$?ResetTimer@CControlBar@@QEAAX_KI@Z 000000014005f158     Mainfrm.obj
 0004:00001164       $pdata$?SetStatusText@CControlBar@@UEAAH_J@Z 000000014005f164     Mainfrm.obj
 0004:00001170       $pdata$?Create@CStatusBar@@UEAAHPEAVCWnd@@KI@Z 000000014005f170     Mainfrm.obj
 0004:0000117c       $pdata$?CreateEx@CStatusBar@@UEAAHPEAVCWnd@@KKI@Z 000000014005f17c     Mainfrm.obj
 0004:00001188       $pdata$?AddFrameWnd@CFrameWnd@@QEAAXXZ 000000014005f188     Mainfrm.obj
 0004:00001194       $pdata$??0CFrameWnd@@QEAA@XZ 000000014005f194     Mainfrm.obj
 0004:000011a0       $pdata$?OnCmdMsg@CMDIFrameWnd@@UEAAHIHPEAXPEAUAFX_CMDHANDLERINFO@@@Z 000000014005f1a0     Mainfrm.obj
 0004:000011ac       $pdata$??_GCMDIFrameWnd@@UEAAPEAXI@Z 000000014005f1ac     Mainfrm.obj
 0004:000011ac       $pdata$??_GCFrameWnd@@UEAAPEAXI@Z 000000014005f1ac     Mainfrm.obj
 0004:000011ac       $pdata$??_GCMDIChildWnd@@UEAAPEAXI@Z 000000014005f1ac     Stdafx.obj
 0004:000011b8       $pdata$?PreTranslateMessage@CMDIFrameWnd@@UEAAHPEAUtagMSG@@@Z 000000014005f1b8     Mainfrm.obj
 0004:000011c4       $pdata$?DefWindowProcW@CMDIFrameWnd@@UEAA_JI_K_J@Z 000000014005f1c4     Mainfrm.obj
 0004:000011d0       $pdata$?OnCommand@CMDIFrameWnd@@UEAAH_K_J@Z 000000014005f1d0     Mainfrm.obj
 0004:000011dc       $pdata$?PreCreateWindow@CMDIFrameWnd@@UEAAHAEAUtagCREATESTRUCTW@@@Z 000000014005f1dc     Mainfrm.obj
 0004:000011e8       $pdata$?OnCreateClient@CMDIFrameWnd@@UEAAHPEAUtagCREATESTRUCTW@@PEAUCCreateContext@@@Z 000000014005f1e8     Mainfrm.obj
 0004:000011f4       $pdata$0$?OnCreateClient@CMDIFrameWnd@@UEAAHPEAUtagCREATESTRUCTW@@PEAUCCreateContext@@@Z 000000014005f1f4     Mainfrm.obj
 0004:00001200       $pdata$1$?OnCreateClient@CMDIFrameWnd@@UEAAHPEAUtagCREATESTRUCTW@@PEAUCCreateContext@@@Z 000000014005f200     Mainfrm.obj
 0004:0000120c       $pdata$?GetActiveFrame@CMDIFrameWnd@@UEAAPEAVCFrameWnd@@XZ 000000014005f20c     Mainfrm.obj
 0004:00001218       $pdata$?LoadFrame@CMDIFrameWnd@@UEAAHIKPEAVCWnd@@PEAUCCreateContext@@@Z 000000014005f218     Mainfrm.obj
 0004:00001224       $pdata$?CreateClient@CMDIFrameWnd@@UEAAHPEAUtagCREATESTRUCTW@@PEAVCMenuMTL@@@Z 000000014005f224     Mainfrm.obj
 0004:00001230       $pdata$2$?CreateClient@CMDIFrameWnd@@UEAAHPEAUtagCREATESTRUCTW@@PEAVCMenuMTL@@@Z 000000014005f230     Mainfrm.obj
 0004:0000123c       $pdata$3$?CreateClient@CMDIFrameWnd@@UEAAHPEAUtagCREATESTRUCTW@@PEAVCMenuMTL@@@Z 000000014005f23c     Mainfrm.obj
 0004:00001248       $pdata$4$?CreateClient@CMDIFrameWnd@@UEAAHPEAUtagCREATESTRUCTW@@PEAVCMenuMTL@@@Z 000000014005f248     Mainfrm.obj
 0004:00001254       $pdata$5$?CreateClient@CMDIFrameWnd@@UEAAHPEAUtagCREATESTRUCTW@@PEAVCMenuMTL@@@Z 000000014005f254     Mainfrm.obj
 0004:00001260       $pdata$?DelayUpdateFrameMenu@CMDIFrameWnd@@UEAAXPEAUHMENU__@@@Z 000000014005f260     Mainfrm.obj
 0004:0000126c       $pdata$?GetWindowMenuPopup@CMDIFrameWnd@@UEAAPEAUHMENU__@@PEAU2@@Z 000000014005f26c     Mainfrm.obj
 0004:00001278       $pdata$3$?GetWindowMenuPopup@CMDIFrameWnd@@UEAAPEAUHMENU__@@PEAU2@@Z 000000014005f278     Mainfrm.obj
 0004:00001284       $pdata$5$?GetWindowMenuPopup@CMDIFrameWnd@@UEAAPEAUHMENU__@@PEAU2@@Z 000000014005f284     Mainfrm.obj
 0004:00001290       $pdata$?OnIdleUpdateCmdUI@CMDIFrameWnd@@QEAAXXZ 000000014005f290     Mainfrm.obj
 0004:0000129c       $pdata$?AfxRegisterWndClass@CAfx@@SAPEB_WIPEAUHICON__@@PEAUHBRUSH__@@0@Z 000000014005f29c     Mainfrm.obj
 0004:000012a8       $pdata$?GetIconWndClass@CFrameWnd@@QEAAPEB_WKI@Z 000000014005f2a8     Mainfrm.obj
 0004:000012b4       $pdata$?OnCmdMsg@CFrameWnd@@UEAAHIHPEAXPEAUAFX_CMDHANDLERINFO@@@Z 000000014005f2b4     Mainfrm.obj
 0004:000012c0       $pdata$?PreTranslateMessage@CFrameWnd@@UEAAHPEAUtagMSG@@@Z 000000014005f2c0     Mainfrm.obj
 0004:000012cc       $pdata$?PreCreateWindow@CMDIChildWnd@@UEAAHAEAUtagCREATESTRUCTW@@@Z 000000014005f2cc     Stdafx.obj
 0004:000012cc       $pdata$?PreCreateWindow@CFrameWnd@@UEAAHAEAUtagCREATESTRUCTW@@@Z 000000014005f2cc     Mainfrm.obj
 0004:000012d8       $pdata$?AfxIsDescendant@CFrameWnd@@SAHPEAUHWND__@@0@Z 000000014005f2d8     Mainfrm.obj
 0004:000012e4       $pdata$?ShowOwnedWindows@CFrameWnd@@QEAAXH@Z 000000014005f2e4     Mainfrm.obj
 0004:000012f0       $pdata$4$?ShowOwnedWindows@CFrameWnd@@QEAAXH@Z 000000014005f2f0     Mainfrm.obj
 0004:000012fc       $pdata$5$?ShowOwnedWindows@CFrameWnd@@QEAAXH@Z 000000014005f2fc     Mainfrm.obj
 0004:00001308       $pdata$?OnSetPreviewMode@CFrameWnd@@UEAAXHPEAUCPrintPreviewState@@@Z 000000014005f308     Mainfrm.obj
 0004:00001314       $pdata$2$?OnSetPreviewMode@CFrameWnd@@UEAAXHPEAUCPrintPreviewState@@@Z 000000014005f314     Mainfrm.obj
 0004:00001320       $pdata$4$?OnSetPreviewMode@CFrameWnd@@UEAAXHPEAUCPrintPreviewState@@@Z 000000014005f320     Mainfrm.obj
 0004:0000132c       $pdata$5$?OnSetPreviewMode@CFrameWnd@@UEAAXHPEAUCPrintPreviewState@@@Z 000000014005f32c     Mainfrm.obj
 0004:00001338       $pdata$6$?OnSetPreviewMode@CFrameWnd@@UEAAXHPEAUCPrintPreviewState@@@Z 000000014005f338     Mainfrm.obj
 0004:00001344       $pdata$?GetDefaultAccelerator@CFrameWnd@@UEAAPEAUHACCEL__@@XZ 000000014005f344     Mainfrm.obj
 0004:00001350       $pdata$?RemoveFrameWnd@CFrameWnd@@QEAAXXZ 000000014005f350     Mainfrm.obj
 0004:0000135c       $pdata$??1CFrameWnd@@UEAA@XZ 000000014005f35c     Mainfrm.obj
 0004:00001368       $pdata$?Create@CFrameWnd@@UEAAHPEB_W0KAEBUtagRECT@@PEAVCWnd@@0KPEAUCCreateContext@@@Z 000000014005f368     Mainfrm.obj
 0004:00001374       $pdata$0$?Create@CFrameWnd@@UEAAHPEB_W0KAEBUtagRECT@@PEAVCWnd@@0KPEAUCCreateContext@@@Z 000000014005f374     Mainfrm.obj
 0004:00001380       $pdata$1$?Create@CFrameWnd@@UEAAHPEB_W0KAEBUtagRECT@@PEAVCWnd@@0KPEAUCCreateContext@@@Z 000000014005f380     Mainfrm.obj
 0004:0000138c       $pdata$?LoadFrame@CFrameWnd@@UEAAHIKPEAVCWnd@@PEAUCCreateContext@@@Z 000000014005f38c     Mainfrm.obj
 0004:00001398       $pdata$?GetForegroundWindow@CWnd@@SAPEAV1@XZ 000000014005f398     Mainfrm.obj
 0004:000013a4       $pdata$3$?GetForegroundWindow@CWnd@@SAPEAV1@XZ 000000014005f3a4     Mainfrm.obj
 0004:000013b0       $pdata$4$?GetForegroundWindow@CWnd@@SAPEAV1@XZ 000000014005f3b0     Mainfrm.obj
 0004:000013bc       $pdata$5$?GetForegroundWindow@CWnd@@SAPEAV1@XZ 000000014005f3bc     Mainfrm.obj
 0004:000013c8       $pdata$6$?GetForegroundWindow@CWnd@@SAPEAV1@XZ 000000014005f3c8     Mainfrm.obj
 0004:000013d4       $pdata$7$?GetForegroundWindow@CWnd@@SAPEAV1@XZ 000000014005f3d4     Mainfrm.obj
 0004:000013e0       $pdata$8$?GetForegroundWindow@CWnd@@SAPEAV1@XZ 000000014005f3e0     Mainfrm.obj
 0004:000013ec       $pdata$?GetLastActivePopup@CWnd@@QEAAPEAV1@XZ 000000014005f3ec     Mainfrm.obj
 0004:000013f8       $pdata$3$?GetLastActivePopup@CWnd@@QEAAPEAV1@XZ 000000014005f3f8     Mainfrm.obj
 0004:00001404       $pdata$4$?GetLastActivePopup@CWnd@@QEAAPEAV1@XZ 000000014005f404     Mainfrm.obj
 0004:00001410       $pdata$5$?GetLastActivePopup@CWnd@@QEAAPEAV1@XZ 000000014005f410     Mainfrm.obj
 0004:0000141c       $pdata$6$?GetLastActivePopup@CWnd@@QEAAPEAV1@XZ 000000014005f41c     Mainfrm.obj
 0004:00001428       $pdata$7$?GetLastActivePopup@CWnd@@QEAAPEAV1@XZ 000000014005f428     Mainfrm.obj
 0004:00001434       $pdata$8$?GetLastActivePopup@CWnd@@QEAAPEAV1@XZ 000000014005f434     Mainfrm.obj
 0004:00001440       $pdata$?OnWindowNew@CMDIFrameWnd@@QEAAXXZ 000000014005f440     Mainfrm.obj
 0004:0000144c       $pdata$?MDIGetActive@CMDIFrameWnd@@QEBAPEAVCMDIChildWnd@@PEAH@Z 000000014005f44c     Mainfrm.obj
 0004:00001458       $pdata$3$?MDIGetActive@CMDIFrameWnd@@QEBAPEAVCMDIChildWnd@@PEAH@Z 000000014005f458     Mainfrm.obj
 0004:00001464       $pdata$4$?MDIGetActive@CMDIFrameWnd@@QEBAPEAVCMDIChildWnd@@PEAH@Z 000000014005f464     Mainfrm.obj
 0004:00001470       $pdata$5$?MDIGetActive@CMDIFrameWnd@@QEBAPEAVCMDIChildWnd@@PEAH@Z 000000014005f470     Mainfrm.obj
 0004:0000147c       $pdata$6$?MDIGetActive@CMDIFrameWnd@@QEBAPEAVCMDIChildWnd@@PEAH@Z 000000014005f47c     Mainfrm.obj
 0004:00001488       $pdata$7$?MDIGetActive@CMDIFrameWnd@@QEBAPEAVCMDIChildWnd@@PEAH@Z 000000014005f488     Mainfrm.obj
 0004:00001494       $pdata$8$?MDIGetActive@CMDIFrameWnd@@QEBAPEAVCMDIChildWnd@@PEAH@Z 000000014005f494     Mainfrm.obj
 0004:000014a0       $pdata$9$?MDIGetActive@CMDIFrameWnd@@QEBAPEAVCMDIChildWnd@@PEAH@Z 000000014005f4a0     Mainfrm.obj
 0004:000014ac       $pdata$10$?MDIGetActive@CMDIFrameWnd@@QEBAPEAVCMDIChildWnd@@PEAH@Z 000000014005f4ac     Mainfrm.obj
 0004:000014b8       $pdata$?OnUpdateMDIWindowCmd@CMDIFrameWnd@@QEAAXPEAVCCmdUI@@@Z 000000014005f4b8     Mainfrm.obj
 0004:000014c4       $pdata$?OnMDIWindowCmd@CMDIFrameWnd@@QEAAHI@Z 000000014005f4c4     Mainfrm.obj
 0004:000014d0       $pdata$?CanCloseFrame@CDocument@@QEAAHPEAVCFrameWnd@@@Z 000000014005f4d0     Mainfrm.obj
 0004:000014dc       $pdata$?SaveAllModified@CDocManager@@QEAAHXZ 000000014005f4dc     Mainfrm.obj
 0004:000014e8       $pdata$?CloseAllDocuments@CDocTemplate@@QEAAXH@Z 000000014005f4e8     Mainfrm.obj
 0004:000014f4       $pdata$3$?CloseAllDocuments@CDocTemplate@@QEAAXH@Z 000000014005f4f4     Mainfrm.obj
 0004:00001500       $pdata$4$?CloseAllDocuments@CDocTemplate@@QEAAXH@Z 000000014005f500     Mainfrm.obj
 0004:0000150c       $pdata$??1CDocument@@QEAA@XZ 000000014005f50c     Mainfrm.obj
 0004:00001518       $pdata$?OnCloseDocument@CDocument@@QEAAXXZ 000000014005f518     Mainfrm.obj
 0004:00001524       $pdata$0$?OnCloseDocument@CDocument@@QEAAXXZ 000000014005f524     Mainfrm.obj
 0004:00001530       $pdata$1$?OnCloseDocument@CDocument@@QEAAXXZ 000000014005f530     Mainfrm.obj
 0004:0000153c       $pdata$2$?OnCloseDocument@CDocument@@QEAAXXZ 000000014005f53c     Mainfrm.obj
 0004:00001548       $pdata$3$?OnCloseDocument@CDocument@@QEAAXXZ 000000014005f548     Mainfrm.obj
 0004:00001554       $pdata$?OnClose@CFrameWnd@@QEAAXXZ 000000014005f554     Mainfrm.obj
 0004:00001560       $pdata$2$?OnClose@CFrameWnd@@QEAAXXZ 000000014005f560     Mainfrm.obj
 0004:0000156c       $pdata$3$?OnClose@CFrameWnd@@QEAAXXZ 000000014005f56c     Mainfrm.obj
 0004:00001578       $pdata$?CreateView@CFrameWnd@@QEAAPEAVCWnd@@PEAUCCreateContext@@I@Z 000000014005f578     Mainfrm.obj
 0004:00001584       $pdata$0$?CreateView@CFrameWnd@@QEAAPEAVCWnd@@PEAUCCreateContext@@I@Z 000000014005f584     Mainfrm.obj
 0004:00001590       $pdata$2$?CreateView@CFrameWnd@@QEAAPEAVCWnd@@PEAUCCreateContext@@I@Z 000000014005f590     Mainfrm.obj
 0004:0000159c       $pdata$3$?CreateView@CFrameWnd@@QEAAPEAVCWnd@@PEAUCCreateContext@@I@Z 000000014005f59c     Mainfrm.obj
 0004:000015a8       $pdata$?OnCreateClient@CFrameWnd@@UEAAHPEAUtagCREATESTRUCTW@@PEAUCCreateContext@@@Z 000000014005f5a8     Mainfrm.obj
 0004:000015b4       $pdata$?OnCreateHelper@CFrameWnd@@QEAAHPEAUtagCREATESTRUCTW@@PEAUCCreateContext@@@Z 000000014005f5b4     Mainfrm.obj
 0004:000015c0       $pdata$?GetParentFrame@CWnd@@QEAAPEAVCFrameWnd@@XZ 000000014005f5c0     Mainfrm.obj
 0004:000015c0       $pdata$?EnsureParentFrame@CWnd@@QEAAPEAVCFrameWnd@@XZ 000000014005f5c0     Mainfrm.obj
 0004:000015cc       $pdata$0$?EnsureParentFrame@CWnd@@QEAAPEAVCFrameWnd@@XZ 000000014005f5cc     Mainfrm.obj
 0004:000015cc       $pdata$0$?GetParentFrame@CWnd@@QEAAPEAVCFrameWnd@@XZ 000000014005f5cc     Mainfrm.obj
 0004:000015d8       $pdata$2$?EnsureParentFrame@CWnd@@QEAAPEAVCFrameWnd@@XZ 000000014005f5d8     Mainfrm.obj
 0004:000015d8       $pdata$2$?GetParentFrame@CWnd@@QEAAPEAVCFrameWnd@@XZ 000000014005f5d8     Mainfrm.obj
 0004:000015e4       $pdata$3$?GetParentFrame@CWnd@@QEAAPEAVCFrameWnd@@XZ 000000014005f5e4     Mainfrm.obj
 0004:000015e4       $pdata$3$?EnsureParentFrame@CWnd@@QEAAPEAVCFrameWnd@@XZ 000000014005f5e4     Mainfrm.obj
 0004:000015f0       $pdata$?DestroyWindow@CControlBar@@UEAAHXZ 000000014005f5f0     Mainfrm.obj
 0004:000015fc       $pdata$?DestroyDockBars@CFrameWnd@@QEAAXXZ 000000014005f5fc     Mainfrm.obj
 0004:00001608       $pdata$?OnDestroy@CFrameWnd@@QEAAXXZ 000000014005f608     Mainfrm.obj
 0004:00001614       $pdata$0$?OnDestroy@CFrameWnd@@QEAAXXZ 000000014005f614     Mainfrm.obj
 0004:00001620       $pdata$1$?OnDestroy@CFrameWnd@@QEAAXXZ 000000014005f620     Mainfrm.obj
 0004:0000162c       $pdata$?SetActiveWindow@CWnd@@QEAAPEAV1@XZ 000000014005f62c     Mainfrm.obj
 0004:00001638       $pdata$3$?SetActiveWindow@CWnd@@QEAAPEAV1@XZ 000000014005f638     Mainfrm.obj
 0004:00001644       $pdata$4$?SetActiveWindow@CWnd@@QEAAPEAV1@XZ 000000014005f644     Mainfrm.obj
 0004:00001650       $pdata$5$?SetActiveWindow@CWnd@@QEAAPEAV1@XZ 000000014005f650     Mainfrm.obj
 0004:0000165c       $pdata$6$?SetActiveWindow@CWnd@@QEAAPEAV1@XZ 000000014005f65c     Mainfrm.obj
 0004:00001668       $pdata$7$?SetActiveWindow@CWnd@@QEAAPEAV1@XZ 000000014005f668     Mainfrm.obj
 0004:00001674       $pdata$8$?SetActiveWindow@CWnd@@QEAAPEAV1@XZ 000000014005f674     Mainfrm.obj
 0004:00001680       $pdata$?ActivateFrame@CFrameWnd@@UEAAXH@Z 000000014005f680     Mainfrm.obj
 0004:0000168c       $pdata$?ShowAppMessageBox@CWinApp@@SAHPEAV1@PEB_WII@Z 000000014005f68c     Mainfrm.obj
 0004:00001698       $pdata$?AfxMessageBox@@YAHIII@Z 000000014005f698     Mainfrm.obj
 0004:000016a4       $pdata$?OnDropFiles@CFrameWnd@@QEAAXPEAUHDROP__@@@Z 000000014005f6a4     Mainfrm.obj
 0004:000016b0       $pdata$?GetOwner@CWnd@@QEAAPEAV1@XZ 000000014005f6b0     Mainfrm.obj
 0004:000016bc       $pdata$2$?GetOwner@CWnd@@QEAAPEAV1@XZ 000000014005f6bc     Mainfrm.obj
 0004:000016c8       $pdata$4$?GetOwner@CWnd@@QEAAPEAV1@XZ 000000014005f6c8     Mainfrm.obj
 0004:000016d4       $pdata$5$?GetOwner@CWnd@@QEAAPEAV1@XZ 000000014005f6d4     Mainfrm.obj
 0004:000016e0       $pdata$6$?GetOwner@CWnd@@QEAAPEAV1@XZ 000000014005f6e0     Mainfrm.obj
 0004:000016ec       $pdata$7$?GetOwner@CWnd@@QEAAPEAV1@XZ 000000014005f6ec     Mainfrm.obj
 0004:000016f8       $pdata$8$?GetOwner@CWnd@@QEAAPEAV1@XZ 000000014005f6f8     Mainfrm.obj
 0004:00001704       $pdata$9$?GetOwner@CWnd@@QEAAPEAV1@XZ 000000014005f704     Mainfrm.obj
 0004:00001710       $pdata$10$?GetOwner@CWnd@@QEAAPEAV1@XZ 000000014005f710     Mainfrm.obj
 0004:0000171c       $pdata$?GetTopLevelParent@CWnd@@QEAAPEAV1@XZ 000000014005f71c     Mainfrm.obj
 0004:00001728       $pdata$0$?GetTopLevelParent@CWnd@@QEAAPEAV1@XZ 000000014005f728     Mainfrm.obj
 0004:00001734       $pdata$2$?GetTopLevelParent@CWnd@@QEAAPEAV1@XZ 000000014005f734     Mainfrm.obj
 0004:00001740       $pdata$4$?GetTopLevelParent@CWnd@@QEAAPEAV1@XZ 000000014005f740     Mainfrm.obj
 0004:0000174c       $pdata$5$?GetTopLevelParent@CWnd@@QEAAPEAV1@XZ 000000014005f74c     Mainfrm.obj
 0004:00001758       $pdata$6$?GetTopLevelParent@CWnd@@QEAAPEAV1@XZ 000000014005f758     Mainfrm.obj
 0004:00001764       $pdata$7$?GetTopLevelParent@CWnd@@QEAAPEAV1@XZ 000000014005f764     Mainfrm.obj
 0004:00001770       $pdata$8$?GetTopLevelParent@CWnd@@QEAAPEAV1@XZ 000000014005f770     Mainfrm.obj
 0004:0000177c       $pdata$9$?GetTopLevelParent@CWnd@@QEAAPEAV1@XZ 000000014005f77c     Mainfrm.obj
 0004:00001788       $pdata$10$?GetTopLevelParent@CWnd@@QEAAPEAV1@XZ 000000014005f788     Mainfrm.obj
 0004:00001794       $pdata$11$?GetTopLevelParent@CWnd@@QEAAPEAV1@XZ 000000014005f794     Mainfrm.obj
 0004:000017a0       $pdata$?OnIdle@CCmdUI@@QEAAHPEAVCCmdTarget@@H@Z 000000014005f7a0     Mainfrm.obj
 0004:000017ac       $pdata$?OnInitMenuPopup@CFrameWnd@@QEAAXPEAVCMenuMTL@@IH@Z 000000014005f7ac     Mainfrm.obj
 0004:000017b8       $pdata$2$?OnInitMenuPopup@CFrameWnd@@QEAAXPEAVCMenuMTL@@IH@Z 000000014005f7b8     Mainfrm.obj
 0004:000017c4       $pdata$3$?OnInitMenuPopup@CFrameWnd@@QEAAXPEAVCMenuMTL@@IH@Z 000000014005f7c4     Mainfrm.obj
 0004:000017d0       $pdata$4$?OnInitMenuPopup@CFrameWnd@@QEAAXPEAVCMenuMTL@@IH@Z 000000014005f7d0     Mainfrm.obj
 0004:000017dc       $pdata$5$?OnInitMenuPopup@CFrameWnd@@QEAAXPEAVCMenuMTL@@IH@Z 000000014005f7dc     Mainfrm.obj
 0004:000017e8       $pdata$6$?OnInitMenuPopup@CFrameWnd@@QEAAXPEAVCMenuMTL@@IH@Z 000000014005f7e8     Mainfrm.obj
 0004:000017f4       $pdata$?GetTopLevelFrame@CWnd@@QEAAPEAVCFrameWnd@@XZ 000000014005f7f4     Mainfrm.obj
 0004:00001800       $pdata$0$?GetTopLevelFrame@CWnd@@QEAAPEAVCFrameWnd@@XZ 000000014005f800     Mainfrm.obj
 0004:0000180c       $pdata$1$?GetTopLevelFrame@CWnd@@QEAAPEAVCFrameWnd@@XZ 000000014005f80c     Mainfrm.obj
 0004:00001818       $pdata$2$?GetTopLevelFrame@CWnd@@QEAAPEAVCFrameWnd@@XZ 000000014005f818     Mainfrm.obj
 0004:00001824       $pdata$3$?GetTopLevelFrame@CWnd@@QEAAPEAVCFrameWnd@@XZ 000000014005f824     Mainfrm.obj
 0004:00001830       $pdata$?SetMenuBarState@CFrameWnd@@QEAAHK@Z 000000014005f830     Mainfrm.obj
 0004:0000183c       $pdata$?OnMenuSelect@CFrameWnd@@QEAAXIIPEAUHMENU__@@@Z 000000014005f83c     Mainfrm.obj
 0004:00001848       $pdata$?OnSize@CFrameWnd@@QEAAXIHH@Z 000000014005f848     Mainfrm.obj
 0004:00001854       $pdata$?GetDescendantWindow@CWnd@@QEAAPEAV1@PEAUHWND__@@HH@Z 000000014005f854     Mainfrm.obj
 0004:00001860       $pdata$?OnSetMessageString@CFrameWnd@@QEAA_J_K_J@Z 000000014005f860     Mainfrm.obj
 0004:0000186c       $pdata$?UpdateFrameTitleForDocument@CFrameWnd@@QEAAXPEB_W@Z 000000014005f86c     Mainfrm.obj
 0004:00001878       $pdata$?OnUpdateFrameTitle@CFrameWnd@@UEAAXH@Z 000000014005f878     Mainfrm.obj
 0004:00001884       $pdata$?OnIdleUpdateCmdUI@CFrameWnd@@QEAAXXZ 000000014005f884     Mainfrm.obj
 0004:00001890       $pdata$?OnUpdateControlBarMenu@CFrameWnd@@QEAAXPEAVCCmdUI@@@Z 000000014005f890     Mainfrm.obj
 0004:0000189c       $pdata$?GetControlBar@CFrameWnd@@QEAAPEAVCControlBar@@I@Z 000000014005f89c     Mainfrm.obj
 0004:000018a8       $pdata$1$?GetControlBar@CFrameWnd@@QEAAPEAVCControlBar@@I@Z 000000014005f8a8     Mainfrm.obj
 0004:000018b4       $pdata$3$?GetControlBar@CFrameWnd@@QEAAPEAVCControlBar@@I@Z 000000014005f8b4     Mainfrm.obj
 0004:000018c0       $pdata$?GetDockingFrame@CControlBar@@QEAAPEAVCFrameWnd@@XZ 000000014005f8c0     Mainfrm.obj
 0004:000018cc       $pdata$?IsVisible@CControlBar@@UEBAHXZ 000000014005f8cc     Mainfrm.obj
 0004:000018d8       $pdata$?AfxRepositionWindow@CAfx@@SAXPEAUAFX_SIZEPARENTPARAMS@@PEAUHWND__@@PEBUtagRECT@@@Z 000000014005f8d8     Mainfrm.obj
 0004:000018e4       $pdata$?RepositionBars@CWnd@@QEAAXIIIIPEAUtagRECT@@PEBU2@H@Z 000000014005f8e4     Mainfrm.obj
 0004:000018f0       $pdata$0$?RepositionBars@CWnd@@QEAAXIIIIPEAUtagRECT@@PEBU2@H@Z 000000014005f8f0     Mainfrm.obj
 0004:000018fc       $pdata$1$?RepositionBars@CWnd@@QEAAXIIIIPEAUtagRECT@@PEBU2@H@Z 000000014005f8fc     Mainfrm.obj
 0004:00001908       $pdata$2$?RepositionBars@CWnd@@QEAAXIIIIPEAUtagRECT@@PEBU2@H@Z 000000014005f908     Mainfrm.obj
 0004:00001914       $pdata$3$?RepositionBars@CWnd@@QEAAXIIIIPEAUtagRECT@@PEBU2@H@Z 000000014005f914     Mainfrm.obj
 0004:00001920       $pdata$?RecalcLayout@CFrameWnd@@UEAAXH@Z 000000014005f920     Mainfrm.obj
 0004:0000192c       $pdata$?ShowControlBar@CFrameWnd@@QEAAXPEAVCControlBar@@HH@Z 000000014005f92c     Mainfrm.obj
 0004:00001938       $pdata$?OnBarCheck@CFrameWnd@@QEAAHI@Z 000000014005f938     Mainfrm.obj
 0004:00001944       $pdata$?_AtlGetStringResourceImage@CAfx@@SAPEBUATLSTRINGRESOURCEIMAGE@ATL@@PEAUHINSTANCE__@@PEAUHRSRC__@@I@Z 000000014005f944     Mainfrm.obj
 0004:00001950       $pdata$?AfxLoadString@CAfx@@SAHIPEA_WI@Z 000000014005f950     Mainfrm.obj
 0004:0000195c       $pdata$?Empty@CString@WTL@@QEAAXXZ 000000014005f95c     Mainfrm.obj
 0004:00001968       $pdata$?AfxExtractSubString@CAfx@@SAHAEAVCString@WTL@@PEB_WH_W@Z 000000014005f968     Mainfrm.obj
 0004:00001974       $pdata$0$?AfxExtractSubString@CAfx@@SAHAEAVCString@WTL@@PEB_WH_W@Z 000000014005f974     Mainfrm.obj
 0004:00001980       $pdata$1$?AfxExtractSubString@CAfx@@SAHAEAVCString@WTL@@PEB_WH_W@Z 000000014005f980     Mainfrm.obj
 0004:0000198c       $pdata$2$?AfxExtractSubString@CAfx@@SAHAEAVCString@WTL@@PEB_WH_W@Z 000000014005f98c     Mainfrm.obj
 0004:00001998       $pdata$?OnToolTipText@CFrameWnd@@QEAAHIPEAUtagNMHDR@@PEA_J@Z 000000014005f998     Mainfrm.obj
 0004:000019a4       $pdata$?OnUpdateKeyIndicator@CFrameWnd@@QEAAXPEAVCCmdUI@@@Z 000000014005f9a4     Mainfrm.obj
 0004:000019b0       $pdata$?_ProcessWindowMessage@CFrameWnd@@UEAAHPEAUHWND__@@I_K_JAEA_J@Z 000000014005f9b0     Mainfrm.obj
 0004:000019bc       $pdata$?_ProcessWindowMessage@CMDIFrameWnd@@UEAAHPEAUHWND__@@I_K_JAEA_J@Z 000000014005f9bc     Mainfrm.obj
 0004:000019c8       $pdata$?_ProcessWindowMessage@CShapePropSheetFrame@@UEAAHPEAUHWND__@@I_K_JAEA_J@Z 000000014005f9c8     Minifrm.obj
 0004:000019d4       $pdata$0$?_ProcessWindowMessage@CShapePropSheetFrame@@UEAAHPEAUHWND__@@I_K_JAEA_J@Z 000000014005f9d4     Minifrm.obj
 0004:000019e0       $pdata$7$?_ProcessWindowMessage@CShapePropSheetFrame@@UEAAHPEAUHWND__@@I_K_JAEA_J@Z 000000014005f9e0     Minifrm.obj
 0004:000019ec       $pdata$??_GCShapePropSheetFrame@@UEAAPEAXI@Z 000000014005f9ec     Minifrm.obj
 0004:000019ec       $pdata$??_GCMiniFrameWnd@@UEAAPEAXI@Z 000000014005f9ec     Minifrm.obj
 0004:000019f8       $pdata$?OnCreate@CShapePropSheetFrame@@IEAAHPEAUtagCREATESTRUCTW@@@Z 000000014005f9f8     Minifrm.obj
 0004:00001a04       $pdata$??1CMiniFrameWnd@@UEAA@XZ 000000014005fa04     Minifrm.obj
 0004:00001a10       $pdata$?PreCreateWindow@CMiniFrameWnd@@UEAAHAEAUtagCREATESTRUCTW@@@Z 000000014005fa10     Minifrm.obj
 0004:00001a1c       $pdata$?Create@CMiniFrameWnd@@UEAAHPEB_W0KAEBUtagRECT@@PEAVCWnd@@I@Z 000000014005fa1c     Minifrm.obj
 0004:00001a28       $pdata$?OnNcCreate@CMiniFrameWnd@@QEAAHPEAUtagCREATESTRUCTW@@@Z 000000014005fa28     Minifrm.obj
 0004:00001a34       $pdata$1$?OnNcCreate@CMiniFrameWnd@@QEAAHPEAUtagCREATESTRUCTW@@@Z 000000014005fa34     Minifrm.obj
 0004:00001a40       $pdata$2$?OnNcCreate@CMiniFrameWnd@@QEAAHPEAUtagCREATESTRUCTW@@@Z 000000014005fa40     Minifrm.obj
 0004:00001a4c       $pdata$?OnNcHitTest@CMiniFrameWnd@@QEAA_JVCPoint@WTL@@@Z 000000014005fa4c     Minifrm.obj
 0004:00001a58       $pdata$?OnGetMinMaxInfo@CMiniFrameWnd@@QEAAXPEAUtagMINMAXINFO@@@Z 000000014005fa58     Minifrm.obj
 0004:00001a64       $pdata$?HandleFloatingSysCommand@CWnd@@QEAAHI_J@Z 000000014005fa64     Minifrm.obj
 0004:00001a70       $pdata$0$?HandleFloatingSysCommand@CWnd@@QEAAHI_J@Z 000000014005fa70     Minifrm.obj
 0004:00001a7c       $pdata$1$?HandleFloatingSysCommand@CWnd@@QEAAHI_J@Z 000000014005fa7c     Minifrm.obj
 0004:00001a88       $pdata$?OnSysCommand@CMiniFrameWnd@@QEAAXI_J@Z 000000014005fa88     Minifrm.obj
 0004:00001a94       $pdata$?OnFloatStatus@CMiniFrameWnd@@QEAA_J_K_J@Z 000000014005fa94     Minifrm.obj
 0004:00001aa0       $pdata$?OnQueryCenterWnd@CMiniFrameWnd@@QEAA_J_K_J@Z 000000014005faa0     Minifrm.obj
 0004:00001aac       $pdata$?_ProcessWindowMessage@CMiniFrameWnd@@UEAAHPEAUHWND__@@I_K_JAEA_J@Z 000000014005faac     Minifrm.obj
 0004:00001ab8       $pdata$?_ProcessWindowMessage@CShapePreviewWnd@@UEAAHPEAUHWND__@@I_K_JAEA_J@Z 000000014005fab8     Preview.obj
 0004:00001ac4       $pdata$?OnPaint@CShapePreviewWnd@@AEAAXXZ 000000014005fac4     Preview.obj
 0004:00001ad0       $pdata$?OnEraseBkgnd@CShapePreviewWnd@@AEAAHPEAVCDCMTL@@@Z 000000014005fad0     Preview.obj
 0004:00001adc       $pdata$0$?OnEraseBkgnd@CShapePreviewWnd@@AEAAHPEAVCDCMTL@@@Z 000000014005fadc     Preview.obj
 0004:00001ae8       $pdata$1$?OnEraseBkgnd@CShapePreviewWnd@@AEAAHPEAVCDCMTL@@@Z 000000014005fae8     Preview.obj
 0004:00001af4       $pdata$2$?OnEraseBkgnd@CShapePreviewWnd@@AEAAHPEAVCDCMTL@@@Z 000000014005faf4     Preview.obj
 0004:00001b00       $pdata$3$?OnEraseBkgnd@CShapePreviewWnd@@AEAAHPEAVCDCMTL@@@Z 000000014005fb00     Preview.obj
 0004:00001b0c       $pdata$4$?OnEraseBkgnd@CShapePreviewWnd@@AEAAHPEAVCDCMTL@@@Z 000000014005fb0c     Preview.obj
 0004:00001b18       $pdata$5$?OnEraseBkgnd@CShapePreviewWnd@@AEAAHPEAVCDCMTL@@@Z 000000014005fb18     Preview.obj
 0004:00001b24       $pdata$??_GCRgnMTL@@UEAAPEAXI@Z 000000014005fb24     Stdafx.obj
 0004:00001b24       $pdata$??_GCPenMTL@@UEAAPEAXI@Z 000000014005fb24     Shapeobj.obj
 0004:00001b24       $pdata$??_GCBitmapMTL@@UEAAPEAXI@Z 000000014005fb24     Stdafx.obj
 0004:00001b24       $pdata$??_GCBrushMTL@@UEAAPEAXI@Z 000000014005fb24     Preview.obj
 0004:00001b30       $pdata$??1?$CBrushT@$00@WTL@@QEAA@XZ 000000014005fb30     Preview.obj
 0004:00001b30       $pdata$??1?$CRgnT@$00@WTL@@QEAA@XZ 000000014005fb30     Stdafx.obj
 0004:00001b30       $pdata$??1?$CPenT@$00@WTL@@QEAA@XZ 000000014005fb30     Shapeobj.obj
 0004:00001b30       $pdata$??1?$CBitmapT@$00@WTL@@QEAA@XZ 000000014005fb30     Stdafx.obj
 0004:00001b3c       $pdata$??1CPenMTL@@UEAA@XZ 000000014005fb3c     Shapeobj.obj
 0004:00001b3c       $pdata$??1CBrushMTL@@UEAA@XZ 000000014005fb3c     Preview.obj
 0004:00001b3c       $pdata$??1CRgnMTL@@UEAA@XZ 000000014005fb3c     Stdafx.obj
 0004:00001b48       $pdata$?classHandleFuncCBrushMTL@CBrushMTL@@SAPEAXPEAX0@Z 000000014005fb48     Preview.obj
 0004:00001b54       $pdata$?FromHandle@?$CHandleList@PEAXVCGdiObject@@PEAUHWND__@@@@QEAAPEAVCGdiObject@@QEAXPEAV2@QEAUHWND__@@Q6APEAXPEAX3@Z@Z 000000014005fb54     Preview.obj
 0004:00001b60       $pdata$1$?FromHandle@?$CHandleList@PEAXVCGdiObject@@PEAUHWND__@@@@QEAAPEAVCGdiObject@@QEAXPEAV2@QEAUHWND__@@Q6APEAXPEAX3@Z@Z 000000014005fb60     Preview.obj
 0004:00001b6c       $pdata$2$?FromHandle@?$CHandleList@PEAXVCGdiObject@@PEAUHWND__@@@@QEAAPEAVCGdiObject@@QEAXPEAV2@QEAUHWND__@@Q6APEAXPEAX3@Z@Z 000000014005fb6c     Preview.obj
 0004:00001b78       $pdata$3$?FromHandle@?$CHandleList@PEAXVCGdiObject@@PEAUHWND__@@@@QEAAPEAVCGdiObject@@QEAXPEAV2@QEAUHWND__@@Q6APEAXPEAX3@Z@Z 000000014005fb78     Preview.obj
 0004:00001b84       $pdata$??1CPaintDCMTL@@UEAA@XZ 000000014005fb84     Preview.obj
 0004:00001b90       $pdata$??_GCPaintDCMTL@@UEAAPEAXI@Z 000000014005fb90     Preview.obj
 0004:00001b9c       $pdata$?_ProcessWindowMessage@CPropDlgApp@@UEAAHPEAUHWND__@@I_K_JAEA_J@Z 000000014005fb9c     Propdlg.obj
 0004:00001ba8       $pdata$?InitInstance@CPropDlgApp@@UEAAHXZ 000000014005fba8     Propdlg.obj
 0004:00001bb4       $pdata$?OnAppAbout@CPropDlgApp@@QEAAXXZ 000000014005fbb4     Propdlg.obj
 0004:00001bc0       $pdata$??HWTL@@YA?AVCString@0@AEBV10@PEB_W@Z 000000014005fbc0     Propdlg.obj
 0004:00001bcc       $pdata$?AfxDelRegTreeHelper@CAfx@@SAJPEAUHKEY__@@AEBVCString@WTL@@PEAVCAtlTransactionManager@ATL@@@Z 000000014005fbcc     Propdlg.obj
 0004:00001bd8       $pdata$?Unregister@CWinApp@@QEAAHXZ 000000014005fbd8     Propdlg.obj
 0004:00001be4       $pdata$?ProcessShellCommand@CWinApp@@QEAAHAEAVCCommandLineInfo@@@Z 000000014005fbe4     Propdlg.obj
 0004:00001bf0       $pdata$?ParseParam@CCommandLineInfo@@UEAAXPEB_WHH@Z 000000014005fbf0     Propdlg.obj
 0004:00001bfc       $pdata$1$?ParseParam@CCommandLineInfo@@UEAAXPEB_WHH@Z 000000014005fbfc     Propdlg.obj
 0004:00001c08       $pdata$2$?ParseParam@CCommandLineInfo@@UEAAXPEB_WHH@Z 000000014005fc08     Propdlg.obj
 0004:00001c14       $pdata$3$?ParseParam@CCommandLineInfo@@UEAAXPEB_WHH@Z 000000014005fc14     Propdlg.obj
 0004:00001c20       $pdata$4$?ParseParam@CCommandLineInfo@@UEAAXPEB_WHH@Z 000000014005fc20     Propdlg.obj
 0004:00001c2c       $pdata$?EnableShellOpen@CWinApp@@QEAAXXZ 000000014005fc2c     Propdlg.obj
 0004:00001c38       $pdata$?AddDocTemplate@CWinApp@@QEAAXPEAVCDocTemplate@@@Z 000000014005fc38     Propdlg.obj
 0004:00001c44       $pdata$??0CDocTemplate@@QEAA@IPEAUCRuntimeClass@@00@Z 000000014005fc44     Propdlg.obj
 0004:00001c50       $pdata$?AddDocument@CMultiDocTemplate@@UEAAXPEAVCDocument@@@Z 000000014005fc50     Propdlg.obj
 0004:00001c5c       $pdata$?CreateNewDocument@CDocTemplate@@UEAAPEAVCDocument@@XZ 000000014005fc5c     Propdlg.obj
 0004:00001c68       $pdata$0$?CreateNewDocument@CDocTemplate@@UEAAPEAVCDocument@@XZ 000000014005fc68     Propdlg.obj
 0004:00001c74       $pdata$2$?CreateNewDocument@CDocTemplate@@UEAAPEAVCDocument@@XZ 000000014005fc74     Propdlg.obj
 0004:00001c80       $pdata$?CreateNewFrame@CDocTemplate@@UEAAPEAVCFrameWnd@@PEAVCDocument@@PEAV2@@Z 000000014005fc80     Propdlg.obj
 0004:00001c8c       $pdata$0$?CreateNewFrame@CDocTemplate@@UEAAPEAVCFrameWnd@@PEAVCDocument@@PEAV2@@Z 000000014005fc8c     Propdlg.obj
 0004:00001c98       $pdata$2$?CreateNewFrame@CDocTemplate@@UEAAPEAVCFrameWnd@@PEAVCDocument@@PEAV2@@Z 000000014005fc98     Propdlg.obj
 0004:00001ca4       $pdata$??1CWaitCursor@@QEAA@XZ 000000014005fca4     Propdlg.obj
 0004:00001cb0       $pdata$?SetActiveView@CFrameWnd@@QEAAXPEAVCView@@H@Z 000000014005fcb0     Propdlg.obj
 0004:00001cbc       $pdata$?InitialUpdateFrame@CFrameWnd@@QEAAXPEAVCDocument@@H@Z 000000014005fcbc     Propdlg.obj
 0004:00001cc8       $pdata$0$?InitialUpdateFrame@CFrameWnd@@QEAAXPEAVCDocument@@H@Z 000000014005fcc8     Propdlg.obj
 0004:00001cd4       $pdata$1$?InitialUpdateFrame@CFrameWnd@@QEAAXPEAVCDocument@@H@Z 000000014005fcd4     Propdlg.obj
 0004:00001ce0       $pdata$2$?InitialUpdateFrame@CFrameWnd@@QEAAXPEAVCDocument@@H@Z 000000014005fce0     Propdlg.obj
 0004:00001cec       $pdata$3$?InitialUpdateFrame@CFrameWnd@@QEAAXPEAVCDocument@@H@Z 000000014005fcec     Propdlg.obj
 0004:00001cf8       $pdata$4$?InitialUpdateFrame@CFrameWnd@@QEAAXPEAVCDocument@@H@Z 000000014005fcf8     Propdlg.obj
 0004:00001d04       $pdata$5$?InitialUpdateFrame@CFrameWnd@@QEAAXPEAVCDocument@@H@Z 000000014005fd04     Propdlg.obj
 0004:00001d10       $pdata$?OpenDocumentFile@CMultiDocTemplate@@UEAAPEAVCDocument@@PEB_WHH@Z 000000014005fd10     Propdlg.obj
 0004:00001d1c       $pdata$?RemoveDocument@CMultiDocTemplate@@UEAAXPEAVCDocument@@@Z 000000014005fd1c     Propdlg.obj
 0004:00001d28       $pdata$??_GCMultiDocTemplate@@UEAAPEAXI@Z 000000014005fd28     Propdlg.obj
 0004:00001d34       $pdata$??1CMultiDocTemplate@@UEAA@XZ 000000014005fd34     Propdlg.obj
 0004:00001d40       $pdata$0$??1CMultiDocTemplate@@UEAA@XZ 000000014005fd40     Propdlg.obj
 0004:00001d4c       $pdata$1$??1CMultiDocTemplate@@UEAA@XZ 000000014005fd4c     Propdlg.obj
 0004:00001d58       $pdata$?UpdateFrameCounts@CDocument@@QEAAXXZ 000000014005fd58     Propdlg.obj
 0004:00001d64       $pdata$?SetDefaultTitle@CMultiDocTemplate@@UEAAXPEAVCDocument@@@Z 000000014005fd64     Propdlg.obj
 0004:00001d70       $pdata$?LoadTemplate@CMultiDocTemplate@@UEAAXXZ 000000014005fd70     Propdlg.obj
 0004:00001d7c       $pdata$0$?LoadTemplate@CMultiDocTemplate@@UEAAXXZ 000000014005fd7c     Propdlg.obj
 0004:00001d88       $pdata$1$?LoadTemplate@CMultiDocTemplate@@UEAAXXZ 000000014005fd88     Propdlg.obj
 0004:00001d94       $pdata$??0CRecentFileList@@QEAA@IPEB_W0HH@Z 000000014005fd94     Propdlg.obj
 0004:00001da0       $pdata$??_GCRecentFileList@@UEAAPEAXI@Z 000000014005fda0     Propdlg.obj
 0004:00001dac       $pdata$?Add@CRecentFileList@@UEAAXPEB_W@Z 000000014005fdac     Propdlg.obj
 0004:00001db8       $pdata$0$?Add@CRecentFileList@@UEAAXPEB_W@Z 000000014005fdb8     Propdlg.obj
 0004:00001dc4       $pdata$1$?Add@CRecentFileList@@UEAAXPEB_W@Z 000000014005fdc4     Propdlg.obj
 0004:00001dd0       $pdata$?GetProfileStringW@CWinApp@@QEAA?AVCString@WTL@@PEB_W00@Z 000000014005fdd0     Propdlg.obj
 0004:00001ddc       $pdata$?ReadList@CRecentFileList@@UEAAXXZ 000000014005fddc     Propdlg.obj
 0004:00001de8       $pdata$??1CRecentFileList@@UEAA@XZ 000000014005fde8     Propdlg.obj
 0004:00001df4       $pdata$??1CCommandLineInfo@@QEAA@XZ 000000014005fdf4     Propdlg.obj
 0004:00001e00       $pdata$??1CWinApp@@QEAA@XZ 000000014005fe00     Propdlg.obj
 0004:00001e0c       $pdata$??0CModuleThreadState@@QEAA@XZ 000000014005fe0c     Propdlg.obj
 0004:00001e18       $pdata$??1CModuleThreadState@@QEAA@XZ 000000014005fe18     Propdlg.obj
 0004:00001e24       $pdata$?OnIdle@CWinApp@@UEAAHH@Z 000000014005fe24     Propdlg.obj
 0004:00001e30       $pdata$?WriteList@CRecentFileList@@UEAAXXZ 000000014005fe30     Propdlg.obj
 0004:00001e3c       $pdata$1$?WriteList@CRecentFileList@@UEAAXXZ 000000014005fe3c     Propdlg.obj
 0004:00001e48       $pdata$2$?WriteList@CRecentFileList@@UEAAXXZ 000000014005fe48     Propdlg.obj
 0004:00001e54       $pdata$?ExitInstance@CWinApp@@UEAAHXZ 000000014005fe54     Propdlg.obj
 0004:00001e60       $pdata$?Run@CWinApp@@UEAAHXZ 000000014005fe60     Propdlg.obj
 0004:00001e6c       $pdata$??0CWinApp@@QEAA@XZ 000000014005fe6c     Propdlg.obj
 0004:00001e78       $pdata$?GetMenuStringW@CMenuMTL@@QEBAHIAEAVCString@WTL@@I@Z 000000014005fe78     Propdlg.obj
 0004:00001e84       $pdata$0$?GetMenuStringW@CMenuMTL@@QEBAHIAEAVCString@WTL@@I@Z 000000014005fe84     Propdlg.obj
 0004:00001e90       $pdata$1$?GetMenuStringW@CMenuMTL@@QEBAHIAEAVCString@WTL@@I@Z 000000014005fe90     Propdlg.obj
 0004:00001e9c       $pdata$?AfxGetFileTitle@CAfx@@SAIPEB_WPEA_WI@Z 000000014005fe9c     Propdlg.obj
 0004:00001ea8       $pdata$?_AfxAbbreviateName@CAfx@@SAXPEA_WHH@Z 000000014005fea8     Propdlg.obj
 0004:00001eb4       $pdata$?GetDisplayName@CRecentFileList@@UEBAHAEAVCString@WTL@@HPEB_WHH@Z 000000014005feb4     Propdlg.obj
 0004:00001ec0       $pdata$1$?GetDisplayName@CRecentFileList@@UEBAHAEAVCString@WTL@@HPEB_WHH@Z 000000014005fec0     Propdlg.obj
 0004:00001ecc       $pdata$3$?GetDisplayName@CRecentFileList@@UEBAHAEAVCString@WTL@@HPEB_WHH@Z 000000014005fecc     Propdlg.obj
 0004:00001ed8       $pdata$4$?GetDisplayName@CRecentFileList@@UEBAHAEAVCString@WTL@@HPEB_WHH@Z 000000014005fed8     Propdlg.obj
 0004:00001ee4       $pdata$5$?GetDisplayName@CRecentFileList@@UEBAHAEAVCString@WTL@@HPEB_WHH@Z 000000014005fee4     Propdlg.obj
 0004:00001ef0       $pdata$6$?GetDisplayName@CRecentFileList@@UEBAHAEAVCString@WTL@@HPEB_WHH@Z 000000014005fef0     Propdlg.obj
 0004:00001efc       $pdata$8$?GetDisplayName@CRecentFileList@@UEBAHAEAVCString@WTL@@HPEB_WHH@Z 000000014005fefc     Propdlg.obj
 0004:00001f08       $pdata$??HWTL@@YA?AVCString@0@AEBV10@0@Z 000000014005ff08     Propdlg.obj
 0004:00001f14       $pdata$?UpdateMenu@CRecentFileList@@UEAAXPEAVCCmdUI@@@Z 000000014005ff14     Propdlg.obj
 0004:00001f20       $pdata$?Remove@CRecentFileList@@UEAAXH@Z 000000014005ff20     Propdlg.obj
 0004:00001f2c       $pdata$1$?Remove@CRecentFileList@@UEAAXH@Z 000000014005ff2c     Propdlg.obj
 0004:00001f38       $pdata$3$?Remove@CRecentFileList@@UEAAXH@Z 000000014005ff38     Propdlg.obj
 0004:00001f44       $pdata$4$?Remove@CRecentFileList@@UEAAXH@Z 000000014005ff44     Propdlg.obj
 0004:00001f50       $pdata$5$?Remove@CRecentFileList@@UEAAXH@Z 000000014005ff50     Propdlg.obj
 0004:00001f5c       $pdata$?OnOpenRecentFile@CWinApp@@QEAAHI@Z 000000014005ff5c     Propdlg.obj
 0004:00001f68       $pdata$?_ProcessWindowMessage@CWinApp@@UEAAHPEAUHWND__@@I_K_JAEA_J@Z 000000014005ff68     Propdlg.obj
 0004:00001f74       $pdata$?GetDriverName@CPrintDialogMTL@@QEBA?AVCString@WTL@@XZ 000000014005ff74     Propdlg.obj
 0004:00001f80       $pdata$?GetDeviceName@CPrintDialogMTL@@QEBA?AVCString@WTL@@XZ 000000014005ff80     Propdlg.obj
 0004:00001f8c       $pdata$?GetPortName@CPrintDialogMTL@@QEBA?AVCString@WTL@@XZ 000000014005ff8c     Propdlg.obj
 0004:00001f98       $pdata$?HookProc@CCommonDialogImplBase@WTL@@SA_KPEAUHWND__@@I_K_J@Z 000000014005ff98     Propdlg.obj
 0004:00001fa4       $pdata$?_WindowProc@CCommonWnd@@UEAAHPEAUHWND__@@I_K_JAEA_J@Z 000000014005ffa4     Propdlg.obj
 0004:00001fb0       $pdata$??_GCPrintDialog@WTL@@UEAAPEAXI@Z 000000014005ffb0     Propdlg.obj
 0004:00001fbc       $pdata$?OnPrintSetup@?$CPrintDialogImpl@VCPrintDialog@WTL@@@WTL@@QEAA_JGGPEAUHWND__@@AEAH@Z 000000014005ffbc     Propdlg.obj
 0004:00001fc8       $pdata$?ProcessWindowMessage@?$CPrintDialogImpl@VCPrintDialog@WTL@@@WTL@@UEAAHPEAUHWND__@@I_K_JAEA_JK@Z 000000014005ffc8     Propdlg.obj
 0004:00001fd4       $pdata$??_GCPrintDialogMTL@@UEAAPEAXI@Z 000000014005ffd4     Propdlg.obj
 0004:00001fe0       $pdata$?WindowProc@?$CWindowImplBaseT@VCWindow@ATL@@V?$CWinTraits@$0FGAAAAAA@$0A@@2@@ATL@@SA_JPEAUHWND__@@I_K_J@Z 000000014005ffe0     Propdlg.obj
 0004:00001fec       $pdata$?UpdatePrinterSelection@CWinApp@@QEAAXH@Z 000000014005ffec     Propdlg.obj
 0004:00001ff8       $pdata$?AfxGlobalFree@@YAXPEAX@Z 000000014005fff8     Propdlg.obj
 0004:00002004       $pdata$0$?AfxGlobalFree@@YAXPEAX@Z 0000000140060004     Propdlg.obj
 0004:00002010       $pdata$1$?AfxGlobalFree@@YAXPEAX@Z 0000000140060010     Propdlg.obj
 0004:0000201c       $pdata$?DoModal@?$CPrintDialogImpl@VCPrintDialog@WTL@@@WTL@@QEAA_JPEAUHWND__@@@Z 000000014006001c     Propdlg.obj
 0004:00002028       $pdata$0$?DoModal@?$CPrintDialogImpl@VCPrintDialog@WTL@@@WTL@@QEAA_JPEAUHWND__@@@Z 0000000140060028     Propdlg.obj
 0004:00002034       $pdata$2$?DoModal@?$CPrintDialogImpl@VCPrintDialog@WTL@@@WTL@@QEAA_JPEAUHWND__@@@Z 0000000140060034     Propdlg.obj
 0004:00002040       $pdata$?DoPrintDialog@CWinApp@@QEAA_JPEAVCPrintDialogMTL@@@Z 0000000140060040     Propdlg.obj
 0004:0000204c       $pdata$?OnFilePrintSetup@CWinApp@@QEAAXXZ 000000014006004c     Propdlg.obj
 0004:00002058       $pdata$?_AfxCommDlgProc@CCommonDialog@@SA_KPEAUHWND__@@I_K_J@Z 0000000140060058     Propdlg.obj
 0004:00002064       $pdata$1$?_AfxCommDlgProc@CCommonDialog@@SA_KPEAUHWND__@@I_K_J@Z 0000000140060064     Propdlg.obj
 0004:00002070       $pdata$3$?_AfxCommDlgProc@CCommonDialog@@SA_KPEAUHWND__@@I_K_J@Z 0000000140060070     Propdlg.obj
 0004:0000207c       $pdata$5$?_AfxCommDlgProc@CCommonDialog@@SA_KPEAUHWND__@@I_K_J@Z 000000014006007c     Propdlg.obj
 0004:00002088       $pdata$6$?_AfxCommDlgProc@CCommonDialog@@SA_KPEAUHWND__@@I_K_J@Z 0000000140060088     Propdlg.obj
 0004:00002094       $pdata$??0CFileDialogMTL@@QEAA@HPEB_W0K0PEAVCWnd@@KH@Z 0000000140060094     Propdlg.obj
 0004:000020a0       $pdata$??_GCFileDialogMTL@@UEAAPEAXI@Z 00000001400600a0     Propdlg.obj
 0004:000020ac       $pdata$?OnNotify@CFileDialogMTL@@UEAAH_K_JPEA_J@Z 00000001400600ac     Propdlg.obj
 0004:000020b8       $pdata$?OnOK@CCommonDialog@@UEAAXXZ 00000001400600b8     Propdlg.obj
 0004:000020c4       $pdata$?OnInitDone@CFileDialogMTL@@UEAAXXZ 00000001400600c4     Propdlg.obj
 0004:000020d0       $pdata$??1CFileDialogMTL@@UEAA@XZ 00000001400600d0     Propdlg.obj
 0004:000020dc       $pdata$?Tokenize@CAfx@@SA?AVCString@WTL@@AEAV23@PEA_WAEAH@Z 00000001400600dc     Propdlg.obj
 0004:000020e8       $pdata$?Tokenize@@YA?AVCString@WTL@@AEAV12@PEA_WAEAH@Z 00000001400600e8     Propdlg.obj
 0004:000020f4       $pdata$?AllocCopy@CString@WTL@@IEBAHAEAV12@HHH@Z 00000001400600f4     Propdlg.obj
 0004:00002100       $pdata$?Mid@CString@WTL@@QEBA?AV12@HH@Z 0000000140060100     Propdlg.obj
 0004:0000210c       $pdata$?Mid@CString@WTL@@QEBA?AV12@H@Z 000000014006010c     Propdlg.obj
 0004:00002118       $pdata$?_AfxAppendFilterSuffix@@YAXAEAVCString@WTL@@AEAUtagOFNW@@PEAVCDocTemplate@@PEAV12@@Z 0000000140060118     Propdlg.obj
 0004:00002124       $pdata$?ApplyOFNToShellDialog@CFileDialogMTL@@QEAAXXZ 0000000140060124     Propdlg.obj
 0004:00002130       $pdata$??4CString@WTL@@QEAAAEAV01@AEBV01@@Z 0000000140060130     Propdlg.obj
 0004:0000213c       $pdata$?GetPathName@CFileDialogMTL@@QEAA?AVCString@WTL@@XZ 000000014006013c     Propdlg.obj
 0004:00002148       $pdata$?UpdateOFNFromShellDialog@CFileDialogMTL@@UEAAXXZ 0000000140060148     Propdlg.obj
 0004:00002154       $pdata$?DoModal@CFileDialogMTL@@UEAA_JXZ 0000000140060154     Propdlg.obj
 0004:00002160       $pdata$?DoPromptFileName@CDocManager@@QEAAHAEAVCString@WTL@@IKHPEAVCDocTemplate@@@Z 0000000140060160     Propdlg.obj
 0004:0000216c       $pdata$?_AfxFullPath2@CAfx@@SAHPEA_WPEB_WPEAVCFileException@@@Z 000000014006016c     Propdlg.obj
 0004:00002178       $pdata$?AfxStringFromCLSID@CAfx@@SA?AVCString@WTL@@AEBU_GUID@@@Z 0000000140060178     Propdlg.obj
 0004:00002184       $pdata$?AfxStringFromCLSID@@YA?AVCString@WTL@@AEBU_GUID@@@Z 0000000140060184     Propdlg.obj
 0004:00002190       $pdata$?AfxGetInProcServer@CAfx@@SAHPEB_WAEAVCString@WTL@@@Z 0000000140060190     Propdlg.obj
 0004:0000219c       $pdata$?GetClassObject@AFX_COM@@QEAAJAEBU_GUID@@0PEAPEAX@Z 000000014006019c     Propdlg.obj
 0004:000021a8       $pdata$??0CString@WTL@@QEAA@PEB_W@Z 00000001400601a8     Propdlg.obj
 0004:000021b4       $pdata$?AfxResolveShortcut@@YAHPEAVCWMHnd@@PEB_WPEA_WH@Z 00000001400601b4     Propdlg.obj
 0004:000021c0       $pdata$?AfxComparePath@CAfx@@SAHPEB_W0@Z 00000001400601c0     Propdlg.obj
 0004:000021cc       $pdata$0$?AfxComparePath@CAfx@@SAHPEB_W0@Z 00000001400601cc     Propdlg.obj
 0004:000021d8       $pdata$2$?AfxComparePath@CAfx@@SAHPEB_W0@Z 00000001400601d8     Propdlg.obj
 0004:000021e4       $pdata$?MatchDocType@CDocTemplate@@UEAA?AW4Confidence@1@PEB_WAEAPEAVCDocument@@@Z 00000001400601e4     Propdlg.obj
 0004:000021f0       $pdata$?OpenDocumentFile@CDocManager@@QEAAPEAVCDocument@@PEB_WH@Z 00000001400601f0     Propdlg.obj
 0004:000021fc       $pdata$3$?OpenDocumentFile@CDocManager@@QEAAPEAVCDocument@@PEB_WH@Z 00000001400601fc     Propdlg.obj
 0004:00002208       $pdata$4$?OpenDocumentFile@CDocManager@@QEAAPEAVCDocument@@PEB_WH@Z 0000000140060208     Propdlg.obj
 0004:00002214       $pdata$?OnFileOpen@CDocManager@@UEAAXXZ 0000000140060214     Propdlg.obj
 0004:00002220       $pdata$?_ProcessWindowMessage@CNewTypeDlg@@UEAAHPEAUHWND__@@I_K_JAEA_J@Z 0000000140060220     Propdlg.obj
 0004:0000222c       $pdata$?OnInitDialog@CNewTypeDlg@@UEAAHXZ 000000014006022c     Propdlg.obj
 0004:00002238       $pdata$?OnOK@CNewTypeDlg@@UEAAXXZ 0000000140060238     Propdlg.obj
 0004:00002244       $pdata$?WalkPreTranslateTree@CWnd@@SAHPEAUHWND__@@PEAUtagMSG@@@Z 0000000140060244     Propdlg.obj
 0004:00002250       $pdata$?PreTranslateMessage@CWinApp@@UEAAHPEAUtagMSG@@@Z 0000000140060250     Propdlg.obj
 0004:0000225c       $pdata$0$?PreTranslateMessage@CWinApp@@UEAAHPEAUtagMSG@@@Z 000000014006025c     Propdlg.obj
 0004:00002268       $pdata$1$?PreTranslateMessage@CWinApp@@UEAAHPEAUtagMSG@@@Z 0000000140060268     Propdlg.obj
 0004:00002274       $pdata$?PumpMessage@CWinApp@@UEAAHXZ 0000000140060274     Propdlg.obj
 0004:00002280       $pdata$?OnFileNew@CDocManager@@UEAAXXZ 0000000140060280     Propdlg.obj
 0004:0000228c       $pdata$?_ProcessWindowMessage@CModalShapePropSheet@@UEAAHPEAUHWND__@@I_K_JAEA_J@Z 000000014006028c     Propsht.obj
 0004:00002298       $pdata$??0CModalShapePropSheet@@QEAA@PEAVCWnd@@@Z 0000000140060298     Propsht.obj
 0004:000022a4       $pdata$??_GCModalShapePropSheet@@UEAAPEAXI@Z 00000001400602a4     Propsht.obj
 0004:000022b0       $pdata$?OnInitDialog@CModalShapePropSheet@@UEAAHXZ 00000001400602b0     Propsht.obj
 0004:000022bc       $pdata$?SetShapePropsFromSheet@CModalShapePropSheet@@QEAAXPEAVCShape@@@Z 00000001400602bc     Propsht.obj
 0004:000022bc       $pdata$?SetShapePropsFromSheet@CModelessShapePropSheet@@QEAAXPEAVCShape@@@Z 00000001400602bc     Propsht2.obj
 0004:000022c8       $pdata$?OnApplyNow@CModalShapePropSheet@@IEAAXXZ 00000001400602c8     Propsht.obj
 0004:000022d4       $pdata$?AddPage@CPropertySheetMTL@@QEAAXPEAVCPropertyPageMTL@@@Z 00000001400602d4     Propsht.obj
 0004:000022e0       $pdata$0$?AddPage@CPropertySheetMTL@@QEAAXPEAVCPropertyPageMTL@@@Z 00000001400602e0     Propsht.obj
 0004:000022ec       $pdata$1$?AddPage@CPropertySheetMTL@@QEAAXPEAVCPropertyPageMTL@@@Z 00000001400602ec     Propsht.obj
 0004:000022f8       $pdata$2$?AddPage@CPropertySheetMTL@@QEAAXPEAVCPropertyPageMTL@@@Z 00000001400602f8     Propsht.obj
 0004:00002304       $pdata$??1CPropertySheetMTL@@UEAA@XZ 0000000140060304     Propsht.obj
 0004:00002310       $pdata$??_GCPropertySheetMTL@@UEAAPEAXI@Z 0000000140060310     Propsht.obj
 0004:0000231c       $pdata$?PreTranslateMessage@CPropertySheetMTL@@UEAAHPEAUtagMSG@@@Z 000000014006031c     Propsht.obj
 0004:00002328       $pdata$?OnCommand@CPropertySheetMTL@@UEAAH_K_J@Z 0000000140060328     Propsht.obj
 0004:00002334       $pdata$?AfxPropSheetCallback@CPropertySheetMTL@@SAHPEAUHWND__@@I_J@Z 0000000140060334     Propsht.obj
 0004:00002340       $pdata$0$?AfxPropSheetCallback@CPropertySheetMTL@@SAHPEAUHWND__@@I_J@Z 0000000140060340     Propsht.obj
 0004:0000234c       $pdata$2$?AfxPropSheetCallback@CPropertySheetMTL@@SAHPEAUHWND__@@I_J@Z 000000014006034c     Propsht.obj
 0004:00002358       $pdata$?Create@CPropertySheetMTL@@UEAAHPEAVCWnd@@KK@Z 0000000140060358     Propsht.obj
 0004:00002364       $pdata$?AfxThrowResourceException@@YAXXZ 0000000140060364     Propsht.obj
 0004:00002370       $pdata$?IsFontInstalled@CPropertyPageMTL@@SAHPEB_W@Z 0000000140060370     Propsht.obj
 0004:0000237c       $pdata$?AfxGetPropSheetFont@CPropertyPageMTL@@SAHAEAVCString@WTL@@AEAGH@Z 000000014006037c     Propsht.obj
 0004:00002388       $pdata$0$?AfxGetPropSheetFont@CPropertyPageMTL@@SAHAEAVCString@WTL@@AEAGH@Z 0000000140060388     Propsht.obj
 0004:00002394       $pdata$2$?AfxGetPropSheetFont@CPropertyPageMTL@@SAHAEAVCString@WTL@@AEAGH@Z 0000000140060394     Propsht.obj
 0004:000023a0       $pdata$3$?AfxGetPropSheetFont@CPropertyPageMTL@@SAHAEAVCString@WTL@@AEAGH@Z 00000001400603a0     Propsht.obj
 0004:000023ac       $pdata$4$?AfxGetPropSheetFont@CPropertyPageMTL@@SAHAEAVCString@WTL@@AEAGH@Z 00000001400603ac     Propsht.obj
 0004:000023b8       $pdata$?GetFont@CDialogTemplate@@SAHPEBUDLGTEMPLATE@@AEAVCString@WTL@@AEAG@Z 00000001400603b8     Propsht.obj
 0004:000023c4       $pdata$?GetTemplateSize@CDialogTemplate@@QEAAIPEBUDLGTEMPLATE@@@Z 00000001400603c4     Propsht.obj
 0004:000023d0       $pdata$?SetFont@CDialogTemplate@@QEAAHPEB_WG@Z 00000001400603d0     Propsht.obj
 0004:000023dc       $pdata$?_AfxChangePropPageFont@CPropertyPageMTL@@SAPEAUDLGTEMPLATE@@PEBU2@H@Z 00000001400603dc     Propsht.obj
 0004:000023e8       $pdata$?PreProcessPageTemplate@CPropertyPageMTL@@QEAAXAEAU_PROPSHEETPAGEW@@H@Z 00000001400603e8     Propsht.obj
 0004:000023f4       $pdata$?BuildPropPageArray@CPropertySheetMTL@@UEAAXXZ 00000001400603f4     Propsht.obj
 0004:00002400       $pdata$1$?BuildPropPageArray@CPropertySheetMTL@@UEAAXXZ 0000000140060400     Propsht.obj
 0004:0000240c       $pdata$2$?BuildPropPageArray@CPropertySheetMTL@@UEAAXXZ 000000014006040c     Propsht.obj
 0004:00002418       $pdata$3$?BuildPropPageArray@CPropertySheetMTL@@UEAAXXZ 0000000140060418     Propsht.obj
 0004:00002424       $pdata$?ContinueModal@CPropertySheetMTL@@UEAAHXZ 0000000140060424     Propsht.obj
 0004:00002430       $pdata$?DoModal@CPropertySheetMTL@@UEAA_JXZ 0000000140060430     Propsht.obj
 0004:0000243c       $pdata$4$?DoModal@CPropertySheetMTL@@UEAA_JXZ 000000014006043c     Propsht.obj
 0004:00002448       $pdata$5$?DoModal@CPropertySheetMTL@@UEAA_JXZ 0000000140060448     Propsht.obj
 0004:00002454       $pdata$6$?DoModal@CPropertySheetMTL@@UEAA_JXZ 0000000140060454     Propsht.obj
 0004:00002460       $pdata$7$?DoModal@CPropertySheetMTL@@UEAA_JXZ 0000000140060460     Propsht.obj
 0004:0000246c       $pdata$??0CPropertySheetMTL@@QEAA@IPEAVCWnd@@I@Z 000000014006046c     Propsht.obj
 0004:00002478       $pdata$?OnInitDialog@CPropertySheetMTL@@UEAAHXZ 0000000140060478     Propsht.obj
 0004:00002484       $pdata$2$?OnInitDialog@CPropertySheetMTL@@UEAAHXZ 0000000140060484     Propsht.obj
 0004:00002490       $pdata$3$?OnInitDialog@CPropertySheetMTL@@UEAAHXZ 0000000140060490     Propsht.obj
 0004:0000249c       $pdata$4$?OnInitDialog@CPropertySheetMTL@@UEAAHXZ 000000014006049c     Propsht.obj
 0004:000024a8       $pdata$5$?OnInitDialog@CPropertySheetMTL@@UEAAHXZ 00000001400604a8     Propsht.obj
 0004:000024b4       $pdata$6$?OnInitDialog@CPropertySheetMTL@@UEAAHXZ 00000001400604b4     Propsht.obj
 0004:000024c0       $pdata$7$?OnInitDialog@CPropertySheetMTL@@UEAAHXZ 00000001400604c0     Propsht.obj
 0004:000024cc       $pdata$?HandleInitDialog@CPropertySheetMTL@@QEAA_J_K_J@Z 00000001400604cc     Propsht.obj
 0004:000024d8       $pdata$?GetActivePage@CPropertySheetMTL@@QEBAPEAVCPropertyPageMTL@@XZ 00000001400604d8     Propsht.obj
 0004:000024e4       $pdata$1$?GetActivePage@CPropertySheetMTL@@QEBAPEAVCPropertyPageMTL@@XZ 00000001400604e4     Propsht.obj
 0004:000024f0       $pdata$5$?GetActivePage@CPropertySheetMTL@@QEBAPEAVCPropertyPageMTL@@XZ 00000001400604f0     Propsht.obj
 0004:000024fc       $pdata$7$?GetActivePage@CPropertySheetMTL@@QEBAPEAVCPropertyPageMTL@@XZ 00000001400604fc     Propsht.obj
 0004:00002508       $pdata$8$?GetActivePage@CPropertySheetMTL@@QEBAPEAVCPropertyPageMTL@@XZ 0000000140060508     Propsht.obj
 0004:00002514       $pdata$9$?GetActivePage@CPropertySheetMTL@@QEBAPEAVCPropertyPageMTL@@XZ 0000000140060514     Propsht.obj
 0004:00002520       $pdata$10$?GetActivePage@CPropertySheetMTL@@QEBAPEAVCPropertyPageMTL@@XZ 0000000140060520     Propsht.obj
 0004:0000252c       $pdata$11$?GetActivePage@CPropertySheetMTL@@QEBAPEAVCPropertyPageMTL@@XZ 000000014006052c     Propsht.obj
 0004:00002538       $pdata$12$?GetActivePage@CPropertySheetMTL@@QEBAPEAVCPropertyPageMTL@@XZ 0000000140060538     Propsht.obj
 0004:00002544       $pdata$13$?GetActivePage@CPropertySheetMTL@@QEBAPEAVCPropertyPageMTL@@XZ 0000000140060544     Propsht.obj
 0004:00002550       $pdata$?OnKickIdle@CPropertySheetMTL@@QEAA_J_K_J@Z 0000000140060550     Propsht.obj
 0004:0000255c       $pdata$?OnSetDefID@CPropertySheetMTL@@QEAA_J_K_J@Z 000000014006055c     Propsht.obj
 0004:00002568       $pdata$?_ProcessWindowMessage@CPropertySheetMTL@@UEAAHPEAUHWND__@@I_K_JAEA_J@Z 0000000140060568     Propsht.obj
 0004:00002574       $pdata$??0CModelessShapePropSheet@@QEAA@PEAVCWnd@@@Z 0000000140060574     Propsht2.obj
 0004:00002580       $pdata$??_GCModelessShapePropSheet@@UEAAPEAXI@Z 0000000140060580     Propsht2.obj
 0004:0000258c       $pdata$?SetSheetPropsFromShape@CModelessShapePropSheet@@QEAAXPEAVCShape@@@Z 000000014006058c     Propsht2.obj
 0004:00002598       $pdata$?CreateObject@CShapesDoc@@SAPEAVCObject@@XZ 0000000140060598     Shapedoc.obj
 0004:000025a4       $pdata$??_GCShapesDoc@@UEAAPEAXI@Z 00000001400605a4     Shapedoc.obj
 0004:000025b0       $pdata$?OnNewDocument@CShapesDoc@@MEAAHXZ 00000001400605b0     Shapedoc.obj
 0004:000025bc       $pdata$?AddShape@CShapesDoc@@QEAAXPEAVCShape@@@Z 00000001400605bc     Shapedoc.obj
 0004:000025c8       $pdata$?Serialize@?$CTypedPtrList@VCObList@@PEAVCShape@@@@QEAAXAEAVCArchive@@@Z 00000001400605c8     Shapedoc.obj
 0004:000025d4       $pdata$0$?Serialize@?$CTypedPtrList@VCObList@@PEAVCShape@@@@QEAAXAEAVCArchive@@@Z 00000001400605d4     Shapedoc.obj
 0004:000025e0       $pdata$3$?Serialize@?$CTypedPtrList@VCObList@@PEAVCShape@@@@QEAAXAEAVCArchive@@@Z 00000001400605e0     Shapedoc.obj
 0004:000025ec       $pdata$4$?Serialize@?$CTypedPtrList@VCObList@@PEAVCShape@@@@QEAAXAEAVCArchive@@@Z 00000001400605ec     Shapedoc.obj
 0004:000025f8       $pdata$5$?Serialize@?$CTypedPtrList@VCObList@@PEAVCShape@@@@QEAAXAEAVCArchive@@@Z 00000001400605f8     Shapedoc.obj
 0004:00002604       $pdata$?OnOpenDocument@CDocument@@UEAAHPEB_W@Z 0000000140060604     Shapedoc.obj
 0004:00002610       $pdata$?OnCmdMsg@CDocument@@UEAAHIHPEAXPEAUAFX_CMDHANDLERINFO@@@Z 0000000140060610     Shapedoc.obj
 0004:0000261c       $pdata$?Read@CArchive@@QEAAIPEAXI@Z 000000014006061c     Shapedoc.obj
 0004:00002628       $pdata$4$?Read@CArchive@@QEAAIPEAXI@Z 0000000140060628     Shapedoc.obj
 0004:00002634       $pdata$5$?Read@CArchive@@QEAAIPEAXI@Z 0000000140060634     Shapedoc.obj
 0004:00002640       $pdata$?Load@CRuntimeClass@@SAPEAU1@AEAVCArchive@@PEAI@Z 0000000140060640     Shapedoc.obj
 0004:0000264c       $pdata$?ReadClass@CArchive@@QEAAPEAUCRuntimeClass@@PEBU2@PEAIPEAK@Z 000000014006064c     Shapedoc.obj
 0004:00002658       $pdata$1$?ReadClass@CArchive@@QEAAPEAUCRuntimeClass@@PEBU2@PEAIPEAK@Z 0000000140060658     Shapedoc.obj
 0004:00002664       $pdata$3$?ReadClass@CArchive@@QEAAPEAUCRuntimeClass@@PEBU2@PEAIPEAK@Z 0000000140060664     Shapedoc.obj
 0004:00002670       $pdata$4$?ReadClass@CArchive@@QEAAPEAUCRuntimeClass@@PEBU2@PEAIPEAK@Z 0000000140060670     Shapedoc.obj
 0004:0000267c       $pdata$5$?ReadClass@CArchive@@QEAAPEAUCRuntimeClass@@PEBU2@PEAIPEAK@Z 000000014006067c     Shapedoc.obj
 0004:00002688       $pdata$6$?ReadClass@CArchive@@QEAAPEAUCRuntimeClass@@PEBU2@PEAIPEAK@Z 0000000140060688     Shapedoc.obj
 0004:00002694       $pdata$7$?ReadClass@CArchive@@QEAAPEAUCRuntimeClass@@PEBU2@PEAIPEAK@Z 0000000140060694     Shapedoc.obj
 0004:000026a0       $pdata$?ReadObject@CArchive@@QEAAPEAVCObject@@PEBUCRuntimeClass@@@Z 00000001400606a0     Shapedoc.obj
 0004:000026ac       $pdata$?FillBuffer@CArchive@@QEAAXI@Z 00000001400606ac     Shapedoc.obj
 0004:000026b8       $pdata$1$?FillBuffer@CArchive@@QEAAXI@Z 00000001400606b8     Shapedoc.obj
 0004:000026c4       $pdata$3$?FillBuffer@CArchive@@QEAAXI@Z 00000001400606c4     Shapedoc.obj
 0004:000026d0       $pdata$4$?FillBuffer@CArchive@@QEAAXI@Z 00000001400606d0     Shapedoc.obj
 0004:000026dc       $pdata$5$?FillBuffer@CArchive@@QEAAXI@Z 00000001400606dc     Shapedoc.obj
 0004:000026e8       $pdata$?ReadCount@CArchive@@QEAA_KXZ 00000001400606e8     Shapedoc.obj
 0004:000026f4       $pdata$?AfxThrowNotSupportedException@@YAXXZ 00000001400606f4     Shapedoc.obj
 0004:00002700       $pdata$?EnsureSchemaMapExists@CArchive@@QEAAXPEAPEAV?$CArray@W4LoadArrayObjType@CArchive@@AEBW412@@@@Z 0000000140060700     Shapedoc.obj
 0004:0000270c       $pdata$?InsertAt@?$CArray@W4LoadArrayObjType@CArchive@@AEBW412@@@QEAAX_JAEBW4LoadArrayObjType@CArchive@@0@Z 000000014006070c     Shapedoc.obj
 0004:00002718       $pdata$?MapObject@CArchive@@QEAAXPEBVCObject@@@Z 0000000140060718     Shapedoc.obj
 0004:00002724       $pdata$0$?MapObject@CArchive@@QEAAXPEBVCObject@@@Z 0000000140060724     Shapedoc.obj
 0004:00002730       $pdata$1$?MapObject@CArchive@@QEAAXPEBVCObject@@@Z 0000000140060730     Shapedoc.obj
 0004:0000273c       $pdata$?Write@CArchive@@QEAAXPEBXI@Z 000000014006073c     Shapedoc.obj
 0004:00002748       $pdata$1$?Write@CArchive@@QEAAXPEBXI@Z 0000000140060748     Shapedoc.obj
 0004:00002754       $pdata$2$?Write@CArchive@@QEAAXPEBXI@Z 0000000140060754     Shapedoc.obj
 0004:00002760       $pdata$?Store@CRuntimeClass@@QEBAXAEAVCArchive@@@Z 0000000140060760     Shapedoc.obj
 0004:0000276c       $pdata$?WriteClass@CArchive@@QEAAXPEBUCRuntimeClass@@@Z 000000014006076c     Shapedoc.obj
 0004:00002778       $pdata$0$?WriteClass@CArchive@@QEAAXPEBUCRuntimeClass@@@Z 0000000140060778     Shapedoc.obj
 0004:00002784       $pdata$2$?WriteClass@CArchive@@QEAAXPEBUCRuntimeClass@@@Z 0000000140060784     Shapedoc.obj
 0004:00002790       $pdata$4$?WriteClass@CArchive@@QEAAXPEBUCRuntimeClass@@@Z 0000000140060790     Shapedoc.obj
 0004:0000279c       $pdata$5$?WriteClass@CArchive@@QEAAXPEBUCRuntimeClass@@@Z 000000014006079c     Shapedoc.obj
 0004:000027a8       $pdata$6$?WriteClass@CArchive@@QEAAXPEBUCRuntimeClass@@@Z 00000001400607a8     Shapedoc.obj
 0004:000027b4       $pdata$?AfxThrowArchiveException@CArchive@@SAXHPEB_W@Z 00000001400607b4     Shapedoc.obj
 0004:000027c0       $pdata$?FindData@?$CMapList@PEAXPEAXV?$CPair@PEAXPEAX@@$0A@@@QEAAAEAV?$CPair@PEAXPEAX@@QEAXH@Z 00000001400607c0     Shapedoc.obj
 0004:000027cc       $pdata$1$?FindData@?$CMapList@PEAXPEAXV?$CPair@PEAXPEAX@@$0A@@@QEAAAEAV?$CPair@PEAXPEAX@@QEAXH@Z 00000001400607cc     Shapedoc.obj
 0004:000027d8       $pdata$2$?FindData@?$CMapList@PEAXPEAXV?$CPair@PEAXPEAX@@$0A@@@QEAAAEAV?$CPair@PEAXPEAX@@QEAXH@Z 00000001400607d8     Shapedoc.obj
 0004:000027e4       $pdata$?WriteObject@CArchive@@QEAAXPEBVCObject@@@Z 00000001400607e4     Shapedoc.obj
 0004:000027f0       $pdata$0$?WriteObject@CArchive@@QEAAXPEBVCObject@@@Z 00000001400607f0     Shapedoc.obj
 0004:000027fc       $pdata$2$?WriteObject@CArchive@@QEAAXPEBVCObject@@@Z 00000001400607fc     Shapedoc.obj
 0004:00002808       $pdata$4$?WriteObject@CArchive@@QEAAXPEBVCObject@@@Z 0000000140060808     Shapedoc.obj
 0004:00002814       $pdata$5$?WriteObject@CArchive@@QEAAXPEBVCObject@@@Z 0000000140060814     Shapedoc.obj
 0004:00002820       $pdata$6$?WriteObject@CArchive@@QEAAXPEBVCObject@@@Z 0000000140060820     Shapedoc.obj
 0004:0000282c       $pdata$??6CArchive@@QEAAAEAV0@G@Z 000000014006082c     Shapedoc.obj
 0004:00002838       $pdata$??6CArchive@@QEAAAEAV0@K@Z 0000000140060838     Shapedoc.obj
 0004:00002844       $pdata$?WriteCount@CArchive@@QEAAX_K@Z 0000000140060844     Shapedoc.obj
 0004:00002850       $pdata$?UpdateAllViews@CDocument@@QEAAXPEAVCView@@_JPEAVCObject@@@Z 0000000140060850     Shapedoc.obj
 0004:0000285c       $pdata$?AfxFormatStrings@CAfx@@SAXAEAVCString@WTL@@PEB_WPEBQEB_WH@Z 000000014006085c     Shapedoc.obj
 0004:00002868       $pdata$2$?AfxFormatStrings@CAfx@@SAXAEAVCString@WTL@@PEB_WPEBQEB_WH@Z 0000000140060868     Shapedoc.obj
 0004:00002874       $pdata$4$?AfxFormatStrings@CAfx@@SAXAEAVCString@WTL@@PEB_WPEBQEB_WH@Z 0000000140060874     Shapedoc.obj
 0004:00002880       $pdata$5$?AfxFormatStrings@CAfx@@SAXAEAVCString@WTL@@PEB_WPEBQEB_WH@Z 0000000140060880     Shapedoc.obj
 0004:0000288c       $pdata$6$?AfxFormatStrings@CAfx@@SAXAEAVCString@WTL@@PEB_WPEBQEB_WH@Z 000000014006088c     Shapedoc.obj
 0004:00002898       $pdata$?SaveModified@CDocument@@UEAAHXZ 0000000140060898     Shapedoc.obj
 0004:000028a4       $pdata$?DoFileSave@CDocument@@QEAAHXZ 00000001400608a4     Shapedoc.obj
 0004:000028b0       $pdata$?OnFileSave@CDocument@@QEAAXXZ 00000001400608b0     Shapedoc.obj
 0004:000028bc       $pdata$?GetFile@CDocument@@QEAAPEAVCFile@@PEB_WIPEAVCFileException@@@Z 00000001400608bc     Shapedoc.obj
 0004:000028c8       $pdata$??0CArchive@@QEAA@PEAVCFile@@IHPEAX@Z 00000001400608c8     Shapedoc.obj
 0004:000028d4       $pdata$?Flush@CArchive@@QEAAXXZ 00000001400608d4     Shapedoc.obj
 0004:000028e0       $pdata$?Abort@CFile@@UEAAXXZ 00000001400608e0     Shapedoc.obj
 0004:000028ec       $pdata$?AfxThrowInvalidArgException@@YAXXZ 00000001400608ec     Shapedoc.obj
 0004:000028f8       $pdata$??0CTime@@QEAA@AEBU_FILETIME@@H@Z 00000001400608f8     Shapedoc.obj
 0004:00002904       $pdata$?GetStatus@CFile@@QEBAHAEAUCFileStatus@@@Z 0000000140060904     Shapedoc.obj
 0004:00002910       $pdata$?GetFilePath@CFile@@UEBA?AVCString@WTL@@XZ 0000000140060910     Shapedoc.obj
 0004:0000291c       $pdata$?GetLength@CFile@@UEBA_KXZ 000000014006091c     Shapedoc.obj
 0004:00002928       $pdata$?Open@CFile@@UEAAHPEB_WIPEAVCFileException@@@Z 0000000140060928     Shapedoc.obj
 0004:00002934       $pdata$?Read@CFile@@UEAAIPEAXI@Z 0000000140060934     Shapedoc.obj
 0004:00002940       $pdata$?Write@CFile@@UEAAXPEBXI@Z 0000000140060940     Shapedoc.obj
 0004:0000294c       $pdata$?Seek@CFile@@UEAA_K_JI@Z 000000014006094c     Shapedoc.obj
 0004:00002958       $pdata$??0CFileException@@QEAA@HJPEB_W@Z 0000000140060958     Shapedoc.obj
 0004:00002964       $pdata$?ThrowOsError@CFileException@@SAXJPEB_W@Z 0000000140060964     Shapedoc.obj
 0004:00002970       $pdata$?Close@CFile@@UEAAXXZ 0000000140060970     Shapedoc.obj
 0004:0000297c       $pdata$??_GCFile@@QEAAPEAXI@Z 000000014006097c     Shapedoc.obj
 0004:00002988       $pdata$?ReleaseFile@CDocument@@UEAAXPEAVCFile@@H@Z 0000000140060988     Shapedoc.obj
 0004:00002994       $pdata$?OnSaveDocument@CDocument@@UEAAHPEB_W@Z 0000000140060994     Shapedoc.obj
 0004:000029a0       $pdata$?SetTitle@CDocument@@UEAAXPEB_W@Z 00000001400609a0     Shapedoc.obj
 0004:000029ac       $pdata$?SetPathName@CDocument@@UEAAXPEB_WH@Z 00000001400609ac     Shapedoc.obj
 0004:000029b8       $pdata$?DoSave@CDocument@@UEAAHPEB_WH@Z 00000001400609b8     Shapedoc.obj
 0004:000029c4       $pdata$?_ProcessWindowMessage@CDocument@@UEAAHPEAUHWND__@@I_K_JAEA_J@Z 00000001400609c4     Shapedoc.obj
 0004:000029d0       $pdata$?CreateObject@CShape@@SAPEAVCObject@@XZ 00000001400609d0     Shapeobj.obj
 0004:000029dc       $pdata$?Draw@CShape@@QEAAXPEAVCDCMTL@@H@Z 00000001400609dc     Shapeobj.obj
 0004:000029e8       $pdata$?Serialize@CShape@@UEAAXAEAVCArchive@@@Z 00000001400609e8     Shapeobj.obj
 0004:000029f4       $pdata$0$?Serialize@CShape@@UEAAXAEAVCArchive@@@Z 00000001400609f4     Shapeobj.obj
 0004:00002a00       $pdata$1$?Serialize@CShape@@UEAAXAEAVCArchive@@@Z 0000000140060a00     Shapeobj.obj
 0004:00002a0c       $pdata$?SelectObject@CDCMTL@@QEAAPEAVCBrushMTL@@PEAV2@@Z 0000000140060a0c     Shapeobj.obj
 0004:00002a0c       $pdata$?SelectObject@CDCMTL@@QEAAPEAVCPenMTL@@PEAV2@@Z 0000000140060a0c     Shapeobj.obj
 0004:00002a18       $pdata$0$?SelectObject@CDCMTL@@QEAAPEAVCPenMTL@@PEAV2@@Z 0000000140060a18     Shapeobj.obj
 0004:00002a18       $pdata$0$?SelectObject@CDCMTL@@QEAAPEAVCBrushMTL@@PEAV2@@Z 0000000140060a18     Shapeobj.obj
 0004:00002a24       $pdata$1$?SelectObject@CDCMTL@@QEAAPEAVCBrushMTL@@PEAV2@@Z 0000000140060a24     Shapeobj.obj
 0004:00002a24       $pdata$1$?SelectObject@CDCMTL@@QEAAPEAVCPenMTL@@PEAV2@@Z 0000000140060a24     Shapeobj.obj
 0004:00002a30       $pdata$2$?SelectObject@CDCMTL@@QEAAPEAVCPenMTL@@PEAV2@@Z 0000000140060a30     Shapeobj.obj
 0004:00002a30       $pdata$2$?SelectObject@CDCMTL@@QEAAPEAVCBrushMTL@@PEAV2@@Z 0000000140060a30     Shapeobj.obj
 0004:00002a3c       $pdata$3$?SelectObject@CDCMTL@@QEAAPEAVCBrushMTL@@PEAV2@@Z 0000000140060a3c     Shapeobj.obj
 0004:00002a3c       $pdata$3$?SelectObject@CDCMTL@@QEAAPEAVCPenMTL@@PEAV2@@Z 0000000140060a3c     Shapeobj.obj
 0004:00002a48       $pdata$??_GCGdiObject@@UEAAPEAXI@Z 0000000140060a48     Shapeobj.obj
 0004:00002a54       $pdata$?classHandleFuncCGdiObject@CGdiObject@@SAPEAXPEAX0@Z 0000000140060a54     Shapeobj.obj
 0004:00002a60       $pdata$?AfxClassInit@@YAXPEAUCRuntimeClass@@@Z 0000000140060a60     Shapeobj.obj
 0004:00002a6c       $pdata$?CreateObject@CShapesView@@SAPEAVCObject@@XZ 0000000140060a6c     Shapesvw.obj
 0004:00002a78       $pdata$?_ProcessWindowMessage@CShapesView@@UEAAHPEAUHWND__@@I_K_JAEA_J@Z 0000000140060a78     Shapesvw.obj
 0004:00002a84       $pdata$0$?_ProcessWindowMessage@CShapesView@@UEAAHPEAUHWND__@@I_K_JAEA_J@Z 0000000140060a84     Shapesvw.obj
 0004:00002a90       $pdata$5$?_ProcessWindowMessage@CShapesView@@UEAAHPEAUHWND__@@I_K_JAEA_J@Z 0000000140060a90     Shapesvw.obj
 0004:00002a9c       $pdata$??_GCView@@UEAAPEAXI@Z 0000000140060a9c     Shapesvw.obj
 0004:00002a9c       $pdata$??_GCShapesView@@UEAAPEAXI@Z 0000000140060a9c     Shapesvw.obj
 0004:00002aa8       $pdata$?OnDraw@CShapesView@@UEAAXPEAVCDCMTL@@@Z 0000000140060aa8     Shapesvw.obj
 0004:00002ab4       $pdata$1$?OnDraw@CShapesView@@UEAAXPEAVCDCMTL@@@Z 0000000140060ab4     Shapesvw.obj
 0004:00002ac0       $pdata$2$?OnDraw@CShapesView@@UEAAXPEAVCDCMTL@@@Z 0000000140060ac0     Shapesvw.obj
 0004:00002acc       $pdata$3$?OnDraw@CShapesView@@UEAAXPEAVCDCMTL@@@Z 0000000140060acc     Shapesvw.obj
 0004:00002ad8       $pdata$4$?OnDraw@CShapesView@@UEAAXPEAVCDCMTL@@@Z 0000000140060ad8     Shapesvw.obj
 0004:00002ae4       $pdata$?OnLButtonDown@CShapesView@@IEAAXIVCPoint@WTL@@@Z 0000000140060ae4     Shapesvw.obj
 0004:00002af0       $pdata$?OnSimplePropertySheet@CShapesView@@IEAAXXZ 0000000140060af0     Shapesvw.obj
 0004:00002afc       $pdata$?OnPropertySheetWithPreview@CShapesView@@IEAAXXZ 0000000140060afc     Shapesvw.obj
 0004:00002b08       $pdata$?OnUpdatePropertySheetWithPreview@CShapesView@@IEAAXPEAVCCmdUI@@@Z 0000000140060b08     Shapesvw.obj
 0004:00002b14       $pdata$?OnChangeObjectProps@CShapesView@@IEAA_J_K_J@Z 0000000140060b14     Shapesvw.obj
 0004:00002b20       $pdata$?_AtlCreateDC@WTL@@YAPEAUHDC__@@PEAX0@Z 0000000140060b20     Shapesvw.obj
 0004:00002b2c       $pdata$0$?_AtlCreateDC@WTL@@YAPEAUHDC__@@PEAX0@Z 0000000140060b2c     Shapesvw.obj
 0004:00002b38       $pdata$2$?_AtlCreateDC@WTL@@YAPEAUHDC__@@PEAX0@Z 0000000140060b38     Shapesvw.obj
 0004:00002b44       $pdata$?DoPreparePrinting@CView@@QEAAHPEAUCPrintInfo@@@Z 0000000140060b44     Shapesvw.obj
 0004:00002b50       $pdata$?_AfxPreviewCloseProc@CPrintPreviewState@@SAHPEAVCFrameWnd@@@Z 0000000140060b50     Shapesvw.obj
 0004:00002b5c       $pdata$??_GCDialogBar@@UEAAPEAXI@Z 0000000140060b5c     Shapesvw.obj
 0004:00002b68       $pdata$?Create@CDialogBar@@UEAAHPEAVCWnd@@PEB_WII@Z 0000000140060b68     Shapesvw.obj
 0004:00002b74       $pdata$?AddView@CDocument@@QEAAXPEAVCView@@@Z 0000000140060b74     Shapesvw.obj
 0004:00002b80       $pdata$?OnDestroy@CView@@QEAAXXZ 0000000140060b80     Shapesvw.obj
 0004:00002b8c       $pdata$0$?OnDestroy@CView@@QEAAXXZ 0000000140060b8c     Shapesvw.obj
 0004:00002b98       $pdata$1$?OnDestroy@CView@@QEAAXXZ 0000000140060b98     Shapesvw.obj
 0004:00002ba4       $pdata$?OnMouseActivate@CView@@QEAAHPEAVCWnd@@II@Z 0000000140060ba4     Shapesvw.obj
 0004:00002bb0       $pdata$0$?OnMouseActivate@CView@@QEAAHPEAVCWnd@@II@Z 0000000140060bb0     Shapesvw.obj
 0004:00002bbc       $pdata$1$?OnMouseActivate@CView@@QEAAHPEAVCWnd@@II@Z 0000000140060bbc     Shapesvw.obj
 0004:00002bc8       $pdata$2$?OnMouseActivate@CView@@QEAAHPEAVCWnd@@II@Z 0000000140060bc8     Shapesvw.obj
 0004:00002bd4       $pdata$4$?OnMouseActivate@CView@@QEAAHPEAVCWnd@@II@Z 0000000140060bd4     Shapesvw.obj
 0004:00002be0       $pdata$5$?OnMouseActivate@CView@@QEAAHPEAVCWnd@@II@Z 0000000140060be0     Shapesvw.obj
 0004:00002bec       $pdata$?OnPaint@CView@@QEAAXXZ 0000000140060bec     Shapesvw.obj
 0004:00002bf8       $pdata$?_ProcessWindowMessage@CView@@UEAAHPEAUHWND__@@I_K_JAEA_J@Z 0000000140060bf8     Shapesvw.obj
 0004:00002c04       $pdata$?OnCmdMsg@CView@@UEAAHIHPEAXPEAUAFX_CMDHANDLERINFO@@@Z 0000000140060c04     Shapesvw.obj
 0004:00002c10       $pdata$?PreCreateWindow@CView@@UEAAHAEAUtagCREATESTRUCTW@@@Z 0000000140060c10     Shapesvw.obj
 0004:00002c1c       $pdata$?RemoveView@CDocument@@QEAAXPEAVCView@@@Z 0000000140060c1c     Shapesvw.obj
 0004:00002c28       $pdata$??1CView@@UEAA@XZ   0000000140060c28     Shapesvw.obj
 0004:00002c34       $pdata$??1CPreviewDC@@UEAA@XZ 0000000140060c34     Shapesvw.obj
 0004:00002c40       $pdata$??_GCPreviewDC@@UEAAPEAXI@Z 0000000140060c40     Shapesvw.obj
 0004:00002c4c       $pdata$?SaveDC@CPreviewDC@@UEAAHXZ 0000000140060c4c     Shapesvw.obj
 0004:00002c58       $pdata$?SelectStockObject@CPreviewDC@@QEAAPEAVCGdiObject@@H@Z 0000000140060c58     Shapesvw.obj
 0004:00002c64       $pdata$0$?SelectStockObject@CPreviewDC@@QEAAPEAVCGdiObject@@H@Z 0000000140060c64     Shapesvw.obj
 0004:00002c70       $pdata$1$?SelectStockObject@CPreviewDC@@QEAAPEAVCGdiObject@@H@Z 0000000140060c70     Shapesvw.obj
 0004:00002c7c       $pdata$3$?SelectStockObject@CPreviewDC@@QEAAPEAVCGdiObject@@H@Z 0000000140060c7c     Shapesvw.obj
 0004:00002c88       $pdata$4$?SelectStockObject@CPreviewDC@@QEAAPEAVCGdiObject@@H@Z 0000000140060c88     Shapesvw.obj
 0004:00002c94       $pdata$5$?SelectStockObject@CPreviewDC@@QEAAPEAVCGdiObject@@H@Z 0000000140060c94     Shapesvw.obj
 0004:00002ca0       $pdata$6$?SelectStockObject@CPreviewDC@@QEAAPEAVCGdiObject@@H@Z 0000000140060ca0     Shapesvw.obj
 0004:00002cac       $pdata$7$?SelectStockObject@CPreviewDC@@QEAAPEAVCGdiObject@@H@Z 0000000140060cac     Shapesvw.obj
 0004:00002cb8       $pdata$8$?SelectStockObject@CPreviewDC@@QEAAPEAVCGdiObject@@H@Z 0000000140060cb8     Shapesvw.obj
 0004:00002cc4       $pdata$?MirrorFont@CPreviewDC@@QEAAXXZ 0000000140060cc4     Shapesvw.obj
 0004:00002cd0       $pdata$0$?MirrorFont@CPreviewDC@@QEAAXXZ 0000000140060cd0     Shapesvw.obj
 0004:00002cdc       $pdata$3$?MirrorFont@CPreviewDC@@QEAAXXZ 0000000140060cdc     Shapesvw.obj
 0004:00002ce8       $pdata$4$?MirrorFont@CPreviewDC@@QEAAXXZ 0000000140060ce8     Shapesvw.obj
 0004:00002cf4       $pdata$5$?MirrorFont@CPreviewDC@@QEAAXXZ 0000000140060cf4     Shapesvw.obj
 0004:00002d00       $pdata$6$?MirrorFont@CPreviewDC@@QEAAXXZ 0000000140060d00     Shapesvw.obj
 0004:00002d0c       $pdata$?RestoreDC@CPreviewDC@@UEAAHH@Z 0000000140060d0c     Shapesvw.obj
 0004:00002d18       $pdata$??1?$CAlloc@_WAEB_W@@QEAA@XZ 0000000140060d18     Shapesvw.obj
 0004:00002d18       $pdata$??1?$CAlloc@HAEBH@@QEAA@XZ 0000000140060d18     Shapesvw.obj
 0004:00002d24       $pdata$?ComputeDeltas@CPreviewDC@@QEAA?AVCSize@WTL@@AEAHPEB_WAEAIHIPEAHHPEA_W30@Z 0000000140060d24     Shapesvw.obj
 0004:00002d30       $pdata$?ExtTextOutW@CPreviewDC@@QEAAHHHIPEBUtagRECT@@PEB_WIPEAH@Z 0000000140060d30     Shapesvw.obj
 0004:00002d3c       $pdata$?TextOutW@CPreviewDC@@UEAAHHHPEB_WH@Z 0000000140060d3c     Shapesvw.obj
 0004:00002d48       $pdata$??0CPreviewDC@@QEAA@XZ 0000000140060d48     Shapesvw.obj
 0004:00002d54       $pdata$?GetScrollBarState@CScrollView@@QEAAXVCSize@WTL@@AEAV23@1AEAVCPoint@3@H@Z 0000000140060d54     Shapesvw.obj
 0004:00002d60       $pdata$?ScrollWindow@CWMHnd@@QEAAXHHPEBUtagRECT@@0@Z 0000000140060d60     Shapesvw.obj
 0004:00002d6c       $pdata$0$?ScrollWindow@CWMHnd@@QEAAXHHPEBUtagRECT@@0@Z 0000000140060d6c     Shapesvw.obj
 0004:00002d78       $pdata$1$?ScrollWindow@CWMHnd@@QEAAXHHPEBUtagRECT@@0@Z 0000000140060d78     Shapesvw.obj
 0004:00002d84       $pdata$?ScrollToDevicePosition@CScrollView@@QEAAXUtagPOINT@@@Z 0000000140060d84     Shapesvw.obj
 0004:00002d90       $pdata$?EnableScrollBarCtrl@CWMHnd@@QEAAXHH@Z 0000000140060d90     Shapesvw.obj
 0004:00002d9c       $pdata$?UpdateBars@CScrollView@@QEAAXXZ 0000000140060d9c     Shapesvw.obj
 0004:00002da8       $pdata$5$?UpdateBars@CScrollView@@QEAAXXZ 0000000140060da8     Shapesvw.obj
 0004:00002db4       $pdata$6$?UpdateBars@CScrollView@@QEAAXXZ 0000000140060db4     Shapesvw.obj
 0004:00002dc0       $pdata$?SetScrollSizes@CScrollView@@QEAAXHUtagSIZE@@AEBU2@1@Z 0000000140060dc0     Shapesvw.obj
 0004:00002dcc       $pdata$?SetCurrentPage@CPreviewView@@QEAAXIH@Z 0000000140060dcc     Shapesvw.obj
 0004:00002dd8       $pdata$0$?SetCurrentPage@CPreviewView@@QEAAXIH@Z 0000000140060dd8     Shapesvw.obj
 0004:00002de4       $pdata$1$?SetCurrentPage@CPreviewView@@QEAAXIH@Z 0000000140060de4     Shapesvw.obj
 0004:00002df0       $pdata$2$?SetCurrentPage@CPreviewView@@QEAAXIH@Z 0000000140060df0     Shapesvw.obj
 0004:00002dfc       $pdata$3$?SetCurrentPage@CPreviewView@@QEAAXIH@Z 0000000140060dfc     Shapesvw.obj
 0004:00002e08       $pdata$?SetPrintView@CPreviewView@@QEAAHPEAVCView@@@Z 0000000140060e08     Shapesvw.obj
 0004:00002e14       $pdata$?OnEndPrintPreview@CView@@UEAAXPEAVCDCMTL@@PEAUCPrintInfo@@UtagPOINT@@PEAVCPreviewView@@@Z 0000000140060e14     Shapesvw.obj
 0004:00002e20       $pdata$?OnPreviewClose@CPreviewView@@QEAAXXZ 0000000140060e20     Shapesvw.obj
 0004:00002e2c       $pdata$0$?OnPreviewClose@CPreviewView@@QEAAXXZ 0000000140060e2c     Shapesvw.obj
 0004:00002e38       $pdata$1$?OnPreviewClose@CPreviewView@@QEAAXXZ 0000000140060e38     Shapesvw.obj
 0004:00002e44       $pdata$?OnActivateView@CView@@UEAAXHPEAV1@0@Z 0000000140060e44     Shapesvw.obj
 0004:00002e50       $pdata$0$?OnActivateView@CView@@UEAAXHPEAV1@0@Z 0000000140060e50     Shapesvw.obj
 0004:00002e5c       $pdata$1$?OnActivateView@CView@@UEAAXHPEAV1@0@Z 0000000140060e5c     Shapesvw.obj
 0004:00002e68       $pdata$?DoPrintPreview@CView@@QEAAHIPEAV1@PEAUCRuntimeClass@@PEAUCPrintPreviewState@@@Z 0000000140060e68     Shapesvw.obj
 0004:00002e74       $pdata$1$?DoPrintPreview@CView@@QEAAHIPEAV1@PEAUCRuntimeClass@@PEAUCPrintPreviewState@@@Z 0000000140060e74     Shapesvw.obj
 0004:00002e80       $pdata$2$?DoPrintPreview@CView@@QEAAHIPEAV1@PEAUCRuntimeClass@@PEAUCPrintPreviewState@@@Z 0000000140060e80     Shapesvw.obj
 0004:00002e8c       $pdata$3$?DoPrintPreview@CView@@QEAAHIPEAV1@PEAUCRuntimeClass@@PEAUCPrintPreviewState@@@Z 0000000140060e8c     Shapesvw.obj
 0004:00002e98       $pdata$5$?DoPrintPreview@CView@@QEAAHIPEAV1@PEAUCRuntimeClass@@PEAUCPrintPreviewState@@@Z 0000000140060e98     Shapesvw.obj
 0004:00002ea4       $pdata$6$?DoPrintPreview@CView@@QEAAHIPEAV1@PEAUCRuntimeClass@@PEAUCPrintPreviewState@@@Z 0000000140060ea4     Shapesvw.obj
 0004:00002eb0       $pdata$?OnFilePrintPreview@CView@@QEAAXXZ 0000000140060eb0     Shapesvw.obj
 0004:00002ebc       $pdata$??0CPrintInfo@@QEAA@XZ 0000000140060ebc     Shapesvw.obj
 0004:00002ec8       $pdata$??1CPrintInfo@@QEAA@XZ 0000000140060ec8     Shapesvw.obj
 0004:00002ed4       $pdata$?FromHandle@?$CHandleList@PEAUHDC__@@VCDCMTL@@PEAUHWND__@@@@QEAAPEAVCDCMTL@@QEAUHDC__@@PEAV2@QEAUHWND__@@Q6APEAXPEAX3@Z@Z 0000000140060ed4     Shapesvw.obj
 0004:00002ee0       $pdata$1$?FromHandle@?$CHandleList@PEAUHDC__@@VCDCMTL@@PEAUHWND__@@@@QEAAPEAVCDCMTL@@QEAUHDC__@@PEAV2@QEAUHWND__@@Q6APEAXPEAX3@Z@Z 0000000140060ee0     Shapesvw.obj
 0004:00002eec       $pdata$2$?FromHandle@?$CHandleList@PEAUHDC__@@VCDCMTL@@PEAUHWND__@@@@QEAAPEAVCDCMTL@@QEAUHDC__@@PEAV2@QEAUHWND__@@Q6APEAXPEAX3@Z@Z 0000000140060eec     Shapesvw.obj
 0004:00002ef8       $pdata$3$?FromHandle@?$CHandleList@PEAUHDC__@@VCDCMTL@@PEAUHWND__@@@@QEAAPEAVCDCMTL@@QEAUHDC__@@PEAV2@QEAUHWND__@@Q6APEAXPEAX3@Z@Z 0000000140060ef8     Shapesvw.obj
 0004:00002f04       $pdata$?classHandleFuncCDCMTL@CDCMTL@@SAPEAXPEAX0@Z 0000000140060f04     Shapesvw.obj
 0004:00002f10       $pdata$?OnInitDialog@CPrintingDialog@@UEAAHXZ 0000000140060f10     Shapesvw.obj
 0004:00002f1c       $pdata$?OnCancel@CPrintingDialog@@UEAAXXZ 0000000140060f1c     Shapesvw.obj
 0004:00002f28       $pdata$?_AfxAbortProc@CPrintingDialog@@SAHPEAUHDC__@@H@Z 0000000140060f28     Shapesvw.obj
 0004:00002f34       $pdata$?OnFilePrint@CView@@QEAAXXZ 0000000140060f34     Shapesvw.obj
 0004:00002f40       $pdata$?classHandleFuncCBitmapMTL@CBitmapMTL@@SAPEAXPEAX0@Z 0000000140060f40     Stdafx.obj
 0004:00002f4c       $pdata$?SelectStockObject@CDCMTL@@QEAAPEAVCGdiObject@@H@Z 0000000140060f4c     Stdafx.obj
 0004:00002f58       $pdata$0$?SelectStockObject@CDCMTL@@QEAAPEAVCGdiObject@@H@Z 0000000140060f58     Stdafx.obj
 0004:00002f64       $pdata$1$?SelectStockObject@CDCMTL@@QEAAPEAVCGdiObject@@H@Z 0000000140060f64     Stdafx.obj
 0004:00002f70       $pdata$2$?SelectStockObject@CDCMTL@@QEAAPEAVCGdiObject@@H@Z 0000000140060f70     Stdafx.obj
 0004:00002f7c       $pdata$3$?SelectStockObject@CDCMTL@@QEAAPEAVCGdiObject@@H@Z 0000000140060f7c     Stdafx.obj
 0004:00002f88       $pdata$?ClipToPage@CPreviewDC@@QEAAXXZ 0000000140060f88     Stdafx.obj
 0004:00002f94       $pdata$?MirrorMappingMode@CPreviewDC@@QEAAXH@Z 0000000140060f94     Stdafx.obj
 0004:00002fa0       $pdata$0$?MirrorMappingMode@CPreviewDC@@QEAAXH@Z 0000000140060fa0     Stdafx.obj
 0004:00002fac       $pdata$1$?MirrorMappingMode@CPreviewDC@@QEAAXH@Z 0000000140060fac     Stdafx.obj
 0004:00002fb8       $pdata$2$?MirrorMappingMode@CPreviewDC@@QEAAXH@Z 0000000140060fb8     Stdafx.obj
 0004:00002fc4       $pdata$3$?MirrorMappingMode@CPreviewDC@@QEAAXH@Z 0000000140060fc4     Stdafx.obj
 0004:00002fd0       $pdata$?MirrorViewportOrg@CPreviewDC@@QEAAXXZ 0000000140060fd0     Stdafx.obj
 0004:00002fdc       $pdata$1$?MirrorViewportOrg@CPreviewDC@@QEAAXXZ 0000000140060fdc     Stdafx.obj
 0004:00002fe8       $pdata$2$?MirrorViewportOrg@CPreviewDC@@QEAAXXZ 0000000140060fe8     Stdafx.obj
 0004:00002ff4       $pdata$??1CImage@@UEAA@XZ  0000000140060ff4     Stdafx.obj
 0004:00003000       $pdata$?CreateEx@CImage@@QEAAHHHHKPEBKK@Z 0000000140061000     Stdafx.obj
 0004:0000300c       $pdata$?UpdateBitmapInfo@CImage@@QEAAXW4DIBOrientation@1@@Z 000000014006100c     Stdafx.obj
 0004:00003018       $pdata$??_GCImage@@UEAAPEAXI@Z 0000000140061018     Stdafx.obj
 0004:00003024       $pdata$?GetScrollLimit@CWMHnd@@QEAAHH@Z 0000000140061024     Stdafx.obj
 0004:00003030       $pdata$?GetFocus@CWnd@@SAPEAV1@XZ 0000000140061030     Stdafx.obj
 0004:0000303c       $pdata$3$?GetFocus@CWnd@@SAPEAV1@XZ 000000014006103c     Stdafx.obj
 0004:00003048       $pdata$4$?GetFocus@CWnd@@SAPEAV1@XZ 0000000140061048     Stdafx.obj
 0004:00003054       $pdata$5$?GetFocus@CWnd@@SAPEAV1@XZ 0000000140061054     Stdafx.obj
 0004:00003060       $pdata$6$?GetFocus@CWnd@@SAPEAV1@XZ 0000000140061060     Stdafx.obj
 0004:0000306c       $pdata$7$?GetFocus@CWnd@@SAPEAV1@XZ 000000014006106c     Stdafx.obj
 0004:00003078       $pdata$8$?GetFocus@CWnd@@SAPEAV1@XZ 0000000140061078     Stdafx.obj
 0004:00003084       $pdata$?SetCapture@CWnd@@QEAAPEAV1@XZ 0000000140061084     Stdafx.obj
 0004:00003090       $pdata$3$?SetCapture@CWnd@@QEAAPEAV1@XZ 0000000140061090     Stdafx.obj
 0004:0000309c       $pdata$4$?SetCapture@CWnd@@QEAAPEAV1@XZ 000000014006109c     Stdafx.obj
 0004:000030a8       $pdata$5$?SetCapture@CWnd@@QEAAPEAV1@XZ 00000001400610a8     Stdafx.obj
 0004:000030b4       $pdata$6$?SetCapture@CWnd@@QEAAPEAV1@XZ 00000001400610b4     Stdafx.obj
 0004:000030c0       $pdata$7$?SetCapture@CWnd@@QEAAPEAV1@XZ 00000001400610c0     Stdafx.obj
 0004:000030cc       $pdata$8$?SetCapture@CWnd@@QEAAPEAV1@XZ 00000001400610cc     Stdafx.obj
 0004:000030d8       $pdata$?OnPaint@_AFX_MOUSEANCHORWND@@QEAAXXZ 00000001400610d8     Stdafx.obj
 0004:000030e4       $pdata$?WindowProc@_AFX_MOUSEANCHORWND@@UEAA_JI_K_J@Z 00000001400610e4     Stdafx.obj
 0004:000030f0       $pdata$??_G_AFX_MOUSEANCHORWND@@UEAAPEAXI@Z 00000001400610f0     Stdafx.obj
 0004:000030fc       $pdata$?_ProcessWindowMessage@_AFX_MOUSEANCHORWND@@UEAAHPEAUHWND__@@I_K_JAEA_J@Z 00000001400610fc     Stdafx.obj
 0004:00003108       $pdata$??0CScrollView@@QEAA@XZ 0000000140061108     Stdafx.obj
 0004:00003114       $pdata$??1CScrollView@@UEAA@XZ 0000000140061114     Stdafx.obj
 0004:00003120       $pdata$?OnHScroll@CScrollView@@QEAAXIIPEAVCScrollBarMTL@@@Z 0000000140061120     Stdafx.obj
 0004:0000312c       $pdata$?OnPrepareDC@CScrollView@@UEAAXPEAVCDCMTL@@PEAUCPrintInfo@@@Z 000000014006112c     Stdafx.obj
 0004:00003138       $pdata$?OnPrintClient@CScrollView@@QEAA_JPEAVCDCMTL@@I@Z 0000000140061138     Stdafx.obj
 0004:00003144       $pdata$?OnScroll@CScrollView@@UEAAHIIH@Z 0000000140061144     Stdafx.obj
 0004:00003150       $pdata$?OnScrollBy@CScrollView@@UEAAHVCSize@WTL@@H@Z 0000000140061150     Stdafx.obj
 0004:0000315c       $pdata$?OnVScroll@CScrollView@@QEAAXIIPEAVCScrollBarMTL@@@Z 000000014006115c     Stdafx.obj
 0004:00003168       $pdata$?CCalcWindowRect@CScrollView@@UEAAXPEAUtagRECT@@I@Z 0000000140061168     Stdafx.obj
 0004:00003174       $pdata$0$?CCalcWindowRect@CScrollView@@UEAAXPEAUtagRECT@@I@Z 0000000140061174     Stdafx.obj
 0004:00003180       $pdata$3$?CCalcWindowRect@CScrollView@@UEAAXPEAUtagRECT@@I@Z 0000000140061180     Stdafx.obj
 0004:0000318c       $pdata$4$?CCalcWindowRect@CScrollView@@UEAAXPEAUtagRECT@@I@Z 000000014006118c     Stdafx.obj
 0004:00003198       $pdata$5$?CCalcWindowRect@CScrollView@@UEAAXPEAUtagRECT@@I@Z 0000000140061198     Stdafx.obj
 0004:000031a4       $pdata$?CenterOnPoint@CScrollView@@QEAAXVCPoint@WTL@@@Z 00000001400611a4     Stdafx.obj
 0004:000031b0       $pdata$?DoMouseWheel@CScrollView@@QEAAHIFVCPoint@WTL@@@Z 00000001400611b0     Stdafx.obj
 0004:000031bc       $pdata$?HandleMButtonDown@CScrollView@@QEAA_J_K_J@Z 00000001400611bc     Stdafx.obj
 0004:000031c8       $pdata$?SetScaleToFitSize@CScrollView@@QEAAXUtagSIZE@@@Z 00000001400611c8     Stdafx.obj
 0004:000031d4       $pdata$??_GCScrollView@@UEAAPEAXI@Z 00000001400611d4     Stdafx.obj
 0004:000031e0       $pdata$?_ProcessWindowMessage@CScrollView@@UEAAHPEAUHWND__@@I_K_JAEA_J@Z 00000001400611e0     Stdafx.obj
 0004:000031ec       $pdata$?Create@_AFX_MOUSEANCHORWND@@QEAAHPEAVCScrollView@@@Z 00000001400611ec     Stdafx.obj
 0004:000031f8       $pdata$??0CPreviewView@@QEAA@XZ 00000001400611f8     Stdafx.obj
 0004:00003204       $pdata$??1CPreviewView@@UEAA@XZ 0000000140061204     Stdafx.obj
 0004:00003210       $pdata$?OnActivateView@CPreviewView@@UEAAXHPEAVCView@@0@Z 0000000140061210     Stdafx.obj
 0004:0000321c       $pdata$0$?OnActivateView@CPreviewView@@UEAAXHPEAVCView@@0@Z 000000014006121c     Stdafx.obj
 0004:00003228       $pdata$1$?OnActivateView@CPreviewView@@UEAAXHPEAVCView@@0@Z 0000000140061228     Stdafx.obj
 0004:00003234       $pdata$?OnDraw@CPreviewView@@UEAAXPEAVCDCMTL@@@Z 0000000140061234     Stdafx.obj
 0004:00003240       $pdata$?OnEraseBkgnd@CPreviewView@@QEAAHPEAVCDCMTL@@@Z 0000000140061240     Stdafx.obj
 0004:0000324c       $pdata$?OnSetCursor@CPreviewView@@QEAAHPEAVCWnd@@II@Z 000000014006124c     Stdafx.obj
 0004:00003258       $pdata$?OnSize@CPreviewView@@QEAAXIHH@Z 0000000140061258     Stdafx.obj
 0004:00003264       $pdata$?OnUpdateNumPageChange@CPreviewView@@QEAAXPEAVCCmdUI@@@Z 0000000140061264     Stdafx.obj
 0004:00003270       $pdata$?CalcPageDisplaySize@CPreviewView@@QEAA?AVCSize@WTL@@XZ 0000000140061270     Stdafx.obj
 0004:0000327c       $pdata$?CalcScaleRatio@CPreviewView@@UEAA?AVCSize@WTL@@V23@0@Z 000000014006127c     Stdafx.obj
 0004:00003288       $pdata$?DoZoom@CPreviewView@@QEAAXIVCPoint@WTL@@@Z 0000000140061288     Stdafx.obj
 0004:00003294       $pdata$0$?DoZoom@CPreviewView@@QEAAXIVCPoint@WTL@@@Z 0000000140061294     Stdafx.obj
 0004:000032a0       $pdata$1$?DoZoom@CPreviewView@@QEAAXIVCPoint@WTL@@@Z 00000001400612a0     Stdafx.obj
 0004:000032ac       $pdata$?FindPageRect@CPreviewView@@QEAAHAEAVCPoint@WTL@@AEAI@Z 00000001400612ac     Stdafx.obj
 0004:000032b8       $pdata$?PositionPage@CPreviewView@@UEAAXI@Z 00000001400612b8     Stdafx.obj
 0004:000032c4       $pdata$?SetScaledSize@CPreviewView@@QEAAXI@Z 00000001400612c4     Stdafx.obj
 0004:000032d0       $pdata$??_GCPreviewView@@UEAAPEAXI@Z 00000001400612d0     Stdafx.obj
 0004:000032dc       $pdata$?_ProcessWindowMessage@CPreviewView@@UEAAHPEAUHWND__@@I_K_JAEA_J@Z 00000001400612dc     Stdafx.obj
 0004:000032e8       $pdata$?OnMDIActivate@CMDIChildWnd@@QEAAXHPEAVCWnd@@0@Z 00000001400612e8     Stdafx.obj
 0004:000032f4       $pdata$?OnToolTipText@CMDIChildWnd@@QEAAHIPEAUtagNMHDR@@PEA_J@Z 00000001400612f4     Stdafx.obj
 0004:00003300       $pdata$?OnUpdateFrameMenu@CMDIChildWnd@@QEAAXHPEAVCWnd@@PEAUHMENU__@@@Z 0000000140061300     Stdafx.obj
 0004:0000330c       $pdata$?OnUpdateFrameTitle@CMDIChildWnd@@UEAAXH@Z 000000014006130c     Stdafx.obj
 0004:00003318       $pdata$0$?OnUpdateFrameTitle@CMDIChildWnd@@UEAAXH@Z 0000000140061318     Stdafx.obj
 0004:00003324       $pdata$1$?OnUpdateFrameTitle@CMDIChildWnd@@UEAAXH@Z 0000000140061324     Stdafx.obj
 0004:00003330       $pdata$?OnWindowPosChanging@CMDIChildWnd@@QEAAXPEAUtagWINDOWPOS@@@Z 0000000140061330     Stdafx.obj
 0004:0000333c       $pdata$0$?OnWindowPosChanging@CMDIChildWnd@@QEAAXPEAUtagWINDOWPOS@@@Z 000000014006133c     Stdafx.obj
 0004:00003348       $pdata$1$?OnWindowPosChanging@CMDIChildWnd@@QEAAXPEAUtagWINDOWPOS@@@Z 0000000140061348     Stdafx.obj
 0004:00003354       $pdata$?ActivateFrame@CMDIChildWnd@@UEAAXH@Z 0000000140061354     Stdafx.obj
 0004:00003360       $pdata$?DestroyWindow@CMDIChildWnd@@UEAAHXZ 0000000140061360     Stdafx.obj
 0004:0000336c       $pdata$?GetMDIFrame@CMDIChildWnd@@QEAAPEAVCMDIFrameWnd@@XZ 000000014006136c     Stdafx.obj
 0004:00003378       $pdata$3$?GetMDIFrame@CMDIChildWnd@@QEAAPEAVCMDIFrameWnd@@XZ 0000000140061378     Stdafx.obj
 0004:00003384       $pdata$4$?GetMDIFrame@CMDIChildWnd@@QEAAPEAVCMDIFrameWnd@@XZ 0000000140061384     Stdafx.obj
 0004:00003390       $pdata$5$?GetMDIFrame@CMDIChildWnd@@QEAAPEAVCMDIFrameWnd@@XZ 0000000140061390     Stdafx.obj
 0004:0000339c       $pdata$6$?GetMDIFrame@CMDIChildWnd@@QEAAPEAVCMDIFrameWnd@@XZ 000000014006139c     Stdafx.obj
 0004:000033a8       $pdata$7$?GetMDIFrame@CMDIChildWnd@@QEAAPEAVCMDIFrameWnd@@XZ 00000001400613a8     Stdafx.obj
 0004:000033b4       $pdata$8$?GetMDIFrame@CMDIChildWnd@@QEAAPEAVCMDIFrameWnd@@XZ 00000001400613b4     Stdafx.obj
 0004:000033c0       $pdata$?PreTranslateMessage@CMDIChildWnd@@UEAAHPEAUtagMSG@@@Z 00000001400613c0     Stdafx.obj
 0004:000033cc       $pdata$0$?PreTranslateMessage@CMDIChildWnd@@UEAAHPEAUtagMSG@@@Z 00000001400613cc     Stdafx.obj
 0004:000033d8       $pdata$2$?PreTranslateMessage@CMDIChildWnd@@UEAAHPEAUtagMSG@@@Z 00000001400613d8     Stdafx.obj
 0004:000033e4       $pdata$3$?PreTranslateMessage@CMDIChildWnd@@UEAAHPEAUtagMSG@@@Z 00000001400613e4     Stdafx.obj
 0004:000033f0       $pdata$?UpdateClientEdge@CMDIChildWnd@@QEAAHPEAUtagRECT@@@Z 00000001400613f0     Stdafx.obj
 0004:000033fc       $pdata$0$?UpdateClientEdge@CMDIChildWnd@@QEAAHPEAUtagRECT@@@Z 00000001400613fc     Stdafx.obj
 0004:00003408       $pdata$1$?UpdateClientEdge@CMDIChildWnd@@QEAAHPEAUtagRECT@@@Z 0000000140061408     Stdafx.obj
 0004:00003414       $pdata$?_ProcessWindowMessage@CMDIChildWnd@@UEAAHPEAUHWND__@@I_K_JAEA_J@Z 0000000140061414     Stdafx.obj
 0004:00003420       $pdata$?LoadFrame@CMDIChildWnd@@UEAAHIKPEAVCWnd@@PEAUCCreateContext@@@Z 0000000140061420     Stdafx.obj
 0004:0000342c       $pdata$?OnTimer@_AFX_MOUSEANCHORWND@@QEAAX_K@Z 000000014006142c     Stdafx.obj
 0004:00003438       $pdata$1$?OnTimer@_AFX_MOUSEANCHORWND@@QEAAX_K@Z 0000000140061438     Stdafx.obj
 0004:00003444       $pdata$3$?OnTimer@_AFX_MOUSEANCHORWND@@QEAAX_K@Z 0000000140061444     Stdafx.obj
 0004:00003450       $pdata$?SetCurrentHandles@CWinApp@@QEAAXXZ 0000000140061450     Stdafx.obj
 0004:0000345c       $pdata$4$?SetCurrentHandles@CWinApp@@QEAAXXZ 000000014006145c     Stdafx.obj
 0004:00003468       $pdata$5$?SetCurrentHandles@CWinApp@@QEAAXXZ 0000000140061468     Stdafx.obj
 0004:00003474       $pdata$?Create@CMDIChildWnd@@UEAAHPEB_W0KAEBUtagRECT@@PEAVCMDIFrameWnd@@PEAUCCreateContext@@@Z 0000000140061474     Stdafx.obj
 0004:00003480       $pdata$?OnDisplayPageNumber@CPreviewView@@UEAAXII@Z 0000000140061480     Stdafx.obj
 0004:0000348c       $pdata$?OnPreviewPrint@CPreviewView@@QEAAXXZ 000000014006148c     Stdafx.obj
 0004:00003498       $pdata$?CreateObject@CWnd@@SAPEAVCObject@@XZ 0000000140061498     Stdafx.obj
 0004:000034a4       $pdata$?CreateObject@CFrameWnd@@SAPEAVCObject@@XZ 00000001400614a4     Stdafx.obj
 0004:000034b0       $pdata$?CreateObject@CMiniFrameWnd@@SAPEAVCObject@@XZ 00000001400614b0     Stdafx.obj
 0004:000034bc       $pdata$?CreateObject@CMDIFrameWnd@@SAPEAVCObject@@XZ 00000001400614bc     Stdafx.obj
 0004:000034c8       $pdata$?CreateObject@CMDIChildWnd@@SAPEAVCObject@@XZ 00000001400614c8     Stdafx.obj
 0004:000034d4       $pdata$?CreateObject@CPreviewView@@SAPEAVCObject@@XZ 00000001400614d4     Stdafx.obj
 0004:000034e0       $pdata$wWinMain            00000001400614e0     Stdafx.obj
 0004:000034ec       $pdata$?_ProcessWindowMessage@CStylePage@@UEAAHPEAUHWND__@@I_K_JAEA_J@Z 00000001400614ec     Stylepge.obj
 0004:000034f8       $pdata$?__AllocStdCallThunk@ATL@@YAPEAXXZ 00000001400614f8     atls:atlthunk.obj
 0004:00003504       $pdata$?__InitializeThunkPool@@YAHXZ 0000000140061504     atls:atlthunk.obj
 0004:00003510       $pdata$??0CAtlBaseModule@ATL@@QEAA@XZ 0000000140061510     atls:atlbase.obj
 0004:0000351c       $pdata$??1CAtlBaseModule@ATL@@QEAA@XZ 000000014006151c     atls:atlbase.obj
 0004:00003528       $pdata$__tmainCRTStartup   0000000140061528     LIBCMT:wwincrt0.obj
 0004:00003534       $pdata$fast_error_exit     0000000140061534     LIBCMT:wwincrt0.obj
 0004:00003540       $pdata$wWinMainCRTStartup  0000000140061540     LIBCMT:wwincrt0.obj
 0004:0000354c       $pdata$??8type_info@@QEBA_NAEBV0@@Z 000000014006154c     LIBCMT:typinfo.obj
 0004:00003558       $pdata$??_Gtype_info@@UEAAPEAXI@Z 0000000140061558     LIBCMT:typinfo.obj
 0004:00003564       $pdata$??0bad_alloc@std@@QEAA@AEBV01@@Z 0000000140061564     LIBCMT:new.obj
 0004:00003570       $pdata$??2@YAPEAX_K@Z      0000000140061570     LIBCMT:new.obj
 0004:0000357c       $pdata$??_Gbad_alloc@std@@UEAAPEAXI@Z 000000014006157c     LIBCMT:new.obj
 0004:00003588       $pdata$memcpy_s            0000000140061588     LIBCMT:memcpy_s.obj
 0004:00003594       $pdata$__onexitinit        0000000140061594     LIBCMT:onexit.obj
 0004:000035a0       $pdata$_onexit             00000001400615a0     LIBCMT:onexit.obj
 0004:000035ac       $pdata$atexit              00000001400615ac     LIBCMT:onexit.obj
 0004:000035b8       $pdata$free                00000001400615b8     LIBCMT:free.obj
 0004:000035c4       $pdata$malloc              00000001400615c4     LIBCMT:malloc.obj
 0004:000035d0       $pdata$wcsncpy             00000001400615d0     LIBCMT:wcsncpy.obj
 0004:000035dc       $pdata$wcschr              00000001400615dc     LIBCMT:wcschr.obj
 0004:000035f4       $pdata$_purecall           00000001400615f4     LIBCMT:purevirt.obj
 0004:00003600       $pdata$calloc              0000000140061600     LIBCMT:calloc.obj
 0004:0000360c       $pdata$??_M@YAXPEAX_KHP6AX0@Z@Z 000000014006160c     LIBCMT:ehvecdtr.obj
 0004:00003618       $pdata$?__ArrayUnwind@@YAXPEAX_KHP6AX0@Z@Z 0000000140061618     LIBCMT:ehvecdtr.obj
 0004:00003624       $pdata$??_L@YAXPEAX_KHP6AX0@Z2@Z 0000000140061624     LIBCMT:ehvecctr.obj
 0004:00003630       $pdata$__crtCorExitProcess 0000000140061630     LIBCMT:crt0dat.obj
 0004:0000363c       $pdata$__crtExitProcess    000000014006163c     LIBCMT:crt0dat.obj
 0004:00003648       $pdata$_amsg_exit          0000000140061648     LIBCMT:crt0dat.obj
 0004:00003654       $pdata$_cinit              0000000140061654     LIBCMT:crt0dat.obj
 0004:00003660       $pdata$_init_pointers      0000000140061660     LIBCMT:crt0dat.obj
 0004:0000366c       $pdata$_initterm           000000014006166c     LIBCMT:crt0dat.obj
 0004:00003678       $pdata$_initterm_e         0000000140061678     LIBCMT:crt0dat.obj
 0004:00003684       $pdata$doexit              0000000140061684     LIBCMT:crt0dat.obj
 0004:00003690       $pdata$realloc             0000000140061690     LIBCMT:realloc.obj
 0004:0000369c       $pdata$_make__time64_t     000000014006169c     LIBCMT:mktime64.obj
 0004:000036a8       $pdata$_wcsdup             00000001400616a8     LIBCMT:wcsdup.obj
 0004:000036b4       $pdata$_recalloc           00000001400616b4     LIBCMT:recalloc.obj
 0004:000036cc       $pdata$?__CxxUnhandledExceptionFilter@@YAJPEAU_EXCEPTION_POINTERS@@@Z 00000001400616cc     LIBCMT:unhandld.obj
 0004:000036d8       $pdata$__CxxSetUnhandledExceptionFilter 00000001400616d8     LIBCMT:unhandld.obj
 0004:000036e4       $pdata$_XcptFilter         00000001400616e4     LIBCMT:winxfltr.obj
 0004:000036f0       $pdata$_freefls            00000001400616f0     LIBCMT:tidtable.obj
 0004:000036fc       $pdata$_getptd             00000001400616fc     LIBCMT:tidtable.obj
 0004:00003708       $pdata$_getptd_noexit      0000000140061708     LIBCMT:tidtable.obj
 0004:00003714       $pdata$_initptd            0000000140061714     LIBCMT:tidtable.obj
 0004:00003720       $pdata$_mtinit             0000000140061720     LIBCMT:tidtable.obj
 0004:0000372c       $pdata$_mtterm             000000014006172c     LIBCMT:tidtable.obj
 0004:00003738       $pdata$_heap_init          0000000140061738     LIBCMT:heapinit.obj
 0004:00003744       $pdata$_ioinit             0000000140061744     LIBCMT:ioinit.obj
 0004:00003750       $pdata$_wsetargv           0000000140061750     LIBCMT:wstdargv.obj
 0004:0000375c       $pdata$wparse_cmdline      000000014006175c     LIBCMT:wstdargv.obj
 0004:00003768       $pdata$_wsetenvp           0000000140061768     LIBCMT:wstdenvp.obj
 0004:00003774       $pdata$_FF_MSGBANNER       0000000140061774     LIBCMT:crt0msg.obj
 0004:00003780       $pdata$_NMSG_WRITE         0000000140061780     LIBCMT:crt0msg.obj
 0004:0000378c       $pdata$_set_error_mode     000000014006178c     LIBCMT:errmode.obj
 0004:00003798       $pdata$__security_init_cookie 0000000140061798     LIBCMT:gs_support.obj
 0004:000037a4       $pdata$_RTC_Initialize     00000001400617a4     LIBCMT:initsect.obj
 0004:000037b0       $pdata$_RTC_Terminate      00000001400617b0     LIBCMT:initsect.obj
 0004:000037bc       $pdata$__crtGetEnvironmentStringsW 00000001400617bc     LIBCMT:w_env.obj
 0004:000037c8       $pdata$__crtCaptureCurrentContext 00000001400617c8     LIBCMT:winapisupp.obj
 0004:000037d4       $pdata$__crtCapturePreviousContext 00000001400617d4     LIBCMT:winapisupp.obj
 0004:000037e0       $pdata$__crtGetShowWindowMode 00000001400617e0     LIBCMT:winapisupp.obj
 0004:000037ec       $pdata$__crtInitializeCriticalSectionEx 00000001400617ec     LIBCMT:winapisupp.obj
 0004:000037f8       $pdata$__crtIsPackagedApp  00000001400617f8     LIBCMT:winapisupp.obj
 0004:00003804       $pdata$__crtLoadWinApiPointers 0000000140061804     LIBCMT:winapisupp.obj
 0004:00003810       $pdata$__crtTerminateProcess 0000000140061810     LIBCMT:winapisupp.obj
 0004:0000381c       $pdata$__crtUnhandledException 000000014006181c     LIBCMT:winapisupp.obj
 0004:00003828       $pdata$__C_specific_handler 0000000140061828     LIBCMT:chandler.obj
 0004:00003840       $pdata$?_Type_info_dtor@type_info@@CAXPEAV1@@Z 0000000140061840     LIBCMT:typname.obj
 0004:0000384c       $pdata$??0exception@std@@QEAA@AEBQEBD@Z 000000014006184c     LIBCMT:stdexcpt.obj
 0004:00003858       $pdata$??0exception@std@@QEAA@AEBV01@@Z 0000000140061858     LIBCMT:stdexcpt.obj
 0004:00003864       $pdata$??4exception@std@@QEAAAEAV01@AEBV01@@Z 0000000140061864     LIBCMT:stdexcpt.obj
 0004:00003870       $pdata$??_Gexception@std@@UEAAPEAXI@Z 0000000140061870     LIBCMT:stdexcpt.obj
 0004:0000387c       $pdata$?_Copy_str@exception@std@@AEAAXPEBD@Z 000000014006187c     LIBCMT:stdexcpt.obj
 0004:00003888       $pdata$?_Tidy@exception@std@@AEAAXXZ 0000000140061888     LIBCMT:stdexcpt.obj
 0004:00003894       $pdata$_callnewh           0000000140061894     LIBCMT:handler.obj
 0004:000038a0       $pdata$_CxxThrowException  00000001400618a0     LIBCMT:throw.obj
 0004:000038ac       $pdata$_call_reportfault   00000001400618ac     LIBCMT:invarg.obj
 0004:000038b8       $pdata$_invalid_parameter  00000001400618b8     LIBCMT:invarg.obj
 0004:000038c4       $pdata$_invalid_parameter_noinfo 00000001400618c4     LIBCMT:invarg.obj
 0004:000038d0       $pdata$_invoke_watson      00000001400618d0     LIBCMT:invarg.obj
 0004:000038dc       $pdata$__doserrno          00000001400618dc     LIBCMT:dosmap.obj
 0004:000038e8       $pdata$_dosmaperr          00000001400618e8     LIBCMT:dosmap.obj
 0004:000038f4       $pdata$_errno              00000001400618f4     LIBCMT:dosmap.obj
 0004:00003900       $pdata$_msize              0000000140061900     LIBCMT:msize.obj
 0004:0000390c       $pdata$_calloc_crt         000000014006190c     LIBCMT:crtheap.obj
 0004:00003918       $pdata$_malloc_crt         0000000140061918     LIBCMT:crtheap.obj
 0004:00003924       $pdata$_realloc_crt        0000000140061924     LIBCMT:crtheap.obj
 0004:00003930       $pdata$_recalloc_crt       0000000140061930     LIBCMT:crtheap.obj
 0004:0000393c       $pdata$__isa_available_init 000000014006193c     LIBCMT:cpu_disp.obj
 0004:00003948       $pdata$abort               0000000140061948     LIBCMT:abort.obj
 0004:00003954       $pdata$_calloc_impl        0000000140061954     LIBCMT:calloc_impl.obj
 0004:00003960       $pdata$?_inconsistency@@YAXXZ 0000000140061960     LIBCMT:hooks.obj
 0004:0000396c       $pdata$?terminate@@YAXXZ   000000014006196c     LIBCMT:hooks.obj
 0004:00003978       $pdata$_initp_eh_hooks     0000000140061978     LIBCMT:hooks.obj
 0004:00003984       $pdata$_lock               0000000140061984     LIBCMT:mlock.obj
 0004:00003990       $pdata$_mtdeletelocks      0000000140061990     LIBCMT:mlock.obj
 0004:0000399c       $pdata$_mtinitlocknum      000000014006199c     LIBCMT:mlock.obj
 0004:000039a8       $pdata$_mtinitlocks        00000001400619a8     LIBCMT:mlock.obj
 0004:000039b4       $pdata$_IsNonwritableInCurrentImage 00000001400619b4     LIBCMT:pesect.obj
 0004:000039c0       $pdata$_initp_misc_cfltcvt_tab 00000001400619c0     LIBCMT:cmiscdat.obj
 0004:000039cc       $pdata$raise               00000001400619cc     LIBCMT:winsig.obj
 0004:000039d8       $pdata$__initmbctable      00000001400619d8     LIBCMT:mbctype.obj
 0004:000039e4       $pdata$??0_LocaleUpdate@@QEAA@PEAUlocaleinfo_struct@@@Z 00000001400619e4     LIBCMT:mbctype.obj
 0004:000039f0       $pdata$?getSystemCP@@YAHH@Z 00000001400619f0     LIBCMT:mbctype.obj
 0004:000039fc       $pdata$?setSBCS@@YAXPEAUthreadmbcinfostruct@@@Z 00000001400619fc     LIBCMT:mbctype.obj
 0004:00003a08       $pdata$?setSBUpLow@@YAXPEAUthreadmbcinfostruct@@@Z 0000000140061a08     LIBCMT:mbctype.obj
 0004:00003a14       $pdata$__updatetmbcinfo    0000000140061a14     LIBCMT:mbctype.obj
 0004:00003a20       $pdata$_setmbcp            0000000140061a20     LIBCMT:mbctype.obj
 0004:00003a2c       $pdata$_setmbcp_nolock     0000000140061a2c     LIBCMT:mbctype.obj
 0004:00003a38       $pdata$_get_daylight       0000000140061a38     LIBCMT:timeset.obj
 0004:00003a44       $pdata$_get_dstbias        0000000140061a44     LIBCMT:timeset.obj
 0004:00003a50       $pdata$_get_timezone       0000000140061a50     LIBCMT:timeset.obj
 0004:00003a5c       $pdata$_gmtime64_s         0000000140061a5c     LIBCMT:gmtime64.obj
 0004:00003a68       $pdata$_localtime64_s      0000000140061a68     LIBCMT:loctim64.obj
 0004:00003a74       $pdata$__tzset             0000000140061a74     LIBCMT:tzset.obj
 0004:00003a80       $pdata$_isindst            0000000140061a80     LIBCMT:tzset.obj
 0004:00003a8c       $pdata$_isindst_nolock     0000000140061a8c     LIBCMT:tzset.obj
 0004:00003a98       $pdata$_tzset_nolock       0000000140061a98     LIBCMT:tzset.obj
 0004:00003aa4       $pdata$cvtdate             0000000140061aa4     LIBCMT:tzset.obj
 0004:00003ab0       $pdata$__GSHandlerCheck    0000000140061ab0     LIBCMT:gshandler.obj
 0004:00003abc       $pdata$__GSHandlerCheckCommon 0000000140061abc     LIBCMT:gshandler.obj
 0004:00003ad4       $pdata$wcscpy_s            0000000140061ad4     LIBCMT:wcscpy_s.obj
 0004:00003ae0       $pdata$__freetlocinfo      0000000140061ae0     LIBCMT:localref.obj
 0004:00003aec       $pdata$__updatetlocinfo    0000000140061aec     LIBCMT:localref.obj
 0004:00003af8       $pdata$_updatetlocinfoEx_nolock 0000000140061af8     LIBCMT:localref.obj
 0004:00003b34       $pdata$__initstdio         0000000140061b34     LIBCMT:_file.obj
 0004:00003b40       $pdata$__endstdio          0000000140061b40     LIBCMT:_file.obj
 0004:00003b4c       $pdata$_lock_file          0000000140061b4c     LIBCMT:_file.obj
 0004:00003b58       $pdata$_lock_file2         0000000140061b58     LIBCMT:_file.obj
 0004:00003b70       $pdata$wcscat_s            0000000140061b70     LIBCMT:wcscat_s.obj
 0004:00003b7c       $pdata$wcsncpy_s           0000000140061b7c     LIBCMT:wcsncpy_s.obj
 0004:00003b88       $pdata$__crtMessageBoxW    0000000140061b88     LIBCMT:crtmboxw.obj
 0004:00003b94       $pdata$strcpy_s            0000000140061b94     LIBCMT:strcpy_s.obj
 0004:00003ba0       $pdata$strncpy_s           0000000140061ba0     LIBCMT:strncpy_s.obj
 0004:00003bac       $pdata$GetTableIndexFromLocaleName 0000000140061bac     LIBCMT:winapinls.obj
 0004:00003bb8       $pdata$__crtCompareStringEx 0000000140061bb8     LIBCMT:winapinls.obj
 0004:00003bc4       $pdata$__crtDownlevelLocaleNameToLCID 0000000140061bc4     LIBCMT:winapinls.obj
 0004:00003bd0       $pdata$__crtLCMapStringEx  0000000140061bd0     LIBCMT:winapinls.obj
 0004:00003bdc       $pdata$?__crtLCMapStringA_stat@@YAHPEAUlocaleinfo_struct@@PEB_WKPEBDHPEADHHH@Z 0000000140061bdc     LIBCMT:a_map.obj
 0004:00003be8       $pdata$__crtLCMapStringA   0000000140061be8     LIBCMT:a_map.obj
 0004:00003bf4       $pdata$?__crtGetStringTypeA_stat@@YAHPEAUlocaleinfo_struct@@KPEBDHPEAGHH@Z 0000000140061bf4     LIBCMT:a_str.obj
 0004:00003c00       $pdata$__crtGetStringTypeA 0000000140061c00     LIBCMT:a_str.obj
 0004:00003c0c       $pdata$_fileno             0000000140061c0c     LIBCMT:fileno.obj
 0004:00003c18       $pdata$_isatty             0000000140061c18     LIBCMT:isatty.obj
 0004:00003c24       $pdata$_fflush_nolock      0000000140061c24     LIBCMT:fflush.obj
 0004:00003c30       $pdata$_flush              0000000140061c30     LIBCMT:fflush.obj
 0004:00003c3c       $pdata$flsall              0000000140061c3c     LIBCMT:fflush.obj
 0004:00003c48       $pdata$_getenv_helper_nolock 0000000140061c48     LIBCMT:getenv.obj
 0004:00003c54       $pdata$___lc_codepage_func 0000000140061c54     LIBCMT:initctyp.obj
 0004:00003c60       $pdata$__raise_securityfailure 0000000140061c60     LIBCMT:gs_report.obj
 0004:00003c6c       $pdata$__report_gsfailure  0000000140061c6c     LIBCMT:gs_report.obj
 0004:00003c78       $pdata$__free_lconv_mon    0000000140061c78     LIBCMT:initmon.obj
 0004:00003c84       $pdata$__free_lconv_num    0000000140061c84     LIBCMT:initnum.obj
 0004:00003c90       $pdata$__free_lc_time      0000000140061c90     LIBCMT:inittime.obj
 0004:00003c9c       $pdata$_fcloseall          0000000140061c9c     LIBCMT:closeall.obj
 0004:00003cb4       $pdata$_commit             0000000140061cb4     LIBCMT:commit.obj
 0004:00003cc0       $pdata$_write              0000000140061cc0     LIBCMT:write.obj
 0004:00003ccc       $pdata$_write_nolock       0000000140061ccc     LIBCMT:write.obj
 0004:00003cd8       $pdata$?strtoxl@@YAKPEAUlocaleinfo_struct@@PEBDPEAPEBDHH@Z 0000000140061cd8     LIBCMT:strtol.obj
 0004:00003ce4       $pdata$strtol              0000000140061ce4     LIBCMT:strtol.obj
 0004:00003cf0       $pdata$__wtomb_environ     0000000140061cf0     LIBCMT:wtombenv.obj
 0004:00003cfc       $pdata$_mbsnbicoll_l       0000000140061cfc     LIBCMT:mbsnbico.obj
 0004:00003d08       $pdata$_locterm            0000000140061d08     LIBCMT:wsetloca.obj
 0004:00003d14       $pdata$_fclose_nolock      0000000140061d14     LIBCMT:fclose.obj
 0004:00003d20       $pdata$fclose              0000000140061d20     LIBCMT:fclose.obj
 0004:00003d2c       $pdata$__lock_fhandle      0000000140061d2c     LIBCMT:osfinfo.obj
 0004:00003d38       $pdata$_free_osfhnd        0000000140061d38     LIBCMT:osfinfo.obj
 0004:00003d44       $pdata$_get_osfhandle      0000000140061d44     LIBCMT:osfinfo.obj
 0004:00003d50       $pdata$_isleadbyte_l       0000000140061d50     LIBCMT:_wctype.obj
 0004:00003d5c       $pdata$isleadbyte          0000000140061d5c     LIBCMT:_wctype.obj
 0004:00003d68       $pdata$_lseeki64_nolock    0000000140061d68     LIBCMT:lseeki64.obj
 0004:00003d74       $pdata$_mbtowc_l           0000000140061d74     LIBCMT:mbtowc.obj
 0004:00003d80       $pdata$_putwch_nolock      0000000140061d80     LIBCMT:putwch.obj
 0004:00003d8c       $pdata$_isctype_l          0000000140061d8c     LIBCMT:isctype.obj
 0004:00003d98       $pdata$__crt_atoflt_l      0000000140061d98     LIBCMT:atodbl.obj
 0004:00003da4       $pdata$_atodbl_l           0000000140061da4     LIBCMT:atodbl.obj
 0004:00003db0       $pdata$__crtsetenv         0000000140061db0     LIBCMT:setenv.obj
 0004:00003dbc       $pdata$_strnicoll_l        0000000140061dbc     LIBCMT:strnicol.obj
 0004:00003dc8       $pdata$?__crtCompareStringA_stat@@YAHPEAUlocaleinfo_struct@@PEB_WKPEBDH2HH@Z 0000000140061dc8     LIBCMT:a_cmp.obj
 0004:00003dd4       $pdata$__crtCompareStringA 0000000140061dd4     LIBCMT:a_cmp.obj
 0004:00003dec       $pdata$_close              0000000140061dec     LIBCMT:close.obj
 0004:00003df8       $pdata$_close_nolock       0000000140061df8     LIBCMT:close.obj
 0004:00003e04       $pdata$_freebuf            0000000140061e04     LIBCMT:_freebuf.obj
 0004:00003e10       $pdata$__termconout        0000000140061e10     LIBCMT:initcon.obj
 0004:00003e1c       $pdata$__initconout        0000000140061e1c     LIBCMT:initcon.obj
 0004:00003e28       $pdata$_ld12tod            0000000140061e28     LIBCMT:intrncvt.obj
 0004:00003e34       $pdata$_ld12tof            0000000140061e34     LIBCMT:intrncvt.obj
 0004:00003e40       $pdata$__strgtold12_l      0000000140061e40     LIBCMT:strgtold.obj
 0004:00003e4c       $pdata$_cfltcvt            0000000140061e4c     LIBCMT:cvt.obj
 0004:00003e58       $pdata$_cfltcvt_l          0000000140061e58     LIBCMT:cvt.obj
 0004:00003e64       $pdata$_cftoa_l            0000000140061e64     LIBCMT:cvt.obj
 0004:00003e70       $pdata$_cftoe2_l           0000000140061e70     LIBCMT:cvt.obj
 0004:00003e7c       $pdata$_cftoe_l            0000000140061e7c     LIBCMT:cvt.obj
 0004:00003e88       $pdata$_cftof2_l           0000000140061e88     LIBCMT:cvt.obj
 0004:00003e94       $pdata$_cftof_l            0000000140061e94     LIBCMT:cvt.obj
 0004:00003ea0       $pdata$_cftog_l            0000000140061ea0     LIBCMT:cvt.obj
 0004:00003eac       $pdata$_cropzeros_l        0000000140061eac     LIBCMT:cvt.obj
 0004:00003eb8       $pdata$_fassign_l          0000000140061eb8     LIBCMT:cvt.obj
 0004:00003ec4       $pdata$_forcdecpt_l        0000000140061ec4     LIBCMT:cvt.obj
 0004:00003ed0       $pdata$_strdup             0000000140061ed0     LIBCMT:strdup.obj
 0004:00003edc       $pdata$_mbschr_l           0000000140061edc     LIBCMT:mbschr.obj
 0004:00003ee8       $pdata$_strnicmp_l         0000000140061ee8     LIBCMT:strnicmp.obj
 0004:00003ef4       $pdata$__mtold12           0000000140061ef4     LIBCMT:mantold.obj
 0004:00003f00       $pdata$isdigit             0000000140061f00     LIBCMT:_ctype.obj
 0004:00003f0c       $pdata$_tolower_l          0000000140061f0c     LIBCMT:tolower.obj
 0004:00003f18       $pdata$strrchr             0000000140061f18     LIBCMT:strrchr.obj
 0004:00003f24       $pdata$_fptostr            0000000140061f24     LIBCMT:_fptostr.obj
 0004:00003f30       $pdata$__dtold             0000000140061f30     LIBCMT:cfout.obj
 0004:00003f3c       $pdata$_fltout2            0000000140061f3c     LIBCMT:cfout.obj
 0004:00003f48       $pdata$strchr              0000000140061f48     LIBCMT:strchr.obj
 0004:00003f54       $pdata$$I10_OUTPUT         0000000140061f54     LIBCMT:x10fout.obj
 0004:00003f60       $pdata$?_GetEstablisherFrame@@YAPEA_KPEA_KPEAU_xDISPATCHER_CONTEXT@@PEBU_s_FuncInfo@@0@Z 0000000140061f60     LIBCMT:trnsctrl.obj
 0004:00003f6c       $pdata$?_GetRangeOfTrysToCheck@@YAPEBU_s_TryBlockMapEntry@@PEA_KPEBU_s_FuncInfo@@HHPEAI2PEAU_xDISPATCHER_CONTEXT@@@Z 0000000140061f6c     LIBCMT:trnsctrl.obj
 0004:00003f78       $pdata$?__FrameUnwindToEmptyState@@YAXPEA_KPEAU_xDISPATCHER_CONTEXT@@PEBU_s_FuncInfo@@@Z 0000000140061f78     LIBCMT:trnsctrl.obj
 0004:00003f84       $pdata$?__SehTransFilter@@YAHPEAU_EXCEPTION_POINTERS@@PEAUEHExceptionRecord@@PEA_KPEAU_CONTEXT@@PEAU_xDISPATCHER_CONTEXT@@PEBU_s_FuncInfo@@PEAH@Z 0000000140061f84     LIBCMT:trnsctrl.obj
 0004:00003f90       $pdata$_CallSETranslator   0000000140061f90     LIBCMT:trnsctrl.obj
 0004:00003f9c       $pdata$_CreateFrameInfo    0000000140061f9c     LIBCMT:trnsctrl.obj
 0004:00003fa8       $pdata$_FindAndUnlinkFrame 0000000140061fa8     LIBCMT:trnsctrl.obj
 0004:00003fb4       $pdata$_GetImageBase       0000000140061fb4     LIBCMT:trnsctrl.obj
 0004:00003fc0       $pdata$_GetThrowImageBase  0000000140061fc0     LIBCMT:trnsctrl.obj
 0004:00003fcc       $pdata$_IsExceptionObjectToBeDestroyed 0000000140061fcc     LIBCMT:trnsctrl.obj
 0004:00003fd8       $pdata$_SetImageBase       0000000140061fd8     LIBCMT:trnsctrl.obj
 0004:00003fe4       $pdata$_SetThrowImageBase  0000000140061fe4     LIBCMT:trnsctrl.obj
 0004:00003ff0       $pdata$_UnwindNestedFrames 0000000140061ff0     LIBCMT:trnsctrl.obj
 0004:00003ffc       $pdata$__CxxFrameHandler3  0000000140061ffc     LIBCMT:trnsctrl.obj
 0004:00004008       $pdata$__DestructExceptionObject 0000000140062008     LIBCMT:frame.obj
 0004:00004014       $pdata$??0bad_exception@std@@QEAA@AEBV01@@Z 0000000140062014     LIBCMT:frame.obj
 0004:00004020       $pdata$??_Gbad_exception@std@@UEAAPEAXI@Z 0000000140062020     LIBCMT:frame.obj
 0004:0000402c       $pdata$?CatchIt@@YAXPEAUEHExceptionRecord@@PEA_KPEAU_CONTEXT@@PEAU_xDISPATCHER_CONTEXT@@PEBU_s_FuncInfo@@PEBU_s_HandlerType@@PEBU_s_CatchableType@@PEBU_s_TryBlockMapEntry@@H1EE@Z 000000014006202c     LIBCMT:frame.obj
 0004:00004038       $pdata$?FindHandler@@YAXPEAUEHExceptionRecord@@PEA_KPEAU_CONTEXT@@PEAU_xDISPATCHER_CONTEXT@@PEBU_s_FuncInfo@@EH1@Z 0000000140062038     LIBCMT:frame.obj
 0004:00004044       $pdata$?FindHandlerForForeignException@@YAXPEAUEHExceptionRecord@@PEA_KPEAU_CONTEXT@@PEAU_xDISPATCHER_CONTEXT@@PEBU_s_FuncInfo@@HH1@Z 0000000140062044     LIBCMT:frame.obj
 0004:00004050       $pdata$?IsInExceptionSpec@@YAEPEAUEHExceptionRecord@@PEBU_s_ESTypeList@@@Z 0000000140062050     LIBCMT:frame.obj
 0004:0000405c       $pdata$__BuildCatchObject  000000014006205c     LIBCMT:frame.obj
 0004:00004068       $pdata$__BuildCatchObjectHelper 0000000140062068     LIBCMT:frame.obj
 0004:00004074       $pdata$__CxxCallCatchBlock 0000000140062074     LIBCMT:frame.obj
 0004:00004080       $pdata$__FrameUnwindFilter 0000000140062080     LIBCMT:frame.obj
 0004:0000408c       $pdata$__FrameUnwindToState 000000014006208c     LIBCMT:frame.obj
 0004:00004098       $pdata$__InternalCxxFrameHandler 0000000140062098     LIBCMT:frame.obj
 0004:000040a4       $pdata$__TypeMatch         00000001400620a4     LIBCMT:frame.obj
 0004:000040b0       $pdata$?__GetCurrentState@@YAHPEA_KPEAU_xDISPATCHER_CONTEXT@@PEBU_s_FuncInfo@@@Z 00000001400620b0     LIBCMT:ehstate.obj
 0004:000040bc       $pdata$?__GetUnwindTryBlock@@YAHPEA_KPEAU_xDISPATCHER_CONTEXT@@PEBU_s_FuncInfo@@@Z 00000001400620bc     LIBCMT:ehstate.obj
 0004:000040c8       $pdata$?__SetUnwindTryBlock@@YAXPEA_KPEAU_xDISPATCHER_CONTEXT@@PEBU_s_FuncInfo@@H@Z 00000001400620c8     LIBCMT:ehstate.obj
 0004:000040d4       $pdata$?__StateFromIp@@YAHPEBU_s_FuncInfo@@PEAU_xDISPATCHER_CONTEXT@@_J@Z 00000001400620d4     LIBCMT:ehstate.obj
 0004:000040ec       $pdata$?catch$0@?0??AllocBuffer@CString@WTL@@IEAAHH@Z@4HA 00000001400620ec     Colorpge.obj
 0004:000040f8       $pdata$?dtor$0@?0???HWTL@@YA?AVCString@0@AEBV10@PEB_W@Z@4HA 00000001400620f8     Propdlg.obj
 0004:000040f8       $pdata$?dtor$0@?0???HWTL@@YA?AVCString@0@AEBV10@0@Z@4HA 00000001400620f8     Propdlg.obj
 0004:00004104       $pdata$?dtor$1@?0??UpdatePrinterSelection@CWinApp@@QEAAXH@Z@4HA 0000000140062104     Propdlg.obj
 0004:00004110       $pdata$?dtor$2@?0??UpdatePrinterSelection@CWinApp@@QEAAXH@Z@4HA 0000000140062110     Propdlg.obj
 0004:0000411c       $pdata$?dtor$0@?0??Mid@CString@WTL@@QEBA?AV12@HH@Z@4HA 000000014006211c     Propdlg.obj
 0004:00004128       $pdata$?catch$0@?0??OnOpenDocument@CDocument@@UEAAHPEB_W@Z@4HA 0000000140062128     Shapedoc.obj
 0004:00004134       $pdata$?catch$0@?0??ReadObject@CArchive@@QEAAPEAVCObject@@PEBUCRuntimeClass@@@Z@4HA 0000000140062134     Shapedoc.obj
 0004:00004140       $pdata$?catch$0@?0??EnsureSchemaMapExists@CArchive@@QEAAXPEAPEAV?$CArray@W4LoadArrayObjType@CArchive@@AEBW412@@@@Z@4HA 0000000140062140     Shapedoc.obj
 0004:0000414c       $pdata$?catch$0@?0??OnFilePrintPreview@CView@@QEAAXXZ@4HA 000000014006214c     Shapesvw.obj
 0004:00004158       $pdata$__tmainCRTStartup$filt$0 0000000140062158     LIBCMT:wwincrt0.obj
 0004:00004164       $pdata$_onexit$fin$0       0000000140062164     LIBCMT:onexit.obj
 0004:00004170       $pdata$?fin$0@?0???_M@YAXPEAX_KHP6AX0@Z@Z@4HA 0000000140062170     LIBCMT:ehvecdtr.obj
 0004:0000417c       $pdata$?filt$0@?0??__ArrayUnwind@@YAXPEAX_KHP6AX0@Z@Z@4HA 000000014006217c     LIBCMT:ehvecdtr.obj
 0004:00004188       $pdata$?fin$0@?0???_L@YAXPEAX_KHP6AX0@Z2@Z@4HA 0000000140062188     LIBCMT:ehvecctr.obj
 0004:00004194       $pdata$doexit$fin$0        0000000140062194     LIBCMT:crt0dat.obj
 0004:000041a0       $pdata$_initptd$fin$1      00000001400621a0     LIBCMT:tidtable.obj
 0004:000041a0       $pdata$_freefls$fin$1      00000001400621a0     LIBCMT:tidtable.obj
 0004:000041ac       $pdata$_initptd$fin$0      00000001400621ac     LIBCMT:tidtable.obj
 0004:000041ac       $pdata$_freefls$fin$0      00000001400621ac     LIBCMT:tidtable.obj
 0004:000041b8       $pdata$_ioinit$fin$0       00000001400621b8     LIBCMT:ioinit.obj
 0004:000041c4       $pdata$?fin$0@?0??_Type_info_dtor@type_info@@CAXPEAV1@@Z@4HA 00000001400621c4     LIBCMT:typname.obj
 0004:000041d0       $pdata$_mtinitlocknum$fin$0 00000001400621d0     LIBCMT:mlock.obj
 0004:000041dc       $pdata$_IsNonwritableInCurrentImage$filt$0 00000001400621dc     LIBCMT:pesect.obj
 0004:000041e8       $pdata$raise$fin$0         00000001400621e8     LIBCMT:winsig.obj
 0004:000041f4       $pdata$_setmbcp$fin$0      00000001400621f4     LIBCMT:mbctype.obj
 0004:000041f4       $pdata$__updatetmbcinfo$fin$0 00000001400621f4     LIBCMT:mbctype.obj
 0004:00004200       $pdata$_isindst$fin$0      0000000140062200     LIBCMT:tzset.obj
 0004:00004200       $pdata$__tzset$fin$0       0000000140062200     LIBCMT:tzset.obj
 0004:0000420c       $pdata$_tzset_nolock$fin$0 000000014006220c     LIBCMT:tzset.obj
 0004:00004218       $pdata$flsall$fin$0        0000000140062218     LIBCMT:fflush.obj
 0004:00004224       $pdata$flsall$fin$1        0000000140062224     LIBCMT:fflush.obj
 0004:00004230       $pdata$_fcloseall$fin$0    0000000140062230     LIBCMT:closeall.obj
 0004:0000423c       $pdata$_write$fin$0        000000014006223c     LIBCMT:write.obj
 0004:00004248       $pdata$_locterm$fin$0      0000000140062248     LIBCMT:wsetloca.obj
 0004:00004248       $pdata$__updatetlocinfo$fin$0 0000000140062248     LIBCMT:wsetloca.obj
 0004:00004254       $pdata$fclose$fin$0        0000000140062254     LIBCMT:fclose.obj
 0004:00004260       $pdata$__lock_fhandle$fin$0 0000000140062260     LIBCMT:osfinfo.obj
 0004:0000426c       $pdata$_close$fin$0        000000014006226c     LIBCMT:close.obj
 0004:0000426c       $pdata$_commit$fin$0       000000014006226c     LIBCMT:close.obj
 0004:00004278       $pdata$_CallSETranslator$filt$0 0000000140062278     LIBCMT:trnsctrl.obj
 0004:00004284       $pdata$__CxxCallCatchBlock$filt$0 0000000140062284     LIBCMT:frame.obj
 0004:00004290       $pdata$__CxxCallCatchBlock$fin$1 0000000140062290     LIBCMT:frame.obj
 0004:0000429c       $pdata$__DestructExceptionObject$filt$0 000000014006229c     LIBCMT:frame.obj
 0004:000042a8       $pdata$__FrameUnwindToState$filt$0 00000001400622a8     LIBCMT:frame.obj
 0004:000042b4       $pdata$__FrameUnwindToState$fin$1 00000001400622b4     LIBCMT:frame.obj
 0004:000042c0       $pdata$??__F_AtlWinModule@ATL@@YAXXZ 00000001400622c0     Colorpge.obj
 0004:000042cc       $pdata$??__F?wndTop@CWMHnd@@2V1@B@@YAXXZ 00000001400622cc     Stdafx.obj
 0004:000042d8       $pdata$??__F?wndBottom@CWMHnd@@2V1@B@@YAXXZ 00000001400622d8     Stdafx.obj
 0004:000042e4       $pdata$??__F?wndTopMost@CWMHnd@@2V1@B@@YAXXZ 00000001400622e4     Stdafx.obj
 0004:000042f0       $pdata$??__F?wndNoTopMost@CWMHnd@@2V1@B@@YAXXZ 00000001400622f0     Stdafx.obj
 0005:000016b0       $R000000                   00000001400646b0     Propdlg.res
 0005:00001998       $R0002E8                   0000000140064998     Propdlg.res
 0005:00001ac0       $R000410                   0000000140064ac0     Propdlg.res
 0005:00001ae8       $R000438                   0000000140064ae8     Propdlg.res
 0005:00001dd0       $R000720                   0000000140064dd0     Propdlg.res
 0005:00001de8       $R000738                   0000000140064de8     Propdlg.res
 0005:00002288       $R000BD8                   0000000140065288     Propdlg.res
 0005:000023c8       $R000D18                   00000001400653c8     Propdlg.res
 0005:00002768       $R0010B8                   0000000140065768     Propdlg.res
 0005:000027d8       $R001128                   00000001400657d8     Propdlg.res
 0005:00002910       $R001260                   0000000140065910     Propdlg.res
 0005:000029e8       $R001338                   00000001400659e8     Propdlg.res
 0005:00002ac0       $R001410                   0000000140065ac0     Propdlg.res
 0005:00002d98       $R0016E8                   0000000140065d98     Propdlg.res
 0005:00002ed0       $R001820                   0000000140065ed0     Propdlg.res
 0005:00002f88       $R0018D8                   0000000140065f88     Propdlg.res
 0005:00002fb0       $R001900                   0000000140065fb0     Propdlg.res
 0005:000030e8       $R001A38                   00000001400660e8     Propdlg.res
 0005:000031a0       $R001AF0                   00000001400661a0     Propdlg.res
 0005:000031c8       $R001B18                   00000001400661c8     Propdlg.res
 0005:00003300       $R001C50                   0000000140066300     Propdlg.res
 0005:000033b8       $R001D08                   00000001400663b8     Propdlg.res
 0005:000033e0       $R001D30                   00000001400663e0     Propdlg.res
 0005:00003518       $R001E68                   0000000140066518     Propdlg.res
 0005:000035d0       $R001F20                   00000001400665d0     Propdlg.res
 0005:000035f8       $R001F48                   00000001400665f8     Propdlg.res
 0005:00003730       $R002080                   0000000140066730     Propdlg.res
 0005:000037e8       $R002138                   00000001400667e8     Propdlg.res
 0005:00003810       $R002160                   0000000140066810     Propdlg.res
 0005:00003a10       $R002360                   0000000140066a10     Propdlg.res
 0005:00003ac8       $R002418                   0000000140066ac8     Propdlg.res
 0005:00003af0       $R002440                   0000000140066af0     Propdlg.res
 0005:00003cf0       $R002640                   0000000140066cf0     Propdlg.res
 0005:00003da8       $R0026F8                   0000000140066da8     Propdlg.res
 0005:00003dd0       $R002720                   0000000140066dd0     Propdlg.res
 0005:00003fd0       $R002920                   0000000140066fd0     Propdlg.res
 0005:00004088       $R0029D8                   0000000140067088     Propdlg.res
 0005:000040b0       $R002A00                   00000001400670b0     Propdlg.res
 0005:000042b0       $R002C00                   00000001400672b0     Propdlg.res
 0005:00004368       $R002CB8                   0000000140067368     Propdlg.res
 0005:00004390       $R002CE0                   0000000140067390     Propdlg.res
 0005:000044c8       $R002E18                   00000001400674c8     Propdlg.res
 0005:00004580       $R002ED0                   0000000140067580     Propdlg.res
 0005:000045a8       $R002EF8                   00000001400675a8     Propdlg.res
 0005:000046e0       $R003030                   00000001400676e0     Propdlg.res
 0005:00004798       $R0030E8                   0000000140067798     Propdlg.res
 0005:000047c0       $R003110                   00000001400677c0     Propdlg.res
 0005:000048f8       $R003248                   00000001400678f8     Propdlg.res
 0005:00004910       $R003260                   0000000140067910     Propdlg.res
 0005:00004a48       $R003398                   0000000140067a48     Propdlg.res
 0005:00004a60       $R0033B0                   0000000140067a60     Propdlg.res
 0005:00004b98       $R0034E8                   0000000140067b98     Propdlg.res
 0005:00004bb0       $R003500                   0000000140067bb0     Propdlg.res
 0005:00004ce8       $R003638                   0000000140067ce8     Propdlg.res
 0005:00004d00       $R003650                   0000000140067d00     Propdlg.res
 0005:00004e38       $R003788                   0000000140067e38     Propdlg.res
 0005:00004e50       $R0037A0                   0000000140067e50     Propdlg.res
 0005:00004f88       $R0038D8                   0000000140067f88     Propdlg.res
 0005:00004fa0       $R0038F0                   0000000140067fa0     Propdlg.res
 0005:000050d8       $R003A28                   00000001400680d8     Propdlg.res
 0005:000050f0       $R003A40                   00000001400680f0     Propdlg.res
 0005:00005228       $R003B78                   0000000140068228     Propdlg.res
 0005:00005240       $R003B90                   0000000140068240     Propdlg.res
 0005:00005378       $R003CC8                   0000000140068378     Propdlg.res
 0005:00005390       $R003CE0                   0000000140068390     Propdlg.res
 0005:000054c8       $R003E18                   00000001400684c8     Propdlg.res
 0005:000054e0       $R003E30                   00000001400684e0     Propdlg.res
 0005:00005618       $R003F68                   0000000140068618     Propdlg.res
 0005:00005630       $R003F80                   0000000140068630     Propdlg.res
 0005:00005768       $R0040B8                   0000000140068768     Propdlg.res
 0005:00005780       $R0040D0                   0000000140068780     Propdlg.res
 0005:000058b8       $R004208                   00000001400688b8     Propdlg.res
 0005:000058d0       $R004220                   00000001400688d0     Propdlg.res
 0005:00005a08       $R004358                   0000000140068a08     Propdlg.res
 0005:00005a20       $R004370                   0000000140068a20     Propdlg.res
 0005:00005b08       $R004458                   0000000140068b08     Propdlg.res
 0005:00005b40       $R004490                   0000000140068b40     Propdlg.res
 0005:00005bf8       $R004548                   0000000140068bf8     Propdlg.res
 0005:00005d40       $R004690                   0000000140068d40     Propdlg.res
 0005:00005e78       $R0047C8                   0000000140068e78     Propdlg.res
 0005:00005f30       $R004880                   0000000140068f30     Propdlg.res
 0005:00005f58       $R0048A8                   0000000140068f58     Propdlg.res
 0005:00006100       $R004A50                   0000000140069100     Propdlg.res
 0005:00006260       $R004BB0                   0000000140069260     Propdlg.res
 0005:00006278       $R004BC8                   0000000140069278     Propdlg.res
 0005:00006380       $R004CD0                   0000000140069380     Propdlg.res
 0005:000063c8       $R004D18                   00000001400693c8     Propdlg.res
 0005:00006410       $R004D60                   0000000140069410     Propdlg.res
 0005:00006618       $R004F68                   0000000140069618     Propdlg.res
 0005:00006668       $R004FB8                   0000000140069668     Propdlg.res
 0005:00006758       $R0050A8                   0000000140069758     Propdlg.res
 0005:00006808       $R005158                   0000000140069808     Propdlg.res
 0005:000068b8       $R005208                   00000001400698b8     Propdlg.res
 0005:00006aa8       $R0053F8                   0000000140069aa8     Propdlg.res
 0005:00006d40       $R005690                   0000000140069d40     Propdlg.res
 0005:00006dc8       $R005718                   0000000140069dc8     Propdlg.res
 0005:00006fc0       $R005910                   0000000140069fc0     Propdlg.res
 0005:00007070       $R0059C0                   000000014006a070     Propdlg.res
 0005:00007278       $R005BC8                   000000014006a278     Propdlg.res
 0005:000072c0       $R005C10                   000000014006a2c0     Propdlg.res
 0005:00007348       $R005C98                   000000014006a348     Propdlg.res
 0005:00007378       $R005CC8                   000000014006a378     Propdlg.res
 0005:00007500       $R005E50                   000000014006a500     Propdlg.res
 0005:000079e8       $R006338                   000000014006a9e8     Propdlg.res
 0005:00007b88       $R0064D8                   000000014006ab88     Propdlg.res
 0005:00007e68       $R0067B8                   000000014006ae68     Propdlg.res
 0005:000080d0       $R006A20                   000000014006b0d0     Propdlg.res
 0005:00008120       $R006A70                   000000014006b120     Propdlg.res
 0005:000085c8       $R006F18                   000000014006b5c8     Propdlg.res
 0005:000087f0       $R007140                   000000014006b7f0     Propdlg.res
 0005:000088d0       $R007220                   000000014006b8d0     Propdlg.res
 0005:00008900       $R007250                   000000014006b900     Propdlg.res
 0005:00008990       $R0072E0                   000000014006b990     Propdlg.res
 0005:00008ed0       $R007820                   000000014006bed0     Propdlg.res
 0005:00008ff8       $R007948                   000000014006bff8     Propdlg.res
