 propdlg

 Timestamp is 595b143c (Tue Jul 04 13:06:20 2017)

 Preferred load address is 00400000

 Start         Length     Name                   Class
 0001:00000000 0003b686H .text                   CODE
 0001:0003b690 00001813H .text$x                 CODE
 0002:00000000 00000544H .idata$5                DATA
 0002:00000548 00001f04H .rdata                  DATA
 0002:00002450 00000044H .rdata$r                DATA
 0002:00002498 00001e08H .xdata$x                DATA
 0002:000042a0 000000b4H .idata$2                DATA
 0002:00004354 00000014H .idata$3                DATA
 0002:00004368 00000544H .idata$4                DATA
 0002:000048ac 0000161eH .idata$6                DATA
 0002:00005eca 00000000H .edata                  DATA
 0003:00000000 00000004H .CRT$XCA                DATA
 0003:00000004 0000001cH .CRT$XCU                DATA
 0003:00000020 00000004H .CRT$XCZ                DATA
 0003:00000024 00000004H .CRT$XIA                DATA
 0003:00000028 00000008H .CRT$XIC                DATA
 0003:00000030 00000004H .CRT$XIY                DATA
 0003:00000034 00000004H .CRT$XIZ                DATA
 0003:00000038 00000004H .CRT$XPA                DATA
 0003:0000003c 00000004H .CRT$XPZ                DATA
 0003:00000040 00000004H .CRT$XTA                DATA
 0003:00000044 00000004H .CRT$XTB                DATA
 0003:00000048 00000004H .CRT$XTZ                DATA
 0003:00000050 000031c0H .data                   DATA
 0003:00003210 00000bacH .bss                    DATA
 0004:00000000 000010f0H .rsrc$01                DATA
 0004:000010f0 00006818H .rsrc$02                DATA

  Address         Publics by Value              Rva+Base     Lib:Object

 0001:00000000       ??0CColorPage@@QAE@XZ      00401000 f   Colorpge.obj
 0001:000001a0       ??_ECColorPage@@UAEPAXI@Z  004011a0 f i Colorpge.obj
 0001:000001a0       ??_GCColorPage@@UAEPAXI@Z  004011a0 f i Colorpge.obj
 0001:000001c0       ??1CColorPage@@UAE@XZ      004011c0 f i Colorpge.obj
 0001:000002d0       ?DoDataExchange@CColorPage@@MAEXPAVCDataExchange@@@Z 004012d0 f   Colorpge.obj
 0001:00000390       ?OnColorClicked@CColorPage@@IAEXI@Z 00401390 f   Colorpge.obj
 0001:00000390       ?OnStyleClicked@CStylePage@@IAEXI@Z 00401390 f   Colorpge.obj
 0001:000004e0       ?_ProcessWindowMessage@CColorPage@@UAEHPAUHWND__@@IIJAAJ@Z 004014e0 f i Colorpge.obj
 0001:00000540       ??1CString@WTL@@QAE@XZ     00401540 f i Colorpge.obj
 0001:00000570       ?GetCException@CAfx@@SAAAVCException@@H@Z 00401570 f i Colorpge.obj
 0001:00000680       ?IsDerivedFrom@CRuntimeClass@@QBEHPBU1@@Z 00401680 f i Colorpge.obj
 0001:000006a0       ?GetCurrentMessage@CCmdTarget@@UBEPBUtagMSG@@XZ 004016a0 f i Colorpge.obj
 0001:000006b0       ??0CWMHnd@@QAE@PAUHWND__@@@Z 004016b0 f i Colorpge.obj
 0001:000006d0       ?_ProcessWindowMessage@CPrintDialogMTL@@UAEHPAUHWND__@@IIJAAJ@Z 004016d0 f i Colorpge.obj
 0001:000006d0       ?_ProcessWindowMessage@CCmdTarget@@UAEHPAUHWND__@@IIJAAJ@Z 004016d0 f i Colorpge.obj
 0001:000006e0       ??1CWMHnd@@UAE@XZ          004016e0 f i Colorpge.obj
 0001:000006f0       ?CalcWindowRect@CWMHnd@@UAEXPAUtagRECT@@I@Z 004016f0 f i Colorpge.obj
 0001:00000730       ?SetCheck@CTestCmdUI@@UAEXH@Z 00401730 f i Colorpge.obj
 0001:00000730       ?RegisterShellFileTypes@CDocManager@@UAEXH@Z 00401730 f i Colorpge.obj
 0001:00000730       ?OnFinalMessage@?$CWindowImplBaseT@VCWindow@ATL@@V?$CWinTraits@$0FGAAAAAA@$0A@@2@@ATL@@UAEXPAUHWND__@@@Z 00401730 f i Colorpge.obj
 0001:00000730       ?SetText@CToolCmdUI@@UAEXPBG@Z 00401730 f i Colorpge.obj
 0001:00000730       ?OnDraw@CView@@UAEXPAVCDCMTL@@@Z 00401730 f i Colorpge.obj
 0001:00000730       ?OnDocumentEvent@CDocument@@UAEXW4DocumentEvent@1@@Z 00401730 f i Colorpge.obj
 0001:00000730       ?SetRadio@CTestCmdUI@@UAEXH@Z 00401730 f i Colorpge.obj
 0001:00000730       ?PreCloseFrame@CDocument@@UAEXPAVCFrameWnd@@@Z 00401730 f i Colorpge.obj
 0001:00000730       ?Serialize@CObject@@UAEXAAVCArchive@@@Z 00401730 f i Colorpge.obj
 0001:00000730       ?DoDataExchange@CWMHnd@@UAEXPAVCDataExchange@@@Z 00401730 f i Colorpge.obj
 0001:00000730       ?SetText@CTestCmdUI@@UAEXPBG@Z 00401730 f i Colorpge.obj
 0001:00000740       ?EnableWindow@CWMHnd@@UAEXH@Z 00401740 f i Colorpge.obj
 0001:00000760       ?GetMenu@CWMHnd@@UBEPAVCMenuMTL@@XZ 00401760 f i Colorpge.obj
 0001:00000790       ?classHandleFuncCMenuMTL@CMenuMTL@@SAPAXPAX0@Z 00401790 f i Colorpge.obj
 0001:000007d0       ??_ECMenuMTL@@UAEPAXI@Z    004017d0 f i Colorpge.obj
 0001:000007d0       ??_GCMenuMTL@@UAEPAXI@Z    004017d0 f i Colorpge.obj
 0001:000007f0       ??1CMenuMTL@@UAE@XZ        004017f0 f i Colorpge.obj
 0001:00000840       ?SetMenu@CWMHnd@@UAEHPAVCMenuMTL@@@Z 00401840 f i Colorpge.obj
 0001:00000870       ?CWndDestruct@CWnd@@QAEXXZ 00401870 f i Colorpge.obj
 0001:000008d0       ?classHandleFuncCWnd@CWnd@@SAPAXPAX0@Z 004018d0 f i Colorpge.obj
 0001:00000930       ?DefWindowProcW@CWnd@@UAEJIIJ@Z 00401930 f i Colorpge.obj
 0001:00000950       ?WindowProc@CWnd@@UAEJIIJ@Z 00401950 f i Colorpge.obj
 0001:000009a0       ?OnWndMsg@CWnd@@UAEHIIJPAJ@Z 004019a0 f i Colorpge.obj
 0001:00000a20       ?OnChildNotify@CWnd@@UAEHIIJPAJ@Z 00401a20 f i Colorpge.obj
 0001:00000c10       ?OnCommand@CWnd@@UAEHIJ@Z  00401c10 f i Colorpge.obj
 0001:00000d40       ?Enable@CTestCmdUI@@UAEXH@Z 00401d40 f i Colorpge.obj
 0001:00000d60       ?OnToolHitTest@CWnd@@UBEJVCPoint@WTL@@PAUtagTOOLINFOW@@@Z 00401d60 f i Colorpge.obj
 0001:00000e90       ?OnNotify@CWnd@@UAEHIJPAJ@Z 00401e90 f i Colorpge.obj
 0001:00000f60       ?Create@CWnd@@UAEHPBG0KABUtagRECT@@PAV1@IPAUCCreateContext@@@Z 00401f60 f i Colorpge.obj
 0001:00000fc0       ?CreateEx@CWnd@@UAEHKPBG0KHHHHPAUHWND__@@PAUHMENU__@@PAX@Z 00401fc0 f i Colorpge.obj
 0001:00001120       ?CbtFilterHook@CWnd@@SGJHIJ@Z 00402120 f i Colorpge.obj
 0001:00001210       ?AfxWindowProc@CWnd@@SGJPAUHWND__@@IIJ@Z 00402210 f i Colorpge.obj
 0001:00001260       ?DestroyWindow@CWnd@@UAEHXZ 00402260 f i Colorpge.obj
 0001:00001270       ?PreCreateWindow@CWnd@@UAEHAAUtagCREATESTRUCTW@@@Z 00402270 f i Colorpge.obj
 0001:000012b0       ?_AfxEndDeferRegisterClass@CAfx@@SAHJ@Z 004022b0 f i Colorpge.obj
 0001:00001590       ?_AfxRegisterClass@CAfx@@SAHPAUtagWNDCLASSW@@@Z 00402590 f i Colorpge.obj
 0001:000017d0       ?memcpy_x@SecureHelper@WTL@@YAXPAXIPBXI@Z 004027d0 f i Colorpge.obj
 0001:00001800       ?AllocBuffer@CString@WTL@@IAEHH@Z 00402800 f i Colorpge.obj
 0001:00001860       ?ContinueModal@CWnd@@UAEHXZ 00402860 f i Colorpge.obj
 0001:00001870       ?EndModalLoop@CWnd@@UAEXH@Z 00402870 f i Colorpge.obj
 0001:000018a0       ??_GCWnd@@UAEPAXI@Z        004028a0 f i Colorpge.obj
 0001:000018a0       ??_ECWnd@@UAEPAXI@Z        004028a0 f i Colorpge.obj
 0001:000018c0       ??1CWnd@@UAE@XZ            004028c0 f i Colorpge.obj
 0001:00001910       ?_ProcessWindowMessage@CWnd@@UAEHPAUHWND__@@IIJAAJ@Z 00402910 f i Colorpge.obj
 0001:00001b70       ??1?$CDCT@$00@WTL@@QAE@XZ  00402b70 f i Colorpge.obj
 0001:00001b90       ?SetAttribDC@CDCMTL@@UAEXPAUHDC__@@@Z 00402b90 f i Colorpge.obj
 0001:00001ba0       ?ReleaseAttribDC@CDCMTL@@UAEXXZ 00402ba0 f i Colorpge.obj
 0001:00001bb0       ?SaveDC@CDCMTL@@UAEHXZ     00402bb0 f i Colorpge.obj
 0001:00001bf0       ?RestoreDC@CDCMTL@@UAEHH@Z 00402bf0 f i Colorpge.obj
 0001:00001c40       ?TextOutW@CDCMTL@@UAEHHHPBGH@Z 00402c40 f i Colorpge.obj
 0001:00001c70       ??_GCDCMTL@@UAEPAXI@Z      00402c70 f i Colorpge.obj
 0001:00001c70       ??_ECDCMTL@@UAEPAXI@Z      00402c70 f i Colorpge.obj
 0001:00001c90       ??1CDCMTL@@UAE@XZ          00402c90 f i Colorpge.obj
 0001:00001c90       ??1?$CHandleWrapper@VCDCMTL@@PAUHDC__@@V?$CDCT@$00@WTL@@@@UAE@XZ 00402c90 f i Colorpge.obj
 0001:00001ce0       ?OnCancel@CCommonDialog@@UAEXXZ 00402ce0 f i Colorpge.obj
 0001:00001ce0       ?OnInitDialog@CWMHnd@@UAEHXZ 00402ce0 f i Colorpge.obj
 0001:00001ce0       ?Default@CWMHnd@@QAEJXZ    00402ce0 f i Colorpge.obj
 0001:00001d00       ?AfxUnsubclassWindow@CWnd@@QAEPAUHWND__@@XZ 00402d00 f i Colorpge.obj
 0001:00001d50       ?OnOK@CDialog@@UAEXXZ      00402d50 f i Colorpge.obj
 0001:00001dc0       ?OnCancel@CDialog@@UAEXXZ  00402dc0 f i Colorpge.obj
 0001:00001df0       ?OnInitDialog@CDialog@@UAEHXZ 00402df0 f i Colorpge.obj
 0001:00001ec0       ?ExecuteDlgInit@CWnd@@QAEHPAX@Z 00402ec0 f i Colorpge.obj
 0001:00001fa0       ?Create@CDialog@@UAEHIPAVCWnd@@@Z 00402fa0 f i Colorpge.obj
 0001:00001fc0       ?Create@CDialog@@UAEHPBGPAVCWnd@@@Z 00402fc0 f i Colorpge.obj
 0001:000020d0       ?CreateIndirect@CDialog@@UAEHPAXPAVCWnd@@PAUHINSTANCE__@@@Z 004030d0 f i Colorpge.obj
 0001:000021a0       ?DoModal@CDialog@@UAEJXZ   004031a0 f i Colorpge.obj
 0001:00002540       ?classHandleFuncCDialog@CDialog@@SAPAXPAX0@Z 00403540 f i Colorpge.obj
 0001:000025a0       ?PreTranslateMessage@CDialog@@UAEHPAUtagMSG@@@Z 004035a0 f i Colorpge.obj
 0001:00002680       ??_ECDialog@@UAEPAXI@Z     00403680 f i Colorpge.obj
 0001:00002680       ??_GCDialog@@UAEPAXI@Z     00403680 f i Colorpge.obj
 0001:000026a0       ??1CDialog@@UAE@XZ         004036a0 f i Colorpge.obj
 0001:000026f0       ??_9@$BHM@AE               004036f0 f i Colorpge.obj
 0001:00002700       ??_9@$BHI@AE               00403700 f i Colorpge.obj
 0001:00002710       ?AfxDlgProc@CWnd@@SGJPAUHWND__@@IIJ@Z 00403710 f i Colorpge.obj
 0001:00002900       ?AfxPropPageCallback@CPropertyPageMTL@@SGIPAUHWND__@@IPAU_PROPSHEETPAGEW@@@Z 00403900 f i Colorpge.obj
 0001:00002970       ?OnApply@CPropertyPageMTL@@UAEHXZ 00403970 f i Colorpge.obj
 0001:00002980       ?OnKillActive@CPropertyPageMTL@@UAEHXZ 00403980 f i Colorpge.obj
 0001:000029d0       ?OnReset@CPropertyPageMTL@@UAEXXZ 004039d0 f i Colorpge.obj
 0001:000029e0       ?OnSetActive@CPropertyPageMTL@@UAEHXZ 004039e0 f i Colorpge.obj
 0001:00002a40       ?OnWizardFinishEx@CPropertyPageMTL@@UAEPAUHWND__@@XZ 00403a40 f i Colorpge.obj
 0001:00002a50       ?GetParentSheet@CPropertyPageMTL@@UAEPAVCPropertySheetMTL@@XZ 00403a50 f i Colorpge.obj
 0001:00002aa0       ?PreTranslateMessage@CWnd@@UAEHPAUtagMSG@@@Z 00403aa0 f i Colorpge.obj
 0001:00002aa0       ?PreTranslateMessage@CPropertyPageMTL@@UAEHPAUtagMSG@@@Z 00403aa0 f i Colorpge.obj
 0001:00002ac0       ??_GCPropertyPageMTL@@UAEPAXI@Z 00403ac0 f i Colorpge.obj
 0001:00002ac0       ??_ECPropertyPageMTL@@UAEPAXI@Z 00403ac0 f i Colorpge.obj
 0001:00002ae0       ??1CPropertyPageMTL@@UAE@XZ 00403ae0 f i Colorpge.obj
 0001:00002bf0       ?_ProcessWindowMessage@CPropertyPageMTL@@UAEHPAUHWND__@@IIJAAJ@Z 00403bf0 f i Colorpge.obj
 0001:00002e30       ?OnNotify@CPropertyPageMTL@@UAEHIJPAJ@Z 00403e30 f i Colorpge.obj
 0001:00003130       ?OnWizardFinish@CPropertyPageMTL@@UAEHXZ 00404130 f i Colorpge.obj
 0001:000031b0       ?FromHandleWnd@CWinApp@@QAEPAVCWMHnd@@PAUHWND__@@PAV2@0P6APAXPAX2@Z@Z 004041b0 f i Colorpge.obj
 0001:00003280       ?RemoveHandleWnd@CWinApp@@QAEPAUHWND__@@PAU2@@Z 00404280 f i Colorpge.obj
 0001:000034f0       ?FromHandleMenu@CWinApp@@QAEPAVCMenuMTL@@PAUHMENU__@@PAV2@PAUHWND__@@P6APAXPAX3@Z@Z 004044f0 f i Colorpge.obj
 0001:00003580       ?RemoveHandleMenu@CWinApp@@QAEPAUHMENU__@@PAU2@@Z 00404580 f i Colorpge.obj
 0001:000035f0       ?RemoveHandleDC@CWinApp@@QAEPAUHDC__@@PAU2@@Z 004045f0 f i Colorpge.obj
 0001:00003660       ?_GetCModuleState@CWinApp@@SAPAVCModuleState@@XZ 00404660 f i Colorpge.obj
 0001:000036a0       ??0CModuleState@@QAE@XZ    004046a0 f i Colorpge.obj
 0001:000036d0       ?cModuleState@?1??_GetCModuleState@CWinApp@@SAPAVCModuleState@@XZ@$AV2@A 004046d0 f i Colorpge.obj
 0001:000036e0       ??1CModuleState@@QAE@XZ    004046e0 f i Colorpge.obj
 0001:00003770       ?FromHandle@CWnd@@SAPAV1@PAUHWND__@@PAV1@0P6APAXPAX2@Z@Z 00404770 f i Colorpge.obj
 0001:00003790       ?RemoveHandle@CDCMTL@@SAPAUHDC__@@PAU2@@Z 00404790 f i Colorpge.obj
 0001:000037b0       ?OnCmdMsg@CDialog@@UAEHIHPAXPAUAFX_CMDHANDLERINFO@@@Z 004047b0 f i Colorpge.obj
 0001:000037b0       ?OnCmdMsg@CPropertySheetMTL@@UAEHIHPAXPAUAFX_CMDHANDLERINFO@@@Z 004047b0 f i Colorpge.obj
 0001:00003950       ?GetRuntimeClass@CMainFrame@@UBEPAUCRuntimeClass@@XZ 00404950 f   Mainfrm.obj
 0001:00003960       ??0CMainFrame@@QAE@XZ      00404960 f   Mainfrm.obj
 0001:00003b30       ?_ProcessWindowMessage@CMainFrame@@UAEHPAUHWND__@@IIJAAJ@Z 00404b30 f i Mainfrm.obj
 0001:00003ef0       ??_ECMainFrame@@UAEPAXI@Z  00404ef0 f i Mainfrm.obj
 0001:00003ef0       ??_GCMainFrame@@UAEPAXI@Z  00404ef0 f i Mainfrm.obj
 0001:00003f10       ??1CMainFrame@@UAE@XZ      00404f10 f   Mainfrm.obj
 0001:00004050       ?OnCreate@CMainFrame@@QAEHPAUtagCREATESTRUCTW@@@Z 00405050 f   Mainfrm.obj
 0001:00004310       ?OnMiniFramePropertySheet@CMainFrame@@QAEXXZ 00405310 f   Mainfrm.obj
 0001:00004590       ?OnUpdateMiniFramePropertySheet@CMainFrame@@QAEXPAVCCmdUI@@@Z 00405590 f   Mainfrm.obj
 0001:000045d0       ?HideModelessPropSheet@CMainFrame@@QAEXXZ 004055d0 f   Mainfrm.obj
 0001:000045f0       ?CenterWindow@CWindow@ATL@@QAEHPAUHWND__@@@Z 004055f0 f i Mainfrm.obj
 0001:00004780       ??4CString@WTL@@QAEAAV01@PBG@Z 00405780 f i Mainfrm.obj
 0001:00004850       ?GetBuffer@CString@WTL@@QAEPAGH@Z 00405850 f i Mainfrm.obj
 0001:00004910       ?ReleaseBuffer@CString@WTL@@QAEXH@Z 00405910 f i Mainfrm.obj
 0001:000049e0       ?_LoadString@CString@WTL@@KGHIPAGI@Z 004059e0 f i Mainfrm.obj
 0001:00004a10       ?_GetAfxData@CAfx@@SAABU_AUX_DATA@@XZ 00405a10 f i Mainfrm.obj
 0001:00004b00       ??0CWnd@@QAE@PAUHWND__@@@Z 00405b00 f i Mainfrm.obj
 0001:00004b40       ??0CControlBar@@QAE@XZ     00405b40 f i Mainfrm.obj
 0001:00004bf0       ?WindowProc@CControlBar@@UAEJIIJ@Z 00405bf0 f i Mainfrm.obj
 0001:00004e70       ?CalcDynamicLayout@CControlBar@@UAE?AVCSize@WTL@@HK@Z 00405e70 f i Mainfrm.obj
 0001:00004ea0       ?CalcFixedLayout@CControlBar@@UAE?AVCSize@WTL@@HH@Z 00405ea0 f i Mainfrm.obj
 0001:00004ee0       ?IsTabbedMDIChild@CMDIChildWnd@@UAEHXZ 00405ee0 f i Mainfrm.obj
 0001:00004ee0       ?OnFileNameOK@CFileDialogMTL@@UAEHXZ 00405ee0 f i Mainfrm.obj
 0001:00004ee0       ?OnWizardNext@CPropertyPageMTL@@UAEJXZ 00405ee0 f i Mainfrm.obj
 0001:00004ee0       ?GetDefaultAccelerator@CDocument@@UAEPAUHACCEL__@@XZ 00405ee0 f i Mainfrm.obj
 0001:00004ee0       ?GetEventSinkMap@CCmdTarget@@UBEPBUAFX_EVENTSINKMAP@@XZ 00405ee0 f i Mainfrm.obj
 0001:00004ee0       ?IsFrameWnd@CWMHnd@@UAEHXZ 00405ee0 f i Mainfrm.obj
 0001:00004ee0       ?OnWizardBack@CPropertyPageMTL@@UAEJXZ 00405ee0 f i Mainfrm.obj
 0001:00004ee0       ?IsDockBar@CControlBar@@UBEHXZ 00405ee0 f i Mainfrm.obj
 0001:00004ef0       ?IsVisible@CControlBar@@UBEHXZ 00405ef0 f i Mainfrm.obj
 0001:00004f20       ?PostNcDestroy@CControlBar@@UAEXXZ 00405f20 f i Mainfrm.obj
 0001:00004f40       ?PreCreateWindow@CControlBar@@UAEHAAUtagCREATESTRUCTW@@@Z 00405f40 f i Mainfrm.obj
 0001:00005000       ??_ECControlBar@@UAEPAXI@Z 00406000 f i Mainfrm.obj
 0001:00005000       ??_GCControlBar@@UAEPAXI@Z 00406000 f i Mainfrm.obj
 0001:00005020       ??1CControlBar@@UAE@XZ     00406020 f i Mainfrm.obj
 0001:00005090       ?_ProcessWindowMessage@CControlBar@@UAEHPAUHWND__@@IIJAAJ@Z 00406090 f i Mainfrm.obj
 0001:00005380       ?Find@?$CList@PAXPAX@@QBEPAU__POSITION@@PAXPAU2@@Z 00406380 f i Mainfrm.obj
 0001:000053b0       ?RemoveAt@?$CList@PAXPAX@@QAEXPAU__POSITION@@@Z 004063b0 f i Mainfrm.obj
 0001:00005410       ?OnInitialUpdate@CControlBar@@QAEXXZ 00406410 f i Mainfrm.obj
 0001:00005540       ?OnSizeParent@CControlBar@@QAEJIJ@Z 00406540 f i Mainfrm.obj
 0001:000057e0       ?OnBarStyleChange@CStatusBar@@UAEXKK@Z 004067e0 f i Mainfrm.obj
 0001:00005810       ?OnUpdateCmdUI@CStatusBar@@UAEXPAVCFrameWnd@@H@Z 00406810 f i Mainfrm.obj
 0001:00005900       ?UpdateDialogControls@CWnd@@QAEXPAVCCmdTarget@@H@Z 00406900 f i Mainfrm.obj
 0001:00005ae0       ?OnIdle@CCmdUI@@QAEHPAVCCmdTarget@@H@Z 00406ae0 f i Mainfrm.obj
 0001:00005b50       ?Enable@CCmdUI@@UAEXH@Z    00406b50 f i Mainfrm.obj
 0001:00005bf0       ?SetCheck@CCmdUI@@UAEXH@Z  00406bf0 f i Mainfrm.obj
 0001:00005c60       ?SetRadio@CCmdUI@@UAEXH@Z  00406c60 f i Mainfrm.obj
 0001:00005cb0       ?SetText@CCmdUI@@UAEXPBG@Z 00406cb0 f i Mainfrm.obj
 0001:00005d90       ?CalcFixedLayout@CStatusBar@@UAE?AVCSize@WTL@@HH@Z 00406d90 f i Mainfrm.obj
 0001:00005f40       ??0?$CHandleWrapper@VCDCMTL@@PAUHDC__@@V?$CDCT@$00@WTL@@@@QAE@PAUHDC__@@@Z 00406f40 f i Mainfrm.obj
 0001:00005f40       ??0?$CHandleWrapper@VCPenMTL@@PAUHPEN__@@V?$CPenT@$00@WTL@@@@QAE@PAUHPEN__@@@Z 00406f40 f i Mainfrm.obj
 0001:00005f40       ??0?$CHandleWrapper@VCBrushMTL@@PAUHBRUSH__@@V?$CBrushT@$00@WTL@@@@QAE@PAUHBRUSH__@@@Z 00406f40 f i Mainfrm.obj
 0001:00005f60       ??_ECClientDCMTL@@UAEPAXI@Z 00406f60 f i Mainfrm.obj
 0001:00005f60       ??_GCClientDCMTL@@UAEPAXI@Z 00406f60 f i Mainfrm.obj
 0001:00005f80       ??1CClientDCMTL@@UAE@XZ    00406f80 f i Mainfrm.obj
 0001:00005fe0       ?CalcInsideRect@CControlBar@@QBEXAAVCRect@WTL@@H@Z 00406fe0 f i Mainfrm.obj
 0001:000060d0       ?Create@CStatusBar@@UAEHPAVCWnd@@KI@Z 004070d0 f i Mainfrm.obj
 0001:000060f0       ?CreateEx@CStatusBar@@UAEHPAVCWnd@@KKI@Z 004070f0 f i Mainfrm.obj
 0001:000061b0       ?PreCreateWindow@CStatusBar@@UAEHAAUtagCREATESTRUCTW@@@Z 004071b0 f i Mainfrm.obj
 0001:00006290       ?SetIndicators@CStatusBar@@QAEHPBIH@Z 00407290 f i Mainfrm.obj
 0001:000065d0       ?Empty@CString@WTL@@QAEXXZ 004075d0 f i Mainfrm.obj
 0001:00006700       ?AssignCopy@CString@WTL@@IAEXHPBG@Z 00407700 f i Mainfrm.obj
 0001:000067c0       ??0CDCMTL@@QAE@PAUHDC__@@@Z 004077c0 f i Mainfrm.obj
 0001:000067f0       ?AllocElements@CControlBar@@QAEHHH@Z 004077f0 f i Mainfrm.obj
 0001:00006840       ?UpdateAllPanes@CStatusBar@@QAEXHH@Z 00407840 f i Mainfrm.obj
 0001:00006b30       ?RemoveAll@?$CArray@W4LoadArrayObjType@CArchive@@ABW412@@@QAEXXZ 00407b30 f i Mainfrm.obj
 0001:00006b30       ??1?$CArray@PAXABQAX@@QAE@XZ 00407b30 f i Mainfrm.obj
 0001:00006b30       ?RemoveAll@?$CArray@HABH@@QAEXXZ 00407b30 f i Mainfrm.obj
 0001:00006b30       ??1?$CArray@HABH@@QAE@XZ   00407b30 f i Mainfrm.obj
 0001:00006b30       ?RemoveAll@?$CArray@PAXABQAX@@QAEXXZ 00407b30 f i Mainfrm.obj
 0001:00006b50       ?ConstructElements@@YAXPAHJ@Z 00407b50 f i Mainfrm.obj
 0001:00006b50       ?ConstructElements@@YAXPAW4LoadArrayObjType@CArchive@@J@Z 00407b50 f i Mainfrm.obj
 0001:00006b50       ?ConstructElements@@YAXPAPAXJ@Z 00407b50 f i Mainfrm.obj
 0001:00006b60       ??_ECStatusBar@@UAEPAXI@Z  00407b60 f i Mainfrm.obj
 0001:00006b60       ??_GCStatusBar@@UAEPAXI@Z  00407b60 f i Mainfrm.obj
 0001:00006b80       ??1CStatusBar@@UAE@XZ      00407b80 f i Mainfrm.obj
 0001:00006bf0       ?_ProcessWindowMessage@CStatusBar@@UAEHPAUHWND__@@IIJAAJ@Z 00407bf0 f i Mainfrm.obj
 0001:00006f00       ?EraseNonClient@CControlBar@@QAEXXZ 00407f00 f i Mainfrm.obj
 0001:00007160       ?Draw3dRect@?$CDCT@$00@WTL@@QAEXHHHHKK@Z 00408160 f i Mainfrm.obj
 0001:000072c0       ??_GCWindowDCMTL@@UAEPAXI@Z 004082c0 f i Mainfrm.obj
 0001:000072c0       ??_ECWindowDCMTL@@UAEPAXI@Z 004082c0 f i Mainfrm.obj
 0001:000072e0       ??1CWindowDCMTL@@UAE@XZ    004082e0 f i Mainfrm.obj
 0001:00007340       ?OnSetMinHeight@CStatusBar@@QAEJIJ@Z 00408340 f i Mainfrm.obj
 0001:00007370       ?CommandToIndex@CStatusBar@@QBEHI@Z 00408370 f i Mainfrm.obj
 0001:000073a0       ?SetPaneText@CStatusBar@@QAEHHPBGH@Z 004083a0 f i Mainfrm.obj
 0001:00007580       ?Release@CString@WTL@@IAEXXZ 00408580 f i Mainfrm.obj
 0001:000075c0       ?Enable@CStatusCmdUI@@UAEXH@Z 004085c0 f i Mainfrm.obj
 0001:00007790       ?SetCheck@CStatusCmdUI@@UAEXH@Z 00408790 f i Mainfrm.obj
 0001:00007950       ?SetText@CStatusCmdUI@@UAEXPBG@Z 00408950 f i Mainfrm.obj
 0001:00007af0       ?AllocBeforeWrite@CString@WTL@@IAEHH@Z 00408af0 f i Mainfrm.obj
 0001:00007b90       ?AfxLoadSysColorBitmap@@YAPAUHBITMAP__@@PAUHINSTANCE__@@PAUHRSRC__@@H@Z 00408b90 f i Mainfrm.obj
 0001:00007d50       ?OnBarStyleChange@CToolBar@@UAEXKK@Z 00408d50 f i Mainfrm.obj
 0001:00007d90       ?OnToolHitTest@CToolBar@@UBEJVCPoint@WTL@@PAUtagTOOLINFOW@@@Z 00408d90 f i Mainfrm.obj
 0001:00007fb0       ??0CRect@WTL@@QAE@XZ       00408fb0 f i Mainfrm.obj
 0001:00007fc0       ?OnUpdateCmdUI@CToolBar@@UAEXPAVCFrameWnd@@H@Z 00408fc0 f i Mainfrm.obj
 0001:00008150       ?CalcDynamicLayout@CToolBar@@UAE?AVCSize@WTL@@HK@Z 00409150 f i Mainfrm.obj
 0001:000081a0       ?CalcFixedLayout@CToolBar@@UAE?AVCSize@WTL@@HH@Z 004091a0 f i Mainfrm.obj
 0001:000081d0       ?CalcLayout@CToolBar@@QAE?AVCSize@WTL@@KH@Z 004091d0 f i Mainfrm.obj
 0001:000088a0       ?SetWindowPos@CWMHnd@@QAEHPBV1@HHHHI@Z 004098a0 f i Mainfrm.obj
 0001:000088e0       ?CalcSize@CToolBar@@QAE?AVCSize@WTL@@PAU_TBBUTTON@@H@Z 004098e0 f i Mainfrm.obj
 0001:00008af0       ?Create@CToolBar@@UAEHPAVCWnd@@KI@Z 00409af0 f i Mainfrm.obj
 0001:00008b40       ?CreateEx@CToolBar@@UAEHPAVCWnd@@KKVCRect@WTL@@I@Z 00409b40 f i Mainfrm.obj
 0001:00008d60       ?Layout@CToolBar@@QAEXXZ   00409d60 f i Mainfrm.obj
 0001:00008dd0       ?_SetButton@CToolBar@@QAEXHPAU_TBBUTTON@@@Z 00409dd0 f i Mainfrm.obj
 0001:00008f80       ?SizeToolBar@CToolBar@@QAEXPAU_TBBUTTON@@HHH@Z 00409f80 f i Mainfrm.obj
 0001:000092d0       ?WrapToolBar@CToolBar@@QAEHPAU_TBBUTTON@@HH@Z 0040a2d0 f i Mainfrm.obj
 0001:000093c0       ??_GCToolBar@@UAEPAXI@Z    0040a3c0 f i Mainfrm.obj
 0001:000093c0       ??_ECToolBar@@UAEPAXI@Z    0040a3c0 f i Mainfrm.obj
 0001:000093e0       ??1CToolBar@@UAE@XZ        0040a3e0 f i Mainfrm.obj
 0001:00009450       ?_ProcessWindowMessage@CToolBar@@UAEHPAUHWND__@@IIJAAJ@Z 0040a450 f i Mainfrm.obj
 0001:00009970       ?AddTail@?$CList@PAXPAX@@QAEPAU__POSITION@@PAX@Z 0040a970 f i Mainfrm.obj
 0001:000099a0       ?OnLButtonDown@CControlBar@@QAEXIVCPoint@WTL@@@Z 0040a9a0 f i Mainfrm.obj
 0001:00009a10       ?OnLButtonDblClk@CControlBar@@QAEXIVCPoint@WTL@@@Z 0040aa10 f i Mainfrm.obj
 0001:00009be0       ?GetNext@?$CList@V?$CPair@PAXPAX@@ABV1@@@QBEABV?$CPair@PAXPAX@@AAPAU__POSITION@@@Z 0040abe0 f i Mainfrm.obj
 0001:00009be0       ?GetNext@?$CList@PAXPAX@@QBEABQAXAAPAU__POSITION@@@Z 0040abe0 f i Mainfrm.obj
 0001:00009c00       ?OnPreserveSizingPolicyHelper@CToolBar@@QAEJIJ@Z 0040ac00 f i Mainfrm.obj
 0001:00009f10       ?_AfxModifyStyle@CWMHnd@@SAHPAUHWND__@@HKKI@Z 0040af10 f i Mainfrm.obj
 0001:00009f70       ?ModifyStyle@CWMHnd@@QAEHKKI@Z 0040af70 f i Mainfrm.obj
 0001:00009fd0       ?OnPreserveZeroBorderHelper@CToolBar@@QAEJIJ@Z 0040afd0 f i Mainfrm.obj
 0001:0000a090       ?OnSetButtonSize@CToolBar@@QAEJIJ@Z 0040b090 f i Mainfrm.obj
 0001:0000a160       ?OnSetBitmapSize@CToolBar@@QAEJIJ@Z 0040b160 f i Mainfrm.obj
 0001:0000a230       ?DrawBorders@CControlBar@@QAEXPAVCDCMTL@@AAVCRect@WTL@@@Z 0040b230 f i Mainfrm.obj
 0001:0000a670       ?FillSolidRect@?$CDCT@$00@WTL@@QAEXPBUtagRECT@@K@Z 0040b670 f i Mainfrm.obj
 0001:0000a6c0       ?Enable@CToolCmdUI@@UAEXH@Z 0040b6c0 f i Mainfrm.obj
 0001:0000a8f0       ?SetCheck@CToolCmdUI@@UAEXH@Z 0040b8f0 f i Mainfrm.obj
 0001:0000ab20       ?CFrameWndDestruct@CFrameWnd@@QAEXXZ 0040bb20 f i Mainfrm.obj
 0001:0000aba0       ?OnCreateClient@CFrameWnd@@UAEHPAUtagCREATESTRUCTW@@PAUCCreateContext@@@Z 0040bba0 f i Mainfrm.obj
 0001:0000ac60       ?ActivateFrame@CFrameWnd@@UAEXH@Z 0040bc60 f i Mainfrm.obj
 0001:0000ad00       ?Create@CFrameWnd@@UAEHPBG0KABUtagRECT@@PAVCWnd@@0KPAUCCreateContext@@@Z 0040bd00 f i Mainfrm.obj
 0001:0000ae50       ?GetActiveFrame@CFrameWnd@@UAEPAV1@XZ 0040be50 f i Mainfrm.obj
 0001:0000ae60       ?LoadFrame@CFrameWnd@@UAEHIKPAVCWnd@@PAUCCreateContext@@@Z 0040be60 f i Mainfrm.obj
 0001:0000b1c0       ?AfxExtractSubString@CAfx@@SAHAAVCString@WTL@@PBGHG@Z 0040c1c0 f i Mainfrm.obj
 0001:0000b3e0       ?Release@CString@WTL@@KGXPAUCStringData@2@@Z 0040c3e0 f i Mainfrm.obj
 0001:0000b410       ?AfxRegisterWndClass@CAfx@@SAPBGIPAUHICON__@@PAUHBRUSH__@@0@Z 0040c410 f i Mainfrm.obj
 0001:0000b4e0       ?SendMessageToDescendants@CWnd@@QAEXPAUHWND__@@IIJHH@Z 0040c4e0 f i Mainfrm.obj
 0001:0000b5c0       ?PreCreateWindow@CFrameWnd@@UAEHAAUtagCREATESTRUCTW@@@Z 0040c5c0 f i Mainfrm.obj
 0001:0000b5c0       ?PreCreateWindow@CMDIChildWnd@@UAEHAAUtagCREATESTRUCTW@@@Z 0040c5c0 f i Mainfrm.obj
 0001:0000b600       ?PreTranslateMessage@CFrameWnd@@UAEHPAUtagMSG@@@Z 0040c600 f i Mainfrm.obj
 0001:0000b660       ?RecalcLayout@CFrameWnd@@UAEXH@Z 0040c660 f i Mainfrm.obj
 0001:0000b7f0       ?RepositionBars@CWnd@@QAEXIIIIPAUtagRECT@@PBU2@H@Z 0040c7f0 f i Mainfrm.obj
 0001:0000ba60       ?ReDockControlBar@CFrameWnd@@QAEXPAVCControlBar@@PAVCDockBar@@PBUtagRECT@@@Z 0040ca60 f i Mainfrm.obj
 0001:0000bb70       ??_GCFrameWnd@@UAEPAXI@Z   0040cb70 f i Mainfrm.obj
 0001:0000bb70       ??_ECFrameWnd@@UAEPAXI@Z   0040cb70 f i Mainfrm.obj
 0001:0000bb90       ??1CFrameWnd@@UAE@XZ       0040cb90 f i Mainfrm.obj
 0001:0000bc50       ?_ProcessWindowMessage@CFrameWnd@@UAEHPAUHWND__@@IIJAAJ@Z 0040cc50 f i Mainfrm.obj
 0001:0000ca50       ?PostMessageW@CWindow@ATL@@QAEHIIJ@Z 0040da50 f i Mainfrm.obj
 0001:0000ca70       ??1?$CMenuT@$00@WTL@@QAE@XZ 0040da70 f i Mainfrm.obj
 0001:0000ca90       ?GetSubMenu@CMenuMTL@@QAEPAV1@H@Z 0040da90 f i Mainfrm.obj
 0001:0000cac0       ?GetParentFrame@CWnd@@QAEPAVCFrameWnd@@XZ 0040dac0 f i Mainfrm.obj
 0001:0000cb30       ?GetTopLevelParent@CWnd@@QAEPAV1@XZ 0040db30 f i Mainfrm.obj
 0001:0000cbe0       ?GetDescendantWindow@CWnd@@QAEPAV1@HH@Z 0040dbe0 f i Mainfrm.obj
 0001:0000cc90       ?GetDescendantWindow@CWnd@@QAEPAV1@PAUHWND__@@HH@Z 0040dc90 f i Mainfrm.obj
 0001:0000cd40       ?OnBarCheck@CFrameWnd@@QAEHI@Z 0040dd40 f i Mainfrm.obj
 0001:0000cef0       ?OnUpdateControlBarMenu@CFrameWnd@@QAEXPAVCCmdUI@@@Z 0040def0 f i Mainfrm.obj
 0001:0000cf60       ?OnIdleUpdateCmdUI@CFrameWnd@@QAEXXZ 0040df60 f i Mainfrm.obj
 0001:0000cff0       ?OnPopMessageString@CFrameWnd@@QAEJIJ@Z 0040dff0 f i Mainfrm.obj
 0001:0000d020       ?OnSetMessageString@CFrameWnd@@QAEJIJ@Z 0040e020 f i Mainfrm.obj
 0001:0000d1d0       ?CopyBeforeWrite@CString@WTL@@IAEXXZ 0040e1d0 f i Mainfrm.obj
 0001:0000d280       ?AfxLoadString@CAfx@@SAHIPAGI@Z 0040e280 f i Mainfrm.obj
 0001:0000d340       ?OnToolTipText@CFrameWnd@@QAEHIPAUtagNMHDR@@PAJ@Z 0040e340 f i Mainfrm.obj
 0001:0000d590       ?GetBufferSetLength@CString@WTL@@QAEPAGH@Z 0040e590 f i Mainfrm.obj
 0001:0000d660       ?AtlGetStringResourceImage@CAfx@@SAPBUATLSTRINGRESOURCEIMAGE@@PAUHINSTANCE__@@I@Z 0040e660 f i Mainfrm.obj
 0001:0000d6f0       ?OnUpdateKeyIndicator@CFrameWnd@@QAEXPAVCCmdUI@@@Z 0040e6f0 f i Mainfrm.obj
 0001:0000d760       ?DestroyDockBars@CFrameWnd@@QAEXXZ 0040e760 f i Mainfrm.obj
 0001:0000d930       ?IsKindOf@CObject@@QBEHPBUCRuntimeClass@@@Z 0040e930 f i Mainfrm.obj
 0001:0000d960       ?SetMenuBarState@CFrameWnd@@QAEHK@Z 0040e960 f i Mainfrm.obj
 0001:0000d9d0       ?FloatControlBar@CFrameWnd@@QAEXPAVCControlBar@@VCPoint@WTL@@K@Z 0040e9d0 f i Mainfrm.obj
 0001:0000db70       ?Create@CMiniDockFrameWnd@@QAEHPAVCWnd@@K@Z 0040eb70 f i Mainfrm.obj
 0001:0000dec0       ?GetTopLevelFrame@CWnd@@QAEPAVCFrameWnd@@XZ 0040eec0 f i Mainfrm.obj
 0001:0000dfc0       ?ToggleDocking@CDockContext@@QAEXXZ 0040efc0 f i Mainfrm.obj
 0001:0000e1d0       ?GetControlBar@CFrameWnd@@QAEPAVCControlBar@@I@Z 0040f1d0 f i Mainfrm.obj
 0001:0000e220       ?OnIdleUpdateCmdUI@CControlBar@@QAEJIJ@Z 0040f220 f i Mainfrm.obj
 0001:0000e360       ?DestroyWindow@CControlBar@@UAEHXZ 0040f360 f i Mainfrm.obj
 0001:0000e420       ?DockControlBar@CDockBar@@QAEXPAVCControlBar@@PBUtagRECT@@@Z 0040f420 f i Mainfrm.obj
 0001:0000e960       ?InsertAt@?$CArray@PAXABQAX@@QAEXJABQAXJ@Z 0040f960 f i Mainfrm.obj
 0001:0000e960       ?InsertAt@?$CArray@W4LoadArrayObjType@CArchive@@ABW412@@@QAEXJABW4LoadArrayObjType@CArchive@@J@Z 0040f960 f i Mainfrm.obj
 0001:0000ebf0       ?RemoveAt@?$CArray@PAXABQAX@@QAEXJJ@Z 0040fbf0 f i Mainfrm.obj
 0001:0000ec30       ?SetAtGrow@?$CArray@PAXABQAX@@QAEXJABQAX@Z 0040fc30 f i Mainfrm.obj
 0001:0000ed70       ?Size@CRect@WTL@@QBE?AVCSize@2@XZ 0040fd70 f i Mainfrm.obj
 0001:0000ed90       ?AfxSetWindowText@CAfx@@SAXPAUHWND__@@PBG@Z 0040fd90 f i Mainfrm.obj
 0001:0000ee10       ?ScreenToClient@CWMHnd@@QBEXPAUtagRECT@@@Z 0040fe10 f i Mainfrm.obj
 0001:0000ee40       ?GetDockingFrame@CControlBar@@QAEPAVCFrameWnd@@XZ 0040fe40 f i Mainfrm.obj
 0001:0000eec0       ?FindBar@CDockBar@@QAEHPAVCControlBar@@H@Z 0040fec0 f i Mainfrm.obj
 0001:0000eef0       ?GetDockedCount@CDockBar@@QBEHXZ 0040fef0 f i Mainfrm.obj
 0001:0000ef20       ?GetDockedControlBar@CDockBar@@QBEPAVCControlBar@@H@Z 0040ff20 f i Mainfrm.obj
 0001:0000ef40       ?RemovePlaceHolder@CDockBar@@QAEXPAVCControlBar@@@Z 0040ff40 f i Mainfrm.obj
 0001:0000efe0       ?ReDockControlBar@CDockBar@@QAEXPAVCControlBar@@PBUtagRECT@@@Z 0040ffe0 f i Mainfrm.obj
 0001:0000f460       ?RemoveControlBar@CDockBar@@QAEHPAVCControlBar@@HH@Z 00410460 f i Mainfrm.obj
 0001:0000f690       ?OnSetPreviewMode@CFrameWnd@@UAEXHPAUCPrintPreviewState@@@Z 00410690 f i Mainfrm.obj
 0001:0000fb00       ?AfxGetParentOwner@CWnd@@SAPAUHWND__@@PAU2@@Z 00410b00 f i Mainfrm.obj
 0001:0000fb80       ?IsFloating@CControlBar@@QBEHXZ 00410b80 f i Mainfrm.obj
 0001:0000fbb0       ?OnCloseDocument@CDocument@@QAEXXZ 00410bb0 f i Mainfrm.obj
 0001:0000fc70       ?GetDefaultAccelerator@CFrameWnd@@UAEPAUHACCEL__@@XZ 00410c70 f i Mainfrm.obj
 0001:0000fc90       ?OnUpdateFrameMenu@CFrameWnd@@UAEXPAUHMENU__@@@Z 00410c90 f i Mainfrm.obj
 0001:0000fcd0       ?OnUpdateFrameTitle@CFrameWnd@@UAEXH@Z 00410cd0 f i Mainfrm.obj
 0001:0000fd20       ?UpdateFrameTitleForDocument@CFrameWnd@@QAEXPBG@Z 00410d20 f i Mainfrm.obj
 0001:0000ff20       ?ConcatInPlace@CString@WTL@@IAEXHPBG@Z 00410f20 f i Mainfrm.obj
 0001:00010050       ?DefWindowProcW@CMDIFrameWnd@@UAEJIIJ@Z 00411050 f i Mainfrm.obj
 0001:00010080       ?OnCreateClient@CMDIFrameWnd@@UAEHPAUtagCREATESTRUCTW@@PAUCCreateContext@@@Z 00411080 f i Mainfrm.obj
 0001:000100e0       ?OnDestroy@CMDIFrameWnd@@QAEXXZ 004110e0 f i Mainfrm.obj
 0001:00010180       ?OnIdleUpdateCmdUI@CMDIFrameWnd@@QAEXXZ 00411180 f i Mainfrm.obj
 0001:00010230       ?OnMDIWindowCmd@CMDIFrameWnd@@QAEHI@Z 00411230 f i Mainfrm.obj
 0001:00010290       ?OnSize@CMDIFrameWnd@@QAEXIHH@Z 00411290 f i Mainfrm.obj
 0001:000102b0       ?OnUpdateMDIWindowCmd@CMDIFrameWnd@@QAEXPAVCCmdUI@@@Z 004112b0 f i Mainfrm.obj
 0001:00010320       ?CreateClient@CMDIFrameWnd@@UAEHPAUtagCREATESTRUCTW@@PAVCMenuMTL@@@Z 00411320 f i Mainfrm.obj
 0001:00010410       ?DelayUpdateFrameMenu@CMDIFrameWnd@@UAEXPAUHMENU__@@@Z 00411410 f i Mainfrm.obj
 0001:00010440       ?GetActiveFrame@CMDIFrameWnd@@UAEPAVCFrameWnd@@XZ 00411440 f i Mainfrm.obj
 0001:000104a0       ?GetWindowMenuPopup@CMDIFrameWnd@@UAEPAUHMENU__@@PAU2@@Z 004114a0 f i Mainfrm.obj
 0001:00010520       ?LoadFrame@CMDIFrameWnd@@UAEHIKPAVCWnd@@PAUCCreateContext@@@Z 00411520 f i Mainfrm.obj
 0001:00010560       ?PreCreateWindow@CMDIFrameWnd@@UAEHAAUtagCREATESTRUCTW@@@Z 00411560 f i Mainfrm.obj
 0001:00010590       ??_ECMDIFrameWnd@@UAEPAXI@Z 00411590 f i Mainfrm.obj
 0001:00010590       ??_GCMDIFrameWnd@@UAEPAXI@Z 00411590 f i Mainfrm.obj
 0001:000105b0       ??1CMDIFrameWnd@@UAE@XZ    004115b0 f i Mainfrm.obj
 0001:00010670       ?_ProcessWindowMessage@CMDIFrameWnd@@UAEHPAUHWND__@@IIJAAJ@Z 00411670 f i Mainfrm.obj
 0001:00010a20       ?OnCommand@CMDIFrameWnd@@UAEHIJ@Z 00411a20 f i Mainfrm.obj
 0001:00010bd0       ?OnCmdMsg@CMDIFrameWnd@@UAEHIHPAXPAUAFX_CMDHANDLERINFO@@@Z 00411bd0 f i Mainfrm.obj
 0001:00010db0       ?OnWindowNew@CMDIFrameWnd@@QAEXXZ 00411db0 f i Mainfrm.obj
 0001:00010e50       ?PreTranslateMessage@CMDIFrameWnd@@UAEHPAUtagMSG@@@Z 00411e50 f i Mainfrm.obj
 0001:00010f50       ?CloseAllDocuments@CWinApp@@QAEXH@Z 00411f50 f i Mainfrm.obj
 0001:00011080       ?HideApplication@CWinApp@@QAEXXZ 00412080 f i Mainfrm.obj
 0001:000110d0       ?SaveAllModified@CWinApp@@QAEHXZ 004120d0 f i Mainfrm.obj
 0001:00011140       ?FromHandle@CMenuMTL@@SAPAV1@PAUHMENU__@@PAV1@PAUHWND__@@P6APAXPAX3@Z@Z 00412140 f i Mainfrm.obj
 0001:00011160       ?RemoveHandle@CMenuMTL@@SAPAUHMENU__@@PAU2@@Z 00412160 f i Mainfrm.obj
 0001:00011180       ?AfxMessageBox@@YAHIII@Z   00412180 f i Mainfrm.obj
 0001:00011380       ?GetSafeOwner_@CWnd@@SAPAUHWND__@@PAU2@PAPAU2@@Z 00412380 f i Mainfrm.obj
 0001:00011450       ?CControlBarDestruct@CControlBar@@QAEXXZ 00412450 f i Mainfrm.obj
 0001:00011510       ?OnDestroy@CControlBar@@QAEXXZ 00412510 f i Mainfrm.obj
 0001:000115c0       ?OnTimer@CControlBar@@QAEXK@Z 004125c0 f i Mainfrm.obj
 0001:000118a0       ?GetOwner@CWnd@@QAEPAV1@XZ 004128a0 f i Mainfrm.obj
 0001:000118d0       ?PreTranslateMessage@CControlBar@@UAEHPAUtagMSG@@@Z 004128d0 f i Mainfrm.obj
 0001:00011c20       ?SetStatusText@CControlBar@@UAEHJ@Z 00412c20 f i Mainfrm.obj
 0001:00011d30       ?OnCmdMsg@CFrameWnd@@UAEHIHPAXPAUAFX_CMDHANDLERINFO@@@Z 00412d30 f i Mainfrm.obj
 0001:00011e90       ?AddFrameWnd@CFrameWnd@@QAEXXZ 00412e90 f i Mainfrm.obj
 0001:00011ed0       ?_EnableToolTips@CWnd@@QAEHHI@Z 00412ed0 f i Mainfrm.obj
 0001:00011fe0       ?_FilterToolTipMessage@CWnd@@SAXPAUtagMSG@@PAV1@@Z 00412fe0 f i Mainfrm.obj
 0001:00011ff0       ?FilterToolTipMessage@CWnd@@QAEXPAUtagMSG@@@Z 00412ff0 f i Mainfrm.obj
 0001:00012760       ??_ECToolTipCtrlMTL@@UAEPAXI@Z 00413760 f i Mainfrm.obj
 0001:00012760       ??_GCToolTipCtrlMTL@@UAEPAXI@Z 00413760 f i Mainfrm.obj
 0001:00012780       ??1CToolTipCtrlMTL@@UAE@XZ 00413780 f i Mainfrm.obj
 0001:000127f0       ??0CShapePropSheetFrame@@QAE@XZ 004137f0 f   Minifrm.obj
 0001:00012910       ?_ProcessWindowMessage@CShapePropSheetFrame@@UAEHPAUHWND__@@IIJAAJ@Z 00413910 f i Minifrm.obj
 0001:00012c80       ??_ECShapePropSheetFrame@@UAEPAXI@Z 00413c80 f i Minifrm.obj
 0001:00012c80       ??_GCShapePropSheetFrame@@UAEPAXI@Z 00413c80 f i Minifrm.obj
 0001:00012ca0       ??1CShapePropSheetFrame@@UAE@XZ 00413ca0 f i Minifrm.obj
 0001:00012db0       ?OnCreate@CShapePropSheetFrame@@IAEHPAUtagCREATESTRUCTW@@@Z 00413db0 f   Minifrm.obj
 0001:00012f30       ?OnClose@CShapePropSheetFrame@@IAEXXZ 00413f30 f   Minifrm.obj
 0001:00012f60       ?OnSetFocus@CShapePropSheetFrame@@IAEXPAVCWnd@@@Z 00413f60 f   Minifrm.obj
 0001:00012f80       ?OnActivate@CShapePropSheetFrame@@IAEXIPAVCWnd@@H@Z 00413f80 f   Minifrm.obj
 0001:00012fd0       ?OnCreateHelper@CFrameWnd@@QAEHPAUtagCREATESTRUCTW@@PAUCCreateContext@@@Z 00413fd0 f i Minifrm.obj
 0001:00013040       ?OnFloatStatus@CMiniFrameWnd@@QAEJIJ@Z 00414040 f i Minifrm.obj
 0001:00013130       ?OnNcHitTest@CMiniFrameWnd@@QAEJVCPoint@WTL@@@Z 00414130 f i Minifrm.obj
 0001:000132d0       ?OnQueryCenterWnd@CMiniFrameWnd@@QAEJIJ@Z 004142d0 f i Minifrm.obj
 0001:00013300       ?OnSysCommand@CMiniFrameWnd@@QAEXIJ@Z 00414300 f i Minifrm.obj
 0001:000135a0       ?Create@CMiniFrameWnd@@UAEHPBG0KABUtagRECT@@PAVCWnd@@I@Z 004145a0 f i Minifrm.obj
 0001:000135d0       ?CreateEx@CMiniFrameWnd@@UAEHKPBG0KABUtagRECT@@PAVCWnd@@I@Z 004145d0 f i Minifrm.obj
 0001:00013870       ?PreCreateWindow@CMiniFrameWnd@@UAEHAAUtagCREATESTRUCTW@@@Z 00414870 f i Minifrm.obj
 0001:000138d0       ??_ECMiniFrameWnd@@UAEPAXI@Z 004148d0 f i Minifrm.obj
 0001:000138d0       ??_GCMiniFrameWnd@@UAEPAXI@Z 004148d0 f i Minifrm.obj
 0001:000138f0       ??1CMiniFrameWnd@@UAE@XZ   004148f0 f i Minifrm.obj
 0001:00013a00       ?_ProcessWindowMessage@CMiniFrameWnd@@UAEHPAUHWND__@@IIJAAJ@Z 00414a00 f i Minifrm.obj
 0001:00013ed0       ?HandleFloatingSysCommand@CWnd@@QAEHIJ@Z 00414ed0 f i Minifrm.obj
 0001:00014130       ??0CShapePreviewWnd@@AAE@XZ 00415130 f   Preview.obj
 0001:00014160       ?_ProcessWindowMessage@CShapePreviewWnd@@UAEHPAUHWND__@@IIJAAJ@Z 00415160 f i Preview.obj
 0001:00014360       ??_ECShapePreviewWnd@@UAEPAXI@Z 00415360 f i Preview.obj
 0001:00014360       ??_GCShapePreviewWnd@@UAEPAXI@Z 00415360 f i Preview.obj
 0001:00014380       ??1CShapePreviewWnd@@UAE@XZ 00415380 f i Preview.obj
 0001:000143d0       ?OnPaint@CShapePreviewWnd@@AAEXXZ 004153d0 f   Preview.obj
 0001:00014530       ?OnEraseBkgnd@CShapePreviewWnd@@AAEHPAVCDCMTL@@@Z 00415530 f   Preview.obj
 0001:000145d0       ?classHandleFuncCBrushMTL@CBrushMTL@@SAPAXPAX0@Z 004155d0 f i Preview.obj
 0001:00014610       ??_GCBrushMTL@@UAEPAXI@Z   00415610 f i Preview.obj
 0001:00014610       ??_GCPenMTL@@UAEPAXI@Z     00415610 f i Preview.obj
 0001:00014610       ??_ECBrushMTL@@UAEPAXI@Z   00415610 f i Preview.obj
 0001:00014610       ??_ECBitmapMTL@@UAEPAXI@Z  00415610 f i Preview.obj
 0001:00014610       ??_ECPenMTL@@UAEPAXI@Z     00415610 f i Preview.obj
 0001:00014610       ??_GCBitmapMTL@@UAEPAXI@Z  00415610 f i Preview.obj
 0001:00014630       ??1CPaintDCMTL@@UAE@XZ     00415630 f i Preview.obj
 0001:00014690       ??_ECPaintDCMTL@@UAEPAXI@Z 00415690 f i Preview.obj
 0001:00014690       ??_GCPaintDCMTL@@UAEPAXI@Z 00415690 f i Preview.obj
 0001:000146b0       ?SendChildNotifyLastMsg@CWnd@@QAEHPAJ@Z 004156b0 f i Preview.obj
 0001:000146e0       ?FromHandleGdiobj@CWinApp@@QAEPAVCGdiObject@@PAXPAV2@PAUHWND__@@P6APAX00@Z@Z 004156e0 f i Preview.obj
 0001:00014770       ?RemoveHandleGdiobj@CWinApp@@QAEPAXPAX@Z 00415770 f i Preview.obj
 0001:000147e0       ?OnNcDestroy@CWnd@@QAEXXZ  004157e0 f i Preview.obj
 0001:000148c0       ??0CPropDlgApp@@QAE@XZ     004158c0 f   Propdlg.obj
 0001:00014a60       ?_ProcessWindowMessage@CPropDlgApp@@UAEHPAUHWND__@@IIJAAJ@Z 00415a60 f i Propdlg.obj
 0001:00014c70       ??1CPropDlgApp@@QAE@XZ     00415c70 f i Propdlg.obj
 0001:00014e20       ?InitInstance@CPropDlgApp@@UAEHXZ 00415e20 f   Propdlg.obj
 0001:00015190       ??0CAboutDlg@@QAE@XZ       00416190 f   Propdlg.obj
 0001:000151d0       ??_ECAboutDlg@@UAEPAXI@Z   004161d0 f i Propdlg.obj
 0001:000151d0       ??_GCAboutDlg@@UAEPAXI@Z   004161d0 f i Propdlg.obj
 0001:000151f0       ??1CAboutDlg@@UAE@XZ       004161f0 f i Propdlg.obj
 0001:00015240       ?DoDataExchange@CAboutDlg@@MAEXPAVCDataExchange@@@Z 00416240 f   Propdlg.obj
 0001:00015250       ?OnAppAbout@CPropDlgApp@@QAEXXZ 00416250 f   Propdlg.obj
 0001:00015490       ??1?$CHandleHashList@PAUHWND__@@VCWMHnd@@PAU1@$0BB@@@QAE@XZ 00416490 f i Propdlg.obj
 0001:000154a0       ??0CString@WTL@@QAE@PBG@Z  004164a0 f i Propdlg.obj
 0001:00015620       ??_9@$BBM@AE               00416620 f i Propdlg.obj
 0001:00015630       ??_9@$BBI@AE               00416630 f i Propdlg.obj
 0001:00015640       ?AfxGetModuleFileName@CAfx@@SAXPAUHINSTANCE__@@AAVCString@WTL@@@Z 00416640 f i Propdlg.obj
 0001:000157a0       ?HalftoneBrush@CAfx@@SAPAUHBRUSH__@@H@Z 004167a0 f i Propdlg.obj
 0001:00015830       ?ParseParam@CCommandLineInfo@@UAEXPBGHH@Z 00416830 f i Propdlg.obj
 0001:00015940       ??0CRecentFileList@@QAE@IPBG0HH@Z 00416940 f i Propdlg.obj
 0001:00015b30       ??0CString@WTL@@QAE@XZ     00416b30 f i Propdlg.obj
 0001:00015b40       ?Add@CRecentFileList@@UAEXPBG@Z 00416b40 f i Propdlg.obj
 0001:00015d80       ?_AfxFullPath2@CAfx@@SAHPAGPBGPAVCFileException@@@Z 00416d80 f i Propdlg.obj
 0001:00015fd0       ?GetDisplayName@CRecentFileList@@UBEHAAVCString@WTL@@HPBGHH@Z 00416fd0 f i Propdlg.obj
 0001:000162c0       ?_AfxAbbreviateName@CAfx@@SAXPAGHH@Z 004172c0 f i Propdlg.obj
 0001:000163c0       ?AfxComparePath@CAfx@@SAHPBG0@Z 004173c0 f i Propdlg.obj
 0001:000164a0       ?AfxGetFileName@CAfx@@SAIPBGPAGI@Z 004174a0 f i Propdlg.obj
 0001:000164d0       ?Remove@CRecentFileList@@UAEXH@Z 004174d0 f i Propdlg.obj
 0001:00016700       ??_GCRecentFileList@@UAEPAXI@Z 00417700 f i Propdlg.obj
 0001:00016700       ??_ECRecentFileList@@UAEPAXI@Z 00417700 f i Propdlg.obj
 0001:00016720       ??1CRecentFileList@@UAE@XZ 00417720 f i Propdlg.obj
 0001:00016820       ??0CDocTemplate@@QAE@IPAUCRuntimeClass@@00@Z 00417820 f i Propdlg.obj
 0001:00016a60       ?OnCmdMsg@CDocTemplate@@UAEHIHPAXPAUAFX_CMDHANDLERINFO@@@Z 00417a60 f i Propdlg.obj
 0001:00016a60       ?OnCmdMsg@CCmdTarget@@UAEHIHPAXPAUAFX_CMDHANDLERINFO@@@Z 00417a60 f i Propdlg.obj
 0001:00016b40       ?CreateNewDocument@CDocTemplate@@UAEPAVCDocument@@XZ 00417b40 f i Propdlg.obj
 0001:00016b70       ?CreateNewFrame@CDocTemplate@@UAEPAVCFrameWnd@@PAVCDocument@@PAV2@@Z 00417b70 f i Propdlg.obj
 0001:00016c00       ?GetDocString@CDocTemplate@@UBEHAAVCString@WTL@@W4DocStringIndex@1@@Z 00417c00 f i Propdlg.obj
 0001:00016e00       ?InitialUpdateFrame@CDocTemplate@@UAEXPAVCFrameWnd@@PAVCDocument@@H@Z 00417e00 f i Propdlg.obj
 0001:00016f00       ?UpdateFrameCounts@CDocument@@QAEXXZ 00417f00 f i Propdlg.obj
 0001:00017130       ?MatchDocType@CDocTemplate@@UAE?AW4Confidence@1@PBGAAPAVCDocument@@@Z 00418130 f i Propdlg.obj
 0001:00017340       ??1CDocTemplate@@QAE@XZ    00418340 f i Propdlg.obj
 0001:00017380       ?OnFileNew@CDocManager@@UAEXXZ 00418380 f i Propdlg.obj
 0001:000175e0       ?OnInitDialog@CNewTypeDlg@@UAEHXZ 004185e0 f i Propdlg.obj
 0001:000178c0       ??0CDataExchange@@QAE@PAVCWMHnd@@H@Z 004188c0 f i Propdlg.obj
 0001:000178e0       ?OnOK@CNewTypeDlg@@UAEXXZ  004188e0 f i Propdlg.obj
 0001:000179b0       ??_GCNewTypeDlg@@UAEPAXI@Z 004189b0 f i Propdlg.obj
 0001:000179b0       ??_ECNewTypeDlg@@UAEPAXI@Z 004189b0 f i Propdlg.obj
 0001:000179d0       ??1CNewTypeDlg@@UAE@XZ     004189d0 f i Propdlg.obj
 0001:00017a20       ?_ProcessWindowMessage@CNewTypeDlg@@UAEHPAUHWND__@@IIJAAJ@Z 00418a20 f i Propdlg.obj
 0001:00017ad0       ?AddDocTemplate@CDocManager@@QAEXPAVCDocTemplate@@@Z 00418ad0 f i Propdlg.obj
 0001:00017b10       ?GetFirstDocTemplatePosition@CDocManager@@UBEPAU__POSITION@@XZ 00418b10 f i Propdlg.obj
 0001:00017b20       ?GetNextDoc@CMultiDocTemplate@@UBEPAVCDocument@@AAPAU__POSITION@@@Z 00418b20 f i Propdlg.obj
 0001:00017b20       ?GetNextDocTemplate@CDocManager@@UBEPAVCDocTemplate@@AAPAU__POSITION@@@Z 00418b20 f i Propdlg.obj
 0001:00017b40       ?AddDocument@CMultiDocTemplate@@UAEXPAVCDocument@@@Z 00418b40 f i Propdlg.obj
 0001:00017b80       ?GetFirstDocPosition@CMultiDocTemplate@@UBEPAU__POSITION@@XZ 00418b80 f i Propdlg.obj
 0001:00017b90       ?LoadTemplate@CMultiDocTemplate@@UAEXXZ 00418b90 f i Propdlg.obj
 0001:00017d00       ?OpenDocumentFile@CMultiDocTemplate@@UAEPAVCDocument@@PBGH@Z 00418d00 f i Propdlg.obj
 0001:00017d20       ?RemoveDocument@CMultiDocTemplate@@UAEXPAVCDocument@@@Z 00418d20 f i Propdlg.obj
 0001:00017da0       ?SetDefaultTitle@CMultiDocTemplate@@UAEXPAVCDocument@@@Z 00418da0 f i Propdlg.obj
 0001:00017ff0       ?ConcatCopy@CString@WTL@@IAEHHPBGH0@Z 00418ff0 f i Propdlg.obj
 0001:000180d0       ??_GCMultiDocTemplate@@UAEPAXI@Z 004190d0 f i Propdlg.obj
 0001:000180d0       ??_ECMultiDocTemplate@@UAEPAXI@Z 004190d0 f i Propdlg.obj
 0001:000180f0       ??1CMultiDocTemplate@@UAE@XZ 004190f0 f i Propdlg.obj
 0001:000181a0       ??0CWinThread@@QAE@P6AIPAX@Z0@Z 004191a0 f i Propdlg.obj
 0001:000181d0       ??1CWinThread@@QAE@XZ      004191d0 f i Propdlg.obj
 0001:000181f0       ?OnAppExit@CWinApp@@QAEXXZ 004191f0 f i Propdlg.obj
 0001:00018210       ?OnFilePrintSetup@CWinApp@@QAEXXZ 00419210 f i Propdlg.obj
 0001:000183c0       ??0?$CWindowImplBaseT@VCWindow@ATL@@V?$CWinTraits@$0FGAAAAAA@$0A@@2@@ATL@@QAE@XZ 004193c0 f i Propdlg.obj
 0001:000183e0       ?GetWindowProc@?$CWindowImplBaseT@VCWindow@ATL@@V?$CWinTraits@$0FGAAAAAA@$0A@@2@@ATL@@UAEP6GJPAUHWND__@@IIJ@ZXZ 004193e0 f i Propdlg.obj
 0001:000183f0       ?DoModal@?$CPrintDialogImpl@VCPrintDialog@WTL@@@WTL@@QAEJPAUHWND__@@@Z 004193f0 f i Propdlg.obj
 0001:00018460       ?ProcessWindowMessage@?$CPrintDialogImpl@VCPrintDialog@WTL@@@WTL@@UAEHPAUHWND__@@IIJAAJK@Z 00419460 f i Propdlg.obj
 0001:000184c0       ?AtlModuleAddCreateWndData@ATL@@YGXPAU_ATL_MODULE@1@PAU_AtlCreateWndData@1@PAX@Z 004194c0 f i Propdlg.obj
 0001:00018500       ?OnPrintSetup@?$CPrintDialogImpl@VCPrintDialog@WTL@@@WTL@@QAEJGGPAUHWND__@@AAH@Z 00419500 f i Propdlg.obj
 0001:000185a0       ?HookProc@CCommonDialogImplBase@WTL@@SGKPAUHWND__@@IIJ@Z 004195a0 f i Propdlg.obj
 0001:00018690       ?WindowProc@?$CWindowImplBaseT@VCWindow@ATL@@V?$CWinTraits@$0FGAAAAAA@$0A@@2@@ATL@@SGJPAUHWND__@@IIJ@Z 00419690 f i Propdlg.obj
 0001:00018790       ?AfxGlobalFree@CAfx@@SAXPAX@Z 00419790 f i Propdlg.obj
 0001:000187d0       ?_WindowProc@CCommonWnd@@UAEHPAUHWND__@@IIJAAJ@Z 004197d0 f i Propdlg.obj
 0001:00018970       ?OnOpenRecentFile@CWinApp@@QAEHI@Z 00419970 f i Propdlg.obj
 0001:000189d0       ?OnUpdateRecentFileMenu@CWinApp@@QAEXPAVCCmdUI@@@Z 004199d0 f i Propdlg.obj
 0001:00018a00       ?OnFileNew@CWinApp@@UAEXXZ 00419a00 f i Propdlg.obj
 0001:00018a10       ?OnFileOpen@CWinApp@@UAEXXZ 00419a10 f i Propdlg.obj
 0001:00018a20       ?OnIdle@CWinApp@@UAEHH@Z   00419a20 f i Propdlg.obj
 0001:00018b70       ?RemoveOwner@?$CHandleHashList@PAUHWND__@@VCWMHnd@@PAU1@$0BB@@@QAEHQAUHWND__@@@Z 00419b70 f i Propdlg.obj
 0001:00018c00       ?RemoveOwner@?$CHandleList@PAXXPAUHWND__@@@@QAEHQAUHWND__@@@Z 00419c00 f i Propdlg.obj
 0001:00018c00       ?RemoveOwner@?$CHandleList@PAUHMENU__@@VCMenuMTL@@PAUHWND__@@@@QAEHQAUHWND__@@@Z 00419c00 f i Propdlg.obj
 0001:00018c00       ?RemoveOwner@?$CHandleList@PAXVCGdiObject@@PAUHWND__@@@@QAEHQAUHWND__@@@Z 00419c00 f i Propdlg.obj
 0001:00018c00       ?RemoveOwner@?$CHandleList@PAUHDC__@@VCDCMTL@@PAUHWND__@@@@QAEHQAUHWND__@@@Z 00419c00 f i Propdlg.obj
 0001:00018c70       ?ExitInstance@CWinApp@@UAEHXZ 00419c70 f i Propdlg.obj
 0001:00018ce0       ?IsFrameWnd@CFrameWnd@@UAEHXZ 00419ce0 f i Propdlg.obj
 0001:00018ce0       ?OnQueryCancel@CPropertyPageMTL@@UAEHXZ 00419ce0 f i Propdlg.obj
 0001:00018ce0       ?InitInstance@CWinApp@@UAEHXZ 00419ce0 f i Propdlg.obj
 0001:00018cf0       ?OpenDocumentFile@CWinApp@@UAEPAVCDocument@@PBG@Z 00419cf0 f i Propdlg.obj
 0001:00018f50       ?PreTranslateMessage@CWinApp@@UAEHPAUtagMSG@@@Z 00419f50 f i Propdlg.obj
 0001:00018ff0       ?ProcessShellCommand@CWinApp@@QAEHAAVCCommandLineInfo@@@Z 00419ff0 f i Propdlg.obj
 0001:000192f0       ?LoadStringW@CString@WTL@@QAEHI@Z 0041a2f0 f i Propdlg.obj
 0001:00019510       ??HWTL@@YG?AVCString@0@ABV10@PBG@Z 0041a510 f i Propdlg.obj
 0001:000196d0       ?AfxDelRegTreeHelper@CAfx@@SAJPAUHKEY__@@ABVCString@WTL@@PAVCAtlTransactionManager@@@Z 0041a6d0 f i Propdlg.obj
 0001:00019940       ?PumpMessage@CWinApp@@UAEHXZ 0041a940 f i Propdlg.obj
 0001:00019990       ?Run@CWinApp@@UAEHXZ       0041a990 f i Propdlg.obj
 0001:00019a30       ?UpdatePrinterSelection@CWinApp@@QAEXH@Z 0041aa30 f i Propdlg.obj
 0001:00019dd0       ??0CPrintDialog@WTL@@QAE@HKPAUHWND__@@@Z 0041add0 f i Propdlg.obj
 0001:00019e60       ?GetDeviceName@CPrintDialogMTL@@QBE?AVCString@WTL@@XZ 0041ae60 f i Propdlg.obj
 0001:00019fb0       ?GetDriverName@CPrintDialogMTL@@QBE?AVCString@WTL@@XZ 0041afb0 f i Propdlg.obj
 0001:0001a100       ?GetPortName@CPrintDialogMTL@@QBE?AVCString@WTL@@XZ 0041b100 f i Propdlg.obj
 0001:0001a250       ??1CModuleThreadState@@QAE@XZ 0041b250 f i Propdlg.obj
 0001:0001a2a0       ??1CCommandLineInfo@@QAE@XZ 0041b2a0 f i Propdlg.obj
 0001:0001a3a0       ?_ProcessWindowMessage@CWinApp@@UAEHPAUHWND__@@IIJAAJ@Z 0041b3a0 f i Propdlg.obj
 0001:0001a490       ?OnFileOpen@CDocManager@@UAEXXZ 0041b490 f i Propdlg.obj
 0001:0001a6e0       ??YCString@WTL@@QAEAAV01@PBG@Z 0041b6e0 f i Propdlg.obj
 0001:0001a820       ??0CFileDialogMTL@@QAE@HPBG0K0PAVCWnd@@KH@Z 0041b820 f i Propdlg.obj
 0001:0001aa80       ?OnOK@CCommonDialog@@UAEXXZ 0041ba80 f i Propdlg.obj
 0001:0001aae0       ??_GCCommonDialog@@UAEPAXI@Z 0041bae0 f i Propdlg.obj
 0001:0001aae0       ??_ECCommonDialog@@UAEPAXI@Z 0041bae0 f i Propdlg.obj
 0001:0001ab00       ??1CCommonDialog@@UAE@XZ   0041bb00 f i Propdlg.obj
 0001:0001ab50       ?_ProcessWindowMessage@CAboutDlg@@UAEHPAUHWND__@@IIJAAJ@Z 0041bb50 f i Propdlg.obj
 0001:0001ab50       ?_ProcessWindowMessage@CDialog@@UAEHPAUHWND__@@IIJAAJ@Z 0041bb50 f i Propdlg.obj
 0001:0001ab50       ?_ProcessWindowMessage@CCommonDialog@@UAEHPAUHWND__@@IIJAAJ@Z 0041bb50 f i Propdlg.obj
 0001:0001abe0       ??1CFileDialogMTL@@UAE@XZ  0041bbe0 f i Propdlg.obj
 0001:0001ac80       ?OnInitDone@CFileDialogMTL@@UAEXXZ 0041bc80 f i Propdlg.obj
 0001:0001ae10       ?OnLBSelChangedNotify@CFileDialogMTL@@UAEXIII@Z 0041be10 f i Propdlg.obj
 0001:0001ae20       ?OnNotify@CFileDialogMTL@@UAEHIJPAJ@Z 0041be20 f i Propdlg.obj
 0001:0001aff0       ?OnShareViolation@CFileDialogMTL@@UAEIPBG@Z 0041bff0 f i Propdlg.obj
 0001:0001aff0       ?GetScrollBarCtrl@CWMHnd@@UBEPAVCScrollBarMTL@@H@Z 0041bff0 f i Propdlg.obj
 0001:0001b000       ??1CPrintDialogMTL@@QAE@XZ 0041c000 f i Propdlg.obj
 0001:0001b000       ?UpdateOFNFromShellDialog@CFileDialogMTL@@UAEXXZ 0041c000 f i Propdlg.obj
 0001:0001b000       ?OnShowMenuBar@CFrameWnd@@UAEXXZ 0041c000 f i Propdlg.obj
 0001:0001b000       ?OnCancel@CPropertyPageMTL@@UAEXXZ 0041c000 f i Propdlg.obj
 0001:0001b000       ?PostNcDestroy@CWMHnd@@UAEXXZ 0041c000 f i Propdlg.obj
 0001:0001b000       ??1?$CWindowImplRoot@VCWindow@ATL@@@ATL@@QAE@XZ 0041c000 f i Propdlg.obj
 0001:0001b000       ?OnHideMenuBar@CFrameWnd@@UAEXXZ 0041c000 f i Propdlg.obj
 0001:0001b000       ?DeleteContents@CDocument@@UAEXXZ 0041c000 f i Propdlg.obj
 0001:0001b000       ?OnTypeChange@CFileDialogMTL@@UAEXXZ 0041c000 f i Propdlg.obj
 0001:0001b000       ?OnFolderChange@CFileDialogMTL@@UAEXXZ 0041c000 f i Propdlg.obj
 0001:0001b000       ?OnOK@CPropertyPageMTL@@UAEXXZ 0041c000 f i Propdlg.obj
 0001:0001b000       ?OnFileNameChange@CFileDialogMTL@@UAEXXZ 0041c000 f i Propdlg.obj
 0001:0001b000       ?_simpleMemoryException@?1??GetCException@CAfx@@SAAAVCException@@H@Z@$AVCMemoryException@@A 0041c000 f i Propdlg.obj
 0001:0001b000       ?_simpleNotSupportedException@?1??GetCException@CAfx@@SAAAVCException@@H@Z@$AVCNotSupportedException@@A 0041c000 f i Propdlg.obj
 0001:0001b000       ?_simpleResourceException@?1??GetCException@CAfx@@SAAAVCException@@H@Z@$AVCResourceException@@A 0041c000 f i Propdlg.obj
 0001:0001b000       ?_simpleInvalidArgException@?1??GetCException@CAfx@@SAAAVCException@@H@Z@$AVCInvalidArgException@@A 0041c000 f i Propdlg.obj
 0001:0001b000       ?_afxdata@?1??_GetAfxData@CAfx@@SAABU_AUX_DATA@@XZ@$AU2@A 0041c000 f i Propdlg.obj
 0001:0001b010       ?DoModal@CFileDialogMTL@@UAEJXZ 0041c010 f i Propdlg.obj
 0001:0001b190       ??_GCFileDialogMTL@@UAEPAXI@Z 0041c190 f i Propdlg.obj
 0001:0001b190       ??_ECFileDialogMTL@@UAEPAXI@Z 0041c190 f i Propdlg.obj
 0001:0001b1b0       ?_AfxAppendFilterSuffix@@YAXAAVCString@WTL@@AAUtagOFNW@@PAVCDocTemplate@@PAV12@@Z 0041c1b0 f i Propdlg.obj
 0001:0001b4a0       ?Mid@CString@WTL@@QBE?AV12@H@Z 0041c4a0 f i Propdlg.obj
 0001:0001b4d0       ?Mid@CString@WTL@@QBE?AV12@HH@Z 0041c4d0 f i Propdlg.obj
 0001:0001b660       ?Tokenize@@YA?AVCString@WTL@@AAV12@PAGAAH@Z 0041c660 f i Propdlg.obj
 0001:0001b690       ?Tokenize@CAfx@@SA?AVCString@WTL@@AAV23@PAGAAH@Z 0041c690 f i Propdlg.obj
 0001:0001b7c0       ?_AfxCommDlgProc@CCommonDialog@@SGKPAUHWND__@@IIJ@Z 0041c7c0 f i Propdlg.obj
 0001:0001ba10       ?AfxResolveShortcut@@YAHPAVCWMHnd@@PBGPAGH@Z 0041ca10 f i Propdlg.obj
 0001:0001bc90       ?GetClassObject@AFX_COM@@QAEJABU_GUID@@0PAPAX@Z 0041cc90 f i Propdlg.obj
 0001:0001bef0       ?AfxGetInProcServer@CAfx@@SAHPBGAAVCString@WTL@@@Z 0041cef0 f i Propdlg.obj
 0001:0001c100       ?AfxStringFromCLSID@@YA?AVCString@WTL@@ABU_GUID@@@Z 0041d100 f i Propdlg.obj
 0001:0001c130       ?AfxStringFromCLSID@CAfx@@SA?AVCString@WTL@@ABU_GUID@@@Z 0041d130 f i Propdlg.obj
 0001:0001c320       ?OpenDocumentFile@CMultiDocTemplate@@UAEPAVCDocument@@PBGHH@Z 0041d320 f i Propdlg.obj
 0001:0001c5d0       ?ShowAppMessageBox@CWinApp@@SAHPAV1@PBGII@Z 0041d5d0 f i Propdlg.obj
 0001:0001c710       ??1CWaitCursor@@QAE@XZ     0041d710 f i Propdlg.obj
 0001:0001c760       ?ReadList@CRecentFileList@@UAEXXZ 0041d760 f i Propdlg.obj
 0001:0001c910       ?GetProfileStringW@CWinApp@@QAE?AVCString@WTL@@PBG00@Z 0041d910 f i Propdlg.obj
 0001:0001caf0       ?UpdateMenu@CRecentFileList@@UAEXPAVCCmdUI@@@Z 0041daf0 f i Propdlg.obj
 0001:0001cf70       ??HWTL@@YG?AVCString@0@ABV10@0@Z 0041df70 f i Propdlg.obj
 0001:0001d130       ?WriteList@CRecentFileList@@UAEXXZ 0041e130 f i Propdlg.obj
 0001:0001d1d0       ?RunModalLoop@CWnd@@QAEHK@Z 0041e1d0 f i Propdlg.obj
 0001:0001d370       ?GetRuntimeClass@CModalShapePropSheet@@UBEPAUCRuntimeClass@@XZ 0041e370 f   Propsht.obj
 0001:0001d380       ??0CModalShapePropSheet@@QAE@PAVCWnd@@@Z 0041e380 f   Propsht.obj
 0001:0001d640       ?_ProcessWindowMessage@CModalShapePropSheet@@UAEHPAUHWND__@@IIJAAJ@Z 0041e640 f i Propsht.obj
 0001:0001d6b0       ??_GCModalShapePropSheet@@UAEPAXI@Z 0041e6b0 f i Propsht.obj
 0001:0001d6b0       ??_ECModalShapePropSheet@@UAEPAXI@Z 0041e6b0 f i Propsht.obj
 0001:0001d6d0       ??1CStylePage@@UAE@XZ      0041e6d0 f i Propsht.obj
 0001:0001d7e0       ??1CModalShapePropSheet@@UAE@XZ 0041e7e0 f i Propsht.obj
 0001:0001d9d0       ?OnInitDialog@CModalShapePropSheet@@UAEHXZ 0041e9d0 f   Propsht.obj
 0001:0001dca0       ?SetShapePropsFromSheet@CModelessShapePropSheet@@QAEXPAVCShape@@@Z 0041eca0 f   Propsht.obj
 0001:0001dca0       ?SetShapePropsFromSheet@CModalShapePropSheet@@QAEXPAVCShape@@@Z 0041eca0 f   Propsht.obj
 0001:0001dd20       ?UpdateShapePreview@CModalShapePropSheet@@QAEXXZ 0041ed20 f   Propsht.obj
 0001:0001dd50       ?OnApplyNow@CModalShapePropSheet@@IAEXXZ 0041ed50 f   Propsht.obj
 0001:0001de20       ??0CRect@WTL@@QAE@HHHH@Z   0041ee20 f i Propsht.obj
 0001:0001de40       ?PreProcessPageTemplate@CPropertyPageMTL@@QAEXAAU_PROPSHEETPAGEW@@H@Z 0041ee40 f i Propsht.obj
 0001:0001e180       ??0CSimpleException@@QAE@HI@Z 0041f180 f i Propsht.obj
 0001:0001e1a0       ?_AfxChangePropPageFont@CPropertyPageMTL@@SAPAUDLGTEMPLATE@@PBU2@H@Z 0041f1a0 f i Propsht.obj
 0001:0001e510       ??1CDialogTemplate@@QAE@XZ 0041f510 f i Propsht.obj
 0001:0001e520       ?GetFontSizeField@CDialogTemplate@@SAPAEPBUDLGTEMPLATE@@@Z 0041f520 f i Propsht.obj
 0001:0001e590       ?GetFont@CDialogTemplate@@SAHPBUDLGTEMPLATE@@AAVCString@WTL@@AAG@Z 0041f590 f i Propsht.obj
 0001:0001e6d0       ?GetTemplateSize@CDialogTemplate@@QAEIPBUDLGTEMPLATE@@@Z 0041f6d0 f i Propsht.obj
 0001:0001e820       ?SetFont@CDialogTemplate@@QAEHPBGG@Z 0041f820 f i Propsht.obj
 0001:0001ea00       ?SetTemplate@CDialogTemplate@@QAEHPBUDLGTEMPLATE@@I@Z 0041fa00 f i Propsht.obj
 0001:0001ea80       ?IsFontInstalled@CPropertyPageMTL@@SAHPBG@Z 0041fa80 f i Propsht.obj
 0001:0001eaf0       ?FontEnumProc@CPropertyPageMTL@@SGHPBUtagLOGFONTW@@PBUtagTEXTMETRICW@@KJ@Z 0041faf0 f i Propsht.obj
 0001:0001eb10       ?_afxPropPageFontInfo@?1??_GetAfxPropPageFontInfo@CPropertyPageMTL@@SAAAU_AFX_PROPPAGEFONTINFO@@XZ@$AU2@A 0041fb10 f i Propsht.obj
 0001:0001eb20       ??1CPropertySheetMTL@@UAE@XZ 0041fb20 f i Propsht.obj
 0001:0001ebe0       ?OnInitDialog@CPropertySheetMTL@@UAEHXZ 0041fbe0 f i Propsht.obj
 0001:0001efd0       ?OnCommand@CPropertySheetMTL@@UAEHIJ@Z 0041ffd0 f i Propsht.obj
 0001:0001f120       ?AddPage@CPropertySheetMTL@@QAEXPAVCPropertyPageMTL@@@Z 00420120 f i Propsht.obj
 0001:0001f530       ?SetSize@?$CArray@PAXABQAX@@QAEXJJ@Z 00420530 f i Propsht.obj
 0001:0001f530       ?SetSize@?$CArray@W4LoadArrayObjType@CArchive@@ABW412@@@QAEXJJ@Z 00420530 f i Propsht.obj
 0001:0001f650       ?BuildPropPageArray@CPropertySheetMTL@@UAEXXZ 00420650 f i Propsht.obj
 0001:0001f940       ?ContinueModal@CPropertySheetMTL@@UAEHXZ 00420940 f i Propsht.obj
 0001:0001f970       ?PreTranslateMessage@CPropertySheetMTL@@UAEHPAUtagMSG@@@Z 00420970 f i Propsht.obj
 0001:0001fa90       ??_ECPropertySheetMTL@@UAEPAXI@Z 00420a90 f i Propsht.obj
 0001:0001fa90       ??_GCPropertySheetMTL@@UAEPAXI@Z 00420a90 f i Propsht.obj
 0001:0001fab0       ?_ProcessWindowMessage@CPropertySheetMTL@@UAEHPAUHWND__@@IIJAAJ@Z 00420ab0 f i Propsht.obj
 0001:0001fd70       ?OnKickIdle@CPropertySheetMTL@@QAEJIJ@Z 00420d70 f i Propsht.obj
 0001:0001fdd0       ?OnSetDefID@CPropertySheetMTL@@QAEJIJ@Z 00420dd0 f i Propsht.obj
 0001:0001fec0       ?HandleInitDialog@CPropertySheetMTL@@QAEJIJ@Z 00420ec0 f i Propsht.obj
 0001:0001fed0       ?AfxHelpEnabled@@YAHXZ     00420ed0 f i Propsht.obj
 0001:0001ff50       ?Create@CPropertySheetMTL@@UAEHPAVCWnd@@KK@Z 00420f50 f i Propsht.obj
 0001:000200a0       ?AfxPropSheetCallback@CPropertySheetMTL@@SGHPAUHWND__@@IJ@Z 004210a0 f i Propsht.obj
 0001:00020120       ?DoModal@CPropertySheetMTL@@UAEJXZ 00421120 f i Propsht.obj
 0001:00020550       ?GetRuntimeClass@CModelessShapePropSheet@@UBEPAUCRuntimeClass@@XZ 00421550 f   Propsht2.obj
 0001:00020560       ??0CModelessShapePropSheet@@QAE@PAVCWnd@@@Z 00421560 f   Propsht2.obj
 0001:00020810       ?_ProcessWindowMessage@CModelessShapePropSheet@@UAEHPAUHWND__@@IIJAAJ@Z 00421810 f i Propsht2.obj
 0001:00020840       ??_ECModelessShapePropSheet@@UAEPAXI@Z 00421840 f i Propsht2.obj
 0001:00020840       ??_GCModelessShapePropSheet@@UAEPAXI@Z 00421840 f i Propsht2.obj
 0001:00020860       ??1CModelessShapePropSheet@@UAE@XZ 00421860 f i Propsht2.obj
 0001:00020a70       ?PostNcDestroy@CModelessShapePropSheet@@UAEXXZ 00421a70 f   Propsht2.obj
 0001:00020a80       ?SetSheetPropsFromShape@CModelessShapePropSheet@@QAEXPAVCShape@@@Z 00421a80 f   Propsht2.obj
 0001:00020b70       ?CreateObject@CShapesDoc@@SAPAVCObject@@XZ 00421b70 f   Shapedoc.obj
 0001:00020bd0       ?GetRuntimeClass@CShapesDoc@@UBEPAUCRuntimeClass@@XZ 00421bd0 f   Shapedoc.obj
 0001:00020be0       ??0CShapesDoc@@IAE@XZ      00421be0 f   Shapedoc.obj
 0001:00020c30       ?_ProcessWindowMessage@CShapesDoc@@UAEHPAUHWND__@@IIJAAJ@Z 00421c30 f i Shapedoc.obj
 0001:00020d90       ??_ECShapesDoc@@UAEPAXI@Z  00421d90 f i Shapedoc.obj
 0001:00020d90       ??_GCShapesDoc@@UAEPAXI@Z  00421d90 f i Shapedoc.obj
 0001:00020db0       ??1CShapesDoc@@UAE@XZ      00421db0 f   Shapedoc.obj
 0001:00020ed0       ??1?$CList@PAUCRuntimeClass@@ABQAU1@@@QAE@XZ 00421ed0 f i Shapedoc.obj
 0001:00020ed0       ??1?$CList@PAVCFrameWnd@@ABQAV1@@@QAE@XZ 00421ed0 f i Shapedoc.obj
 0001:00020ed0       ??1?$CList@PAXPAX@@QAE@XZ  00421ed0 f i Shapedoc.obj
 0001:00020ed0       ??1?$CTypedPtrList@V?$CList@PAVCObject@@ABQAV1@@@PAVCShape@@@@QAE@XZ 00421ed0 f i Shapedoc.obj
 0001:00020ed0       ??1?$CList@PAUHWND__@@PAU1@@@QAE@XZ 00421ed0 f i Shapedoc.obj
 0001:00020f10       ?OnNewDocument@CShapesDoc@@MAEHXZ 00421f10 f   Shapedoc.obj
 0001:00021080       ?AddShape@CShapesDoc@@QAEXPAVCShape@@@Z 00422080 f   Shapedoc.obj
 0001:000210f0       ?HitTest@CShapesDoc@@QAEPAVCShape@@VCPoint@WTL@@@Z 004220f0 f   Shapedoc.obj
 0001:00021140       ?Serialize@CShapesDoc@@UAEXAAVCArchive@@@Z 00422140 f   Shapedoc.obj
 0001:00021270       ??6CArchive@@QAEAAV0@K@Z   00422270 f i Shapedoc.obj
 0001:000212e0       ?FillBuffer@CArchive@@QAEXI@Z 004222e0 f i Shapedoc.obj
 0001:00021360       ?Flush@CArchive@@QAEXXZ    00422360 f i Shapedoc.obj
 0001:000213b0       ?ReadObject@CArchive@@QAEPAVCObject@@PBUCRuntimeClass@@@Z 004223b0 f i Shapedoc.obj
 0001:00021810       ?Lookup@?$CMapList@PAXPAXV?$CPair@PAXPAX@@$0A@@@QBEHQAXAAPAX@Z 00422810 f i Shapedoc.obj
 0001:00021850       ?Find@?$CMapList@PAXPAXV?$CPair@PAXPAX@@$0A@@@QBEPAU__POSITION@@QAX@Z 00422850 f i Shapedoc.obj
 0001:00021870       ?FindData@?$CMapList@PAXPAXV?$CPair@PAXPAX@@$0A@@@QAEAAV?$CPair@PAXPAX@@QAXH@Z 00422870 f i Shapedoc.obj
 0001:000218e0       ?NewNode@?$CList@V?$CPair@PAXPAX@@ABV1@@@QAEPAUCNode@1@PAU21@0@Z 004228e0 f i Shapedoc.obj
 0001:00021930       ??0CArchiveException@@QAE@HPBG@Z 00422930 f i Shapedoc.obj
 0001:00021a50       ?CreateObject@CRuntimeClass@@QAEPAVCObject@@XZ 00422a50 f i Shapedoc.obj
 0001:00021a60       ??5CArchive@@QAEAAV0@AAG@Z 00422a60 f i Shapedoc.obj
 0001:00021b00       ??5CArchive@@QAEAAV0@AAK@Z 00422b00 f i Shapedoc.obj
 0001:00021ba0       ?AfxThrowArchiveException@CArchive@@SAXHPBG@Z 00422ba0 f i Shapedoc.obj
 0001:00021ce0       ?CheckCount@CArchive@@QAEXXZ 00422ce0 f i Shapedoc.obj
 0001:00021d00       ?EnsureSchemaMapExists@CArchive@@QAEXPAPAV?$CArray@W4LoadArrayObjType@CArchive@@ABW412@@@@Z 00422d00 f i Shapedoc.obj
 0001:00021f30       ?AddTail@?$CList@V?$CPair@PAXPAX@@ABV1@@@QAEPAU__POSITION@@ABV?$CPair@PAXPAX@@@Z 00422f30 f i Shapedoc.obj
 0001:00021f80       ??0?$CPair@PAXPAX@@QAE@PAXH@Z 00422f80 f i Shapedoc.obj
 0001:00021fa0       ?MapObject@CArchive@@QAEXPBVCObject@@@Z 00422fa0 f i Shapedoc.obj
 0001:000222b0       ?WriteObject@CArchive@@QAEXPBVCObject@@@Z 004232b0 f i Shapedoc.obj
 0001:00022550       ??6CArchive@@QAEAAV0@G@Z   00423550 f i Shapedoc.obj
 0001:000225c0       ?Load@CRuntimeClass@@SAPAU1@AAVCArchive@@PAI@Z 004235c0 f i Shapedoc.obj
 0001:000227e0       ?FromName@CRuntimeClass@@SAPAU1@PBD@Z 004237e0 f i Shapedoc.obj
 0001:00022820       ?Store@CRuntimeClass@@QBEXAAVCArchive@@@Z 00423820 f i Shapedoc.obj
 0001:000229d0       ??1CDocument@@UAE@XZ       004239d0 f i Shapedoc.obj
 0001:00022aa0       ?GetFirstViewPosition@CDocument@@UBEPAU__POSITION@@XZ 00423aa0 f i Shapedoc.obj
 0001:00022ab0       ?GetNextView@CDocument@@UBEPAVCView@@AAPAU__POSITION@@@Z 00423ab0 f i Shapedoc.obj
 0001:00022ad0       ?ReleaseFile@CDocument@@UAEXPAVCFile@@H@Z 00423ad0 f i Shapedoc.obj
 0001:00022b10       ??1CFile@@QAE@XZ           00423b10 f i Shapedoc.obj
 0001:00022cb0       ?OsErrorToException@CFileException@@SAHJ@Z 00423cb0 f i Shapedoc.obj
 0001:00022e60       ?Abort@CFile@@UAEXXZ       00423e60 f i Shapedoc.obj
 0001:00022f70       ?Close@CFile@@UAEXXZ       00423f70 f i Shapedoc.obj
 0001:00023080       ?ThrowOsError@CFileException@@SAXJPBG@Z 00424080 f i Shapedoc.obj
 0001:00023340       ?GetFilePath@CFile@@UBE?AVCString@WTL@@XZ 00424340 f i Shapedoc.obj
 0001:000235a0       ??0CTime@@QAE@ABU_SYSTEMTIME@@H@Z 004245a0 f i Shapedoc.obj
 0001:00023730       ??0CTime@@QAE@ABU_FILETIME@@H@Z 00424730 f i Shapedoc.obj
 0001:000239b0       ??0CTime@@QAE@HHHHHHH@Z    004249b0 f i Shapedoc.obj
 0001:00023b00       ?IsValidFILETIME@CTime@@SAHABU_FILETIME@@@Z 00424b00 f i Shapedoc.obj
 0001:00023b40       ?GetLength@CFile@@UBE_KXZ  00424b40 f i Shapedoc.obj
 0001:00023b90       ?Open@CFile@@UAEHPBGIPAVCFileException@@@Z 00424b90 f i Shapedoc.obj
 0001:00023eb0       ?Read@CFile@@UAEIPAXI@Z    00424eb0 f i Shapedoc.obj
 0001:00023f00       ?Write@CFile@@UAEXPBXI@Z   00424f00 f i Shapedoc.obj
 0001:00023f60       ?AfxThrowFileException@CFile@@SAXHJPBG@Z 00424f60 f i Shapedoc.obj
 0001:000240b0       ?Seek@CFile@@UAE_K_JI@Z    004250b0 f i Shapedoc.obj
 0001:00024110       ?SetModifiedFlag@CDocument@@UAEXH@Z 00425110 f i Shapedoc.obj
 0001:00024120       ?SetTitle@CDocument@@UAEXPBG@Z 00425120 f i Shapedoc.obj
 0001:000243d0       ?CDocumentDestruct@CDocument@@QAEXXZ 004253d0 f i Shapedoc.obj
 0001:00024420       ?OnCmdMsg@CDocument@@UAEHIHPAXPAUAFX_CMDHANDLERINFO@@@Z 00425420 f i Shapedoc.obj
 0001:00024560       ?OnOpenDocument@CDocument@@UAEHPBG@Z 00425560 f i Shapedoc.obj
 0001:00024820       ??4CString@WTL@@QAEAAV01@ABV01@@Z 00425820 f i Shapedoc.obj
 0001:000248f0       ??_GCFile@@QAEPAXI@Z       004258f0 f i Shapedoc.obj
 0001:00024910       ?DoWaitCursor@CWinApp@@QAEXH@Z 00425910 f i Shapedoc.obj
 0001:00024980       ??1CArchive@@QAE@XZ        00425980 f i Shapedoc.obj
 0001:000249c0       ?OnSaveDocument@CDocument@@UAEHPBG@Z 004259c0 f i Shapedoc.obj
 0001:00024c00       ?DoSave@CDocument@@UAEHPBGH@Z 00425c00 f i Shapedoc.obj
 0001:00024f80       ?DoPromptFileName@CWinApp@@QAEHAAVCString@WTL@@IKHPAVCDocTemplate@@@Z 00425f80 f i Shapedoc.obj
 0001:00024fb0       ?DoPromptFileName@CDocManager@@QAEHAAVCString@WTL@@IKHPAVCDocTemplate@@@Z 00425fb0 f i Shapedoc.obj
 0001:000254c0       ?SetAt@CString@WTL@@QAEXHG@Z 004264c0 f i Shapedoc.obj
 0001:00025580       ??YCString@WTL@@QAEAAV01@ABV01@@Z 00426580 f i Shapedoc.obj
 0001:000256b0       ??0CCommonDialog@@QAE@PAVCWnd@@@Z 004266b0 f i Shapedoc.obj
 0001:000256f0       ?SaveModified@CDocument@@UAEHXZ 004266f0 f i Shapedoc.obj
 0001:00025a10       ?AfxFormatStrings@CAfx@@SAXAAVCString@WTL@@IPBQBGH@Z 00426a10 f i Shapedoc.obj
 0001:00025d00       ?AfxGetFileTitle@CAfx@@SAIPBGPAGI@Z 00426d00 f i Shapedoc.obj
 0001:00025d90       ?SetPathName@CDocument@@UAEXPBGH@Z 00426d90 f i Shapedoc.obj
 0001:00025ed0       ?CreateObject@CShape@@SAPAVCObject@@XZ 00426ed0 f   Shapeobj.obj
 0001:00025f30       ?GetRuntimeClass@CShape@@UBEPAUCRuntimeClass@@XZ 00426f30 f   Shapeobj.obj
 0001:00025f90       ??0CShape@@QAE@XZ          00426f90 f   Shapeobj.obj
 0001:00025fd0       ??0CShape@@QAE@W4SHAPE_COLOR_ENUM@@W4SHAPE_STYLE@@AAVCRect@WTL@@@Z 00426fd0 f   Shapeobj.obj
 0001:00026010       ?Draw@CShape@@QAEXPAVCDCMTL@@H@Z 00427010 f   Shapeobj.obj
 0001:000262a0       ?Serialize@CShape@@UAEXAAVCArchive@@@Z 004272a0 f   Shapeobj.obj
 0001:00026440       ??BSHAPE_COLOR@@QBEKXZ     00427440 f   Shapeobj.obj
 0001:00026480       ??BSHAPE_COLOR@@QBEHXZ     00427480 f   Shapeobj.obj
 0001:00026490       ??4SHAPE_COLOR@@QAEABU0@H@Z 00427490 f   Shapeobj.obj
 0001:000264a0       ?NewNode@?$CList@PAUHWND__@@PAU1@@@QAEPAUCNode@1@PAU21@0@Z 004274a0 f i Shapeobj.obj
 0001:000264a0       ?NewNode@?$CList@PAXPAX@@QAEPAUCNode@1@PAU21@0@Z 004274a0 f i Shapeobj.obj
 0001:000264a0       ?NewNode@?$CList@PAUCRuntimeClass@@ABQAU1@@@QAEPAUCNode@1@PAU21@0@Z 004274a0 f i Shapeobj.obj
 0001:000264a0       ?NewNode@?$CList@PAVCObject@@ABQAV1@@@QAEPAUCNode@1@PAU21@0@Z 004274a0 f i Shapeobj.obj
 0001:000264a0       ?NewNode@?$CList@PAVCFrameWnd@@ABQAV1@@@QAEPAUCNode@1@PAU21@0@Z 004274a0 f i Shapeobj.obj
 0001:000264e0       ??1?$CPenT@$00@WTL@@QAE@XZ 004274e0 f i Shapeobj.obj
 0001:00026500       ?Read@CArchive@@QAEIPAXI@Z 00427500 f i Shapeobj.obj
 0001:00026650       ?Write@CArchive@@QAEXPBXI@Z 00427650 f i Shapeobj.obj
 0001:00026730       ?classHandleFuncCGdiObject@CGdiObject@@SAPAXPAX0@Z 00427730 f i Shapeobj.obj
 0001:00026770       ??_ECGdiObject@@UAEPAXI@Z  00427770 f i Shapeobj.obj
 0001:00026770       ??_GCGdiObject@@UAEPAXI@Z  00427770 f i Shapeobj.obj
 0001:00026790       ??1CGdiObject@@UAE@XZ      00427790 f i Shapeobj.obj
 0001:000267e0       ?FromHandle@CGdiObject@@SAPAV1@PAXPAV1@PAUHWND__@@P6APAX00@Z@Z 004277e0 f i Shapeobj.obj
 0001:00026800       ?RemoveHandle@CPenMTL@@SAPAUHPEN__@@PAU2@@Z 00427800 f i Shapeobj.obj
 0001:00026820       ?CreateObject@CShapesView@@SAPAVCObject@@XZ 00427820 f   Shapesvw.obj
 0001:00026880       ?GetRuntimeClass@CShapesView@@UBEPAUCRuntimeClass@@XZ 00427880 f   Shapesvw.obj
 0001:00026890       ??0CShapesView@@IAE@XZ     00427890 f   Shapesvw.obj
 0001:000268c0       ?_ProcessWindowMessage@CShapesView@@UAEHPAUHWND__@@IIJAAJ@Z 004278c0 f i Shapesvw.obj
 0001:00026b40       ??_ECShapesView@@UAEPAXI@Z 00427b40 f i Shapesvw.obj
 0001:00026b40       ??_GCShapesView@@UAEPAXI@Z 00427b40 f i Shapesvw.obj
 0001:00026b60       ??1CShapesView@@UAE@XZ     00427b60 f   Shapesvw.obj
 0001:00026bd0       ?GetModelessShapePropSheet@CShapesView@@QAEPAVCModelessShapePropSheet@@XZ 00427bd0 f   Shapesvw.obj
 0001:00026c10       ?OnDraw@CShapesView@@UAEXPAVCDCMTL@@@Z 00427c10 f   Shapesvw.obj
 0001:00026ce0       ?OnPreparePrinting@CShapesView@@MAEHPAUCPrintInfo@@@Z 00427ce0 f   Shapesvw.obj
 0001:00026f30       ?OnEndPrinting@CShapesView@@MAEXPAVCDCMTL@@PAUCPrintInfo@@@Z 00427f30 f   Shapesvw.obj
 0001:00026f30       ?OnBeginPrinting@CShapesView@@MAEXPAVCDCMTL@@PAUCPrintInfo@@@Z 00427f30 f   Shapesvw.obj
 0001:00026f40       ?OnLButtonDown@CShapesView@@IAEXIVCPoint@WTL@@@Z 00427f40 f   Shapesvw.obj
 0001:00027110       ?OnLButtonDblClk@CShapesView@@IAEXIVCPoint@WTL@@@Z 00428110 f   Shapesvw.obj
 0001:00027150       ?OnSimplePropertySheet@CShapesView@@IAEXXZ 00428150 f   Shapesvw.obj
 0001:00027540       ?OnUpdateSimplePropertySheet@CShapesView@@IAEXPAVCCmdUI@@@Z 00428540 f   Shapesvw.obj
 0001:00027550       ?OnPropertySheetWithPreview@CShapesView@@IAEXXZ 00428550 f   Shapesvw.obj
 0001:00027650       ?OnUpdatePropertySheetWithPreview@CShapesView@@IAEXPAVCCmdUI@@@Z 00428650 f   Shapesvw.obj
 0001:00027690       ?OnChangeObjectProps@CShapesView@@IAEJIJ@Z 00428690 f   Shapesvw.obj
 0001:00027710       ?OnKeyDown@CShapesView@@IAEXIII@Z 00428710 f   Shapesvw.obj
 0001:00027770       ?Add@?$CArray@PAXABQAX@@QAEJABQAX@Z 00428770 f i Shapesvw.obj
 0001:00027920       ?CommonConstruct@CPropertySheetMTL@@QAEXPAVCWnd@@I@Z 00428920 f i Shapesvw.obj
 0001:00027a00       ?OnBarStyleChange@CControlBar@@UAEXKK@Z 00428a00 f i Shapesvw.obj
 0001:00027a00       ?OnBeginPrinting@CView@@UAEXPAVCDCMTL@@PAUCPrintInfo@@@Z 00428a00 f i Shapesvw.obj
 0001:00027a00       ?OnActivateFrame@CView@@UAEXIPAVCFrameWnd@@@Z 00428a00 f i Shapesvw.obj
 0001:00027a00       ?OnEndPrinting@CView@@UAEXPAVCDCMTL@@PAUCPrintInfo@@@Z 00428a00 f i Shapesvw.obj
 0001:00027a10       ?OnActivateView@CView@@UAEXHPAV1@0@Z 00428a10 f i Shapesvw.obj
 0001:00027b00       ?OnInitialUpdate@CView@@UAEXXZ 00428b00 f i Shapesvw.obj
 0001:00027b10       ?OnPrint@CView@@UAEXPAVCDCMTL@@PAUCPrintInfo@@@Z 00428b10 f i Shapesvw.obj
 0001:00027b20       ?OnPrepareDC@CView@@UAEXPAVCDCMTL@@PAUCPrintInfo@@@Z 00428b20 f i Shapesvw.obj
 0001:00027b50       ?OnPreparePrinting@CView@@UAEHPAUCPrintInfo@@@Z 00428b50 f i Shapesvw.obj
 0001:00027b60       ?OnScroll@CView@@UAEHIIH@Z 00428b60 f i Shapesvw.obj
 0001:00027b60       ?OnScrollBy@CView@@UAEHVCSize@WTL@@H@Z 00428b60 f i Shapesvw.obj
 0001:00027b70       ?OnUpdate@CView@@UAEXPAV1@JPAVCObject@@@Z 00428b70 f i Shapesvw.obj
 0001:00027b90       ?PostNcDestroy@CView@@UAEXXZ 00428b90 f i Shapesvw.obj
 0001:00027b90       ?PostNcDestroy@CFrameWnd@@UAEXXZ 00428b90 f i Shapesvw.obj
 0001:00027ba0       ?PreCreateWindow@CView@@UAEHAAUtagCREATESTRUCTW@@@Z 00428ba0 f i Shapesvw.obj
 0001:00027bf0       ??_ECView@@UAEPAXI@Z       00428bf0 f i Shapesvw.obj
 0001:00027bf0       ??_GCView@@UAEPAXI@Z       00428bf0 f i Shapesvw.obj
 0001:00027c10       ??1CView@@UAE@XZ           00428c10 f i Shapesvw.obj
 0001:00027c80       ?_ProcessWindowMessage@CView@@UAEHPAUHWND__@@IIJAAJ@Z 00428c80 f i Shapesvw.obj
 0001:00027fe0       ??_9@$BJA@AE               00428fe0 f i Shapesvw.obj
 0001:00027ff0       ??0CPaintDCMTL@@QAE@PAVCWMHnd@@@Z 00428ff0 f i Shapesvw.obj
 0001:00028050       ?SetActiveView@CFrameWnd@@QAEXPAVCView@@H@Z 00429050 f i Shapesvw.obj
 0001:000280a0       ?OnEndPrintPreview@CView@@UAEXPAVCDCMTL@@PAUCPrintInfo@@UtagPOINT@@PAVCPreviewView@@@Z 004290a0 f i Shapesvw.obj
 0001:00028260       ?OnFilePrintPreview@CView@@QAEXXZ 00429260 f i Shapesvw.obj
 0001:00028560       ??0CDialogBar@@QAE@XZ      00429560 f i Shapesvw.obj
 0001:00028610       ?OnUpdateCmdUI@CDialogBar@@UAEXPAVCFrameWnd@@H@Z 00429610 f i Shapesvw.obj
 0001:00028630       ?Create@CDialogBar@@UAEHPAVCWnd@@III@Z 00429630 f i Shapesvw.obj
 0001:00028660       ?Create@CDialogBar@@UAEHPAVCWnd@@PBGII@Z 00429660 f i Shapesvw.obj
 0001:00028890       ?HookWindowCreate@CWnd@@SAHPAV1@G@Z 00429890 f i Shapesvw.obj
 0001:000288d0       ?UnhookWindowCreate@CWnd@@SAHXZ 004298d0 f i Shapesvw.obj
 0001:000288f0       ?CalcFixedLayout@CDialogBar@@UAE?AVCSize@WTL@@HH@Z 004298f0 f i Shapesvw.obj
 0001:00028940       ??_ECDialogBar@@UAEPAXI@Z  00429940 f i Shapesvw.obj
 0001:00028940       ??_GCDialogBar@@UAEPAXI@Z  00429940 f i Shapesvw.obj
 0001:00028960       ??1CDialogBar@@UAE@XZ      00429960 f i Shapesvw.obj
 0001:00028aa0       ?OnPreviewClose@CPreviewView@@QAEXXZ 00429aa0 f i Shapesvw.obj
 0001:00028b90       ?SetPrintView@CPreviewView@@QAEHPAVCView@@@Z 00429b90 f i Shapesvw.obj
 0001:00029030       ?Attach@?$CDCT@$00@WTL@@QAEXPAUHDC__@@@Z 0042a030 f i Shapesvw.obj
 0001:00029060       ?classHandleFuncCDCMTL@CDCMTL@@SAPAXPAX0@Z 0042a060 f i Shapesvw.obj
 0001:000290b0       ?SetMapMode@CDCMTL@@QAEHH@Z 0042a0b0 f i Shapesvw.obj
 0001:000290e0       ?SaveDC@CPreviewDC@@UAEHXZ 0042a0e0 f i Shapesvw.obj
 0001:00029140       ?RestoreDC@CPreviewDC@@UAEHH@Z 0042a140 f i Shapesvw.obj
 0001:00029380       ?MirrorFont@CPreviewDC@@QAEXXZ 0042a380 f i Shapesvw.obj
 0001:00029580       ?TextOutW@CPreviewDC@@UAEHHHPBGH@Z 0042a580 f i Shapesvw.obj
 0001:000295b0       ?ExtTextOutW@CPreviewDC@@QAEHHHIPBUtagRECT@@PBGIPAH@Z 0042a5b0 f i Shapesvw.obj
 0001:000297c0       ?Free@?$CAlloc@HABH@@QAEXXZ 0042a7c0 f i Shapesvw.obj
 0001:000297c0       ??1?$CAlloc@HABH@@QAE@XZ   0042a7c0 f i Shapesvw.obj
 0001:000297c0       ?Free@?$CAlloc@GABG@@QAEXXZ 0042a7c0 f i Shapesvw.obj
 0001:000297c0       ??1?$CAlloc@GABG@@QAE@XZ   0042a7c0 f i Shapesvw.obj
 0001:000297f0       ?ComputeDeltas@CPreviewDC@@QAE?AVCSize@WTL@@AAHPBGAAIHIPAHHPAG30@Z 0042a7f0 f i Shapesvw.obj
 0001:00029b50       ??_GCPreviewDC@@UAEPAXI@Z  0042ab50 f i Shapesvw.obj
 0001:00029b50       ??_ECPreviewDC@@UAEPAXI@Z  0042ab50 f i Shapesvw.obj
 0001:00029b70       ??1CPreviewDC@@UAE@XZ      0042ab70 f i Shapesvw.obj
 0001:00029be0       ??0CWindowDCMTL@@QAE@PAVCWMHnd@@@Z 0042abe0 f i Shapesvw.obj
 0001:00029c40       ??0CPrintDialogMTL@@QAE@HKPAVCWnd@@@Z 0042ac40 f i Shapesvw.obj
 0001:00029cf0       ?UpdateBars@CScrollView@@QAEXXZ 0042acf0 f i Shapesvw.obj
 0001:0002a0c0       ??GCSize@WTL@@QBE?AV01@UtagSIZE@@@Z 0042b0c0 f i Shapesvw.obj
 0001:0002a0e0       ?ScrollWindow@CWMHnd@@QAEXHHPBUtagRECT@@0@Z 0042b0e0 f i Shapesvw.obj
 0001:0002a1c0       ?SetScrollPos@CWMHnd@@QAEHHHH@Z 0042b1c0 f i Shapesvw.obj
 0001:0002a200       ?GetScrollPos@CWMHnd@@QBEHH@Z 0042b200 f i Shapesvw.obj
 0001:0002a240       ?SetScrollRange@CWMHnd@@QAEXHHHH@Z 0042b240 f i Shapesvw.obj
 0001:0002a2a0       ?EnableScrollBarCtrl@CWMHnd@@QAEXHH@Z 0042b2a0 f i Shapesvw.obj
 0001:0002a2f0       ?SetScrollInfo@CWMHnd@@QAEHHPAUtagSCROLLINFO@@H@Z 0042b2f0 f i Shapesvw.obj
 0001:0002a340       ?GetDeviceScrollPosition@CScrollView@@QBE?AVCPoint@WTL@@XZ 0042b340 f i Shapesvw.obj
 0001:0002a3b0       ?GetScrollBarSizes@CScrollView@@QAEXAAVCSize@WTL@@@Z 0042b3b0 f i Shapesvw.obj
 0001:0002a420       ?SetCurrentPage@CPreviewView@@QAEXIH@Z 0042b420 f i Shapesvw.obj
 0001:0002a4e0       ?_AfxPreviewCloseProc@CPrintPreviewState@@SGHPAVCFrameWnd@@@Z 0042b4e0 f i Shapesvw.obj
 0001:0002a5f0       ?OnChangedViewList@CDocument@@QAEXXZ 0042b5f0 f i Shapesvw.obj
 0001:0002a870       ?CViewDestruct@CView@@QAEXXZ 0042b870 f i Shapesvw.obj
 0001:0002a9c0       ?OnCmdMsg@CView@@UAEHIHPAXPAUAFX_CMDHANDLERINFO@@@Z 0042b9c0 f i Shapesvw.obj
 0001:0002aaf0       ?DoPrintDialog@CWinApp@@QAEJPAVCPrintDialogMTL@@@Z 0042baf0 f i Shapesvw.obj
 0001:0002acd0       ?FromHandle@CDCMTL@@SAPAV1@PAUHDC__@@PAV1@PAUHWND__@@P6APAXPAX3@Z@Z 0042bcd0 f i Shapesvw.obj
 0001:0002acf0       ?FromHandleDC@CWinApp@@QAEPAVCDCMTL@@PAUHDC__@@PAV2@PAUHWND__@@P6APAXPAX3@Z@Z 0042bcf0 f i Shapesvw.obj
 0001:0002ad80       ?NewNode@?$CHandleHashList@PAUHWND__@@VCWMHnd@@PAU1@$0BB@@@QAEPAV?$CHandlePair@PAUHWND__@@PAVCWMHnd@@PAU1@@@PAUHWND__@@@Z 0042bd80 f i Shapesvw.obj
 0001:0002ad80       ?NewNode@?$CHandleList@PAUHMENU__@@VCMenuMTL@@PAUHWND__@@@@QAEPAV?$CHandlePair@PAUHMENU__@@PAVCMenuMTL@@PAUHWND__@@@@PAUHMENU__@@@Z 0042bd80 f i Shapesvw.obj
 0001:0002ad80       ?NewNode@?$CHandleList@PAXVCGdiObject@@PAUHWND__@@@@QAEPAV?$CHandlePair@PAXPAVCGdiObject@@PAUHWND__@@@@PAX@Z 0042bd80 f i Shapesvw.obj
 0001:0002ad80       ?NewNode@?$CHandleList@PAUHDC__@@VCDCMTL@@PAUHWND__@@@@QAEPAV?$CHandlePair@PAUHDC__@@PAVCDCMTL@@PAUHWND__@@@@PAUHDC__@@@Z 0042bd80 f i Shapesvw.obj
 0001:0002adc0       ?OnFilePrint@CView@@QAEXXZ 0042bdc0 f i Shapesvw.obj
 0001:0002bc90       ?Attach@?$CHandleWrapper@VCDCMTL@@PAUHDC__@@V?$CDCT@$00@WTL@@@@QAEHPAUHDC__@@@Z 0042cc90 f i Shapesvw.obj
 0001:0002bce0       ?Detach@?$CHandleWrapper@VCDCMTL@@PAUHDC__@@V?$CDCT@$00@WTL@@@@QAEPAUHDC__@@XZ 0042cce0 f i Shapesvw.obj
 0001:0002bd00       ?SetRect@CRect@WTL@@QAEXHHHH@Z 0042cd00 f i Shapesvw.obj
 0001:0002bd20       ?_AfxAbortProc@CPrintingDialog@@SGHPAUHDC__@@H@Z 0042cd20 f i Shapesvw.obj
 0001:0002bd80       ??0CPrintingDialog@@QAE@PAVCWnd@@@Z 0042cd80 f i Shapesvw.obj
 0001:0002be00       ?OnInitDialog@CPrintingDialog@@UAEHXZ 0042ce00 f i Shapesvw.obj
 0001:0002c050       ?OnCancel@CPrintingDialog@@UAEXXZ 0042d050 f i Shapesvw.obj
 0001:0002c080       ??_ECPrintingDialog@@UAEPAXI@Z 0042d080 f i Shapesvw.obj
 0001:0002c080       ??_GCPrintingDialog@@UAEPAXI@Z 0042d080 f i Shapesvw.obj
 0001:0002c0a0       ??1CPrintingDialog@@UAE@XZ 0042d0a0 f i Shapesvw.obj
 0001:0002c0f0       ?GetPathName@CFileDialogMTL@@QAE?AVCString@WTL@@XZ 0042d0f0 f i Shapesvw.obj
 0001:0002c3d0       ??1CPrintInfo@@QAE@XZ      0042d3d0 f i Shapesvw.obj
 0001:0002c470       ??_GCPrintDialogMTL@@QAEPAXI@Z 0042d470 f i Shapesvw.obj
 0001:0002c680       ?GetRuntimeClass@CObject@@UBEPAUCRuntimeClass@@XZ 0042d680 f   Stdafx.obj
 0001:0002c690       ?GetRuntimeClass@CCmdTarget@@UBEPAUCRuntimeClass@@XZ 0042d690 f   Stdafx.obj
 0001:0002c6a0       ?CreateObject@CWnd@@SAPAVCObject@@XZ 0042d6a0 f   Stdafx.obj
 0001:0002c6e0       ?GetRuntimeClass@CWnd@@UBEPAUCRuntimeClass@@XZ 0042d6e0 f   Stdafx.obj
 0001:0002c6f0       ?GetRuntimeClass@CDialog@@UBEPAUCRuntimeClass@@XZ 0042d6f0 f   Stdafx.obj
 0001:0002c700       ?CreateObject@CFrameWnd@@SAPAVCObject@@XZ 0042d700 f   Stdafx.obj
 0001:0002c860       ?GetRuntimeClass@CFrameWnd@@UBEPAUCRuntimeClass@@XZ 0042d860 f   Stdafx.obj
 0001:0002c870       ?GetRuntimeClass@CView@@UBEPAUCRuntimeClass@@XZ 0042d870 f   Stdafx.obj
 0001:0002c880       ?GetRuntimeClass@CMultiDocTemplate@@UBEPAUCRuntimeClass@@XZ 0042d880 f   Stdafx.obj
 0001:0002c890       ?GetRuntimeClass@CControlBar@@UBEPAUCRuntimeClass@@XZ 0042d890 f   Stdafx.obj
 0001:0002c8a0       ?GetRuntimeClass@CToolBar@@UBEPAUCRuntimeClass@@XZ 0042d8a0 f   Stdafx.obj
 0001:0002c8b0       ?CreateObject@CMiniFrameWnd@@SAPAVCObject@@XZ 0042d8b0 f   Stdafx.obj
 0001:0002c9f0       ?GetRuntimeClass@CMiniFrameWnd@@UBEPAUCRuntimeClass@@XZ 0042d9f0 f   Stdafx.obj
 0001:0002ca00       ?CreateObject@CMDIFrameWnd@@SAPAVCObject@@XZ 0042da00 f   Stdafx.obj
 0001:0002cb50       ?GetRuntimeClass@CMDIFrameWnd@@UBEPAUCRuntimeClass@@XZ 0042db50 f   Stdafx.obj
 0001:0002cb60       ?CreateObject@CMDIChildWnd@@SAPAVCObject@@XZ 0042db60 f   Stdafx.obj
 0001:0002ccb0       ?GetRuntimeClass@CMDIChildWnd@@UBEPAUCRuntimeClass@@XZ 0042dcb0 f   Stdafx.obj
 0001:0002ccc0       ?GetRuntimeClass@CScrollView@@UBEPAUCRuntimeClass@@XZ 0042dcc0 f   Stdafx.obj
 0001:0002ccd0       ?CreateObject@CPreviewView@@SAPAVCObject@@XZ 0042dcd0 f   Stdafx.obj
 0001:0002ce50       ?GetRuntimeClass@CPreviewView@@UBEPAUCRuntimeClass@@XZ 0042de50 f   Stdafx.obj
 0001:0002ce60       ?GetRuntimeClass@CPropertyPageMTL@@UBEPAUCRuntimeClass@@XZ 0042de60 f   Stdafx.obj
 0001:0002ce70       ?GetRuntimeClass@CPropertySheetMTL@@UBEPAUCRuntimeClass@@XZ 0042de70 f   Stdafx.obj
 0001:0002ce80       ?GetRuntimeClass@CFileDialogMTL@@UBEPAUCRuntimeClass@@XZ 0042de80 f   Stdafx.obj
 0001:0002ce90       ?GetRuntimeClass@CToolTipCtrlMTL@@UBEPAUCRuntimeClass@@XZ 0042de90 f   Stdafx.obj
 0001:0002cea0       _wWinMain@16               0042dea0 f   Stdafx.obj
 0001:0002d1f0       ?AtlModuleInit@ATL@@YGJPAU_ATL_MODULE@1@PAU_ATL_OBJMAP_ENTRY@1@PAUHINSTANCE__@@@Z 0042e1f0 f i Stdafx.obj
 0001:0002d280       ?_AtlGetStringResourceImage@CAfx@@SAPBUATLSTRINGRESOURCEIMAGE@@PAUHINSTANCE__@@PAUHRSRC__@@I@Z 0042e280 f i Stdafx.obj
 0001:0002d2f0       ?OnPrepareDC@CScrollView@@UAEXPAVCDCMTL@@PAUCPrintInfo@@@Z 0042e2f0 f i Stdafx.obj
 0001:0002d460       ?SetViewportExt@CDCMTL@@QAE?AVCSize@WTL@@HH@Z 0042e460 f i Stdafx.obj
 0001:0002d4d0       ?SetWindowExt@CDCMTL@@QAE?AVCSize@WTL@@HH@Z 0042e4d0 f i Stdafx.obj
 0001:0002d540       ?OnScroll@CScrollView@@UAEHIIH@Z 0042e540 f i Stdafx.obj
 0001:0002d680       ?OnScrollBy@CScrollView@@UAEHVCSize@WTL@@H@Z 0042e680 f i Stdafx.obj
 0001:0002d990       ?GetScrollInfo@CWMHnd@@QAEHHPAUtagSCROLLINFO@@I@Z 0042e990 f i Stdafx.obj
 0001:0002d9d0       ?CCalcWindowRect@CScrollView@@UAEXPAUtagRECT@@I@Z 0042e9d0 f i Stdafx.obj
 0001:0002daf0       ?GetWheelScrollDistance@CScrollView@@UAE?AVCSize@WTL@@V23@HH@Z 0042eaf0 f i Stdafx.obj
 0001:0002db50       ??_GCScrollView@@UAEPAXI@Z 0042eb50 f i Stdafx.obj
 0001:0002db50       ??_ECScrollView@@UAEPAXI@Z 0042eb50 f i Stdafx.obj
 0001:0002db70       ??1CScrollView@@UAE@XZ     0042eb70 f i Stdafx.obj
 0001:0002dc00       ?_ProcessWindowMessage@CScrollView@@UAEHPAUHWND__@@IIJAAJ@Z 0042ec00 f i Stdafx.obj
 0001:0002e020       ?SetViewportOrg@CDCMTL@@QAE?AVCPoint@WTL@@HH@Z 0042f020 f i Stdafx.obj
 0001:0002e090       ?SetWindowOrg@CDCMTL@@QAE?AVCPoint@WTL@@HH@Z 0042f090 f i Stdafx.obj
 0001:0002e100       ?BitBlt@CDCMTL@@QAEHHHHHPAV1@HHK@Z 0042f100 f i Stdafx.obj
 0001:0002e140       ??0CImage@@QAE@XZ          0042f140 f i Stdafx.obj
 0001:0002e180       ??1CImage@@UAE@XZ          0042f180 f i Stdafx.obj
 0001:0002e1f0       ?CreateEx@CImage@@QAEHHHHKPBKK@Z 0042f1f0 f i Stdafx.obj
 0001:0002e3c0       ?classHandleFuncCBitmapMTL@CBitmapMTL@@SAPAXPAX0@Z 0042f3c0 f i Stdafx.obj
 0001:0002e400       ??1CBrushMTL@@UAE@XZ       0042f400 f i Stdafx.obj
 0001:0002e400       ??1CPenMTL@@UAE@XZ         0042f400 f i Stdafx.obj
 0001:0002e400       ??1?$CHandleWrapper@VCBrushMTL@@PAUHBRUSH__@@V?$CBrushT@$00@WTL@@@@UAE@XZ 0042f400 f i Stdafx.obj
 0001:0002e400       ??1CBitmapMTL@@UAE@XZ      0042f400 f i Stdafx.obj
 0001:0002e450       ??_GCImage@@UAEPAXI@Z      0042f450 f i Stdafx.obj
 0001:0002e450       ??_ECImage@@UAEPAXI@Z      0042f450 f i Stdafx.obj
 0001:0002e470       ?OnVScroll@CScrollView@@QAEXIIPAVCScrollBarMTL@@@Z 0042f470 f i Stdafx.obj
 0001:0002e4d0       ?DoMouseWheel@CScrollView@@QAEHIFVCPoint@WTL@@@Z 0042f4d0 f i Stdafx.obj
 0001:0002e640       ?SetScaleToFitSize@CScrollView@@QAEXUtagSIZE@@@Z 0042f640 f i Stdafx.obj
 0001:0002e950       ?GetScrollBarState@CScrollView@@QAEXVCSize@WTL@@AAV23@1AAVCPoint@3@H@Z 0042f950 f i Stdafx.obj
 0001:0002eab0       ?GetTrueClientSize@CScrollView@@QAEHAAVCSize@WTL@@0@Z 0042fab0 f i Stdafx.obj
 0001:0002ebb0       ?ScrollToDevicePosition@CScrollView@@QAEXUtagPOINT@@@Z 0042fbb0 f i Stdafx.obj
 0001:0002ed20       ?OnActivateView@CPreviewView@@UAEXHPAVCView@@0@Z 0042fd20 f i Stdafx.obj
 0001:0002edc0       ?OnDraw@CPreviewView@@UAEXPAVCDCMTL@@@Z 0042fdc0 f i Stdafx.obj
 0001:0002f6a0       ?_AfxMultMultDivDiv@CPreviewDC@@SAJHHHHH@Z 004306a0 f i Stdafx.obj
 0001:0002f860       ?MirrorMappingMode@CPreviewDC@@QAEXH@Z 00430860 f i Stdafx.obj
 0001:0002fda0       ?MirrorViewportOrg@CPreviewDC@@QAEXXZ 00430da0 f i Stdafx.obj
 0001:00030010       ?PrinterDPtoScreenDP@CPreviewDC@@QBEXPAUtagPOINT@@@Z 00431010 f i Stdafx.obj
 0001:000303a0       ?OnPrepareDC@CPreviewView@@UAEXPAVCDCMTL@@PAUCPrintInfo@@@Z 004313a0 f i Stdafx.obj
 0001:00030540       ?CalcScaleRatio@CPreviewView@@UAE?AVCSize@WTL@@V23@0@Z 00431540 f i Stdafx.obj
 0001:00030580       ?PositionPage@CPreviewView@@UAEXI@Z 00431580 f i Stdafx.obj
 0001:00030860       ??HCSize@WTL@@QBE?AV01@UtagSIZE@@@Z 00431860 f i Stdafx.obj
 0001:00030880       ?SetScrollSizes@CScrollView@@QAEXHUtagSIZE@@ABU2@1@Z 00431880 f i Stdafx.obj
 0001:00030a80       ?CalcPageDisplaySize@CPreviewView@@QAE?AVCSize@WTL@@XZ 00431a80 f i Stdafx.obj
 0001:00030bc0       ??_GCPreviewView@@UAEPAXI@Z 00431bc0 f i Stdafx.obj
 0001:00030bc0       ??_ECPreviewView@@UAEPAXI@Z 00431bc0 f i Stdafx.obj
 0001:00030be0       ??1CPreviewView@@UAE@XZ    00431be0 f i Stdafx.obj
 0001:00030db0       ?_ProcessWindowMessage@CPreviewView@@UAEHPAUHWND__@@IIJAAJ@Z 00431db0 f i Stdafx.obj
 0001:000316e0       ?SelectObject@CDCMTL@@QAEPAVCBrushMTL@@PAV2@@Z 004326e0 f i Stdafx.obj
 0001:00031740       ?OnMouseWheel@CScrollView@@QAEHIFVCPoint@WTL@@@Z 00432740 f i Stdafx.obj
 0001:00031900       ?OnPrintClient@CScrollView@@QAEJPAVCDCMTL@@I@Z 00432900 f i Stdafx.obj
 0001:00031c00       ??0CBitmapMTL@@QAE@PAUHBITMAP__@@@Z 00432c00 f i Stdafx.obj
 0001:00031c20       ?Attach@CImage@@QAEXPAUHBITMAP__@@W4DIBOrientation@1@@Z 00432c20 f i Stdafx.obj
 0001:00031d20       ?OnNextPage@CPreviewView@@QAEXXZ 00432d20 f i Stdafx.obj
 0001:00031de0       ?OnPrevPage@CPreviewView@@QAEXXZ 00432de0 f i Stdafx.obj
 0001:00031ea0       ?OnUpdateNextPage@CPreviewView@@QAEXPAVCCmdUI@@@Z 00432ea0 f i Stdafx.obj
 0001:00031ee0       ?OnUpdateNumPageChange@CPreviewView@@QAEXPAVCCmdUI@@@Z 00432ee0 f i Stdafx.obj
 0001:000320b0       ?OnUpdatePrevPage@CPreviewView@@QAEXPAVCCmdUI@@@Z 004330b0 f i Stdafx.obj
 0001:000320e0       ?OnUpdateZoomIn@CPreviewView@@QAEXPAVCCmdUI@@@Z 004330e0 f i Stdafx.obj
 0001:00032100       ?OnUpdateZoomOut@CPreviewView@@QAEXPAVCCmdUI@@@Z 00433100 f i Stdafx.obj
 0001:00032120       ?OnZoomIn@CPreviewView@@QAEXXZ 00433120 f i Stdafx.obj
 0001:00032310       ?CenterOnPoint@CScrollView@@QAEXVCPoint@WTL@@@Z 00433310 f i Stdafx.obj
 0001:00032530       ?OnZoomOut@CPreviewView@@QAEXXZ 00433530 f i Stdafx.obj
 0001:00032720       ?DoZoom@CPreviewView@@QAEXIVCPoint@WTL@@@Z 00433720 f i Stdafx.obj
 0001:00032a30       ?GetScrollLimit@CWMHnd@@QAEHH@Z 00433a30 f i Stdafx.obj
 0001:00032ad0       ?FindPageRect@CPreviewView@@QAEHAAVCPoint@WTL@@AAI@Z 00433ad0 f i Stdafx.obj
 0001:00032c70       ?SetScaledSize@CPreviewView@@QAEXI@Z 00433c70 f i Stdafx.obj
 0001:00032e70       ?DefWindowProcW@CMDIChildWnd@@UAEJIIJ@Z 00433e70 f i Stdafx.obj
 0001:00032e90       ?OnUpdateFrameTitle@CMDIChildWnd@@UAEXH@Z 00433e90 f i Stdafx.obj
 0001:00032fe0       ?ActivateFrame@CMDIChildWnd@@UAEXH@Z 00433fe0 f i Stdafx.obj
 0001:00033240       ?DestroyWindow@CMDIChildWnd@@UAEHXZ 00434240 f i Stdafx.obj
 0001:00033300       ?PreTranslateMessage@CMDIChildWnd@@UAEHPAUtagMSG@@@Z 00434300 f i Stdafx.obj
 0001:00033390       ??_ECMDIChildWnd@@UAEPAXI@Z 00434390 f i Stdafx.obj
 0001:00033390       ??_GCMDIChildWnd@@UAEPAXI@Z 00434390 f i Stdafx.obj
 0001:000333b0       ??1CMDIChildWnd@@UAE@XZ    004343b0 f i Stdafx.obj
 0001:00033470       ?_ProcessWindowMessage@CMDIChildWnd@@UAEHPAUHWND__@@IIJAAJ@Z 00434470 f i Stdafx.obj
 0001:00033850       ?OnToolTipText@CMDIChildWnd@@QAEHIPAUtagNMHDR@@PAJ@Z 00434850 f i Stdafx.obj
 0001:00033890       ?OnUpdateFrameMenu@CMDIChildWnd@@QAEXHPAVCWnd@@PAUHMENU__@@@Z 00434890 f i Stdafx.obj
 0001:00033960       ?OnWindowPosChanging@CMDIChildWnd@@QAEXPAUtagWINDOWPOS@@@Z 00434960 f i Stdafx.obj
 0001:00033b10       ?GetMDIFrame@CMDIChildWnd@@QAEPAVCMDIFrameWnd@@XZ 00434b10 f i Stdafx.obj
 0001:00033b40       ?UpdateClientEdge@CMDIChildWnd@@QAEHPAUtagRECT@@@Z 00434b40 f i Stdafx.obj
 0001:00033cc0       ?MDIGetActive@CMDIFrameWnd@@QBEPAVCMDIChildWnd@@PAH@Z 00434cc0 f i Stdafx.obj
 0001:00033d40       ?LoadFrame@CMDIChildWnd@@UAEHIKPAVCWnd@@PAUCCreateContext@@@Z 00434d40 f i Stdafx.obj
 0001:00034040       ?GetParentSplitter@CView@@SAPAVCSplitterWnd@@PAVCWnd@@H@Z 00435040 f i Stdafx.obj
 0001:000340f0       ?OnDestroy@CFrameWnd@@QAEXXZ 004350f0 f i Stdafx.obj
 0001:00034160       ?Create@CMDIChildWnd@@UAEHPBG0KABUtagRECT@@PAVCMDIFrameWnd@@PAUCCreateContext@@@Z 00435160 f i Stdafx.obj
 0001:00034350       ?OnDisplayPageNumber@CPreviewView@@UAEXII@Z 00435350 f i Stdafx.obj
 0001:000344e0       ?OnNumPageChange@CPreviewView@@QAEXXZ 004354e0 f i Stdafx.obj
 0001:000345c0       ?OnPreviewPrint@CPreviewView@@QAEXXZ 004355c0 f i Stdafx.obj
 0001:00034710       ??0CStylePage@@QAE@XZ      00435710 f   Stylepge.obj
 0001:000348b0       ??_ECStylePage@@UAEPAXI@Z  004358b0 f i Stylepge.obj
 0001:000348b0       ??_GCStylePage@@UAEPAXI@Z  004358b0 f i Stylepge.obj
 0001:000348d0       ?DoDataExchange@CStylePage@@MAEXPAVCDataExchange@@@Z 004358d0 f   Stylepge.obj
 0001:00034990       ?_ProcessWindowMessage@CStylePage@@UAEHPAUHWND__@@IIJAAJ@Z 00435990 f i Stylepge.obj
 0001:000349f0       _GetFileTitleW@12          004359f0 f   comdlg32:comdlg32.dll
 0001:000349f6       _CommDlgExtendedError@0    004359f6 f   comdlg32:comdlg32.dll
 0001:000349fc       _PrintDlgW@4               004359fc f   comdlg32:comdlg32.dll
 0001:00034a02       _GetSaveFileNameW@4        00435a02 f   comdlg32:comdlg32.dll
 0001:00034a08       _GetOpenFileNameW@4        00435a08 f   comdlg32:comdlg32.dll
 0001:00034a0e       _GetJobW@24                00435a0e f   winspool:WINSPOOL.DRV
 0001:00034a14       _OpenPrinterW@12           00435a14 f   winspool:WINSPOOL.DRV
 0001:00034a1a       _wWinMainCRTStartup        00435a1a f   LIBCMT:wwincrt0.obj
 0001:00034b21       __amsg_exit                00435b21 f   LIBCMT:wwincrt0.obj
 0001:00034b6a       ??1type_info@@UAE@XZ       00435b6a f   LIBCMT:typinfo.obj
 0001:00034b93       ??_Etype_info@@UAEPAXI@Z   00435b93 f i LIBCMT:typinfo.obj
 0001:00034b93       ??_Gtype_info@@UAEPAXI@Z   00435b93 f i LIBCMT:typinfo.obj
 0001:00034baf       _malloc                    00435baf f   LIBCMT:malloc.obj
 0001:00034bc1       __nh_malloc                00435bc1 f   LIBCMT:malloc.obj
 0001:00034bed       __heap_alloc               00435bed f   LIBCMT:malloc.obj
 0001:00034ce9       ?_JumpToContinuation@@YGXPAXPAUEHRegistrationNode@@@Z 00435ce9 f   LIBCMT:trnsctrl.obj
 0001:00034d1d       ?_CallMemberFunction0@@YGXPAX0@Z 00435d1d f   LIBCMT:trnsctrl.obj
 0001:00034d1d       ?_CallMemberFunction1@@YGXPAX00@Z 00435d1d f   LIBCMT:trnsctrl.obj
 0001:00034d24       ?_CallMemberFunction2@@YGXPAX00H@Z 00435d24 f   LIBCMT:trnsctrl.obj
 0001:00034d2b       ?_UnwindNestedFrames@@YGXPAUEHRegistrationNode@@PAUEHExceptionRecord@@@Z 00435d2b f   LIBCMT:trnsctrl.obj
 0001:00034d7a       ___CxxFrameHandler         00435d7a f   LIBCMT:trnsctrl.obj
 0001:00034db0       ?_CallCatchBlock2@@YAPAXPAUEHRegistrationNode@@PBU_s_FuncInfo@@PAXHK@Z 00435db0 f   LIBCMT:trnsctrl.obj
 0001:00034e29       ?_CallSETranslator@@YAHPAUEHExceptionRecord@@PAUEHRegistrationNode@@PAX2PBU_s_FuncInfo@@H1@Z 00435e29 f   LIBCMT:trnsctrl.obj
 0001:00034f54       ?_GetRangeOfTrysToCheck@@YAPBU_s_TryBlockMapEntry@@PBU_s_FuncInfo@@HHPAI1@Z 00435f54 f   LIBCMT:trnsctrl.obj
 0001:00034fd0       __global_unwind2           00435fd0 f   LIBCMT:exsup.obj
 0001:00035012       __local_unwind2            00436012 f   LIBCMT:exsup.obj
 0001:0003506a       __NLG_Return2              0043606a f   LIBCMT:exsup.obj
 0001:0003507a       __abnormal_termination     0043607a f   LIBCMT:exsup.obj
 0001:0003509d       __NLG_Notify1              0043609d f   LIBCMT:exsup.obj
 0001:000350a6       __NLG_Notify               004360a6 f   LIBCMT:exsup.obj
 0001:000350b9       __NLG_Dispatch             004360b9 f   LIBCMT:exsup.obj
 0001:000350be       __CxxThrowException@8      004360be f   LIBCMT:throw.obj
 0001:000350f8       ??3@YAXPAX@Z               004360f8 f   LIBCMT:delete.obj
 0001:00035103       _free                      00436103 f   LIBCMT:free.obj
 0001:000351ec       __onexit                   004361ec f   LIBCMT:onexit.obj
 0001:0003526a       _atexit                    0043626a f   LIBCMT:onexit.obj
 0001:0003527c       ___onexitinit              0043627c f   LIBCMT:onexit.obj
 0001:000352ab       ??_M@YGXPAXIHP6EX0@Z@Z     004362ab f   LIBCMT:ehvecdtr.obj
 0001:0003532b       ?__ArrayUnwind@@YGXPAXIHP6EX0@Z@Z 0043632b f   LIBCMT:ehvecdtr.obj
 0001:00035389       ??2@YAPAXI@Z               00436389 f   LIBCMT:new.obj
 0001:00035397       __purecall                 00436397 f   LIBCMT:purevirt.obj
 0001:000353a0       _wcscmp                    004363a0 f   LIBCMT:wcscmp.obj
 0001:000353d5       _calloc                    004363d5 f   LIBCMT:calloc.obj
 0001:00035512       _wcschr                    00436512 f   LIBCMT:wcschr.obj
 0001:00035540       _memmove                   00436540 f   LIBCMT:memmove.obj
 0001:00035875       __cinit                    00436875 f   LIBCMT:crt0dat.obj
 0001:000358a2       _exit                      004368a2 f   LIBCMT:crt0dat.obj
 0001:000358b3       __exit                     004368b3 f   LIBCMT:crt0dat.obj
 0001:00035969       __lockexit                 00436969 f   LIBCMT:crt0dat.obj
 0001:00035972       __unlockexit               00436972 f   LIBCMT:crt0dat.obj
 0001:00035995       ??_L@YGXPAXIHP6EX0@Z1@Z    00436995 f   LIBCMT:ehvecctr.obj
 0001:00035a17       _wcsrchr                   00436a17 f   LIBCMT:wcsrchr.obj
 0001:00035a57       _wcscspn                   00436a57 f   LIBCMT:wcscspn.obj
 0001:00035a98       _wcsspn                    00436a98 f   LIBCMT:wcsspn.obj
 0001:00035ae0       __alloca_probe             00436ae0 f   LIBCMT:chkstk.obj
 0001:00035ae0       __chkstk                   00436ae0 f   LIBCMT:chkstk.obj
 0001:00035b0f       _realloc                   00436b0f f   LIBCMT:realloc.obj
 0001:00035e3e       _mktime                    00436e3e f   LIBCMT:mktime.obj
 0001:00036030       _wcspbrk                   00437030 f   LIBCMT:wcspbrk.obj
 0001:0003606e       __wcsdup                   0043706e f   LIBCMT:wcsdup.obj
 0001:000360a0       __alldiv                   004370a0 f   LIBCMT:lldiv.obj
 0001:00036150       __allmul                   00437150 f   LIBCMT:llmul.obj
 0001:00036190       __allshr                   00437190 f   LIBCMT:llshr.obj
 0001:000361b1       __XcptFilter               004371b1 f   LIBCMT:winxfltr.obj
 0001:00036329       __wwincmdln                00437329 f   LIBCMT:wwncmdln.obj
 0001:0003636e       __wsetenvp                 0043736e f   LIBCMT:wstdenvp.obj
 0001:00036426       __wsetargv                 00437426 f   LIBCMT:wstdargv.obj
 0001:0003664f       ___crtGetEnvironmentStringsW 0043764f f   LIBCMT:w_env.obj
 0001:000367bc       ___crtGetCommandLineW      004377bc f   LIBCMT:aw_com.obj
 0001:0003685d       __ioinit                   0043785d f   LIBCMT:ioinit.obj
 0001:00036a19       __mtinit                   00437a19 f   LIBCMT:tidtable.obj
 0001:00036a6d       __initptd                  00437a6d f   LIBCMT:tidtable.obj
 0001:00036a80       __getptd                   00437a80 f   LIBCMT:tidtable.obj
 0001:00036ae7       __GetLinkerVersion         00437ae7 f   LIBCMT:heapinit.obj
 0001:00036b14       ___heap_select             00437b14 f   LIBCMT:heapinit.obj
 0001:00036c5c       __heap_init                00437c5c f   LIBCMT:heapinit.obj
 0001:00036cc4       __except_handler3          00437cc4 f   LIBCMT:exsup3.obj
 0001:00036d81       __seh_longjmp_unwind@4     00437d81 f   LIBCMT:exsup3.obj
 0001:00036d9c       __FF_MSGBANNER             00437d9c f   LIBCMT:crt0msg.obj
 0001:00036dd5       __NMSG_WRITE               00437dd5 f   LIBCMT:crt0msg.obj
 0001:00036f28       __mtinitlocks              00437f28 f   LIBCMT:mlock.obj
 0001:00036f51       __lock                     00437f51 f   LIBCMT:mlock.obj
 0001:00036fb2       __unlock                   00437fb2 f   LIBCMT:mlock.obj
 0001:00036fd0       _strcmp                    00437fd0 f   LIBCMT:strcmp.obj
 0001:00037054       __callnewh                 00438054 f   LIBCMT:handler.obj
 0001:0003706f       ___sbh_heap_init           0043806f f   LIBCMT:sbheap.obj
 0001:000370b7       ___sbh_find_block          004380b7 f   LIBCMT:sbheap.obj
 0001:000370e2       ___sbh_free_block          004380e2 f   LIBCMT:sbheap.obj
 0001:0003740b       ___sbh_alloc_block         0043840b f   LIBCMT:sbheap.obj
 0001:00037714       ___sbh_alloc_new_region    00438714 f   LIBCMT:sbheap.obj
 0001:000377c5       ___sbh_alloc_new_group     004387c5 f   LIBCMT:sbheap.obj
 0001:000378c0       ___sbh_resize_block        004388c0 f   LIBCMT:sbheap.obj
 0001:00037bb6       ___old_sbh_new_region      00438bb6 f   LIBCMT:sbheap.obj
 0001:00037cfa       ___old_sbh_release_region  00438cfa f   LIBCMT:sbheap.obj
 0001:00037d50       ___old_sbh_decommit_pages  00438d50 f   LIBCMT:sbheap.obj
 0001:00037e12       ___old_sbh_find_block      00438e12 f   LIBCMT:sbheap.obj
 0001:00037e69       ___old_sbh_free_block      00438e69 f   LIBCMT:sbheap.obj
 0001:00037eae       ___old_sbh_alloc_block     00438eae f   LIBCMT:sbheap.obj
 0001:000380b6       ___old_sbh_alloc_block_from_page 004390b6 f   LIBCMT:sbheap.obj
 0001:000381da       ___old_sbh_resize_block    004391da f   LIBCMT:sbheap.obj
 0001:00038283       ___InternalCxxFrameHandler 00439283 f   LIBCMT:frame.obj
 0001:000385d8       ___FrameUnwindToState      004395d8 f   LIBCMT:frame.obj
 0001:00038a10       ?_DestructExceptionObject@@YAXPAUEHExceptionRecord@@E@Z 00439a10 f   LIBCMT:frame.obj
 0001:00038aa0       __CallSettingFrame@12      00439aa0 f   LIBCMT:lowhelpr.obj
 0001:00038ac7       __NLG_Return               00439ac7 f   LIBCMT:lowhelpr.obj
 0001:00038aec       ?terminate@@YAXXZ          00439aec f   LIBCMT:hooks.obj
 0001:00038b4d       ?_inconsistency@@YAXXZ     00439b4d f   LIBCMT:hooks.obj
 0001:00038ba3       ?__CxxUnhandledExceptionFilter@@YGJPAU_EXCEPTION_POINTERS@@@Z 00439ba3 f   LIBCMT:unhandld.obj
 0001:00038be9       ?__CxxSetUnhandledExceptionFilter@@YAXXZ 00439be9 f   LIBCMT:unhandld.obj
 0001:00038bfa       ?__CxxRestoreUnhandledExceptionFilter@@YAXXZ 00439bfa f   LIBCMT:unhandld.obj
 0001:00038c07       __msize                    00439c07 f   LIBCMT:msize.obj
 0001:00038d00       _memset                    00439d00 f   LIBCMT:memset.obj
 0001:00038d60       _memcpy                    00439d60 f   LIBCMT:memcpy.obj
 0001:00039095       _gmtime                    0043a095 f   LIBCMT:gmtime.obj
 0001:0003919f       _localtime                 0043a19f f   LIBCMT:localtim.obj
 0001:000392ff       ___tzset                   0043a2ff f   LIBCMT:tzset.obj
 0001:000395b4       __isindst                  0043a5b4 f   LIBCMT:tzset.obj
 0001:000398c1       _wcscpy                    0043a8c1 f   LIBCMT:wcscat.obj
 0001:000398e6       _wcslen                    0043a8e6 f   LIBCMT:wcslen.obj
 0001:00039910       _strlen                    0043a910 f   LIBCMT:strlen.obj
 0001:0003998b       _strtol                    0043a98b f   LIBCMT:strtol.obj
 0001:00039bc0       _strchr                    0043abc0 f   LIBCMT:strchr.obj
 0001:00039bc6       ___from_strstr_to_strchr   0043abc6 f   LIBCMT:strchr.obj
 0001:00039c80       _strstr                    0043ac80 f   LIBCMT:strstr.obj
 0001:00039d00       _strncmp                   0043ad00 f   LIBCMT:strncmp.obj
 0001:00039d38       ___crtMessageBoxA          0043ad38 f   LIBCMT:crtmbox.obj
 0001:00039dd0       _strcpy                    0043add0 f   LIBCMT:strcat.obj
 0001:00039de0       _strcat                    0043ade0 f   LIBCMT:strcat.obj
 0001:00039ec0       _strncpy                   0043aec0 f   LIBCMT:strncpy.obj
 0001:00039fbe       ?_ValidateRead@@YAHPBXI@Z  0043afbe f   LIBCMT:validate.obj
 0001:00039fda       ?_ValidateWrite@@YAHPAXI@Z 0043afda f   LIBCMT:validate.obj
 0001:00039ff6       ?_ValidateExecute@@YAHP6GHXZ@Z 0043aff6 f   LIBCMT:validate.obj
 0001:0003a00e       _abort                     0043b00e f   LIBCMT:abort.obj
 0001:0003a025       _atol                      0043b025 f   LIBCMT:atox.obj
 0001:0003a0b0       __getenv_lk                0043b0b0 f   LIBCMT:getenv.obj
 0001:0003a12d       __errno                    0043b12d f   LIBCMT:dosmap.obj
 0001:0003a136       _toupper                   0043b136 f   LIBCMT:toupper.obj
 0001:0003a1a5       __toupper_lk               0043b1a5 f   LIBCMT:toupper.obj
 0001:0003a271       __isctype                  0043b271 f   LIBCMT:isctype.obj
 0001:0003a2e6       _raise                     0043b2e6 f   LIBCMT:winsig.obj
 0001:0003a4a5       __mbsnbicoll               0043b4a5 f   LIBCMT:mbsnbico.obj
 0001:0003a4e4       ___wtomb_environ           0043b4e4 f   LIBCMT:wtombenv.obj
 0001:0003a552       ___crtLCMapStringA         0043b552 f   LIBCMT:a_map.obj
 0001:0003a7a1       ___crtGetStringTypeA       0043b7a1 f   LIBCMT:a_str.obj
 0001:0003a8ea       ___crtCompareStringA       0043b8ea f   LIBCMT:a_cmp.obj
 0001:0003ab67       __setmbcp                  0043bb67 f   LIBCMT:mbctype.obj
 0001:0003af3f       ___initmbctable            0043bf3f f   LIBCMT:mbctype.obj
 0001:0003af5b       ___crtsetenv               0043bf5b f   LIBCMT:setenv.obj
 0001:0003b1b0       _strcspn                   0043c1b0 f   LIBCMT:strcspn.obj
 0001:0003b1f0       _strpbrk                   0043c1f0 f   LIBCMT:strpbrk.obj
 0001:0003b22a       __mbschr                   0043c22a f   LIBCMT:mbschr.obj
 0001:0003b2c1       __strdup                   0043c2c1 f   LIBCMT:strdup.obj
 0001:0003b2f0       __strcmpi                  0043c2f0 f   LIBCMT:stricmp.obj
 0001:0003b2f0       __stricmp                  0043c2f0 f   LIBCMT:stricmp.obj
 0001:0003b3c0       __strnicmp                 0043c3c0 f   LIBCMT:strnicmp.obj
 0001:0003b4d0       __aulldiv                  0043c4d0 f   LIBCMT:ulldiv.obj
 0001:0003b540       __aullrem                  0043c540 f   LIBCMT:ullrem.obj
 0001:0003b5b5       __tolower_lk               0043c5b5 f   LIBCMT:tolower.obj
 0001:0003b680       _RtlUnwind@16              0043c680 f   kernel32:KERNEL32.dll
 0002:00000000       __imp__RegQueryValueW@16   0043e000     advapi32:ADVAPI32.dll
 0002:00000004       __imp__RegEnumKeyW@16      0043e004     advapi32:ADVAPI32.dll
 0002:00000008       __imp__RegOpenKeyExW@20    0043e008     advapi32:ADVAPI32.dll
 0002:0000000c       __imp__RegDeleteKeyW@8     0043e00c     advapi32:ADVAPI32.dll
 0002:00000010       __imp__RegQueryValueExW@24 0043e010     advapi32:ADVAPI32.dll
 0002:00000014       __imp__RegCloseKey@4       0043e014     advapi32:ADVAPI32.dll
 0002:00000018       \177ADVAPI32_NULL_THUNK_DATA 0043e018     advapi32:ADVAPI32.dll
 0002:0000001c       __imp__InitCommonControlsEx@4 0043e01c     comctl32:COMCTL32.dll
 0002:00000020       __imp__CreatePropertySheetPageW@4 0043e020     comctl32:COMCTL32.dll
 0002:00000024       __imp__PropertySheetW@4    0043e024     comctl32:COMCTL32.dll
 0002:00000028       __imp__DestroyPropertySheetPage@4 0043e028     comctl32:COMCTL32.dll
 0002:0000002c       \177COMCTL32_NULL_THUNK_DATA 0043e02c     comctl32:COMCTL32.dll
 0002:00000030       __imp__DeleteDC@4          0043e030     gdi32:GDI32.dll
 0002:00000034       __imp__RestoreDC@8         0043e034     gdi32:GDI32.dll
 0002:00000038       __imp__TextOutW@20         0043e038     gdi32:GDI32.dll
 0002:0000003c       __imp__DeleteObject@4      0043e03c     gdi32:GDI32.dll
 0002:00000040       __imp__GetObjectW@12       0043e040     gdi32:GDI32.dll
 0002:00000044       __imp__GetDeviceCaps@8     0043e044     gdi32:GDI32.dll
 0002:00000048       __imp__GetTextMetricsW@8   0043e048     gdi32:GDI32.dll
 0002:0000004c       __imp__SelectObject@8      0043e04c     gdi32:GDI32.dll
 0002:00000050       __imp__GetTextExtentPoint32W@16 0043e050     gdi32:GDI32.dll
 0002:00000054       __imp__IntersectClipRect@20 0043e054     gdi32:GDI32.dll
 0002:00000058       __imp__ExcludeClipRect@20  0043e058     gdi32:GDI32.dll
 0002:0000005c       __imp__ExtTextOutW@32      0043e05c     gdi32:GDI32.dll
 0002:00000060       __imp__SetBkColor@8        0043e060     gdi32:GDI32.dll
 0002:00000064       __imp__StretchDIBits@52    0043e064     gdi32:GDI32.dll
 0002:00000068       __imp__CreateCompatibleDC@4 0043e068     gdi32:GDI32.dll
 0002:0000006c       __imp__CreateCompatibleBitmap@12 0043e06c     gdi32:GDI32.dll
 0002:00000070       __imp__GetCharWidthW@16    0043e070     gdi32:GDI32.dll
 0002:00000074       __imp__CreateFontW@56      0043e074     gdi32:GDI32.dll
 0002:00000078       __imp__GetBkColor@4        0043e078     gdi32:GDI32.dll
 0002:0000007c       __imp__CreatePatternBrush@4 0043e07c     gdi32:GDI32.dll
 0002:00000080       __imp__CreateBitmap@20     0043e080     gdi32:GDI32.dll
 0002:00000084       __imp__EnumFontFamiliesExW@20 0043e084     gdi32:GDI32.dll
 0002:00000088       __imp__Rectangle@20        0043e088     gdi32:GDI32.dll
 0002:0000008c       __imp__RoundRect@28        0043e08c     gdi32:GDI32.dll
 0002:00000090       __imp__Ellipse@20          0043e090     gdi32:GDI32.dll
 0002:00000094       __imp__CreateSolidBrush@4  0043e094     gdi32:GDI32.dll
 0002:00000098       __imp__CreatePen@12        0043e098     gdi32:GDI32.dll
 0002:0000009c       __imp__GetClipBox@8        0043e09c     gdi32:GDI32.dll
 0002:000000a0       __imp__CreateDCW@16        0043e0a0     gdi32:GDI32.dll
 0002:000000a4       __imp__LPtoDP@12           0043e0a4     gdi32:GDI32.dll
 0002:000000a8       __imp__SetMapMode@8        0043e0a8     gdi32:GDI32.dll
 0002:000000ac       __imp__GetStockObject@4    0043e0ac     gdi32:GDI32.dll
 0002:000000b0       __imp__GetViewportExtEx@8  0043e0b0     gdi32:GDI32.dll
 0002:000000b4       __imp__GetWindowExtEx@8    0043e0b4     gdi32:GDI32.dll
 0002:000000b8       __imp__CreateFontIndirectW@4 0043e0b8     gdi32:GDI32.dll
 0002:000000bc       __imp__GetTextFaceW@12     0043e0bc     gdi32:GDI32.dll
 0002:000000c0       __imp__MoveToEx@16         0043e0c0     gdi32:GDI32.dll
 0002:000000c4       __imp__GetCurrentPositionEx@8 0043e0c4     gdi32:GDI32.dll
 0002:000000c8       __imp__GetTextAlign@4      0043e0c8     gdi32:GDI32.dll
 0002:000000cc       __imp__AbortDoc@4          0043e0cc     gdi32:GDI32.dll
 0002:000000d0       __imp__EndDoc@4            0043e0d0     gdi32:GDI32.dll
 0002:000000d4       __imp__EndPage@4           0043e0d4     gdi32:GDI32.dll
 0002:000000d8       __imp__StartPage@4         0043e0d8     gdi32:GDI32.dll
 0002:000000dc       __imp__DPtoLP@12           0043e0dc     gdi32:GDI32.dll
 0002:000000e0       __imp__StartDocW@8         0043e0e0     gdi32:GDI32.dll
 0002:000000e4       __imp__SetAbortProc@8      0043e0e4     gdi32:GDI32.dll
 0002:000000e8       __imp__SetViewportOrgEx@16 0043e0e8     gdi32:GDI32.dll
 0002:000000ec       __imp__SetViewportExtEx@16 0043e0ec     gdi32:GDI32.dll
 0002:000000f0       __imp__SetWindowExtEx@16   0043e0f0     gdi32:GDI32.dll
 0002:000000f4       __imp__SetWindowOrgEx@16   0043e0f4     gdi32:GDI32.dll
 0002:000000f8       __imp__BitBlt@36           0043e0f8     gdi32:GDI32.dll
 0002:000000fc       __imp__CreateDIBSection@24 0043e0fc     gdi32:GDI32.dll
 0002:00000100       __imp__Escape@20           0043e100     gdi32:GDI32.dll
 0002:00000104       __imp__LineTo@12           0043e104     gdi32:GDI32.dll
 0002:00000108       __imp__GetViewportOrgEx@8  0043e108     gdi32:GDI32.dll
 0002:0000010c       __imp__GetWindowOrgEx@8    0043e10c     gdi32:GDI32.dll
 0002:00000110       __imp__PatBlt@24           0043e110     gdi32:GDI32.dll
 0002:00000114       __imp__SaveDC@4            0043e114     gdi32:GDI32.dll
 0002:00000118       \177GDI32_NULL_THUNK_DATA  0043e118     gdi32:GDI32.dll
 0002:0000011c       __imp__CompareStringA@24   0043e11c     kernel32:KERNEL32.dll
 0002:00000120       __imp__GetCPInfo@8         0043e120     kernel32:KERNEL32.dll
 0002:00000124       __imp__GetStringTypeW@16   0043e124     kernel32:KERNEL32.dll
 0002:00000128       __imp__GetStringTypeA@20   0043e128     kernel32:KERNEL32.dll
 0002:0000012c       __imp__LCMapStringW@24     0043e12c     kernel32:KERNEL32.dll
 0002:00000130       __imp__LCMapStringA@24     0043e130     kernel32:KERNEL32.dll
 0002:00000134       __imp__IsBadCodePtr@4      0043e134     kernel32:KERNEL32.dll
 0002:00000138       __imp__IsBadReadPtr@8      0043e138     kernel32:KERNEL32.dll
 0002:0000013c       __imp__LoadLibraryA@4      0043e13c     kernel32:KERNEL32.dll
 0002:00000140       __imp__GetTimeZoneInformation@4 0043e140     kernel32:KERNEL32.dll
 0002:00000144       __imp__HeapSize@12         0043e144     kernel32:KERNEL32.dll
 0002:00000148       __imp__SetUnhandledExceptionFilter@4 0043e148     kernel32:KERNEL32.dll
 0002:0000014c       __imp__IsBadWritePtr@8     0043e14c     kernel32:KERNEL32.dll
 0002:00000150       __imp__VirtualAlloc@16     0043e150     kernel32:KERNEL32.dll
 0002:00000154       __imp__VirtualFree@12      0043e154     kernel32:KERNEL32.dll
 0002:00000158       __imp__HeapCreate@12       0043e158     kernel32:KERNEL32.dll
 0002:0000015c       __imp__GetVersionExA@4     0043e15c     kernel32:KERNEL32.dll
 0002:00000160       __imp__GetEnvironmentVariableA@12 0043e160     kernel32:KERNEL32.dll
 0002:00000164       __imp__GetModuleFileNameA@12 0043e164     kernel32:KERNEL32.dll
 0002:00000168       __imp__TlsGetValue@4       0043e168     kernel32:KERNEL32.dll
 0002:0000016c       __imp__CompareStringW@24   0043e16c     kernel32:KERNEL32.dll
 0002:00000170       __imp__TlsAlloc@0          0043e170     kernel32:KERNEL32.dll
 0002:00000174       __imp__TlsSetValue@8       0043e174     kernel32:KERNEL32.dll
 0002:00000178       __imp__GetStartupInfoA@4   0043e178     kernel32:KERNEL32.dll
 0002:0000017c       __imp__GetFileType@4       0043e17c     kernel32:KERNEL32.dll
 0002:00000180       __imp__GetStdHandle@4      0043e180     kernel32:KERNEL32.dll
 0002:00000184       __imp__SetHandleCount@4    0043e184     kernel32:KERNEL32.dll
 0002:00000188       __imp__GetCommandLineA@0   0043e188     kernel32:KERNEL32.dll
 0002:0000018c       __imp__GetCommandLineW@0   0043e18c     kernel32:KERNEL32.dll
 0002:00000190       __imp__GetEnvironmentStrings@0 0043e190     kernel32:KERNEL32.dll
 0002:00000194       __imp__GetEnvironmentStringsW@0 0043e194     kernel32:KERNEL32.dll
 0002:00000198       __imp__FreeEnvironmentStringsW@4 0043e198     kernel32:KERNEL32.dll
 0002:0000019c       __imp__MultiByteToWideChar@24 0043e19c     kernel32:KERNEL32.dll
 0002:000001a0       __imp__FreeEnvironmentStringsA@4 0043e1a0     kernel32:KERNEL32.dll
 0002:000001a4       __imp__UnhandledExceptionFilter@4 0043e1a4     kernel32:KERNEL32.dll
 0002:000001a8       __imp__HeapReAlloc@16      0043e1a8     kernel32:KERNEL32.dll
 0002:000001ac       __imp__TerminateProcess@8  0043e1ac     kernel32:KERNEL32.dll
 0002:000001b0       __imp__HeapFree@12         0043e1b0     kernel32:KERNEL32.dll
 0002:000001b4       __imp__RaiseException@16   0043e1b4     kernel32:KERNEL32.dll
 0002:000001b8       __imp__RtlUnwind@16        0043e1b8     kernel32:KERNEL32.dll
 0002:000001bc       __imp__HeapAlloc@12        0043e1bc     kernel32:KERNEL32.dll
 0002:000001c0       __imp__ExitProcess@4       0043e1c0     kernel32:KERNEL32.dll
 0002:000001c4       __imp__GetVersion@0        0043e1c4     kernel32:KERNEL32.dll
 0002:000001c8       __imp__GetStartupInfoW@4   0043e1c8     kernel32:KERNEL32.dll
 0002:000001cc       __imp__GetACP@0            0043e1cc     kernel32:KERNEL32.dll
 0002:000001d0       __imp__GetOEMCP@0          0043e1d0     kernel32:KERNEL32.dll
 0002:000001d4       __imp__SetEnvironmentVariableA@8 0043e1d4     kernel32:KERNEL32.dll
 0002:000001d8       __imp__InitializeCriticalSection@4 0043e1d8     kernel32:KERNEL32.dll
 0002:000001dc       __imp__DeleteCriticalSection@4 0043e1dc     kernel32:KERNEL32.dll
 0002:000001e0       __imp__HeapDestroy@4       0043e1e0     kernel32:KERNEL32.dll
 0002:000001e4       __imp__MulDiv@12           0043e1e4     kernel32:KERNEL32.dll
 0002:000001e8       __imp__DeleteFileW@4       0043e1e8     kernel32:KERNEL32.dll
 0002:000001ec       __imp__SetFilePointer@16   0043e1ec     kernel32:KERNEL32.dll
 0002:000001f0       __imp__WriteFile@20        0043e1f0     kernel32:KERNEL32.dll
 0002:000001f4       __imp__ReadFile@20         0043e1f4     kernel32:KERNEL32.dll
 0002:000001f8       __imp__CreateFileW@28      0043e1f8     kernel32:KERNEL32.dll
 0002:000001fc       __imp__GetFileTime@16      0043e1fc     kernel32:KERNEL32.dll
 0002:00000200       __imp__GetFileSize@8       0043e200     kernel32:KERNEL32.dll
 0002:00000204       __imp__FileTimeToLocalFileTime@8 0043e204     kernel32:KERNEL32.dll
 0002:00000208       __imp__FileTimeToSystemTime@8 0043e208     kernel32:KERNEL32.dll
 0002:0000020c       __imp__lstrlenA@4          0043e20c     kernel32:KERNEL32.dll
 0002:00000210       __imp__lstrcmpA@8          0043e210     kernel32:KERNEL32.dll
 0002:00000214       __imp__GetFileAttributesW@4 0043e214     kernel32:KERNEL32.dll
 0002:00000218       __imp__VirtualProtect@16   0043e218     kernel32:KERNEL32.dll
 0002:0000021c       __imp__GetModuleHandleW@4  0043e21c     kernel32:KERNEL32.dll
 0002:00000220       __imp__GetModuleHandleA@4  0043e220     kernel32:KERNEL32.dll
 0002:00000224       __imp__FindResourceExW@16  0043e224     kernel32:KERNEL32.dll
 0002:00000228       __imp__GlobalAlloc@8       0043e228     kernel32:KERNEL32.dll
 0002:0000022c       __imp__GetCurrentDirectoryW@8 0043e22c     kernel32:KERNEL32.dll
 0002:00000230       __imp__GetPrivateProfileStringW@24 0043e230     kernel32:KERNEL32.dll
 0002:00000234       __imp__LoadLibraryExW@12   0043e234     kernel32:KERNEL32.dll
 0002:00000238       __imp__GetLastError@0      0043e238     kernel32:KERNEL32.dll
 0002:0000023c       __imp__GetProcAddress@8    0043e23c     kernel32:KERNEL32.dll
 0002:00000240       __imp__GlobalLock@4        0043e240     kernel32:KERNEL32.dll
 0002:00000244       __imp__WritePrivateProfileStringW@16 0043e244     kernel32:KERNEL32.dll
 0002:00000248       __imp__GlobalFlags@4       0043e248     kernel32:KERNEL32.dll
 0002:0000024c       __imp__GlobalUnlock@4      0043e24c     kernel32:KERNEL32.dll
 0002:00000250       __imp__EnterCriticalSection@4 0043e250     kernel32:KERNEL32.dll
 0002:00000254       __imp__LeaveCriticalSection@4 0043e254     kernel32:KERNEL32.dll
 0002:00000258       __imp__lstrcpyW@8          0043e258     kernel32:KERNEL32.dll
 0002:0000025c       __imp__lstrcatW@8          0043e25c     kernel32:KERNEL32.dll
 0002:00000260       __imp__GetFullPathNameW@16 0043e260     kernel32:KERNEL32.dll
 0002:00000264       __imp__GetVolumeInformationW@32 0043e264     kernel32:KERNEL32.dll
 0002:00000268       __imp__FindFirstFileW@8    0043e268     kernel32:KERNEL32.dll
 0002:0000026c       __imp__FindClose@4         0043e26c     kernel32:KERNEL32.dll
 0002:00000270       __imp__GetStringTypeExW@20 0043e270     kernel32:KERNEL32.dll
 0002:00000274       __imp__GetThreadLocale@0   0043e274     kernel32:KERNEL32.dll
 0002:00000278       __imp__GetPrivateProfileIntW@16 0043e278     kernel32:KERNEL32.dll
 0002:0000027c       __imp__GlobalAddAtomW@4    0043e27c     kernel32:KERNEL32.dll
 0002:00000280       __imp__GlobalDeleteAtom@4  0043e280     kernel32:KERNEL32.dll
 0002:00000284       __imp__CloseHandle@4       0043e284     kernel32:KERNEL32.dll
 0002:00000288       __imp__GetModuleFileNameW@12 0043e288     kernel32:KERNEL32.dll
 0002:0000028c       __imp__WideCharToMultiByte@32 0043e28c     kernel32:KERNEL32.dll
 0002:00000290       __imp__lstrcpynW@12        0043e290     kernel32:KERNEL32.dll
 0002:00000294       __imp__SizeofResource@8    0043e294     kernel32:KERNEL32.dll
 0002:00000298       __imp__lstrcmpW@8          0043e298     kernel32:KERNEL32.dll
 0002:0000029c       __imp__InterlockedIncrement@4 0043e29c     kernel32:KERNEL32.dll
 0002:000002a0       __imp__lstrcmpiW@8         0043e2a0     kernel32:KERNEL32.dll
 0002:000002a4       __imp__FindResourceW@12    0043e2a4     kernel32:KERNEL32.dll
 0002:000002a8       __imp__LoadResource@8      0043e2a8     kernel32:KERNEL32.dll
 0002:000002ac       __imp__FreeResource@4      0043e2ac     kernel32:KERNEL32.dll
 0002:000002b0       __imp__LockResource@4      0043e2b0     kernel32:KERNEL32.dll
 0002:000002b4       __imp__lstrlenW@4          0043e2b4     kernel32:KERNEL32.dll
 0002:000002b8       __imp__GetCurrentProcess@0 0043e2b8     kernel32:KERNEL32.dll
 0002:000002bc       __imp__FlushInstructionCache@12 0043e2bc     kernel32:KERNEL32.dll
 0002:000002c0       __imp__GetCurrentThreadId@0 0043e2c0     kernel32:KERNEL32.dll
 0002:000002c4       __imp__GlobalFree@4        0043e2c4     kernel32:KERNEL32.dll
 0002:000002c8       __imp__SetLastError@4      0043e2c8     kernel32:KERNEL32.dll
 0002:000002cc       __imp__InterlockedDecrement@4 0043e2cc     kernel32:KERNEL32.dll
 0002:000002d0       \177KERNEL32_NULL_THUNK_DATA 0043e2d0     kernel32:KERNEL32.dll
 0002:000002d4       __imp__DragFinish@4        0043e2d4     shell32:SHELL32.dll
 0002:000002d8       __imp__DragQueryFileW@16   0043e2d8     shell32:SHELL32.dll
 0002:000002dc       __imp__DragAcceptFiles@8   0043e2dc     shell32:SHELL32.dll
 0002:000002e0       __imp__SHGetFileInfoW@20   0043e2e0     shell32:SHELL32.dll
 0002:000002e4       \177SHELL32_NULL_THUNK_DATA 0043e2e4     shell32:SHELL32.dll
 0002:000002e8       __imp__PathFindFileNameW@4 0043e2e8     Shlwapi:SHLWAPI.dll
 0002:000002ec       __imp__PathIsUNCW@4        0043e2ec     Shlwapi:SHLWAPI.dll
 0002:000002f0       __imp__PathFindExtensionW@4 0043e2f0     Shlwapi:SHLWAPI.dll
 0002:000002f4       __imp__PathStripToRootW@4  0043e2f4     Shlwapi:SHLWAPI.dll
 0002:000002f8       __imp__PathRemoveExtensionW@4 0043e2f8     Shlwapi:SHLWAPI.dll
 0002:000002fc       \177SHLWAPI_NULL_THUNK_DATA 0043e2fc     Shlwapi:SHLWAPI.dll
 0002:00000300       __imp__SetScrollPos@16     0043e300     user32:USER32.dll
 0002:00000304       __imp__ScrollWindow@20     0043e304     user32:USER32.dll
 0002:00000308       __imp__GetScrollPos@8      0043e308     user32:USER32.dll
 0002:0000030c       __imp__SetScrollRange@20   0043e30c     user32:USER32.dll
 0002:00000310       __imp__GetTabbedTextExtentW@20 0043e310     user32:USER32.dll
 0002:00000314       __imp__SetScrollInfo@16    0043e314     user32:USER32.dll
 0002:00000318       __imp__ShowScrollBar@12    0043e318     user32:USER32.dll
 0002:0000031c       __imp__IntersectRect@12    0043e31c     user32:USER32.dll
 0002:00000320       __imp__SetPropW@12         0043e320     user32:USER32.dll
 0002:00000324       __imp__GetPropW@8          0043e324     user32:USER32.dll
 0002:00000328       __imp__RemovePropW@8       0043e328     user32:USER32.dll
 0002:0000032c       __imp__GetAsyncKeyState@4  0043e32c     user32:USER32.dll
 0002:00000330       __imp__GetMenuStringW@20   0043e330     user32:USER32.dll
 0002:00000334       __imp__InsertMenuW@20      0043e334     user32:USER32.dll
 0002:00000338       __imp__SetCursor@4         0043e338     user32:USER32.dll
 0002:0000033c       __imp__RegisterWindowMessageW@4 0043e33c     user32:USER32.dll
 0002:00000340       __imp__GetMessageW@16      0043e340     user32:USER32.dll
 0002:00000344       __imp__TranslateMessage@4  0043e344     user32:USER32.dll
 0002:00000348       __imp__DispatchMessageW@4  0043e348     user32:USER32.dll
 0002:0000034c       __imp__CharUpperW@4        0043e34c     user32:USER32.dll
 0002:00000350       __imp__FillRect@12         0043e350     user32:USER32.dll
 0002:00000354       __imp__BeginPaint@8        0043e354     user32:USER32.dll
 0002:00000358       __imp__EndPaint@8          0043e358     user32:USER32.dll
 0002:0000035c       __imp__InflateRect@12      0043e35c     user32:USER32.dll
 0002:00000360       __imp__SetFocus@4          0043e360     user32:USER32.dll
 0002:00000364       __imp__SetTimer@16         0043e364     user32:USER32.dll
 0002:00000368       __imp__GetCursorPos@4      0043e368     user32:USER32.dll
 0002:0000036c       __imp__GetForegroundWindow@0 0043e36c     user32:USER32.dll
 0002:00000370       __imp__GetCapture@0        0043e370     user32:USER32.dll
 0002:00000374       __imp__WindowFromPoint@8   0043e374     user32:USER32.dll
 0002:00000378       __imp__IsChild@8           0043e378     user32:USER32.dll
 0002:0000037c       __imp__KillTimer@8         0043e37c     user32:USER32.dll
 0002:00000380       __imp__MessageBoxW@16      0043e380     user32:USER32.dll
 0002:00000384       __imp__ShowOwnedPopups@8   0043e384     user32:USER32.dll
 0002:00000388       __imp__TranslateMDISysAccel@8 0043e388     user32:USER32.dll
 0002:0000038c       __imp__DrawMenuBar@4       0043e38c     user32:USER32.dll
 0002:00000390       __imp__DefFrameProcW@20    0043e390     user32:USER32.dll
 0002:00000394       __imp__SetDlgItemTextW@12  0043e394     user32:USER32.dll
 0002:00000398       __imp__DeleteMenu@12       0043e398     user32:USER32.dll
 0002:0000039c       __imp__AppendMenuW@16      0043e39c     user32:USER32.dll
 0002:000003a0       __imp__SetParent@8         0043e3a0     user32:USER32.dll
 0002:000003a4       __imp__WinHelpW@16         0043e3a4     user32:USER32.dll
 0002:000003a8       __imp__GetMenuItemCount@4  0043e3a8     user32:USER32.dll
 0002:000003ac       __imp__GetSubMenu@8        0043e3ac     user32:USER32.dll
 0002:000003b0       __imp__GetMenuItemID@8     0043e3b0     user32:USER32.dll
 0002:000003b4       __imp__GetKeyState@4       0043e3b4     user32:USER32.dll
 0002:000003b8       __imp__BeginDeferWindowPos@4 0043e3b8     user32:USER32.dll
 0002:000003bc       __imp__EndDeferWindowPos@4 0043e3bc     user32:USER32.dll
 0002:000003c0       __imp__TranslateAcceleratorW@12 0043e3c0     user32:USER32.dll
 0002:000003c4       __imp__wsprintfW           0043e3c4     user32:USER32.dll
 0002:000003c8       __imp__LoadAcceleratorsW@8 0043e3c8     user32:USER32.dll
 0002:000003cc       __imp__LoadMenuW@8         0043e3cc     user32:USER32.dll
 0002:000003d0       __imp__BringWindowToTop@4  0043e3d0     user32:USER32.dll
 0002:000003d4       __imp__IsIconic@4          0043e3d4     user32:USER32.dll
 0002:000003d8       __imp__IsWindow@4          0043e3d8     user32:USER32.dll
 0002:000003dc       __imp__InvalidateRect@12   0043e3dc     user32:USER32.dll
 0002:000003e0       __imp__GetWindowDC@4       0043e3e0     user32:USER32.dll
 0002:000003e4       __imp__OffsetRect@12       0043e3e4     user32:USER32.dll
 0002:000003e8       __imp__SetRectEmpty@4      0043e3e8     user32:USER32.dll
 0002:000003ec       __imp__IsZoomed@4          0043e3ec     user32:USER32.dll
 0002:000003f0       __imp__GetMenuState@12     0043e3f0     user32:USER32.dll
 0002:000003f4       __imp__ModifyMenuW@20      0043e3f4     user32:USER32.dll
 0002:000003f8       __imp__GetWindowTextW@12   0043e3f8     user32:USER32.dll
 0002:000003fc       __imp__SetWindowTextW@8    0043e3fc     user32:USER32.dll
 0002:00000400       __imp__CheckMenuItem@12    0043e400     user32:USER32.dll
 0002:00000404       __imp__EnableMenuItem@12   0043e404     user32:USER32.dll
 0002:00000408       __imp__GetFocus@0          0043e408     user32:USER32.dll
 0002:0000040c       __imp__DeferWindowPos@32   0043e40c     user32:USER32.dll
 0002:00000410       __imp__GetActiveWindow@0   0043e410     user32:USER32.dll
 0002:00000414       __imp__DefWindowProcW@16   0043e414     user32:USER32.dll
 0002:00000418       __imp__GetWindowLongW@8    0043e418     user32:USER32.dll
 0002:0000041c       __imp__GetWindow@8         0043e41c     user32:USER32.dll
 0002:00000420       __imp__SendMessageW@16     0043e420     user32:USER32.dll
 0002:00000424       __imp__GetDlgItem@8        0043e424     user32:USER32.dll
 0002:00000428       __imp__GetParent@4         0043e428     user32:USER32.dll
 0002:0000042c       __imp__AdjustWindowRectEx@16 0043e42c     user32:USER32.dll
 0002:00000430       __imp__EnableWindow@8      0043e430     user32:USER32.dll
 0002:00000434       __imp__GetWindowTextLengthW@4 0043e434     user32:USER32.dll
 0002:00000438       __imp__SetRect@20          0043e438     user32:USER32.dll
 0002:0000043c       __imp__RedrawWindow@16     0043e43c     user32:USER32.dll
 0002:00000440       __imp__DefMDIChildProcW@16 0043e440     user32:USER32.dll
 0002:00000444       __imp__DestroyCursor@4     0043e444     user32:USER32.dll
 0002:00000448       __imp__GetScrollInfo@12    0043e448     user32:USER32.dll
 0002:0000044c       __imp__GetScrollRange@16   0043e44c     user32:USER32.dll
 0002:00000450       __imp__GetSystemMenu@8     0043e450     user32:USER32.dll
 0002:00000454       __imp__CopyRect@8          0043e454     user32:USER32.dll
 0002:00000458       __imp__ScreenToClient@8    0043e458     user32:USER32.dll
 0002:0000045c       __imp__EqualRect@8         0043e45c     user32:USER32.dll
 0002:00000460       __imp__GetSystemMetrics@4  0043e460     user32:USER32.dll
 0002:00000464       __imp__GetDC@4             0043e464     user32:USER32.dll
 0002:00000468       __imp__ReleaseDC@8         0043e468     user32:USER32.dll
 0002:0000046c       __imp__GetSysColor@4       0043e46c     user32:USER32.dll
 0002:00000470       __imp__LoadStringW@16      0043e470     user32:USER32.dll
 0002:00000474       __imp__IsWindowVisible@4   0043e474     user32:USER32.dll
 0002:00000478       __imp__SystemParametersInfoW@16 0043e478     user32:USER32.dll
 0002:0000047c       __imp__GetClientRect@8     0043e47c     user32:USER32.dll
 0002:00000480       __imp__MapWindowPoints@16  0043e480     user32:USER32.dll
 0002:00000484       __imp__GetClassNameW@12    0043e484     user32:USER32.dll
 0002:00000488       __imp__IsDialogMessageW@8  0043e488     user32:USER32.dll
 0002:0000048c       __imp__GetLastActivePopup@4 0043e48c     user32:USER32.dll
 0002:00000490       __imp__GetDesktopWindow@0  0043e490     user32:USER32.dll
 0002:00000494       __imp__IsWindowEnabled@4   0043e494     user32:USER32.dll
 0002:00000498       __imp__ShowWindow@8        0043e498     user32:USER32.dll
 0002:0000049c       __imp__PeekMessageW@20     0043e49c     user32:USER32.dll
 0002:000004a0       __imp__UpdateWindow@4      0043e4a0     user32:USER32.dll
 0002:000004a4       __imp__SetWindowPos@28     0043e4a4     user32:USER32.dll
 0002:000004a8       __imp__SetActiveWindow@4   0043e4a8     user32:USER32.dll
 0002:000004ac       __imp__CreateDialogIndirectParamW@20 0043e4ac     user32:USER32.dll
 0002:000004b0       __imp__SendDlgItemMessageA@20 0043e4b0     user32:USER32.dll
 0002:000004b4       __imp__GetTopWindow@4      0043e4b4     user32:USER32.dll
 0002:000004b8       __imp__EndDialog@8         0043e4b8     user32:USER32.dll
 0002:000004bc       __imp__PostQuitMessage@4   0043e4bc     user32:USER32.dll
 0002:000004c0       __imp__PostMessageW@16     0043e4c0     user32:USER32.dll
 0002:000004c4       __imp__GetClassInfoW@12    0043e4c4     user32:USER32.dll
 0002:000004c8       __imp__RegisterClassW@4    0043e4c8     user32:USER32.dll
 0002:000004cc       __imp__LoadCursorW@8       0043e4cc     user32:USER32.dll
 0002:000004d0       __imp__LoadIconW@8         0043e4d0     user32:USER32.dll
 0002:000004d4       __imp__DestroyWindow@4     0043e4d4     user32:USER32.dll
 0002:000004d8       __imp__GetClassLongW@8     0043e4d8     user32:USER32.dll
 0002:000004dc       __imp__SetWindowLongW@12   0043e4dc     user32:USER32.dll
 0002:000004e0       __imp__CallNextHookEx@16   0043e4e0     user32:USER32.dll
 0002:000004e4       __imp__GetClassInfoExW@12  0043e4e4     user32:USER32.dll
 0002:000004e8       __imp__SetWindowsHookExW@16 0043e4e8     user32:USER32.dll
 0002:000004ec       __imp__CreateWindowExW@48  0043e4ec     user32:USER32.dll
 0002:000004f0       __imp__UnhookWindowsHookEx@4 0043e4f0     user32:USER32.dll
 0002:000004f4       __imp__ChildWindowFromPointEx@16 0043e4f4     user32:USER32.dll
 0002:000004f8       __imp__ClientToScreen@8    0043e4f8     user32:USER32.dll
 0002:000004fc       __imp__GetDlgCtrlID@4      0043e4fc     user32:USER32.dll
 0002:00000500       __imp__GetWindowRect@8     0043e500     user32:USER32.dll
 0002:00000504       __imp__PtInRect@12         0043e504     user32:USER32.dll
 0002:00000508       __imp__CallWindowProcW@20  0043e508     user32:USER32.dll
 0002:0000050c       __imp__SetMenu@8           0043e50c     user32:USER32.dll
 0002:00000510       __imp__DestroyMenu@4       0043e510     user32:USER32.dll
 0002:00000514       __imp__GetMenu@4           0043e514     user32:USER32.dll
 0002:00000518       __imp__MapDialogRect@8     0043e518     user32:USER32.dll
 0002:0000051c       \177USER32_NULL_THUNK_DATA 0043e51c     user32:USER32.dll
 0002:00000520       __imp__OpenPrinterW@12     0043e520     winspool:WINSPOOL.DRV
 0002:00000524       __imp__GetJobW@24          0043e524     winspool:WINSPOOL.DRV
 0002:00000528       \177WINSPOOL_NULL_THUNK_DATA 0043e528     winspool:WINSPOOL.DRV
 0002:0000052c       __imp__PrintDlgW@4         0043e52c     comdlg32:comdlg32.dll
 0002:00000530       __imp__CommDlgExtendedError@0 0043e530     comdlg32:comdlg32.dll
 0002:00000534       __imp__GetFileTitleW@12    0043e534     comdlg32:comdlg32.dll
 0002:00000538       __imp__GetSaveFileNameW@4  0043e538     comdlg32:comdlg32.dll
 0002:0000053c       __imp__GetOpenFileNameW@4  0043e53c     comdlg32:comdlg32.dll
 0002:00000540       \177comdlg32_NULL_THUNK_DATA 0043e540     comdlg32:comdlg32.dll
 0002:00000548       ??_7CColorPage@@6B@        0043e548     Colorpge.obj
 0002:00000600       ??_7CPropertyPageMTL@@6B@  0043e600     Colorpge.obj
 0002:000006b8       ??_7CDialog@@6B@           0043e6b8     Colorpge.obj
 0002:00000748       ??_7CWnd@@6B@              0043e748     Colorpge.obj
 0002:000007c0       ??_7CCmdTarget@@6B@        0043e7c0     Colorpge.obj
 0002:000007d8       ??_7CMenuMTL@@6B@          0043e7d8     Colorpge.obj
 0002:000007dc       ??_7CTestCmdUI@@6B@        0043e7dc     Colorpge.obj
 0002:000007ec       ??_7CDCMTL@@6B@            0043e7ec     Colorpge.obj
 0002:00000808       ?classCMainFrame@CMainFrame@@2UCRuntimeClass@@B 0043e808     Mainfrm.obj
 0002:00000824       ??_7CMainFrame@@6B@        0043e824     Mainfrm.obj
 0002:000008d8       ??_7CToolBar@@6B@          0043e8d8     Mainfrm.obj
 0002:00000974       ??_7CStatusBar@@6B@        0043e974     Mainfrm.obj
 0002:00000a10       ??_7CMDIFrameWnd@@6B@      0043ea10     Mainfrm.obj
 0002:00000ac4       ??_7CFrameWnd@@6B@         0043eac4     Mainfrm.obj
 0002:00000b6c       ??_7CControlBar@@6B@       0043eb6c     Mainfrm.obj
 0002:00000c00       ??_7CStatusCmdUI@@6B@      0043ec00     Mainfrm.obj
 0002:00000c10       ??_7CCmdUI@@6B@            0043ec10     Mainfrm.obj
 0002:00000c20       ??_7CClientDCMTL@@6B@      0043ec20     Mainfrm.obj
 0002:00000c38       ??_7CWindowDCMTL@@6B@      0043ec38     Mainfrm.obj
 0002:00000c50       ?_afxSysColorMap@?1??AfxLoadSysColorBitmap@@YAPAUHBITMAP__@@PAUHINSTANCE__@@PAUHRSRC__@@H@Z@4QBUAFX_COLORMAP@@B 0043ec50     Mainfrm.obj
 0002:00000c70       ??_7CToolCmdUI@@6B@        0043ec70     Mainfrm.obj
 0002:00000c80       ??_7CToolTipCtrlMTL@@6B@   0043ec80     Mainfrm.obj
 0002:00000cf8       ??_7CShapePropSheetFrame@@6B@ 0043ecf8     Minifrm.obj
 0002:00000da8       ??_7CMiniFrameWnd@@6B@     0043eda8     Minifrm.obj
 0002:00000e58       ??_7CShapePreviewWnd@@6B@  0043ee58     Preview.obj
 0002:00000ed0       ??_7CPaintDCMTL@@6B@       0043eed0     Preview.obj
 0002:00000ee8       ??_7CBrushMTL@@6B@         0043eee8     Preview.obj
 0002:00000eec       ??_7CPropDlgApp@@6B@       0043eeec     Propdlg.obj
 0002:00000f28       ??_7CWinThread@@6B@        0043ef28     Propdlg.obj
 0002:00000f40       ??_7CWinApp@@6B@           0043ef40     Propdlg.obj
 0002:00000f7c       ??_7CCommandLineInfo@@6B@  0043ef7c     Propdlg.obj
 0002:00000f80       ??_7CDocManager@@6B@       0043ef80     Propdlg.obj
 0002:00000f94       ??_7CMultiDocTemplate@@6B@ 0043ef94     Propdlg.obj
 0002:00000fe4       ??_7CAboutDlg@@6B@         0043efe4     Propdlg.obj
 0002:00001074       ??_7CRecentFileList@@6B@   0043f074     Propdlg.obj
 0002:00001090       ??_7CNewTypeDlg@@6B@       0043f090     Propdlg.obj
 0002:00001120       ??_7CPrintDialogMTL@@6BCPrintDialog@WTL@@@ 0043f120     Propdlg.obj
 0002:0000112c       ??_7CPrintDialogMTL@@6BCCommonWnd@@@ 0043f12c     Propdlg.obj
 0002:00001148       ??_7CPrintDialog@WTL@@6B@  0043f148     Propdlg.obj
 0002:00001154       ??_7CFileDialogMTL@@6B@    0043f154     Propdlg.obj
 0002:00001204       ??_7CCommonDialog@@6B@     0043f204     Propdlg.obj
 0002:00001298       ?classCModalShapePropSheet@CModalShapePropSheet@@2UCRuntimeClass@@B 0043f298     Propsht.obj
 0002:000012b4       ??_7CModalShapePropSheet@@6B@ 0043f2b4     Propsht.obj
 0002:00001338       ??_7CPropertySheetMTL@@6B@ 0043f338     Propsht.obj
 0002:000013bc       ?_afxPropSheetIDs@?4??OnSetDefID@CPropertySheetMTL@@QAEJIJ@Z@4QBHB 0043f3bc     Propsht.obj
 0002:000013d0       ?classCModelessShapePropSheet@CModelessShapePropSheet@@2UCRuntimeClass@@B 0043f3d0     Propsht2.obj
 0002:000013ec       ??_7CModelessShapePropSheet@@6B@ 0043f3ec     Propsht2.obj
 0002:00001470       ?classCShapesDoc@CShapesDoc@@2UCRuntimeClass@@B 0043f470     Shapedoc.obj
 0002:0000148c       ??_7CShapesDoc@@6B@        0043f48c     Shapedoc.obj
 0002:000014e4       ??_7CFile@@6B@             0043f4e4     Shapedoc.obj
 0002:00001508       ?classCShape@CShape@@2UCRuntimeClass@@B 0043f508     Shapeobj.obj
 0002:00001524       ??_7CShape@@6B@            0043f524     Shapeobj.obj
 0002:0000152c       ??_7CObject@@6B@           0043f52c     Shapeobj.obj
 0002:00001534       ??_7CPenMTL@@6B@           0043f534     Shapeobj.obj
 0002:00001538       ??_7CGdiObject@@6B@        0043f538     Shapeobj.obj
 0002:00001540       ?classCShapesView@CShapesView@@2UCRuntimeClass@@B 0043f540     Shapesvw.obj
 0002:0000155c       ??_7CShapesView@@6B@       0043f55c     Shapesvw.obj
 0002:00001608       ??_7CView@@6B@             0043f608     Shapesvw.obj
 0002:000016b4       ??_7CDialogBar@@6B@        0043f6b4     Shapesvw.obj
 0002:00001750       ??_7CPreviewDC@@6B@        0043f750     Shapesvw.obj
 0002:00001768       ??_7CPrintingDialog@@6B@   0043f768     Shapesvw.obj
 0002:000017f8       ?classCToolTipCtrlMTL@CToolTipCtrlMTL@@2UCRuntimeClass@@B 0043f7f8     Stdafx.obj
 0002:00001818       ?classCFileDialogMTL@CFileDialogMTL@@2UCRuntimeClass@@B 0043f818     Stdafx.obj
 0002:00001838       ?classCPropertySheetMTL@CPropertySheetMTL@@2UCRuntimeClass@@B 0043f838     Stdafx.obj
 0002:00001858       ?classCPropertyPageMTL@CPropertyPageMTL@@2UCRuntimeClass@@B 0043f858     Stdafx.obj
 0002:00001878       ?classCPreviewView@CPreviewView@@2UCRuntimeClass@@B 0043f878     Stdafx.obj
 0002:00001898       ?classCScrollView@CScrollView@@2UCRuntimeClass@@B 0043f898     Stdafx.obj
 0002:000018b8       ?classCMDIChildWnd@CMDIChildWnd@@2UCRuntimeClass@@B 0043f8b8     Stdafx.obj
 0002:000018d8       ?classCMDIFrameWnd@CMDIFrameWnd@@2UCRuntimeClass@@B 0043f8d8     Stdafx.obj
 0002:000018f8       ?classCMiniFrameWnd@CMiniFrameWnd@@2UCRuntimeClass@@B 0043f8f8     Stdafx.obj
 0002:00001918       ?classCToolBar@CToolBar@@2UCRuntimeClass@@B 0043f918     Stdafx.obj
 0002:00001938       ?classCDockBar@CDockBar@@2UCRuntimeClass@@B 0043f938     Stdafx.obj
 0002:00001958       ?classCControlBar@CControlBar@@2UCRuntimeClass@@B 0043f958     Stdafx.obj
 0002:00001978       ?classCMultiDocTemplate@CMultiDocTemplate@@2UCRuntimeClass@@B 0043f978     Stdafx.obj
 0002:00001998       ?classCDocTemplate@CDocTemplate@@2UCRuntimeClass@@B 0043f998     Stdafx.obj
 0002:000019b8       ?classCDocument@CDocument@@2UCRuntimeClass@@B 0043f9b8     Stdafx.obj
 0002:000019d8       ?classCSplitterWnd@CSplitterWnd@@2UCRuntimeClass@@B 0043f9d8     Stdafx.obj
 0002:000019f8       ?classCView@CView@@2UCRuntimeClass@@B 0043f9f8     Stdafx.obj
 0002:00001a18       ?classCFrameWnd@CFrameWnd@@2UCRuntimeClass@@B 0043fa18     Stdafx.obj
 0002:00001a38       ?classCDialog@CDialog@@2UCRuntimeClass@@B 0043fa38     Stdafx.obj
 0002:00001a58       ?classCWnd@CWnd@@2UCRuntimeClass@@B 0043fa58     Stdafx.obj
 0002:00001a78       ?classCCmdTarget@CCmdTarget@@2UCRuntimeClass@@B 0043fa78     Stdafx.obj
 0002:00001a98       ?classCObject@CObject@@2UCRuntimeClass@@B 0043fa98     Stdafx.obj
 0002:00001ab8       ?sizeDefault@CScrollView@@2UtagSIZE@@B 0043fab8     Stdafx.obj
 0002:00001ac0       ??_7CMDIChildWnd@@6B@      0043fac0     Stdafx.obj
 0002:00001b70       ??_7CPreviewView@@6B@      0043fb70     Stdafx.obj
 0002:00001c30       ??_7CScrollView@@6B@       0043fc30     Stdafx.obj
 0002:00001ce4       ??_7CImage@@6B@            0043fce4     Stdafx.obj
 0002:00001ce8       ??_7CBitmapMTL@@6B@        0043fce8     Stdafx.obj
 0002:00001cec       ??_7CStylePage@@6B@        0043fcec     Stylepge.obj
 0002:00001da8       _IID_IPersistFile          0043fda8     uuid:objidl_i_guid21.obj
 0002:00001db8       _IID_IShellLinkW           0043fdb8     uuid:shuuid_guid36.obj
 0002:00001dc8       _CLSID_ShellLink           0043fdc8     uuid:shuuid_guid1.obj
 0002:00001dd8       _IID_IClassFactory         0043fdd8     uuid:unknwn_i_guid1.obj
 0002:00001df8       ??_7type_info@@6B@         0043fdf8     LIBCMT:typinfo.obj
 0002:00001eb0       ??_C@_0BH@PHHF@__GLOBAL_HEAP_SELECTED?$AA@ 0043feb0     LIBCMT:heapinit.obj
 0002:00001ec8       ??_C@_0BF@BBGL@__MSVCRT_HEAP_SELECT?$AA@ 0043fec8     LIBCMT:heapinit.obj
 0002:00001ee0       ??_C@_0P@GGKG@runtime?5error?5?$AA@ 0043fee0     LIBCMT:crt0msg.obj
 0002:00001ef0       ??_C@_02PIMC@?$AN?6?$AA@   0043fef0     LIBCMT:crt0msg.obj
 0002:00001ef4       ??_C@_0O@DELO@TLOSS?5error?$AN?6?$AA@ 0043fef4     LIBCMT:crt0msg.obj
 0002:00001f04       ??_C@_0N@OMLL@SING?5error?$AN?6?$AA@ 0043ff04     LIBCMT:crt0msg.obj
 0002:00001f14       ??_C@_0P@OJAK@DOMAIN?5error?$AN?6?$AA@ 0043ff14     LIBCMT:crt0msg.obj
 0002:00001f24       ??_C@_0CF@EANP@R6028?$AN?6?9?5unable?5to?5initialize?5he@ 0043ff24     LIBCMT:crt0msg.obj
 0002:00001f4c       ??_C@_0DF@ECGN@R6027?$AN?6?9?5not?5enough?5space?5for?5lo@ 0043ff4c     LIBCMT:crt0msg.obj
 0002:00001f84       ??_C@_0DF@FKAC@R6026?$AN?6?9?5not?5enough?5space?5for?5st@ 0043ff84     LIBCMT:crt0msg.obj
 0002:00001fbc       ??_C@_0CG@DPMN@R6025?$AN?6?9?5pure?5virtual?5function?5c@ 0043ffbc     LIBCMT:crt0msg.obj
 0002:00001fe4       ??_C@_0DF@CKIP@R6024?$AN?6?9?5not?5enough?5space?5for?5_o@ 0043ffe4     LIBCMT:crt0msg.obj
 0002:0000201c       ??_C@_0CJ@GGOE@R6019?$AN?6?9?5unable?5to?5open?5console?5@ 0044001c     LIBCMT:crt0msg.obj
 0002:00002048       ??_C@_0CB@LBOB@R6018?$AN?6?9?5unexpected?5heap?5error?$AN?6@ 00440048     LIBCMT:crt0msg.obj
 0002:0000206c       ??_C@_0CN@FPEG@R6017?$AN?6?9?5unexpected?5multithread?5@ 0044006c     LIBCMT:crt0msg.obj
 0002:0000209c       ??_C@_0CM@OBIC@R6016?$AN?6?9?5not?5enough?5space?5for?5th@ 0044009c     LIBCMT:crt0msg.obj
 0002:000020c8       ??_C@_0CB@HPAL@?$AN?6abnormal?5program?5termination?$AN?6@ 004400c8     LIBCMT:crt0msg.obj
 0002:000020ec       ??_C@_0CM@JOOB@R6009?$AN?6?9?5not?5enough?5space?5for?5en@ 004400ec     LIBCMT:crt0msg.obj
 0002:00002118       ??_C@_0CK@OIBL@R6008?$AN?6?9?5not?5enough?5space?5for?5ar@ 00440118     LIBCMT:crt0msg.obj
 0002:00002144       ??_C@_0CF@LKPB@R6002?$AN?6?9?5floating?5point?5not?5load@ 00440144     LIBCMT:crt0msg.obj
 0002:0000216c       ??_C@_0CF@JPDF@Microsoft?5Visual?5C?$CL?$CL?5Runtime?5Lib@ 0044016c     LIBCMT:crt0msg.obj
 0002:00002194       ??_C@_02JJJH@?6?6?$AA@     00440194     LIBCMT:crt0msg.obj
 0002:00002198       ??_C@_0BK@DEOK@Runtime?5Error?$CB?6?6Program?3?5?$AA@ 00440198     LIBCMT:crt0msg.obj
 0002:000021b4       ??_C@_03NAME@?4?4?4?$AA@   004401b4     LIBCMT:crt0msg.obj
 0002:000021b8       ??_C@_0BH@NNCD@?$DMprogram?5name?5unknown?$DO?$AA@ 004401b8     LIBCMT:crt0msg.obj
 0002:00002260       ___dnames                  00440260     LIBCMT:timeset.obj
 0002:00002278       ___mnames                  00440278     LIBCMT:timeset.obj
 0002:000022a0       ??_C@_02JHIA@TZ?$AA@       004402a0     LIBCMT:tzset.obj
 0002:000022a4       ??_C@_0BD@NJFP@GetLastActivePopup?$AA@ 004402a4     LIBCMT:crtmbox.obj
 0002:000022b8       ??_C@_0BA@GILI@GetActiveWindow?$AA@ 004402b8     LIBCMT:crtmbox.obj
 0002:000022c8       ??_C@_0M@PKCK@MessageBoxA?$AA@ 004402c8     LIBCMT:crtmbox.obj
 0002:000022d4       ??_C@_0L@HKL@user32?4dll?$AA@ 004402d4     LIBCMT:crtmbox.obj
 0002:000022e0       ??_C@_01A@?$AA?$AA@        004402e0     LIBCMT:a_map.obj
 0002:000022e4       ??_C@_13A@?$AA?$AA?$AA?$AA@ 004402e4     LIBCMT:a_map.obj
 0002:00002328       ??_C@_07CJME@H?3mm?3ss?$AA@ 00440328     LIBCMT:strftime.obj
 0002:00002330       ??_C@_0BE@MHI@dddd?0?5MMMM?5dd?0?5yyyy?$AA@ 00440330     LIBCMT:strftime.obj
 0002:00002344       ??_C@_06HCAD@M?1d?1yy?$AA@ 00440344     LIBCMT:strftime.obj
 0002:0000234c       ??_C@_02DBLP@PM?$AA@       0044034c     LIBCMT:strftime.obj
 0002:00002350       ??_C@_02ENLM@AM?$AA@       00440350     LIBCMT:strftime.obj
 0002:00002354       ??_C@_08LIDF@December?$AA@ 00440354     LIBCMT:strftime.obj
 0002:00002360       ??_C@_08NJLI@November?$AA@ 00440360     LIBCMT:strftime.obj
 0002:0000236c       ??_C@_07IAMM@October?$AA@  0044036c     LIBCMT:strftime.obj
 0002:00002374       ??_C@_09MKGD@September?$AA@ 00440374     LIBCMT:strftime.obj
 0002:00002380       ??_C@_06PADP@August?$AA@   00440380     LIBCMT:strftime.obj
 0002:00002388       ??_C@_04PIJO@July?$AA@     00440388     LIBCMT:strftime.obj
 0002:00002390       ??_C@_04ICFP@June?$AA@     00440390     LIBCMT:strftime.obj
 0002:00002398       ??_C@_05JFGC@April?$AA@    00440398     LIBCMT:strftime.obj
 0002:000023a0       ??_C@_05FGPD@March?$AA@    004403a0     LIBCMT:strftime.obj
 0002:000023a8       ??_C@_08PGBA@February?$AA@ 004403a8     LIBCMT:strftime.obj
 0002:000023b4       ??_C@_07BPKJ@January?$AA@  004403b4     LIBCMT:strftime.obj
 0002:000023bc       ??_C@_03PGJO@Dec?$AA@      004403bc     LIBCMT:strftime.obj
 0002:000023c0       ??_C@_03PDLM@Nov?$AA@      004403c0     LIBCMT:strftime.obj
 0002:000023c4       ??_C@_03BLHK@Oct?$AA@      004403c4     LIBCMT:strftime.obj
 0002:000023c8       ??_C@_03DPFM@Sep?$AA@      004403c8     LIBCMT:strftime.obj
 0002:000023cc       ??_C@_03CMCH@Aug?$AA@      004403cc     LIBCMT:strftime.obj
 0002:000023d0       ??_C@_03OBKI@Jul?$AA@      004403d0     LIBCMT:strftime.obj
 0002:000023d4       ??_C@_03LEIG@Jun?$AA@      004403d4     LIBCMT:strftime.obj
 0002:000023d8       ??_C@_03MGHB@May?$AA@      004403d8     LIBCMT:strftime.obj
 0002:000023dc       ??_C@_03MJJM@Apr?$AA@      004403dc     LIBCMT:strftime.obj
 0002:000023e0       ??_C@_03GNHA@Mar?$AA@      004403e0     LIBCMT:strftime.obj
 0002:000023e4       ??_C@_03PICE@Feb?$AA@      004403e4     LIBCMT:strftime.obj
 0002:000023e8       ??_C@_03IEIF@Jan?$AA@      004403e8     LIBCMT:strftime.obj
 0002:000023ec       ??_C@_08FAKH@Saturday?$AA@ 004403ec     LIBCMT:strftime.obj
 0002:000023f8       ??_C@_06ONCK@Friday?$AA@   004403f8     LIBCMT:strftime.obj
 0002:00002400       ??_C@_08CCFO@Thursday?$AA@ 00440400     LIBCMT:strftime.obj
 0002:0000240c       ??_C@_09PBIN@Wednesday?$AA@ 0044040c     LIBCMT:strftime.obj
 0002:00002418       ??_C@_07BMBC@Tuesday?$AA@  00440418     LIBCMT:strftime.obj
 0002:00002420       ??_C@_06CHLK@Monday?$AA@   00440420     LIBCMT:strftime.obj
 0002:00002428       ??_C@_06OOEM@Sunday?$AA@   00440428     LIBCMT:strftime.obj
 0002:00002430       ??_C@_03MPKK@Sat?$AA@      00440430     LIBCMT:strftime.obj
 0002:00002434       ??_C@_03FINJ@Fri?$AA@      00440434     LIBCMT:strftime.obj
 0002:00002438       ??_C@_03HIKC@Thu?$AA@      00440438     LIBCMT:strftime.obj
 0002:0000243c       ??_C@_03HECK@Wed?$AA@      0044043c     LIBCMT:strftime.obj
 0002:00002440       ??_C@_03ECCP@Tue?$AA@      00440440     LIBCMT:strftime.obj
 0002:00002444       ??_C@_03PIEP@Mon?$AA@      00440444     LIBCMT:strftime.obj
 0002:00002448       ??_C@_03FHEP@Sun?$AA@      00440448     LIBCMT:strftime.obj
 0002:00002450       ??_R1A@?0A@A@type_info@@8  00440450     LIBCMT:typinfo.obj
 0002:00002468       ??_R2type_info@@8          00440468     LIBCMT:typinfo.obj
 0002:00002470       ??_R3type_info@@8          00440470     LIBCMT:typinfo.obj
 0002:00002480       ??_R4type_info@@6B@        00440480     LIBCMT:typinfo.obj
 0002:00002498       __CT??_R0PAX@84            00440498     Colorpge.obj
 0002:000024b8       __CT??_R0PAVCException@@@84 004404b8     Colorpge.obj
 0002:000024d8       __CTA2PAVCException@@      004404d8     Colorpge.obj
 0002:000024e8       __TI2PAVCException@@       004404e8     Colorpge.obj
 0002:000035e0       __CT??_R0PAVCSimpleException@@@84 004415e0     Shapedoc.obj
 0002:00003600       __CT??_R0PAVCArchiveException@@@84 00441600     Shapedoc.obj
 0002:00003620       __CTA4PAVCArchiveException@@ 00441620     Shapedoc.obj
 0002:00003638       __TI4PAVCArchiveException@@ 00441638     Shapedoc.obj
 0002:000037c8       __CT??_R0PAVCFileException@@@84 004417c8     Shapedoc.obj
 0002:000037e8       __CTA4PAVCFileException@@  004417e8     Shapedoc.obj
 0002:00003800       __TI4PAVCFileException@@   00441800     Shapedoc.obj
 0002:000042a0       __IMPORT_DESCRIPTOR_KERNEL32 004422a0     kernel32:KERNEL32.dll
 0002:000042b4       __IMPORT_DESCRIPTOR_USER32 004422b4     user32:USER32.dll
 0002:000042c8       __IMPORT_DESCRIPTOR_ADVAPI32 004422c8     advapi32:ADVAPI32.dll
 0002:000042dc       __IMPORT_DESCRIPTOR_COMCTL32 004422dc     comctl32:COMCTL32.dll
 0002:000042f0       __IMPORT_DESCRIPTOR_GDI32  004422f0     gdi32:GDI32.dll
 0002:00004304       __IMPORT_DESCRIPTOR_comdlg32 00442304     comdlg32:comdlg32.dll
 0002:00004318       __IMPORT_DESCRIPTOR_WINSPOOL 00442318     winspool:WINSPOOL.DRV
 0002:0000432c       __IMPORT_DESCRIPTOR_SHELL32 0044232c     shell32:SHELL32.dll
 0002:00004340       __IMPORT_DESCRIPTOR_SHLWAPI 00442340     Shlwapi:SHLWAPI.dll
 0002:00004354       __NULL_IMPORT_DESCRIPTOR   00442354     kernel32:KERNEL32.dll
 0003:00000000       ___xc_a                    00444000     LIBCMT:crt0init.obj
 0003:00000020       ___xc_z                    00444020     LIBCMT:crt0init.obj
 0003:00000024       ___xi_a                    00444024     LIBCMT:crt0init.obj
 0003:00000034       ___xi_z                    00444034     LIBCMT:crt0init.obj
 0003:00000038       ___xp_a                    00444038     LIBCMT:crt0init.obj
 0003:0000003c       ___xp_z                    0044403c     LIBCMT:crt0init.obj
 0003:00000040       ___xt_a                    00444040     LIBCMT:crt0init.obj
 0003:00000048       ___xt_z                    00444048     LIBCMT:crt0init.obj
 0003:00000050       ?_atltmpPchNil@WTL@@3PBGB  00444050     Colorpge.obj
 0003:00000054       ?_atltmpDataNil@WTL@@3PAUCStringData@1@A 00444054     Colorpge.obj
 0003:00000058       ?rgInitData@WTL@@3PAHA     00444058     Colorpge.obj
 0003:00000068       ??_R0PAX@8                 00444068     Colorpge.obj
 0003:00000078       ??_R0PAVCException@@@8     00444078     Colorpge.obj
 0003:00000094       ??_C@_1BI@CEJ@?$AAA?$AAf?$AAx?$AAW?$AAn?$AAd?$AAM?$AAt?$AAl?$AAs?$AAu?$AA?$AA@ 00444094     Colorpge.obj
 0003:000000ac       ??_C@_1CI@GPEL@?$AAA?$AAf?$AAx?$AAF?$AAr?$AAa?$AAm?$AAe?$AAO?$AAr?$AAV?$AAi?$AAe?$AAw?$AAM?$AAt?$AAl?$AAs?$AAu?$AA?$AA@ 004440ac     Colorpge.obj
 0003:000000d4       ??_C@_1CC@JLGN@?$AAA?$AAf?$AAx?$AAM?$AAD?$AAI?$AAF?$AAr?$AAa?$AAm?$AAe?$AAM?$AAt?$AAl?$AAs?$AAu?$AA?$AA@ 004440d4     Colorpge.obj
 0003:000000f8       ??_C@_1CG@EOKM@?$AAA?$AAf?$AAx?$AAC?$AAo?$AAn?$AAt?$AAr?$AAo?$AAl?$AAB?$AAa?$AAr?$AAM?$AAt?$AAl?$AAs?$AAu?$AA?$AA@ 004440f8     Colorpge.obj
 0003:00000120       ??_C@_1CG@HOGL@?$AAA?$AAf?$AAx?$AAO?$AAl?$AAe?$AAC?$AAo?$AAn?$AAt?$AAr?$AAo?$AAl?$AAM?$AAt?$AAl?$AAs?$AAu?$AA?$AA@ 00444120     Colorpge.obj
 0003:00000148       ??_C@_19JGFH@?$AAE?$AAd?$AAi?$AAt?$AA?$AA@ 00444148     Colorpge.obj
 0003:0000018c       ??_C@_0L@IAGP@CMainFrame?$AA@ 0044418c     Mainfrm.obj
 0003:00000198       ??_C@_1CG@LDD@?$AAm?$AAs?$AAc?$AAt?$AAl?$AAs?$AA_?$AAs?$AAt?$AAa?$AAt?$AAu?$AAs?$AAb?$AAa?$AAr?$AA3?$AA2?$AA?$AA@ 00444198     Mainfrm.obj
 0003:000001c0       ??_C@_1BA@NPHH@?$AAM?$AAa?$AAr?$AAl?$AAe?$AAt?$AAt?$AA?$AA@ 004441c0     Mainfrm.obj
 0003:000001d0       ?_afxDropDownWidth@?1??_AfxGetDropDownWidth@CToolBar@@SAHXZ@4HA 004441d0     Mainfrm.obj
 0003:000001d4       ??_C@_1CA@IKCD@?$AAT?$AAo?$AAo?$AAl?$AAb?$AAa?$AAr?$AAW?$AAi?$AAn?$AAd?$AAo?$AAw?$AA3?$AA2?$AA?$AA@ 004441d4     Mainfrm.obj
 0003:000001f4       ??_C@_1CG@PHEA@?$AAA?$AAf?$AAx?$AA?3?$AA?$CF?$AAp?$AA?3?$AA?$CF?$AAx?$AA?3?$AA?$CF?$AAp?$AA?3?$AA?$CF?$AAp?$AA?3?$AA?$CF?$AAp?$AA?$AA@ 004441f4     Mainfrm.obj
 0003:0000021c       ??_C@_1BE@LADM@?$AAA?$AAf?$AAx?$AA?3?$AA?$CF?$AAp?$AA?3?$AA?$CF?$AAx?$AA?$AA@ 0044421c     Mainfrm.obj
 0003:00000230       ?dmDockBarMap@?1??GetDockBarMap@CFrameWnd@@SAAAU_DocBarMap@2@XZ@4U32@A 00444230     Mainfrm.obj
 0003:00000250       ??_C@_17LFFB@?$AA?5?$AA?9?$AA?5?$AA?$AA@ 00444250     Mainfrm.obj
 0003:00000258       ??_C@_17LJFH@?$AA?3?$AA?$CF?$AAd?$AA?$AA@ 00444258     Mainfrm.obj
 0003:00000260       ??_C@_1BE@MFDJ@?$AAm?$AAd?$AAi?$AAc?$AAl?$AAi?$AAe?$AAn?$AAt?$AA?$AA@ 00444260     Mainfrm.obj
 0003:00000274       ??_C@_1CC@BIKB@?$AAt?$AAo?$AAo?$AAl?$AAt?$AAi?$AAp?$AAs?$AA_?$AAc?$AAl?$AAa?$AAs?$AAs?$AA3?$AA2?$AA?$AA@ 00444274     Mainfrm.obj
 0003:00000298       ??_C@_1O@IKOG@?$AAs?$AAy?$AAs?$AAt?$AAe?$AAm?$AA?$AA@ 00444298     Propdlg.obj
 0003:000002a8       ??_C@_1BC@CFHF@?$AAS?$AAe?$AAt?$AAt?$AAi?$AAn?$AAg?$AAs?$AA?$AA@ 004442a8     Propdlg.obj
 0003:000002bc       ??_C@_1BK@PLAO@?$AAP?$AAr?$AAe?$AAv?$AAi?$AAe?$AAw?$AAP?$AAa?$AAg?$AAe?$AAs?$AA?$AA@ 004442bc     Propdlg.obj
 0003:000002d8       ??_C@_1CC@DLD@?$AAR?$AAe?$AAc?$AAe?$AAn?$AAt?$AA?5?$AAF?$AAi?$AAl?$AAe?$AA?5?$AAL?$AAi?$AAs?$AAt?$AA?$AA@ 004442d8     Propdlg.obj
 0003:000002fc       ??_C@_1O@HIKA@?$AAF?$AAi?$AAl?$AAe?$AA?$CF?$AAd?$AA?$AA@ 004442fc     Propdlg.obj
 0003:0000030c       ??_C@_1BI@FDAK@?$AAU?$AAn?$AAr?$AAe?$AAg?$AAs?$AAe?$AAr?$AAv?$AAe?$AAr?$AA?$AA@ 0044430c     Propdlg.obj
 0003:00000324       ??_C@_1BE@MNBO@?$AAR?$AAe?$AAg?$AAs?$AAe?$AAr?$AAv?$AAe?$AAr?$AA?$AA@ 00444324     Propdlg.obj
 0003:00000338       ??_C@_19BHME@?$AA?2?$AA?4?$AA?4?$AA?4?$AA?$AA@ 00444338     Propdlg.obj
 0003:00000344       ??_C@_15KLDP@?$AA?$CF?$AAd?$AA?$AA@ 00444344     Propdlg.obj
 0003:0000034c       ??_C@_13HMCP@?$AA?2?$AA?$AA@ 0044434c     Propdlg.obj
 0003:00000350       ??_C@_1BE@JFBP@?$AAS?$AAo?$AAf?$AAt?$AAw?$AAa?$AAr?$AAe?$AA?2?$AA?$AA@ 00444350     Propdlg.obj
 0003:00000364       ??_C@_17EICA@?$AA?$CK?$AA?4?$AA?$CK?$AA?$AA@ 00444364     Propdlg.obj
 0003:0000036c       ??_C@_13FDB@?$AA?$DL?$AA?$AA@ 0044436c     Propdlg.obj
 0003:00000370       ??_C@_1CI@HAOL@?$AAc?$AAo?$AAm?$AAm?$AAd?$AAl?$AAg?$AA_?$AAS?$AAe?$AAt?$AAR?$AAG?$AAB?$AAC?$AAo?$AAl?$AAo?$AAr?$AA?$AA@ 00444370     Propdlg.obj
 0003:00000398       ??_C@_1BK@KCME@?$AAc?$AAo?$AAm?$AAm?$AAd?$AAl?$AAg?$AA_?$AAh?$AAe?$AAl?$AAp?$AA?$AA@ 00444398     Propdlg.obj
 0003:000003b4       ??_C@_1CG@GOBL@?$AAc?$AAo?$AAm?$AAm?$AAd?$AAl?$AAg?$AA_?$AAF?$AAi?$AAl?$AAe?$AAN?$AAa?$AAm?$AAe?$AAO?$AAK?$AA?$AA@ 004443b4     Propdlg.obj
 0003:000003dc       ??_C@_1CO@EDLA@?$AAc?$AAo?$AAm?$AAm?$AAd?$AAl?$AAg?$AA_?$AAS?$AAh?$AAa?$AAr?$AAe?$AAV?$AAi?$AAo?$AAl?$AAa?$AAt?$AAi@ 004443dc     Propdlg.obj
 0003:0000040c       ??_C@_1DG@FJGG@?$AAc?$AAo?$AAm?$AAm?$AAd?$AAl?$AAg?$AA_?$AAL?$AAB?$AAS?$AAe?$AAl?$AAC?$AAh?$AAa?$AAn?$AAg?$AAe?$AAd@ 0044440c     Propdlg.obj
 0003:00000444       ??_C@_0BC@KFKC@DllGetClassObject?$AA@ 00444444     Propdlg.obj
 0003:00000458       ??_C@_1BO@DEPG@?$AAI?$AAn?$AAP?$AAr?$AAo?$AAc?$AAS?$AAe?$AAr?$AAv?$AAe?$AAr?$AA3?$AA2?$AA?$AA@ 00444458     Propdlg.obj
 0003:00000478       ??_C@_1M@EPCN@?$AAC?$AAL?$AAS?$AAI?$AAD?$AA?$AA@ 00444478     Propdlg.obj
 0003:00000484       ??_C@_1GG@OAL@?$AA?$HL?$AA?$CF?$AA0?$AA8?$AAX?$AA?9?$AA?$CF?$AA0?$AA4?$AAX?$AA?9?$AA?$CF?$AA0?$AA4?$AAX?$AA?9?$AA?$CF?$AA0?$AA2?$AAX@ 00444484     Propdlg.obj
 0003:000004ec       ??_C@_19ENHM@?$AA?$CG?$AA?$CF?$AAd?$AA?5?$AA?$AA@ 004444ec     Propdlg.obj
 0003:000004f8       ??_C@_19NOCM@?$AA1?$AA?$CG?$AA0?$AA?5?$AA?$AA@ 004444f8     Propdlg.obj
 0003:00000504       ??_C@_17IJMJ@?$AA?$CF?$AAd?$AA?5?$AA?$AA@ 00444504     Propdlg.obj
 0003:0000050c       ??_C@_0BF@BMFN@CModalShapePropSheet?$AA@ 0044450c     Propsht.obj
 0003:00000524       ?_afxPropSheetButtons@?1??OnInitDialog@CPropertySheetMTL@@UAEHXZ@4PAHA 00444524     Propsht.obj
 0003:00000534       ??_C@_1BK@EOBE@?$AAM?$AAS?$AA?5?$AAU?$AAI?$AA?5?$AAG?$AAo?$AAt?$AAh?$AAi?$AAc?$AA?$AA@ 00444534     Propsht.obj
 0003:00000550       ??_C@_0BJ@HDLP@GetUserDefaultUILanguage?$AA@ 00444550     Propsht.obj
 0003:0000056c       ??_C@_0N@MMAA@KERNEL32?4DLL?$AA@ 0044456c     Propsht.obj
 0003:0000057c       ??_C@_1BK@DCHF@?$AAc?$AAo?$AAm?$AAc?$AAt?$AAl?$AA3?$AA2?$AA?4?$AAd?$AAl?$AAl?$AA?$AA@ 0044457c     Propsht.obj
 0003:00000598       ??_C@_1CA@MPOG@?$AAA?$AAf?$AAx?$AAC?$AAl?$AAo?$AAs?$AAe?$AAP?$AAe?$AAn?$AAd?$AAi?$AAn?$AAg?$AA?$AA@ 00444598     Propsht.obj
 0003:000005b8       ??_C@_0BI@EFM@CModelessShapePropSheet?$AA@ 004445b8     Propsht2.obj
 0003:000005d0       ??_C@_0L@IHAB@CShapesDoc?$AA@ 004445d0     Shapedoc.obj
 0003:000005e0       ??_R0PAVCSimpleException@@@8 004445e0     Shapedoc.obj
 0003:00000600       ??_R0PAVCArchiveException@@@8 00444600     Shapedoc.obj
 0003:00000620       ??_R0PAVCFileException@@@8 00444620     Shapedoc.obj
 0003:00000640       ??_C@_17LDN@?$AA?3?$AA?1?$AA?2?$AA?$AA@ 00444640     Shapedoc.obj
 0003:00000648       ??_C@_06JOAM@CShape?$AA@   00444648     Shapeobj.obj
 0003:00000650       ??_C@_0M@CDP@CShapesView?$AA@ 00444650     Shapesvw.obj
 0003:0000065c       ??_C@_13MCKD@?$AA?7?$AA?$AA@ 0044465c     Shapesvw.obj
 0003:00000660       ??_C@_13NHLM@?$AAA?$AA?$AA@ 00444660     Shapesvw.obj
 0003:00000664       ??_C@_0BA@ODHP@CToolTipCtrlMTL?$AA@ 00444664     Stdafx.obj
 0003:00000674       ??_C@_0P@HNOO@CFileDialogMTL?$AA@ 00444674     Stdafx.obj
 0003:00000684       ??_C@_0BC@NAOB@CPropertySheetMTL?$AA@ 00444684     Stdafx.obj
 0003:00000698       ??_C@_0BB@FLPD@CPropertyPageMTL?$AA@ 00444698     Stdafx.obj
 0003:000006ac       ??_C@_0N@LOLK@CPreviewView?$AA@ 004446ac     Stdafx.obj
 0003:000006bc       ??_C@_0M@DAH@CScrollView?$AA@ 004446bc     Stdafx.obj
 0003:000006c8       ??_C@_0N@NPHP@CMDIChildWnd?$AA@ 004446c8     Stdafx.obj
 0003:000006d8       ??_C@_0N@FPEB@CMDIFrameWnd?$AA@ 004446d8     Stdafx.obj
 0003:000006e8       ??_C@_0O@NPLL@CMiniFrameWnd?$AA@ 004446e8     Stdafx.obj
 0003:000006f8       ??_C@_08NCEL@CToolBar?$AA@ 004446f8     Stdafx.obj
 0003:00000704       ??_C@_08EABA@CDockBar?$AA@ 00444704     Stdafx.obj
 0003:00000710       ??_C@_0M@GCON@CControlBar?$AA@ 00444710     Stdafx.obj
 0003:0000071c       ??_C@_0BC@HJJP@CMultiDocTemplate?$AA@ 0044471c     Stdafx.obj
 0003:00000730       ??_C@_0N@BKAE@CDocTemplate?$AA@ 00444730     Stdafx.obj
 0003:00000740       ??_C@_09IIIN@CDocument?$AA@ 00444740     Stdafx.obj
 0003:0000074c       ??_C@_0N@JGP@CSplitterWnd?$AA@ 0044474c     Stdafx.obj
 0003:0000075c       ??_C@_05KON@CView?$AA@     0044475c     Stdafx.obj
 0003:00000764       ??_C@_09HNKJ@CFrameWnd?$AA@ 00444764     Stdafx.obj
 0003:00000770       ??_C@_07IJJI@CDialog?$AA@  00444770     Stdafx.obj
 0003:00000778       ??_C@_04MBPC@CWnd?$AA@     00444778     Stdafx.obj
 0003:00000780       ??_C@_0L@MION@CCmdTarget?$AA@ 00444780     Stdafx.obj
 0003:0000078c       ??_C@_07EFMO@CObject?$AA@  0044478c     Stdafx.obj
 0003:00000798       ?GUID_ATLVer30@ATL@@3U_GUID@@A 00444798     Stdafx.obj
 0003:000007a8       ??_C@_19KGAM@?$AA?4?$AAI?$AAN?$AAI?$AA?$AA@ 004447a8     Stdafx.obj
 0003:000007b4       ??_C@_19CLBK@?$AA?4?$AAH?$AAL?$AAP?$AA?$AA@ 004447b4     Stdafx.obj
 0003:000007c0       ??_C@_19HAP@?$AA?4?$AAC?$AAH?$AAM?$AA?$AA@ 004447c0     Stdafx.obj
 0003:000007cc       __aexit_rtn                004447cc     LIBCMT:wwincrt0.obj
 0003:000007d0       ___app_type                004447d0     LIBCMT:wwincrt0.obj
 0003:000007d8       ??_R0?AVtype_info@@@8      004447d8     LIBCMT:typinfo.obj
 0003:000007f0       __NLG_Destination          004447f0     LIBCMT:exsup.obj
 0003:00000800       ?__pMyUnhandledExceptionFilter@@3PAXA 00444800     LIBCMT:throw.obj
 0003:00000810       __XcptActTab               00444810     LIBCMT:winxfltr.obj
 0003:00000888       __First_FPE_Indx           00444888     LIBCMT:winxfltr.obj
 0003:0000088c       __Num_FPE                  0044488c     LIBCMT:winxfltr.obj
 0003:00000890       __XcptActTabSize           00444890     LIBCMT:winxfltr.obj
 0003:00000894       __XcptActTabCount          00444894     LIBCMT:winxfltr.obj
 0003:00000898       ___badioinfo               00444898     LIBCMT:ioinit.obj
 0003:000008bc       ___tlsindex                004448bc     LIBCMT:tidtable.obj
 0003:000008c0       __amblksiz                 004448c0     LIBCMT:heapinit.obj
 0003:00000958       __locktable                00444958     LIBCMT:mlock.obj
 0003:00000a20       ___old_small_block_heap    00444a20     LIBCMT:sbheap.obj
 0003:00002a44       ___old_sbh_threshold       00446a44     LIBCMT:sbheap.obj
 0003:00002a50       ?__pInconsistency@@3P6AXXZA 00446a50     LIBCMT:hooks.obj
 0003:00002a60       __timezone                 00446a60     LIBCMT:timeset.obj
 0003:00002a64       __daylight                 00446a64     LIBCMT:timeset.obj
 0003:00002a68       __dstbias                  00446a68     LIBCMT:timeset.obj
 0003:00002aec       __tzname                   00446aec     LIBCMT:timeset.obj
 0003:00002b14       __lpdays                   00446b14     LIBCMT:days.obj
 0003:00002b48       __days                     00446b48     LIBCMT:days.obj
 0003:00002ce8       __pctype                   00446ce8     LIBCMT:ctype.obj
 0003:00002cec       __pwctype                  00446cec     LIBCMT:ctype.obj
 0003:00002cf0       __ctype                    00446cf0     LIBCMT:ctype.obj
 0003:00002ef4       ___mb_cur_max              00446ef4     LIBCMT:nlsdata1.obj
 0003:00002ef8       ___decimal_point           00446ef8     LIBCMT:nlsdata1.obj
 0003:00002efc       ___decimal_point_length    00446efc     LIBCMT:nlsdata1.obj
 0003:00003110       ___lc_time_curr            00447110     LIBCMT:strftime.obj
 0003:00003118       ___lc_time_c               00447118     LIBCMT:strftime.obj
 0003:000031c8       ___lconv_static_decimal    004471c8     LIBCMT:lconv.obj
 0003:000031d0       ___lconv_c                 004471d0     LIBCMT:lconv.obj
 0003:00003200       ___lconv                   00447200     LIBCMT:lconv.obj
 0003:00003210       ?_pModule@ATL@@3PAVCComModule@1@A 00447210     Colorpge.obj
 0003:00003218       ?cwp@?1??GetHookOldCbtFilter@CWnd@@SAAAU_CreateWindowParam@2@XZ@4U32@A 00447218     Colorpge.obj
 0003:00003224       ??_C@_11A@?$AA?$AA@        00447224     Mainfrm.obj
 0003:00003228       ?theApp@@3VCPropDlgApp@@A  00447228     Propdlg.obj
 0003:000033d8       ?hHalftoneBrush@?1??HalftoneBrush@CAfx@@SAPAUHBRUSH__@@H@Z@4PAU3@A 004473d8     Propdlg.obj
 0003:000033dc       ?_afxMsgSETRGB@?1??_AfxCommDlgProc@CCommonDialog@@SGKPAUHWND__@@IIJ@Z@4IA 004473dc     Propdlg.obj
 0003:000033e0       ?_afxMsgHELP@?1??_AfxCommDlgProc@CCommonDialog@@SGKPAUHWND__@@IIJ@Z@4IA 004473e0     Propdlg.obj
 0003:000033e4       ?_afxMsgFILEOK@?1??_AfxCommDlgProc@CCommonDialog@@SGKPAUHWND__@@IIJ@Z@4IA 004473e4     Propdlg.obj
 0003:000033e8       ?_afxMsgSHAREVI@?1??_AfxCommDlgProc@CCommonDialog@@SGKPAUHWND__@@IIJ@Z@4IA 004473e8     Propdlg.obj
 0003:000033ec       ?_afxMsgLBSELCHANGE@?1??_AfxCommDlgProc@CCommonDialog@@SGKPAUHWND__@@IIJ@Z@4IA 004473ec     Propdlg.obj
 0003:000033f0       ?_init_CShape@@3UAFX_CLASSINIT@@A 004473f0     Shapeobj.obj
 0003:000033f8       ?m_pCWinApp@CWinApp@@2PAV1@A 004473f8     Stdafx.obj
 0003:00003400       ?rectDefault@CFrameWnd@@2VCRect@WTL@@B 00447400     Stdafx.obj
 0003:00003410       ?_AtlWinModule@@3VCComModule@ATL@@A 00447410     Stdafx.obj
 0003:00003498       ?wndTopMost@CWMHnd@@2V1@B  00447498     Stdafx.obj
 0003:000034a8       ?wndBottom@CWMHnd@@2V1@B   004474a8     Stdafx.obj
 0003:000034b8       ?wndTop@CWMHnd@@2V1@B      004474b8     Stdafx.obj
 0003:000034c8       ?wndNoTopMost@CWMHnd@@2V1@B 004474c8     Stdafx.obj
 0003:000034d8       ?_afxGotScrollLines@?1??_AfxGetMouseScrollLines@CScrollView@@QAEIXZ@4HA 004474d8     Stdafx.obj
 0003:000034dc       __aenvptr                  004474dc     LIBCMT:wwincrt0.obj
 0003:000034e0       __wenvptr                  004474e0     LIBCMT:wwincrt0.obj
 0003:000034e4       ___error_mode              004474e4     LIBCMT:wwincrt0.obj
 0003:000034e8       __umaskval                 004474e8     LIBCMT:crt0dat.obj
 0003:000034ec       __osver                    004474ec     LIBCMT:crt0dat.obj
 0003:000034f0       __winver                   004474f0     LIBCMT:crt0dat.obj
 0003:000034f4       __winmajor                 004474f4     LIBCMT:crt0dat.obj
 0003:000034f8       __winminor                 004474f8     LIBCMT:crt0dat.obj
 0003:000034fc       ___argc                    004474fc     LIBCMT:crt0dat.obj
 0003:00003500       ___argv                    00447500     LIBCMT:crt0dat.obj
 0003:00003504       ___wargv                   00447504     LIBCMT:crt0dat.obj
 0003:00003508       __environ                  00447508     LIBCMT:crt0dat.obj
 0003:0000350c       ___initenv                 0044750c     LIBCMT:crt0dat.obj
 0003:00003510       __wenviron                 00447510     LIBCMT:crt0dat.obj
 0003:00003514       ___winitenv                00447514     LIBCMT:crt0dat.obj
 0003:00003518       __pgmptr                   00447518     LIBCMT:crt0dat.obj
 0003:0000351c       __wpgmptr                  0044751c     LIBCMT:crt0dat.obj
 0003:00003520       __exitflag                 00447520     LIBCMT:crt0dat.obj
 0003:00003524       __C_Termination_Done       00447524     LIBCMT:crt0dat.obj
 0003:00003528       __C_Exit_Done              00447528     LIBCMT:crt0dat.obj
 0003:0000373c       __adbgmsg                  0044773c     LIBCMT:crt0msg.obj
 0003:000037a0       __newmode                  004477a0     LIBCMT:_newmode.obj
 0003:000037a4       ?_pnhHeap@@3P6AHI@ZA       004477a4     LIBCMT:handler.obj
 0003:00003894       ___lc_handle               00447894     LIBCMT:nlsdata2.obj
 0003:000038ac       ___lc_codepage             004478ac     LIBCMT:nlsdata2.obj
 0003:000038b0       ___lc_collate_cp           004478b0     LIBCMT:nlsdata2.obj
 0003:000038f0       ___lc_time_intl            004478f0     LIBCMT:inittime.obj
 0003:0000390c       ___lc_id                   0044790c     LIBCMT:nlsdata3.obj
 0003:0000395c       ___lconv_static_null       0044795c     LIBCMT:lconv.obj
 0003:0000396c       ?uCachedScrollLines@?1??_AfxGetMouseScrollLines@CScrollView@@QAEIXZ@4IA 0044796c     <common>
 0003:00003970       ?_afxWinState@?1??GetAfxWinState@CPrintingDialog@@SAPAV_AFX_WIN_STATE@@XZ@4V3@A 00447970     <common>
 0003:00003974       ?$S26@?1??_GetAfxPropPageFontInfo@CPropertyPageMTL@@SAAAU_AFX_PROPPAGEFONTINFO@@XZ@4EA 00447974     <common>
 0003:00003978       ?_afxPropPageFontInfo@?1??_GetAfxPropPageFontInfo@CPropertyPageMTL@@SAAAU_AFX_PROPPAGEFONTINFO@@XZ@4U3@A 00447978     <common>
 0003:00003980       ?$S12@?1??_GetAfxData@CAfx@@SAABU_AUX_DATA@@XZ@4EA 00447980     <common>
 0003:000039a0       ?_afxdata@?1??_GetAfxData@CAfx@@SAABU_AUX_DATA@@XZ@4U3@A 004479a0     <common>
 0003:000039d4       ?$S55@?1??_GetCModuleState@CWinApp@@SAPAVCModuleState@@XZ@4EA 004479d4     <common>
 0003:000039e0       ?cModuleState@?1??_GetCModuleState@CWinApp@@SAPAVCModuleState@@XZ@4V3@A 004479e0     <common>
 0003:00003a04       ?m_lastSentMsg@?1??GetLastSentMsg@CCmdTarget@@SAAAPAUtagMSG@@XZ@4PAU3@A 00447a04     <common>
 0003:00003a08       ?$S5@?1??GetCException@CAfx@@SAAAVCException@@H@Z@4EA 00447a08     <common>
 0003:00003a10       ?_simpleInvalidArgException@?1??GetCException@CAfx@@SAAAVCException@@H@Z@4VCInvalidArgException@@A 00447a10     <common>
 0003:00003a18       ?_simpleMemoryException@?1??GetCException@CAfx@@SAAAVCException@@H@Z@4VCMemoryException@@A 00447a18     <common>
 0003:00003a20       ?_simpleNotSupportedException@?1??GetCException@CAfx@@SAAAVCException@@H@Z@4VCNotSupportedException@@A 00447a20     <common>
 0003:00003a28       ?_simpleResourceException@?1??GetCException@CAfx@@SAAAVCException@@H@Z@4VCResourceException@@A 00447a28     <common>
 0003:00003a30       ___mbcodepage              00447a30     <common>
 0003:00003a40       ___mbulinfo                00447a40     <common>
 0003:00003a4c       ___ismbcodepage            00447a4c     <common>
 0003:00003a60       __mbcasemap                00447a60     <common>
 0003:00003b60       __mbctype                  00447b60     <common>
 0003:00003c64       ___mblcid                  00447c64     <common>
 0003:00003c68       ___setlc_active            00447c68     <common>
 0003:00003c6c       ___unguarded_readlc_active 00447c6c     <common>
 0003:00003c70       ___sbh_sizeHeaderList      00447c70     <common>
 0003:00003c74       ___sbh_indGroupDefer       00447c74     <common>
 0003:00003c78       ___sbh_pHeaderScan         00447c78     <common>
 0003:00003c7c       ___sbh_pHeaderDefer        00447c7c     <common>
 0003:00003c80       ___sbh_cntHeaderList       00447c80     <common>
 0003:00003c84       ___sbh_pHeaderList         00447c84     <common>
 0003:00003c88       ___sbh_threshold           00447c88     <common>
 0003:00003c8c       __crtheap                  00447c8c     <common>
 0003:00003c90       ___active_heap             00447c90     <common>
 0003:00003ca0       ___pioinfo                 00447ca0     <common>
 0003:00003da0       __nhandle                  00447da0     <common>
 0003:00003da4       ___env_initialized         00447da4     <common>
 0003:00003da8       ___mbctype_initialized     00447da8     <common>
 0003:00003dac       ___onexitend               00447dac     <common>
 0003:00003db0       ___onexitbegin             00447db0     <common>
 0003:00003db4       __FPinit                   00447db4     <common>
 0003:00003db8       __wcmdln                   00447db8     <common>

 entry point at        0001:00034a1a

 Static symbols

 0001:0002c490       _$E66                      0042d490 f   Stdafx.obj
 0001:0002c4a0       _$E62                      0042d4a0 f   Stdafx.obj
 0001:0002c4c0       _$E65                      0042d4c0 f   Stdafx.obj
 0001:0002c4d0       _$E63                      0042d4d0 f   Stdafx.obj
 0001:0002c500       _$E71                      0042d500 f   Stdafx.obj
 0001:0002c510       _$E68                      0042d510 f   Stdafx.obj
 0001:0002c530       _$E70                      0042d530 f   Stdafx.obj
 0001:0002c540       _$E69                      0042d540 f   Stdafx.obj
 0001:0002c570       _$E76                      0042d570 f   Stdafx.obj
 0001:0002c580       _$E73                      0042d580 f   Stdafx.obj
 0001:0002c5a0       _$E75                      0042d5a0 f   Stdafx.obj
 0001:0002c5b0       _$E74                      0042d5b0 f   Stdafx.obj
 0001:0002c5e0       _$E81                      0042d5e0 f   Stdafx.obj
 0001:0002c5f0       _$E78                      0042d5f0 f   Stdafx.obj
 0001:0002c610       _$E80                      0042d610 f   Stdafx.obj
 0001:0002c620       _$E79                      0042d620 f   Stdafx.obj
 0001:0002c650       _$E84                      0042d650 f   Stdafx.obj
 0001:0002c660       _$E83                      0042d660 f   Stdafx.obj
 0001:000278a0       ?_AtlCreateDC@WTL@@YAPAUHDC__@@PAX0@Z 004288a0 f   Shapesvw.obj
 0001:00025f40       _$E64                      00426f40 f   Shapeobj.obj
 0001:00025f50       _$E63                      00426f50 f   Shapeobj.obj
 0001:00014c30       _$E71                      00415c30 f   Propdlg.obj
 0001:00014c40       _$E68                      00415c40 f   Propdlg.obj
 0001:00014c50       _$E70                      00415c50 f   Propdlg.obj
 0001:00014c60       _$E69                      00415c60 f   Propdlg.obj
 0001:0003b0e2       _findenv                   0043c0e2 f   LIBCMT:setenv.obj
 0001:0003b13a       _copy_environ              0043c13a f   LIBCMT:setenv.obj
 0001:0003ad14       _getSystemCP               0043bd14 f   LIBCMT:mbctype.obj
 0001:0003ad5e       _CPtoLCID                  0043bd5e f   LIBCMT:mbctype.obj
 0001:0003ad91       _setSBCS                   0043bd91 f   LIBCMT:mbctype.obj
 0001:0003adba       _setSBUpLow                0043bdba f   LIBCMT:mbctype.obj
 0001:0003a776       _strncnt                   0043b776 f   LIBCMT:a_map.obj
 0001:0003a776       _strncnt                   0043b776 f   LIBCMT:a_map.obj
 0001:0003a468       _siglookup                 0043b468 f   LIBCMT:winsig.obj
 0001:000399a2       _strtoxl                   0043a9a2 f   LIBCMT:strtol.obj
 0001:0003932d       __tzset_lk                 0043a32d f   LIBCMT:tzset.obj
 0001:000395d5       __isindst_lk               0043a5d5 f   LIBCMT:tzset.obj
 0001:00039781       _cvtdate                   0043a781 f   LIBCMT:tzset.obj
 0001:00038dd0       LeadUp1                    00439dd0 f   LIBCMT:memcpy.obj
 0001:00038dfc       LeadUp2                    00439dfc f   LIBCMT:memcpy.obj
 0001:00038e20       LeadUp3                    00439e20 f   LIBCMT:memcpy.obj
 0001:00038e9f       UnwindUp0                  00439e9f f   LIBCMT:memcpy.obj
 0001:00038e8c       UnwindUp1                  00439e8c f   LIBCMT:memcpy.obj
 0001:00038e84       UnwindUp2                  00439e84 f   LIBCMT:memcpy.obj
 0001:00038e7c       UnwindUp3                  00439e7c f   LIBCMT:memcpy.obj
 0001:00038e74       UnwindUp4                  00439e74 f   LIBCMT:memcpy.obj
 0001:00038e6c       UnwindUp5                  00439e6c f   LIBCMT:memcpy.obj
 0001:00038e64       UnwindUp6                  00439e64 f   LIBCMT:memcpy.obj
 0001:00038e5c       UnwindUp7                  00439e5c f   LIBCMT:memcpy.obj
 0001:00038eb8       TrailUp0                   00439eb8 f   LIBCMT:memcpy.obj
 0001:00038ec0       TrailUp1                   00439ec0 f   LIBCMT:memcpy.obj
 0001:00038ecc       TrailUp2                   00439ecc f   LIBCMT:memcpy.obj
 0001:00038ee0       TrailUp3                   00439ee0 f   LIBCMT:memcpy.obj
 0001:00038f58       LeadDown1                  00439f58 f   LIBCMT:memcpy.obj
 0001:00038f78       LeadDown2                  00439f78 f   LIBCMT:memcpy.obj
 0001:00038fa0       LeadDown3                  00439fa0 f   LIBCMT:memcpy.obj
 0001:00038ff4       UnwindDown7                00439ff4 f   LIBCMT:memcpy.obj
 0001:00038ffc       UnwindDown6                00439ffc f   LIBCMT:memcpy.obj
 0001:00039004       UnwindDown5                0043a004 f   LIBCMT:memcpy.obj
 0001:0003900c       UnwindDown4                0043a00c f   LIBCMT:memcpy.obj
 0001:00039014       UnwindDown3                0043a014 f   LIBCMT:memcpy.obj
 0001:0003901c       UnwindDown2                0043a01c f   LIBCMT:memcpy.obj
 0001:00039024       UnwindDown1                0043a024 f   LIBCMT:memcpy.obj
 0001:00039037       UnwindDown0                0043a037 f   LIBCMT:memcpy.obj
 0001:00039050       TrailDown0                 0043a050 f   LIBCMT:memcpy.obj
 0001:00039058       TrailDown1                 0043a058 f   LIBCMT:memcpy.obj
 0001:00039068       TrailDown2                 0043a068 f   LIBCMT:memcpy.obj
 0001:0003907c       TrailDown3                 0043a07c f   LIBCMT:memcpy.obj
 0001:0003831e       ?FindHandler@@YAXPAUEHExceptionRecord@@PAUEHRegistrationNode@@PAU_CONTEXT@@PAXPBU_s_FuncInfo@@EH1@Z 0043931e f   LIBCMT:frame.obj
 0001:000384d1       ?FindHandlerForForeignException@@YAXPAUEHExceptionRecord@@PAUEHRegistrationNode@@PAU_CONTEXT@@PAXPBU_s_FuncInfo@@HH1@Z 004394d1 f   LIBCMT:frame.obj
 0001:0003857b       ?TypeMatch@@YAHPBU_s_HandlerType@@PBU_s_CatchableType@@PBU_s_ThrowInfo@@@Z 0043957b f   LIBCMT:frame.obj
 0001:00038676       ?FrameUnwindFilter@@YAHPAU_EXCEPTION_POINTERS@@@Z 00439676 f   LIBCMT:frame.obj
 0001:0003868c       ?CatchIt@@YAXPAUEHExceptionRecord@@PAUEHRegistrationNode@@PAU_CONTEXT@@PAXPBU_s_FuncInfo@@PBU_s_HandlerType@@PBU_s_CatchableType@@PBU_s_TryBlockMapEntry@@H1E@Z 0043968c f   LIBCMT:frame.obj
 0001:00038707       ?CallCatchBlock@@YAPAXPAUEHExceptionRecord@@PAUEHRegistrationNode@@PAU_CONTEXT@@PBU_s_FuncInfo@@PAXHK@Z 00439707 f   LIBCMT:frame.obj
 0001:00038822       ?ExFilterRethrow@@YAHPAU_EXCEPTION_POINTERS@@@Z 00439822 f   LIBCMT:frame.obj
 0001:0003884c       ?BuildCatchObject@@YAXPAUEHExceptionRecord@@PAUEHRegistrationNode@@PBU_s_HandlerType@@PBU_s_CatchableType@@@Z 0043984c f   LIBCMT:frame.obj
 0001:00038a77       ?AdjustPointer@@YAPAXPAXABUPMD@@@Z 00439a77 f   LIBCMT:frame.obj
 0001:000364b5       _wparse_cmdline            004374b5 f   LIBCMT:wstdargv.obj
 0001:000362ef       _xcptlookup                004372ef f   LIBCMT:winxfltr.obj
 0001:00035e4c       __make_time_t              00436e4c f   LIBCMT:mktime.obj
 0001:000358c4       _doexit                    004368c4 f   LIBCMT:crt0dat.obj
 0001:0003597b       __initterm                 0043697b f   LIBCMT:crt0dat.obj
 0001:000355b0       LeadUp1                    004365b0 f   LIBCMT:memmove.obj
 0001:000355dc       LeadUp2                    004365dc f   LIBCMT:memmove.obj
 0001:00035600       LeadUp3                    00436600 f   LIBCMT:memmove.obj
 0001:0003567f       UnwindUp0                  0043667f f   LIBCMT:memmove.obj
 0001:0003566c       UnwindUp1                  0043666c f   LIBCMT:memmove.obj
 0001:00035664       UnwindUp2                  00436664 f   LIBCMT:memmove.obj
 0001:0003565c       UnwindUp3                  0043665c f   LIBCMT:memmove.obj
 0001:00035654       UnwindUp4                  00436654 f   LIBCMT:memmove.obj
 0001:0003564c       UnwindUp5                  0043664c f   LIBCMT:memmove.obj
 0001:00035644       UnwindUp6                  00436644 f   LIBCMT:memmove.obj
 0001:0003563c       UnwindUp7                  0043663c f   LIBCMT:memmove.obj
 0001:00035698       TrailUp0                   00436698 f   LIBCMT:memmove.obj
 0001:000356a0       TrailUp1                   004366a0 f   LIBCMT:memmove.obj
 0001:000356ac       TrailUp2                   004366ac f   LIBCMT:memmove.obj
 0001:000356c0       TrailUp3                   004366c0 f   LIBCMT:memmove.obj
 0001:00035738       LeadDown1                  00436738 f   LIBCMT:memmove.obj
 0001:00035758       LeadDown2                  00436758 f   LIBCMT:memmove.obj
 0001:00035780       LeadDown3                  00436780 f   LIBCMT:memmove.obj
 0001:000357d4       UnwindDown7                004367d4 f   LIBCMT:memmove.obj
 0001:000357dc       UnwindDown6                004367dc f   LIBCMT:memmove.obj
 0001:000357e4       UnwindDown5                004367e4 f   LIBCMT:memmove.obj
 0001:000357ec       UnwindDown4                004367ec f   LIBCMT:memmove.obj
 0001:000357f4       UnwindDown3                004367f4 f   LIBCMT:memmove.obj
 0001:000357fc       UnwindDown2                004367fc f   LIBCMT:memmove.obj
 0001:00035804       UnwindDown1                00436804 f   LIBCMT:memmove.obj
 0001:00035817       UnwindDown0                00436817 f   LIBCMT:memmove.obj
 0001:00035830       TrailDown0                 00436830 f   LIBCMT:memmove.obj
 0001:00035838       TrailDown1                 00436838 f   LIBCMT:memmove.obj
 0001:00035848       TrailDown2                 00436848 f   LIBCMT:memmove.obj
 0001:0003585c       TrailDown3                 0043685c f   LIBCMT:memmove.obj
 0001:00038676       ?ArrayUnwindFilter@@YAHPAU_EXCEPTION_POINTERS@@@Z 00439676 f   LIBCMT:frame.obj
 0001:00034fe8       _gu_return                 00435fe8 f   LIBCMT:exsup.obj
 0001:00034ff0       __unwind_handler           00435ff0 f   LIBCMT:exsup.obj
 0001:00034e04       ?CatchGuardHandler@@YA?AW4_EXCEPTION_DISPOSITION@@PAUEHExceptionRecord@@PAUCatchGuardRN@@PAX2@Z 00435e04 f   LIBCMT:trnsctrl.obj
 0001:00034edf       ?TranslatorGuardHandler@@YA?AW4_EXCEPTION_DISPOSITION@@PAUEHExceptionRecord@@PAUTranslatorGuardRN@@PAX2@Z 00435edf f   LIBCMT:trnsctrl.obj
 0001:00034b46       _fast_error_exit           00435b46 f   LIBCMT:wwincrt0.obj

 5111 bytes saved through ICF

